# file opened: exact_current_wrapper.ASM
   1  0000              ; Временные совместимые имена для текущей модульной сборки WildDOS.
   2  0000              LC000   EQU #C000
   3  0000              LC069_5 EQU #C0D9
   4  0000
   5  0000                      INCLUDE "../../source/BOOT_DISASM.ASM"
# file opened: BOOT_DISASM.ASM
   1+ 0000              ; Wild Commander v1.10 — побайтно точный аннотированный дизассемблированный код.
   2+ 0000              ; Основание исследования — локальный эталон exe/boot.$C, а не исходники репозитория.
   3+ 0000              ; Границы кода и данных проверяются по эталонному образу; пока назначение области
   4+ 0000              ; не доказано, её байты сохраняются явно, без выдуманных названий и трактовок.
   5+ 0000              ;
   6+ 0000              ; Состав файла и основные точки входа:
   7+ 0000              ;   #6011 WC_ENTRY       — запуск коммандера и установка WildDOS;
   8+ 0000              ;   #6049 WC_MAIN_LOOP   — кадровый диспетчер клавиатуры и команд панелей;
   9+ 0000              ;   #6715 I_N_T          — обработчик IM2;
  10+ 0000              ;   #7143 TAB4E          — начало подсистемы PS/2 и строкового ввода;
  11+ 0000              ;   #7828 PBINIT         — интерфейс окон и индикатора прогресса;
  12+ 0000              ;   #8531 F36            — файловые операции и команды функциональных клавиш;
  13+ 0000              ;   #9149 NXTFL          — просмотрщики, запуск форматов и плагины;
  14+ 0000              ;   #9B7C F9STP          — настройка и обработка wc.ini;
  15+ 0000              ;   #C000 WDOS.LC000     — физический загрузчик WildDOS;
  16+ 0000              ;   #5AAA DEHRUST        — рабочий адрес распаковщика драйверов после копирования.
  17+ 0000              ; Сборка: SJASMPlus 1.21. Ожидаемый SHA-256 полезной нагрузки:
  18+ 0000              ; 270e0e11f48c5a3daec341cd74317b4216c66f74e3bbae185c469d1d1ccccbc6
  19+ 0000
  20+ 0000                      ORG #6011
  21+ 6011
  22+ 6011              ; Модули разделены по назначению и порядку включения оригинальных исходников.
  23+ 6011              ; ASSERT немедленно останавливает сборку при смещении любой доказанной границы.
  24+ 6011
  25+ 6011                      INCLUDE "MD20_DISASM.ASM"
# file opened: MD20_DISASM.ASM
   1++6011              ; MD20 — запуск, главный диспетчер и общие процедуры Wild Commander.
   2++6011              ; Exact-диапазон: #6011..#7142.
   3++6011              ; Основные процедуры:
   4++6011              ;   #6011 WC_ENTRY — одноразовая точка входа и последовательность инициализации;
   5++6011              ;   #6049 MAIN     — кадровый цикл и диспетчер клавиш;
   6++6011              ;   #6107 ENTR     — открыть текущий файл либо войти в каталог;
   7++6011              ;   #611C BENT     — перейти по записи «..» в родительский каталог;
   8++6011              ;   #6149 Xpan     — служебно выбрать противоположную панель;
   9++6011              ;   #6160 XPAN     — пользовательское переключение панелей по Tab;
  10++6011              ;   #62EB PANELI   — сброс вычисляемого состояния панели;
  11++6011              ;   #62FE GETEN    — получить запись под курсором;
  12++6011              ;   #63FE FOLDER   — перестроить содержимое текущей панели;
  13++6011              ;   #6407 NEWDIR   — перечислить каталог через WildDOS и построить индекс;
  14++6011              ;   #65BB WLIT     — перерисовать видимую часть панели;
  15++6011              ;   #6715 I_N_T    — обработчик IM2: таймер, видео, PS/2 и часы;
  16++6011              ;   #6868 DRACT    — активировать драйвер выбранной панели;
  17++6011              ;   #6A44 INIT     — начальная настройка TS-Conf, CMOS/PS2 и частоты;
  18++6011              ;   #6BED DEF      — применить параметры CPU/AY и кэша.
  19++6011              ; Точка входа полезной нагрузки. Два NOP присутствуют в эталонном образе;
  20++6011              ; их назначение пока не доказано, поэтому они сохранены без интерпретации.
  21++6011              WC_ENTRY:
  22++6011              L6011:
  23++6011 F3             DI
  24++6012 00             NOP
  25++6013 31 FE 5F       LD SP,#5FFE             ; Стек расположен непосредственно перед кодом по #6011.
  26++6016 00             NOP
  27++6017 CD 44 6A       CALL INIT               ; Начальная настройка видео, CMOS/PS2 и частоты CPU.
  28++601A CD 00 C0       CALL WDOS.LC000         ; Установить WildDOS: скопировать рабочую часть к #4000.
  29++601D
  30++601D              ; Таблица IM2 занимает четыре байта #5BFF..#5C02. При векторе #FF процессор
  31++601D              ; получает адрес #6715 — обработчик I_N_T. Байты FB C9 образуют EI/RET.
  32++601D F3             DI
  33++601E 21 15 67       LD HL,#6715             ; Точный адрес обработчика I_N_T этой версии.
  34++6021 22 FF 5B       LD (#5BFF),HL
  35++6024 21 FB C9       LD HL,#C9FB             ; Машинный код EI, RET.
  36++6027 22 01 5C       LD (#5C01),HL
  37++602A F3             DI
  38++602B 3E 5B          LD A,#5B
  39++602D ED 47          LD I,A
  40++602F ED 5E          IM 2
  41++6031
  42++6031              ; Последовательность установлена сопоставлением с оригинальными метками.
  43++6031 CD CE A0       CALL FINI               ; Загрузить и разобрать wc.ini, подготовить буферы.
  44++6034 CD E0 A1       CALL GEDZ               ; Выполнить первичное построение интерфейса.
  45++6037 CD ED 6B       CALL DEF                ; Применить параметры CPU/AY и кэша.
  46++603A CD B2 9E       CALL PATH               ; Восстановить каталоги и позиции обеих панелей.
  47++603D CD 49 61       CALL Xpan               ; Временно переключить IX на противоположную панель.
  48++6040 CD 47 87       CALL STATUS             ; Обслужить вторую панель.
  49++6043 CD 49 61       CALL Xpan               ; Вернуть IX к исходной панели.
  50++6046 CD 93 AB       CALL PLresCP            ; Скопировать шлюз вызова резидентных плагинов.
  51++6049
  52++6049              ; Главный цикл синхронизирован с кадровым прерыванием. Процедуры клавиатуры
  53++6049              ; возвращают NZ при срабатывании; следующая команда выполняется условно.
  54++6049              WC_MAIN_LOOP:
  55++6049              MAIN:
  56++6049              L6011_0:
  57++6049 FB             EI
  58++604A 76             HALT
  59++604B CD D5 7C       CALL CURSOR             ; Обновить курсор активной панели.
  60++604E CD CB 74       CALL ALT_KEY
  61++6051 C4 09 88       CALL NZ,F12             ; Действие комбинации с Alt.
  62++6054 20 F3          JR NZ,L6011_0
  63++6056 CD D7 74       CALL CTRL_KEY
  64++6059 C4 31 85       CALL NZ,F36             ; Действие комбинации с Ctrl.
  65++605C 20 EB          JR NZ,L6011_0
  66++605E CD 53 74       CALL UPPP               ; Клавиша вверх.
  67++6061 C4 61 62       CALL NZ,CRUP            ; Переместить курсор вверх.
  68++6064 CD 59 74       CALL DWWW               ; Клавиша вниз.
  69++6067 C4 1C 62       CALL NZ,CRDN            ; Переместить курсор вниз.
  70++606A CD 6B 74       CALL PGU
  71++606D C4 FA 61       CALL NZ,PGSUP           ; Предыдущая страница списка.
  72++6070 CD 71 74       CALL PGD
  73++6073 C4 C9 61       CALL NZ,PGSDN           ; Следующая страница списка.
  74++6076 CD 86 74       CALL HOME_KEY
  75++6079 C4 10 62       CALL NZ,PGSHM           ; Перейти к началу списка.
  76++607C CD 8B 74       CALL END_KEY
  77++607F C4 95 61       CALL NZ,PGSED           ; Перейти к концу списка.
  78++6082 CD 5F 74       CALL LFFF               ; Влево: эквивалент Home для панели.
  79++6085 C4 10 62       CALL NZ,PGSHM
  80++6088 CD 65 74       CALL RGGG               ; Вправо: эквивалент End для панели.
  81++608B C4 95 61       CALL NZ,PGSED
  82++608E CD 90 74       CALL DELE
  83++6091 C4 40 8E       CALL NZ,DelFl           ; Удалить отмеченные объекты.
  84++6094 CD 95 74       CALL INS_KEY
  85++6097 C4 B4 85       CALL NZ,Mark            ; Изменить отметку текущего объекта.
  86++609A CD 81 74       CALL BSPC
  87++609D C4 1C 61       CALL NZ,BENT            ; Перейти в родительский каталог «..».
  88++60A0 CD 47 87       CALL STATUS             ; Обновить строку, только если STUS помечен.
  89++60A3 CD D1 74       CALL SHIFT_KEY
  90++60A6 C4 F9 87       CALL NZ,R2B2            ; Обработать комбинацию с Shift.
  91++60A9 20 9E          JR NZ,L6011_0
  92++60AB CD 9E 74       CALL F1_KEY
  93++60AE C4 AB 88       CALL NZ,HELP
  94++60B1 CD A6 74       CALL F3_KEY
  95++60B4 C4 BA 92       CALL NZ,VIEW
  96++60B7 CD C2 74       CALL F10_KEY
  97++60BA C4 06 99       CALL NZ,F11MENU         ; Меню загруженных плагинов.
  98++60BD CD DC 74       CALL TAB_KEY
  99++60C0 C4 60 61       CALL NZ,XPAN            ; Переключить активную панель.
 100++60C3 CD A2 74       CALL F2_KEY
 101++60C6 C4 FB 90       CALL NZ,F2MENU
 102++60C9 CD AA 74       CALL F4_KEY
 103++60CC C4 00 91       CALL NZ,EDIT
 104++60CF CD AE 74       CALL F5_KEY
 105++60D2 C4 83 89       CALL NZ,COPY
 106++60D5 CD B2 74       CALL F6_KEY
 107++60D8 C4 4D 8D       CALL NZ,Move
 108++60DB CD B6 74       CALL F7_KEY
 109++60DE C4 CB 8C       CALL NZ,MkDir
 110++60E1 CD BA 74       CALL F8_KEY
 111++60E4 C4 40 8E       CALL NZ,DelFl
 112++60E7 CD BE 74       CALL F9_KEY
 113++60EA C4 7C 9B       CALL NZ,F9STP
 114++60ED CD 7C 74       CALL SPKE
 115++60F0 C4 B4 85       CALL NZ,Mark
 116++60F3 CD 65 9B       CALL TMAFK              ; Таймер бездействия и запуск плагина-заставки.
 117++60F6 CD 77 74       CALL ENKE
 118++60F9 C4 07 61       CALL NZ,ENTR            ; Открыть выбранный объект.
 119++60FC CD 2B 74       CALL CLAVA              ; Получить введённый символ.
 120++60FF FE 2A          CP #2A                  ; Символ «*» включает групповую отметку.
 121++6101 CC 75 85       CALL Z,MarkMUL
 122++6104 C3 49 60       JP L6011_0
 123++6107              ENTR:
 124++6107              L6011_1:
 125++6107 CD FE 62       CALL L6011_33
 126++610A 08             EX AF,AF'
 127++610B 7C             LD A,H
 128++610C B5             OR L
 129++610D C8             RET Z
 130++610E 08             EX AF,AF'
 131++610F C2 C9 92       JP NZ,L9149_21
 132++6112 13             INC DE
 133++6113 CD 0B A0       CALL L9B7C_52
 134++6116 CD F2 7C       CALL L7828_69
 135++6119 C3 FE 63       JP L6011_48
 136++611C              BENT:
 137++611C              L6011_2:
 138++611C 21 00 00       LD HL,#0000
 139++611F CD 0B 63       CALL L6011_34
 140++6122 C0             RET NZ
 141++6123 7C             LD A,H
 142++6124 B5             OR L
 143++6125 C8             RET Z
 144++6126 06 02          LD B,#02
 145++6128              L6011_3:
 146++6128 13             INC DE
 147++6129 1A             LD A,(DE)
 148++612A FE 2E          CP #2E
 149++612C C0             RET NZ
 150++612D 10 F9          DJNZ L6011_3
 151++612F 13             INC DE
 152++6130 1A             LD A,(DE)
 153++6131 B7             OR A
 154++6132 C0             RET NZ
 155++6133 1B             DEC DE
 156++6134 1B             DEC DE
 157++6135 CD 0B A0       CALL L9B7C_52
 158++6138 CD F2 7C       CALL L7828_69
 159++613B AF             XOR A
 160++613C DD 36 0C 01    LD (IX+#0C),#01
 161++6140 DD 77 10       LD (IX+#10),A
 162++6143 DD 77 11       LD (IX+#11),A
 163++6146 C3 FE 63       JP L6011_48
 164++6149              Xpan:
 165++6149              L6011_4:
 166++6149 3E 01          LD A,#01
 167++614B 32 43 7F       LD (#7F43),A
 168++614E DD E5          PUSH IX
 169++6150 E1             POP HL
 170++6151 11 C4 7E       LD DE,#7EC4
 171++6154 B7             OR A
 172++6155 ED 52          SBC HL,DE
 173++6157 DD 21 A0 7E    LD IX,WINDOW
 174++615B C8             RET Z
 175++615C D5             PUSH DE
 176++615D DD E1          POP IX
 177++615F C9             RET
 178++6160              XPAN:
 179++6160              L6011_5:
 180++6160 DD E5          PUSH IX
 181++6162 E1             POP HL
 182++6163 11 C4 7E       LD DE,#7EC4
 183++6166 B7             OR A
 184++6167 ED 52          SBC HL,DE
 185++6169 28 15          JR Z,L6011_6
 186++616B CD F2 7C       CALL L7828_69
 187++616E CD D2 68       CALL L6011_116
 188++6171 3E 42          LD A,#42
 189++6173 32 FC DF       LD (#DFFC),A
 190++6176 DD 21 C4 7E    LD IX,#7EC4
 191++617A CD 68 68       CALL L6011_104
 192++617D C3 6E 62       JP L6011_23
 193++6180              L6011_6:
 194++6180 CD F2 7C       CALL L7828_69
 195++6183 CD D2 68       CALL L6011_116
 196++6186 3E 41          LD A,#41
 197++6188 32 FC DF       LD (#DFFC),A
 198++618B DD 21 A0 7E    LD IX,WINDOW
 199++618F CD 68 68       CALL L6011_104
 200++6192 C3 6E 62       JP L6011_23
 201++6195              PGSED:
 202++6195              L6011_7:
 203++6195 CD F2 7C       CALL L7828_69
 204++6198 DD 7E 14       LD A,(IX+#14)
 205++619B B7             OR A
 206++619C 20 4F          JR NZ,L6011_10
 207++619E DD 6E 10       LD L,(IX+#10)
 208++61A1 DD 66 11       LD H,(IX+#11)
 209++61A4              L6011_8:
 210++61A4 E5             PUSH HL
 211++61A5 CD 4F 63       CALL L6011_36
 212++61A8 E1             POP HL
 213++61A9 23             INC HL
 214++61AA 20 F8          JR NZ,L6011_8
 215++61AC DD 7E 05       LD A,(IX+#05)
 216++61AF D6 01          SUB #01
 217++61B1 DD 96 0A       SUB (IX+#0A)
 218++61B4 06 00          LD B,#00
 219++61B6 4F             LD C,A
 220++61B7 B7             OR A
 221++61B8 ED 42          SBC HL,BC
 222++61BA 7C             LD A,H
 223++61BB FE FF          CP #FF
 224++61BD D0             RET NC
 225++61BE DD 75 10       LD (IX+#10),L
 226++61C1 DD 74 11       LD (IX+#11),H
 227++61C4 CD BB 65       CALL L6011_78
 228++61C7 18 24          JR L6011_10
 229++61C9              PGSDN:
 230++61C9              L6011_9:
 231++61C9 CD F2 7C       CALL L7828_69
 232++61CC DD 7E 14       LD A,(IX+#14)
 233++61CF B7             OR A
 234++61D0 20 1B          JR NZ,L6011_10
 235++61D2 DD 7E 05       LD A,(IX+#05)
 236++61D5 D6 02          SUB #02
 237++61D7 DD 96 0A       SUB (IX+#0A)
 238++61DA 4F             LD C,A
 239++61DB 06 00          LD B,#00
 240++61DD DD 6E 10       LD L,(IX+#10)
 241++61E0 DD 66 11       LD H,(IX+#11)
 242++61E3 09             ADD HL,BC
 243++61E4 DD 75 10       LD (IX+#10),L
 244++61E7 DD 74 11       LD (IX+#11),H
 245++61EA CD BB 65       CALL L6011_78
 246++61ED              L6011_10:
 247++61ED CD 44 62       CALL L6011_18
 248++61F0 C3 6E 62       JP L6011_23
 249++61F3              L6011_11:
 250++61F3 E5             PUSH HL
 251++61F4 CD F2 7C       CALL L7828_69
 252++61F7 E1             POP HL
 253++61F8 18 3E          JR L6011_17
 254++61FA              PGSUP:
 255++61FA              L6011_12:
 256++61FA DD 7E 05       LD A,(IX+#05)
 257++61FD D6 02          SUB #02
 258++61FF DD 96 0A       SUB (IX+#0A)
 259++6202 4F             LD C,A
 260++6203 06 00          LD B,#00
 261++6205 DD 6E 10       LD L,(IX+#10)
 262++6208 DD 66 11       LD H,(IX+#11)
 263++620B B7             OR A
 264++620C ED 42          SBC HL,BC
 265++620E 30 E3          JR NC,L6011_11
 266++6210              PGSHM:
 267++6210              L6011_13:
 268++6210 CD F2 7C       CALL L7828_69
 269++6213 21 00 00       LD HL,#0000
 270++6216 DD 36 0C 01    LD (IX+#0C),#01
 271++621A 18 1C          JR L6011_17
 272++621C              CRDN:
 273++621C              L6011_14:
 274++621C DD 7E 0C       LD A,(IX+#0C)
 275++621F DD BE 0D       CP (IX+#0D)
 276++6222 30 08          JR NC,L6011_16
 277++6224              L6011_15:
 278++6224 CD F2 7C       CALL L7828_69
 279++6227 DD 34 0C       INC (IX+#0C)
 280++622A 18 42          JR L6011_23
 281++622C              L6011_16:
 282++622C DD 7E 14       LD A,(IX+#14)
 283++622F B7             OR A
 284++6230 C0             RET NZ
 285++6231 DD 6E 10       LD L,(IX+#10)
 286++6234 DD 66 11       LD H,(IX+#11)
 287++6237 23             INC HL
 288++6238              L6011_17:
 289++6238 DD 75 10       LD (IX+#10),L
 290++623B DD 74 11       LD (IX+#11),H
 291++623E CD BB 65       CALL L6011_78
 292++6241 C3 D5 7C       JP L7828_67
 293++6244              L6011_18:
 294++6244 DD 7E 14       LD A,(IX+#14)
 295++6247 B7             OR A
 296++6248 C8             RET Z
 297++6249 DD 7E 0D       LD A,(IX+#0D)
 298++624C B7             OR A
 299++624D C8             RET Z
 300++624E DD 77 0C       LD (IX+#0C),A
 301++6251 C9             RET
 302++6252              L6011_19:
 303++6252 DD 7E 0D       LD A,(IX+#0D)
 304++6255 B7             OR A
 305++6256 20 01          JR NZ,L6011_20
 306++6258 3C             INC A
 307++6259              L6011_20:
 308++6259 DD BE 0C       CP (IX+#0C)
 309++625C D0             RET NC
 310++625D DD 77 0C       LD (IX+#0C),A
 311++6260 C9             RET
 312++6261              CRUP:
 313++6261              L6011_21:
 314++6261 DD 7E 0C       LD A,(IX+#0C)
 315++6264 FE 01          CP #01
 316++6266 28 0F          JR Z,L6011_24
 317++6268              L6011_22:
 318++6268 CD F2 7C       CALL L7828_69
 319++626B DD 35 0C       DEC (IX+#0C)
 320++626E              L6011_23:
 321++626E CD D5 7C       CALL L7828_67
 322++6271 3E 01          LD A,#01
 323++6273 32 43 7F       LD (#7F43),A
 324++6276 C9             RET
 325++6277              L6011_24:
 326++6277 DD 7E 15       LD A,(IX+#15)
 327++627A B7             OR A
 328++627B C0             RET NZ
 329++627C DD 6E 10       LD L,(IX+#10)
 330++627F DD 66 11       LD H,(IX+#11)
 331++6282 2B             DEC HL
 332++6283 18 B3          JR L6011_17
 333++6285              L6011_25:
 334++6285 DD 7E 0C       LD A,(IX+#0C)
 335++6288 DD BE 0D       CP (IX+#0D)
 336++628B D0             RET NC
 337++628C 18 96          JR L6011_15
 338++628E              L6011_26:
 339++628E DD 7E 0C       LD A,(IX+#0C)
 340++6291 FE 01          CP #01
 341++6293 C8             RET Z
 342++6294 18 D2          JR L6011_22
 343++6296              L6011_27:
 344++6296 CD F2 7C       CALL L7828_69
 345++6299 DD 36 0C 01    LD (IX+#0C),#01
 346++629D 18 CF          JR L6011_23
 347++629F              L6011_28:
 348++629F CD F2 7C       CALL L7828_69
 349++62A2 DD 7E 0D       LD A,(IX+#0D)
 350++62A5 DD 77 0C       LD (IX+#0C),A
 351++62A8 18 C4          JR L6011_23
 352++62AA              L6011_29:
 353++62AA DD 6E 12       LD L,(IX+#12)
 354++62AD DD 66 13       LD H,(IX+#13)
 355++62B0 DD 7E 11       LD A,(IX+#11)
 356++62B3 BC             CP H
 357++62B4 D8             RET C
 358++62B5 DD 7E 10       LD A,(IX+#10)
 359++62B8 BD             CP L
 360++62B9 D8             RET C
 361++62BA DD 7E 05       LD A,(IX+#05)
 362++62BD D6 02          SUB #02
 363++62BF DD 96 0A       SUB (IX+#0A)
 364++62C2 06 00          LD B,#00
 365++62C4 4F             LD C,A
 366++62C5 B7             OR A
 367++62C6 ED 42          SBC HL,BC
 368++62C8 30 03          JR NC,L6011_30
 369++62CA 21 00 00       LD HL,#0000
 370++62CD              L6011_30:
 371++62CD DD 75 10       LD (IX+#10),L
 372++62D0 DD 74 11       LD (IX+#11),H
 373++62D3 C9             RET
 374++62D4              L6011_31:
 375++62D4 CD EB 62       CALL L6011_32
 376++62D7 DD 77 17       LD (IX+#17),A
 377++62DA DD 77 18       LD (IX+#18),A
 378++62DD DD 36 0C 01    LD (IX+#0C),#01
 379++62E1 DD 77 10       LD (IX+#10),A
 380++62E4 DD 77 11       LD (IX+#11),A
 381++62E7 DD 77 1A       LD (IX+#1A),A
 382++62EA C9             RET
 383++62EB              PANELI:
 384++62EB              L6011_32:
 385++62EB 3E 01          LD A,#01
 386++62ED 32 43 7F       LD (#7F43),A
 387++62F0 AF             XOR A
 388++62F1 DD 77 0D       LD (IX+#0D),A
 389++62F4 DD 77 0F       LD (IX+#0F),A
 390++62F7 DD 77 14       LD (IX+#14),A
 391++62FA DD 77 15       LD (IX+#15),A
 392++62FD C9             RET
 393++62FE              GETEN:
 394++62FE              L6011_33:
 395++62FE 06 00          LD B,#00
 396++6300 DD 4E 0C       LD C,(IX+#0C)
 397++6303 0D             DEC C
 398++6304 DD 6E 10       LD L,(IX+#10)
 399++6307 DD 66 11       LD H,(IX+#11)
 400++630A 09             ADD HL,BC
 401++630B              GETen:
 402++630B              L6011_34:
 403++630B CD 36 63       CALL L6011_35
 404++630E E5             PUSH HL
 405++630F 23             INC HL
 406++6310 23             INC HL
 407++6311 23             INC HL
 408++6312 23             INC HL
 409++6313 11 28 7F       LD DE,#7F28
 410++6316 01 08 00       LD BC,#0008
 411++6319 ED B0          LDIR
 412++631B 0E 04          LD C,#04
 413++631D 09             ADD HL,BC
 414++631E 11 6B 7F       LD DE,#7F6B
 415++6321 CD 06 65       CALL L6011_60
 416++6324 AF             XOR A
 417++6325 12             LD (DE),A
 418++6326 E1             POP HL
 419++6327 E5             PUSH HL
 420++6328 0E 10          LD C,#10
 421++632A 09             ADD HL,BC
 422++632B EB             EX DE,HL
 423++632C E1             POP HL
 424++632D 1A             LD A,(DE)
 425++632E B7             OR A
 426++632F C9             RET
 427++6330 DD 6E 10       LD L,(IX+#10)
 428++6333 DD 66 11       LD H,(IX+#11)
 429++6336              L6011_35:
 430++6336 29             ADD HL,HL
 431++6337 29             ADD HL,HL
 432++6338 01 00 C0       LD BC,LC000
 433++633B 09             ADD HL,BC
 434++633C CD DE 68       CALL L6011_118
 435++633F 7E             LD A,(HL)
 436++6340 2C             INC L
 437++6341 DD 77 1A       LD (IX+#1A),A
 438++6344 4E             LD C,(HL)
 439++6345 2C             INC L
 440++6346 46             LD B,(HL)
 441++6347 2C             INC L
 442++6348 7E             LD A,(HL)
 443++6349 60             LD H,B
 444++634A 69             LD L,C
 445++634B 4F             LD C,A
 446++634C C3 E6 68       JP L6011_119
 447++634F              L6011_36:
 448++634F CD 36 63       CALL L6011_35
 449++6352 7C             LD A,H
 450++6353 B5             OR L
 451++6354 C9             RET
 452++6355              L6011_37:
 453++6355 DD 7E 16       LD A,(IX+#16)
 454++6358 B7             OR A
 455++6359 C8             RET Z
 456++635A CD C1 68       CALL L6011_114
 457++635D 11 00 C0       LD DE,LC000
 458++6360 DD 4E 10       LD C,(IX+#10)
 459++6363 DD 46 11       LD B,(IX+#11)
 460++6366 DD 6E 17       LD L,(IX+#17)
 461++6369 DD 66 18       LD H,(IX+#18)
 462++636C DD 7E 0C       LD A,(IX+#0C)
 463++636F 3D             DEC A
 464++6370 28 23          JR Z,L6011_40
 465++6372              L6011_38:
 466++6372 DD 7E 0C       LD A,(IX+#0C)
 467++6375 19             ADD HL,DE
 468++6376 71             LD (HL),C
 469++6377 23             INC HL
 470++6378 70             LD (HL),B
 471++6379 23             INC HL
 472++637A 77             LD (HL),A
 473++637B 23             INC HL
 474++637C 36 00          LD (HL),#00
 475++637E 23             INC HL
 476++637F DD 36 0C 01    LD (IX+#0C),#01
 477++6383 DD 36 10 00    LD (IX+#10),#00
 478++6387 DD 36 11 00    LD (IX+#11),#00
 479++638B              L6011_39:
 480++638B B7             OR A
 481++638C ED 52          SBC HL,DE
 482++638E DD 75 17       LD (IX+#17),L
 483++6391 DD 74 18       LD (IX+#18),H
 484++6394 C9             RET
 485++6395              L6011_40:
 486++6395 78             LD A,B
 487++6396 B1             OR C
 488++6397 20 D9          JR NZ,L6011_38
 489++6399 7D             LD A,L
 490++639A B4             OR H
 491++639B 28 D5          JR Z,L6011_38
 492++639D 19             ADD HL,DE
 493++639E 2B             DEC HL
 494++639F 2B             DEC HL
 495++63A0 7E             LD A,(HL)
 496++63A1 DD 77 0C       LD (IX+#0C),A
 497++63A4 2B             DEC HL
 498++63A5 7E             LD A,(HL)
 499++63A6 DD 77 11       LD (IX+#11),A
 500++63A9 2B             DEC HL
 501++63AA 7E             LD A,(HL)
 502++63AB DD 77 10       LD (IX+#10),A
 503++63AE 18 DB          JR L6011_39
 504++63B0              L6011_41:
 505++63B0 21 D3 81       LD HL,#81D3
 506++63B3              L6011_42:
 507++63B3 CD DE 90       CALL L8531_149
 508++63B6 DD E5          PUSH IX
 509++63B8 E1             POP HL
 510++63B9 CD 3F 88       CALL L8531_36
 511++63BC DD 77 1D       LD (IX+#1D),A
 512++63BF DD 36 1C 00    LD (IX+#1C),#00
 513++63C3 CD 68 68       CALL L6011_104
 514++63C6 18 10          JR L6011_45
 515++63C8              L6011_43:
 516++63C8 21 E6 81       LD HL,#81E6
 517++63CB 18 E6          JR L6011_42
 518++63CD              L6011_44:
 519++63CD 3A 0E 60       LD A,(#600E)
 520++63D0 D6 01          SUB #01
 521++63D2 DD 77 05       LD (IX+#05),A
 522++63D5 CD 2C 79       CALL #792C
 523++63D8              L6011_45:
 524++63D8 CD 03 40       CALL #4003
 525++63DB 20 D3          JR NZ,L6011_41
 526++63DD CD 09 40       CALL #4009
 527++63E0 20 E6          JR NZ,L6011_43
 528++63E2 21 28 7F       LD HL,#7F28
 529++63E5 06 04          LD B,#04
 530++63E7 CD 99 69       CALL L6011_129
 531++63EA C3 D4 62       JP L6011_31
 532++63ED              L6011_46:
 533++63ED CD CD 63       CALL L6011_44
 534++63F0              FOLD:
 535++63F0              L6011_47:
 536++63F0 CD 07 64       CALL L6011_49
 537++63F3 CD AA 62       CALL L6011_29
 538++63F6 CD BB 65       CALL L6011_78
 539++63F9 CD 52 62       CALL L6011_19
 540++63FC AF             XOR A
 541++63FD C9             RET
 542++63FE              FOLDER:
 543++63FE              L6011_48:
 544++63FE CD EB 62       CALL L6011_32
 545++6401 CD 55 63       CALL L6011_37
 546++6404 C3 F0 63       JP L6011_47
 547++6407              NEWDIR:
 548++6407              L6011_49:
 549++6407 CD 8C A0       CALL L9B7C_63
 550++640A 21 28 7F       LD HL,#7F28
 551++640D CD 1E 40       CALL #401E
 552++6410 AF             XOR A
 553++6411 DD 77 12       LD (IX+#12),A
 554++6414 DD 77 13       LD (IX+#13),A
 555++6417 3C             INC A
 556++6418 DD 77 1A       LD (IX+#1A),A
 557++641B CD E6 68       CALL L6011_119
 558++641E CD F1 68       CALL L6011_120
 559++6421 AF             XOR A
 560++6422 32 11 C0       LD (#C011),A
 561++6425 11 00 C0       LD DE,LC000
 562++6428 D5             PUSH DE
 563++6429 CD 5F 65       CALL L6011_71
 564++642C CD 57 40       CALL #4057
 565++642F CD 6D 65       CALL L6011_72
 566++6432 42             LD B,D
 567++6433 4B             LD C,E
 568++6434 21 FF 7F       LD HL,#7FFF
 569++6437 D1             POP DE
 570++6438 CA BF 64       JP Z,L6011_57
 571++643B 21 10 00       LD HL,#0010
 572++643E 19             ADD HL,DE
 573++643F 7E             LD A,(HL)
 574++6440 B7             OR A
 575++6441 20 09          JR NZ,L6011_50
 576++6443 23             INC HL
 577++6444 7E             LD A,(HL)
 578++6445 FE 2E          CP #2E
 579++6447 20 03          JR NZ,L6011_50
 580++6449 23             INC HL
 581++644A 7E             LD A,(HL)
 582++644B B7             OR A
 583++644C              L6011_50:
 584++644C 21 00 80       LD HL,F5WND
 585++644F 11 00 C0       LD DE,LC000
 586++6452 28 13          JR Z,L6011_51
 587++6454 DD 7E 1A       LD A,(IX+#1A)
 588++6457 77             LD (HL),A
 589++6458 2C             INC L
 590++6459 73             LD (HL),E
 591++645A 2C             INC L
 592++645B 72             LD (HL),D
 593++645C 2C             INC L
 594++645D 3A 4F 7F       LD A,(#7F4F)
 595++6460 77             LD (HL),A
 596++6461 23             INC HL
 597++6462 50             LD D,B
 598++6463 59             LD E,C
 599++6464 DD 34 12       INC (IX+#12)
 600++6467              L6011_51:
 601++6467 2B             DEC HL
 602++6468              L6011_52:
 603++6468 7A             LD A,D
 604++6469 FE FE          CP #FE
 605++646B 38 09          JR C,L6011_53
 606++646D DD 34 1A       INC (IX+#1A)
 607++6470 CD E6 68       CALL L6011_119
 608++6473 11 00 C0       LD DE,LC000
 609++6476              L6011_53:
 610++6476 DD 7E 1A       LD A,(IX+#1A)
 611++6479 FE 09          CP #09
 612++647B 30 42          JR NC,L6011_57
 613++647D 4F             LD C,A
 614++647E 7C             LD A,H
 615++647F FE 80          CP #80
 616++6481 38 04          JR C,L6011_54
 617++6483 3A 4F 7F       LD A,(#7F4F)
 618++6486 77             LD (HL),A
 619++6487              L6011_54:
 620++6487 23             INC HL
 621++6488 7C             LD A,H
 622++6489 FE BF          CP #BF
 623++648B C2 93 64       JP NZ,L6011_55
 624++648E 7D             LD A,L
 625++648F FE FC          CP #FC
 626++6491 28 2C          JR Z,L6011_57
 627++6493              L6011_55:
 628++6493 71             LD (HL),C
 629++6494 2C             INC L
 630++6495 73             LD (HL),E
 631++6496 2C             INC L
 632++6497 72             LD (HL),D
 633++6498 2C             INC L
 634++6499 DD 34 12       INC (IX+#12)
 635++649C C2 A2 64       JP NZ,L6011_56
 636++649F DD 34 13       INC (IX+#13)
 637++64A2              L6011_56:
 638++64A2 E5             PUSH HL
 639++64A3 CD 5F 65       CALL L6011_71
 640++64A6 CD 57 40       CALL #4057
 641++64A9 CD 6D 65       CALL L6011_72
 642++64AC E1             POP HL
 643++64AD 20 B9          JR NZ,L6011_52
 644++64AF 2B             DEC HL
 645++64B0 2B             DEC HL
 646++64B1 2B             DEC HL
 647++64B2 2B             DEC HL
 648++64B3 DD 35 12       DEC (IX+#12)
 649++64B6 DD 7E 12       LD A,(IX+#12)
 650++64B9 3C             INC A
 651++64BA 20 03          JR NZ,L6011_57
 652++64BC DD 35 13       DEC (IX+#13)
 653++64BF              L6011_57:
 654++64BF AF             XOR A
 655++64C0 23             INC HL
 656++64C1 77             LD (HL),A
 657++64C2 2C             INC L
 658++64C3 77             LD (HL),A
 659++64C4 2C             INC L
 660++64C5 77             LD (HL),A
 661++64C6 3E 02          LD A,#02
 662++64C8 CD B1 68       CALL L6011_110
 663++64CB DD 7E 1A       LD A,(IX+#1A)
 664++64CE FE 01          CP #01
 665++64D0 C0             RET NZ
 666++64D1 DD 7E 13       LD A,(IX+#13)
 667++64D4 B7             OR A
 668++64D5 20 07          JR NZ,L6011_58
 669++64D7 DD 7E 12       LD A,(IX+#12)
 670++64DA FE C8          CP #C8
 671++64DC 38 1A          JR C,L6011_59
 672++64DE              L6011_58:
 673++64DE DD E5          PUSH IX
 674++64E0 DD 21 70 80    LD IX,#8070
 675++64E4 CD 2C 79       CALL #792C
 676++64E7 DD E1          POP IX
 677++64E9 CD F8 64       CALL L6011_59
 678++64EC DD E5          PUSH IX
 679++64EE DD 21 70 80    LD IX,#8070
 680++64F2 CD CE 7A       CALL L7828_38
 681++64F5 DD E1          POP IX
 682++64F7 C9             RET
 683++64F8              L6011_59:
 684++64F8 3E 06          LD A,#06
 685++64FA CD 99 6A       CALL L6011_143
 686++64FD CD F4 A4       CALL L9B7C_121
 687++6500 CD 7D 68       CALL L6011_105
 688++6503 C3 97 6A       JP L6011_142
 689++6506              L6011_60:
 690++6506 4E             LD C,(HL)
 691++6507 23             INC HL
 692++6508 06 08          LD B,#08
 693++650A              L6011_61:
 694++650A 7E             LD A,(HL)
 695++650B B7             OR A
 696++650C 28 2C          JR Z,L6011_64
 697++650E FE 2E          CP #2E
 698++6510 28 48          JR Z,L6011_70
 699++6512 12             LD (DE),A
 700++6513 23             INC HL
 701++6514 13             INC DE
 702++6515 10 F3          DJNZ L6011_61
 703++6517 7E             LD A,(HL)
 704++6518 B7             OR A
 705++6519 28 1F          JR Z,L6011_64
 706++651B 79             LD A,C
 707++651C B7             OR A
 708++651D 28 1B          JR Z,L6011_64
 709++651F              L6011_62:
 710++651F AF             XOR A
 711++6520 01 00 01       LD BC,#0100
 712++6523 ED B1          CPIR
 713++6525 2B             DEC HL
 714++6526 3E FF          LD A,#FF
 715++6528 91             SUB C
 716++6529 28 0F          JR Z,L6011_64
 717++652B FE 04          CP #04
 718++652D 47             LD B,A
 719++652E 38 02          JR C,L6011_63
 720++6530 06 04          LD B,#04
 721++6532              L6011_63:
 722++6532 2B             DEC HL
 723++6533 7E             LD A,(HL)
 724++6534 FE 2E          CP #2E
 725++6536 28 0C          JR Z,L6011_67
 726++6538 10 F8          DJNZ L6011_63
 727++653A              L6011_64:
 728++653A 04             INC B
 729++653B 04             INC B
 730++653C 04             INC B
 731++653D              L6011_65:
 732++653D 3E 20          LD A,#20
 733++653F              L6011_66:
 734++653F 12             LD (DE),A
 735++6540 13             INC DE
 736++6541 10 FC          DJNZ L6011_66
 737++6543 C9             RET
 738++6544              L6011_67:
 739++6544 06 03          LD B,#03
 740++6546              L6011_68:
 741++6546 23             INC HL
 742++6547 7E             LD A,(HL)
 743++6548 B7             OR A
 744++6549 28 F2          JR Z,L6011_65
 745++654B FE 40          CP #40
 746++654D 38 06          JR C,L6011_69
 747++654F FE 80          CP #80
 748++6551 30 02          JR NC,L6011_69
 749++6553 CB AF          RES 5,A
 750++6555              L6011_69:
 751++6555 12             LD (DE),A
 752++6556 13             INC DE
 753++6557 10 ED          DJNZ L6011_68
 754++6559 C9             RET
 755++655A              L6011_70:
 756++655A CD 3D 65       CALL L6011_65
 757++655D 18 C0          JR L6011_62
 758++655F              L6011_71:
 759++655F ED 53 51 7F    LD (#7F51),DE
 760++6563 AF             XOR A
 761++6564 12             LD (DE),A
 762++6565 13             INC DE
 763++6566 12             LD (DE),A
 764++6567 13             INC DE
 765++6568 12             LD (DE),A
 766++6569 13             INC DE
 767++656A 12             LD (DE),A
 768++656B 13             INC DE
 769++656C C9             RET
 770++656D              L6011_72:
 771++656D 08             EX AF,AF'
 772++656E D5             PUSH DE
 773++656F 2A 51 7F       LD HL,(#7F51)
 774++6572 01 10 00       LD BC,#0010
 775++6575 09             ADD HL,BC
 776++6576 7E             LD A,(HL)
 777++6577 B7             OR A
 778++6578 28 2D          JR Z,L6011_77
 779++657A 62             LD H,D
 780++657B 6B             LD L,E
 781++657C ED 5B 51 7F    LD DE,(#7F51)
 782++6580 13             INC DE
 783++6581 2B             DEC HL
 784++6582 2B             DEC HL
 785++6583 FE 2E          CP #2E
 786++6585 28 20          JR Z,L6011_77
 787++6587 06 04          LD B,#04
 788++6589 3E 2E          LD A,#2E
 789++658B              L6011_73:
 790++658B 2B             DEC HL
 791++658C BE             CP (HL)
 792++658D 28 02          JR Z,L6011_74
 793++658F 10 FA          DJNZ L6011_73
 794++6591              L6011_74:
 795++6591 23             INC HL
 796++6592 06 03          LD B,#03
 797++6594              L6011_75:
 798++6594 7E             LD A,(HL)
 799++6595 B7             OR A
 800++6596 28 0F          JR Z,L6011_77
 801++6598 FE 5B          CP #5B
 802++659A 30 06          JR NC,L6011_76
 803++659C FE 41          CP #41
 804++659E 38 02          JR C,L6011_76
 805++65A0 CB EF          SET 5,A
 806++65A2              L6011_76:
 807++65A2 12             LD (DE),A
 808++65A3 23             INC HL
 809++65A4 13             INC DE
 810++65A5 10 ED          DJNZ L6011_75
 811++65A7              L6011_77:
 812++65A7 D1             POP DE
 813++65A8 62             LD H,D
 814++65A9 6B             LD L,E
 815++65AA ED 4B 51 7F    LD BC,(#7F51)
 816++65AE B7             OR A
 817++65AF ED 42          SBC HL,BC
 818++65B1 01 13 00       LD BC,#0013
 819++65B4 ED 42          SBC HL,BC
 820++65B6 22 4F 7F       LD (#7F4F),HL
 821++65B9 08             EX AF,AF'
 822++65BA C9             RET
 823++65BB              WLIT:
 824++65BB              L6011_78:
 825++65BB AF             XOR A
 826++65BC DD 77 0D       LD (IX+#0D),A
 827++65BF DD 77 14       LD (IX+#14),A
 828++65C2 DD 77 15       LD (IX+#15),A
 829++65C5 3C             INC A
 830++65C6 32 43 7F       LD (#7F43),A
 831++65C9 DD 66 11       LD H,(IX+#11)
 832++65CC DD 6E 10       LD L,(IX+#10)
 833++65CF 11 01 01       LD DE,#0101
 834++65D2 7C             LD A,H
 835++65D3 B5             OR L
 836++65D4 20 04          JR NZ,L6011_79
 837++65D6 DD 36 15 01    LD (IX+#15),#01
 838++65DA              L6011_79:
 839++65DA E5             PUSH HL
 840++65DB D5             PUSH DE
 841++65DC CD 36 63       CALL L6011_35
 842++65DF 7C             LD A,H
 843++65E0 B5             OR L
 844++65E1 28 63          JR Z,L6011_85
 845++65E3 7E             LD A,(HL)
 846++65E4 CB 47          BIT 0,A
 847++65E6 0E 13          LD C,#13
 848++65E8 20 02          JR NZ,L6011_80
 849++65EA 0E 17          LD C,#17
 850++65EC              L6011_80:
 851++65EC 11 10 00       LD DE,#0010
 852++65EF 19             ADD HL,DE
 853++65F0 7E             LD A,(HL)
 854++65F1 B7             OR A
 855++65F2 79             LD A,C
 856++65F3 20 02          JR NZ,L6011_81
 857++65F5 F6 08          OR #08
 858++65F7              L6011_81:
 859++65F7 32 42 7F       LD (#7F42),A
 860++65FA 23             INC HL
 861++65FB 11 A0 5E       LD DE,#5EA0
 862++65FE DD 7E 04       LD A,(IX+#04)
 863++6601 D6 02          SUB #02
 864++6603 47             LD B,A
 865++6604 4F             LD C,A
 866++6605 AF             XOR A
 867++6606              L6011_82:
 868++6606 BE             CP (HL)
 869++6607 28 06          JR Z,L6011_83
 870++6609 ED A0          LDI
 871++660B 10 F9          DJNZ L6011_82
 872++660D 18 04          JR L6011_84
 873++660F              L6011_83:
 874++660F 12             LD (DE),A
 875++6610 13             INC DE
 876++6611 10 FC          DJNZ L6011_83
 877++6613              L6011_84:
 878++6613 D1             POP DE
 879++6614 E1             POP HL
 880++6615 23             INC HL
 881++6616 DD 34 0D       INC (IX+#0D)
 882++6619 E5             PUSH HL
 883++661A 21 A0 5E       LD HL,#5EA0
 884++661D DD 7E 04       LD A,(IX+#04)
 885++6620 D6 02          SUB #02
 886++6622 06 00          LD B,#00
 887++6624 4F             LD C,A
 888++6625 CD 25 7D       CALL L7828_72
 889++6628 14             INC D
 890++6629 3A 42 7F       LD A,(#7F42)
 891++662C CD 39 7D       CALL L7828_73
 892++662F DD 7E 05       LD A,(IX+#05)
 893++6632 D6 02          SUB #02
 894++6634 DD 96 0A       SUB (IX+#0A)
 895++6637 E1             POP HL
 896++6638 BA             CP D
 897++6639 30 9F          JR NC,L6011_79
 898++663B CD 36 63       CALL L6011_35
 899++663E 7C             LD A,H
 900++663F B5             OR L
 901++6640 C0             RET NZ
 902++6641 DD 36 14 01    LD (IX+#14),#01
 903++6645 C9             RET
 904++6646              L6011_85:
 905++6646 D1             POP DE
 906++6647 E1             POP HL
 907++6648 DD 36 14 01    LD (IX+#14),#01
 908++664C              L6011_86:
 909++664C 21 A0 5E       LD HL,#5EA0
 910++664F E5             PUSH HL
 911++6650 06 2B          LD B,#2B
 912++6652 CD 99 69       CALL L6011_129
 913++6655 E1             POP HL
 914++6656 DD 7E 04       LD A,(IX+#04)
 915++6659 D6 02          SUB #02
 916++665B 06 00          LD B,#00
 917++665D 4F             LD C,A
 918++665E CD 25 7D       CALL L7828_72
 919++6661 14             INC D
 920++6662 3E 17          LD A,#17
 921++6664 CD 39 7D       CALL L7828_73
 922++6667 DD 7E 05       LD A,(IX+#05)
 923++666A D6 02          SUB #02
 924++666C DD 96 0A       SUB (IX+#0A)
 925++666F BA             CP D
 926++6670 30 DA          JR NC,L6011_86
 927++6672 C9             RET
 928++6673              L6011_87:
 929++6673 FE 01          CP #01
 930++6675 28 40          JR Z,L6011_89
 931++6677 FE 02          CP #02
 932++6679 28 44          JR Z,L6011_90
 933++667B FE FF          CP #FF
 934++667D 28 30          JR Z,L6011_88
 935++667F CD 5F 74       CALL L7143_51
 936++6682 C4 FB 66       CALL NZ,L6011_92
 937++6685 CD 65 74       CALL L7143_52
 938++6688 C4 08 67       CALL NZ,L6011_93
 939++668B ED 5B 48 7F    LD DE,(#7F48)
 940++668F 21 8B 7F       LD HL,#7F8B
 941++6692 01 08 00       LD BC,#0008
 942++6695 CD 25 7D       CALL L7828_72
 943++6698 3E F7          LD A,#F7
 944++669A CD 39 7D       CALL L7828_73
 945++669D ED 5B 4A 7F    LD DE,(#7F4A)
 946++66A1 21 93 7F       LD HL,#7F93
 947++66A4 01 08 00       LD BC,#0008
 948++66A7 CD 25 7D       CALL L7828_72
 949++66AA 3E 07          LD A,#07
 950++66AC C3 39 7D       JP L7828_73
 951++66AF              L6011_88:
 952++66AF 3A 99 66       LD A,(#6699)
 953++66B2 21 12 7F       LD HL,#7F12
 954++66B5 BE             CP (HL)
 955++66B6 C9             RET
 956++66B7              L6011_89:
 957++66B7 21 8B 7F       LD HL,#7F8B
 958++66BA 11 93 7F       LD DE,#7F93
 959++66BD 18 06          JR L6011_91
 960++66BF              L6011_90:
 961++66BF 21 9B 7F       LD HL,#7F9B
 962++66C2 11 A3 7F       LD DE,#7FA3
 963++66C5              L6011_91:
 964++66C5 22 90 66       LD (#6690),HL
 965++66C8 ED 53 A2 66    LD (#66A2),DE
 966++66CC DD 7E 06       LD A,(IX+#06)
 967++66CF 07             RLCA
 968++66D0 07             RLCA
 969++66D1 07             RLCA
 970++66D2 07             RLCA
 971++66D3 32 12 7F       LD (#7F12),A
 972++66D6 DD 7E 06       LD A,(IX+#06)
 973++66D9 E6 F0          AND #F0
 974++66DB 07             RLCA
 975++66DC 07             RLCA
 976++66DD 07             RLCA
 977++66DE 07             RLCA
 978++66DF 32 13 7F       LD (#7F13),A
 979++66E2 DD 7E 05       LD A,(IX+#05)
 980++66E5 D6 02          SUB #02
 981++66E7 57             LD D,A
 982++66E8 67             LD H,A
 983++66E9 DD 7E 04       LD A,(IX+#04)
 984++66EC CB 3F          SRL A
 985++66EE D6 09          SUB #09
 986++66F0 6F             LD L,A
 987++66F1 C6 0A          ADD A,#0A
 988++66F3 5F             LD E,A
 989++66F4 22 48 7F       LD (#7F48),HL
 990++66F7 ED 53 4A 7F    LD (#7F4A),DE
 991++66FB              L6011_92:
 992++66FB 3A 12 7F       LD A,(#7F12)
 993++66FE 32 99 66       LD (#6699),A
 994++6701 3A 13 7F       LD A,(#7F13)
 995++6704 32 AB 66       LD (#66AB),A
 996++6707 C9             RET
 997++6708              L6011_93:
 998++6708 3A 13 7F       LD A,(#7F13)
 999++670B 32 99 66       LD (#6699),A
1000++670E 3A 12 7F       LD A,(#7F12)
1001++6711 32 AB 66       LD (#66AB),A
1002++6714 C9             RET
1003++6715              ; Обработчик IM2. Сохраняет оба набора регистров, обслуживает таймер,
1004++6715              ; видеорегистры, PS/2 и часы, затем формирует флаги Escape/Enter.
1005++6715              I_N_T:
1006++6715 F5             PUSH AF
1007++6716 C5             PUSH BC
1008++6717 D5             PUSH DE
1009++6718 E5             PUSH HL
1010++6719 DD E5          PUSH IX
1011++671B D9             EXX
1012++671C 08             EX AF,AF'
1013++671D F5             PUSH AF
1014++671E C5             PUSH BC
1015++671F D5             PUSH DE
1016++6720 E5             PUSH HL
1017++6721 2A 09 60       LD HL,(#6009)
1018++6724 23             INC HL
1019++6725 22 09 60       LD (#6009),HL
1020++6728 3A 4C 7F       LD A,(#7F4C)
1021++672B B7             OR A
1022++672C C4 86 6F       CALL NZ,L6011_233
1023++672F CD 5A 67       CALL L6011_94
1024++6732 3A 4E 7F       LD A,(#7F4E)
1025++6735 B7             OR A
1026++6736 C4 B8 75       CALL NZ,L7143_101
1027++6739 3A 4D 7F       LD A,(#7F4D)
1028++673C B7             OR A
1029++673D C4 83 67       CALL NZ,L6011_97
1030++6740 CD E8 74       CALL L7143_79
1031++6743 C4 7D 67       CALL NZ,L6011_96
1032++6746 CD E1 74       CALL L7143_78
1033++6749 C4 77 67       CALL NZ,L6011_95
1034++674C E1             POP HL
1035++674D D1             POP DE
1036++674E C1             POP BC
1037++674F F1             POP AF
1038++6750 D9             EXX
1039++6751 08             EX AF,AF'
1040++6752 DD E1          POP IX
1041++6754 E1             POP HL
1042++6755 D1             POP DE
1043++6756 C1             POP BC
1044++6757 F1             POP AF
1045++6758 FB             EI
1046++6759 C9             RET
1047++675A              VPRT:
1048++675A              L6011_94:
1049++675A 21 56 7F       LD HL,#7F56
1050++675D 01 AF 02       LD BC,#02AF
1051++6760 ED A3          OUTI
1052++6762 06 01          LD B,#01
1053++6764 ED A3          OUTI
1054++6766 06 05          LD B,#05
1055++6768 ED A3          OUTI
1056++676A 06 06          LD B,#06
1057++676C ED A3          OUTI
1058++676E 06 03          LD B,#03
1059++6770 ED A3          OUTI
1060++6772 06 04          LD B,#04
1061++6774 ED A3          OUTI
1062++6776 C9             RET
1063++6777              ENTF:
1064++6777              L6011_95:
1065++6777 3E 01          LD A,#01
1066++6779 32 05 60       LD (#6005),A
1067++677C C9             RET
1068++677D              ABTF:
1069++677D              L6011_96:
1070++677D 3E 01          LD A,#01
1071++677F 32 04 60       LD (#6004),A
1072++6782 C9             RET
1073++6783              TIME:
1074++6783              L6011_97:
1075++6783 21 60 7F       LD HL,#7F60
1076++6786 7E             LD A,(HL)
1077++6787 B7             OR A
1078++6788 28 1C          JR Z,L6011_98
1079++678A 35             DEC (HL)
1080++678B 7E             LD A,(HL)
1081++678C 86             ADD A,(HL)
1082++678D 86             ADD A,(HL)
1083++678E 06 00          LD B,#00
1084++6790 4F             LD C,A
1085++6791 96             SUB (HL)
1086++6792 21 69 7F       LD HL,#7F69
1087++6795 B7             OR A
1088++6796 ED 42          SBC HL,BC
1089++6798 01 F7 DF       LD BC,#DFF7
1090++679B ED 79          OUT (C),A
1091++679D 06 BF          LD B,#BF
1092++679F ED 78          IN A,(C)
1093++67A1 CD 26 6A       CALL L6011_135
1094++67A4 18 0D          JR L6011_99
1095++67A6              L6011_98:
1096++67A6 23             INC HL
1097++67A7 7E             LD A,(HL)
1098++67A8 3D             DEC A
1099++67A9 77             LD (HL),A
1100++67AA C0             RET NZ
1101++67AB 23             INC HL
1102++67AC 7E             LD A,(HL)
1103++67AD 2B             DEC HL
1104++67AE 77             LD (HL),A
1105++67AF 2B             DEC HL
1106++67B0 36 03          LD (HL),#03
1107++67B2 C9             RET
1108++67B3              L6011_99:
1109++67B3 AF             XOR A
1110++67B4 CD CC 68       CALL L6011_115
1111++67B7 11 63 7F       LD DE,#7F63
1112++67BA 21 F8 BF       LD HL,#BFF8
1113++67BD ED 4B 1D 7F    LD BC,(#7F1D)
1114++67C1 09             ADD HL,BC
1115++67C2 EB             EX DE,HL
1116++67C3 01 08 00       LD BC,#0008
1117++67C6 ED B0          LDIR
1118++67C8 C3 BE 68       JP L6011_113
1119++67CB              L6011_100:
1120++67CB 16 00          LD D,#00
1121++67CD 3E 02          LD A,#02
1122++67CF CD 32 68       CALL L6011_101
1123++67D2 5F             LD E,A
1124++67D3 CB 23          SLA E
1125++67D5 CB 12          RL D
1126++67D7 CB 23          SLA E
1127++67D9 CB 12          RL D
1128++67DB CB 23          SLA E
1129++67DD CB 12          RL D
1130++67DF CB 23          SLA E
1131++67E1 CB 12          RL D
1132++67E3 CB 23          SLA E
1133++67E5 CB 12          RL D
1134++67E7 AF             XOR A
1135++67E8 CD 32 68       CALL L6011_101
1136++67EB CB 3F          SRL A
1137++67ED B3             OR E
1138++67EE 5F             LD E,A
1139++67EF 3E 04          LD A,#04
1140++67F1 CD 32 68       CALL L6011_101
1141++67F4 CB 27          SLA A
1142++67F6 CB 27          SLA A
1143++67F8 CB 27          SLA A
1144++67FA B2             OR D
1145++67FB 57             LD D,A
1146++67FC ED 53 79 7F    LD (#7F79),DE
1147++6800 ED 53 81 7F    LD (#7F81),DE
1148++6804 3E 09          LD A,#09
1149++6806 CD 32 68       CALL L6011_101
1150++6809 C6 14          ADD A,#14
1151++680B 57             LD D,A
1152++680C 3E 08          LD A,#08
1153++680E CD 32 68       CALL L6011_101
1154++6811 CB 27          SLA A
1155++6813 CB 27          SLA A
1156++6815 CB 27          SLA A
1157++6817 CB 27          SLA A
1158++6819 CB 27          SLA A
1159++681B CB 12          RL D
1160++681D 5F             LD E,A
1161++681E 3E 07          LD A,#07
1162++6820 CD 32 68       CALL L6011_101
1163++6823 B3             OR E
1164++6824 5F             LD E,A
1165++6825 ED 53 7B 7F    LD (#7F7B),DE
1166++6829 ED 53 7D 7F    LD (#7F7D),DE
1167++682D ED 53 83 7F    LD (#7F83),DE
1168++6831 C9             RET
1169++6832              L6011_101:
1170++6832 01 F7 DF       LD BC,#DFF7
1171++6835 ED 79          OUT (C),A
1172++6837 06 BF          LD B,#BF
1173++6839 ED 78          IN A,(C)
1174++683B 4F             LD C,A
1175++683C E6 0F          AND #0F
1176++683E 47             LD B,A
1177++683F CB 39          SRL C
1178++6841 CB 39          SRL C
1179++6843 CB 39          SRL C
1180++6845 CB 39          SRL C
1181++6847 79             LD A,C
1182++6848 81             ADD A,C
1183++6849 81             ADD A,C
1184++684A 81             ADD A,C
1185++684B 81             ADD A,C
1186++684C 81             ADD A,C
1187++684D 81             ADD A,C
1188++684E 81             ADD A,C
1189++684F 81             ADD A,C
1190++6850 81             ADD A,C
1191++6851 80             ADD A,B
1192++6852 C9             RET
1193++6853              L6011_102:
1194++6853 DD E5          PUSH IX
1195++6855 E1             POP HL
1196++6856 11 A0 7E       LD DE,WINDOW
1197++6859 B7             OR A
1198++685A ED 52          SBC HL,DE
1199++685C 20 05          JR NZ,L6011_103
1200++685E DD 21 C4 7E    LD IX,#7EC4
1201++6862 C9             RET
1202++6863              L6011_103:
1203++6863 DD 21 A0 7E    LD IX,WINDOW
1204++6867 C9             RET
1205++6868              DRACT:
1206++6868              L6011_104:
1207++6868 CD 7D 68       CALL L6011_105
1208++686B DD 7E 1C       LD A,(IX+#1C)
1209++686E B7             OR A
1210++686F C0             RET NZ
1211++6870 CD 64 A0       CALL L9B7C_62
1212++6873 DD 36 1C 01    LD (IX+#1C),#01
1213++6877 DD 7E 1D       LD A,(IX+#1D)
1214++687A C3 1B 40       JP #401B
1215++687D              FRST:
1216++687D              L6011_105:
1217++687D 3E F0          LD A,#F0
1218++687F DD 86 1B       ADD A,(IX+#1B)
1219++6882 C3 9C 68       JP L6011_108
1220++6885              MNG0D:
1221++6885              L6011_106:
1222++6885 01 AF 21       LD BC,#21AF
1223++6888 3E 01          LD A,#01
1224++688A ED 79          OUT (C),A
1225++688C 01 AF 10       LD BC,#10AF
1226++688F 3E 00          LD A,#00
1227++6891 ED 79          OUT (C),A
1228++6893 C9             RET
1229++6894              MNG0I:
1230++6894              L6011_107:
1231++6894 01 AF 21       LD BC,#21AF
1232++6897 3E 0E          LD A,#0E
1233++6899 ED 79          OUT (C),A
1234++689B C9             RET
1235++689C              MNG0:
1236++689C              L6011_108:
1237++689C 32 00 60       LD (#6000),A
1238++689F 01 AF 10       LD BC,#10AF
1239++68A2 ED 79          OUT (C),A
1240++68A4 C9             RET
1241++68A5 32 01 60       LD (#6001),A
1242++68A8 01 AF 11       LD BC,#11AF
1243++68AB ED 79          OUT (C),A
1244++68AD C9             RET
1245++68AE              L6011_109:
1246++68AE 3A 02 60       LD A,(#6002)
1247++68B1              L6011_110:
1248++68B1 32 02 60       LD (#6002),A
1249++68B4              L6011_111:
1250++68B4 01 AF 12       LD BC,#12AF
1251++68B7 ED 79          OUT (C),A
1252++68B9 C9             RET
1253++68BA              L6011_112:
1254++68BA AF             XOR A
1255++68BB C3 C1 68       JP L6011_114
1256++68BE              L6011_113:
1257++68BE 3A 03 60       LD A,(#6003)
1258++68C1              L6011_114:
1259++68C1 C5             PUSH BC
1260++68C2 32 03 60       LD (#6003),A
1261++68C5 01 AF 13       LD BC,#13AF
1262++68C8 ED 79          OUT (C),A
1263++68CA C1             POP BC
1264++68CB C9             RET
1265++68CC              L6011_115:
1266++68CC 01 AF 13       LD BC,#13AF
1267++68CF ED 79          OUT (C),A
1268++68D1 C9             RET
1269++68D2              MNGP:
1270++68D2              L6011_116:
1271++68D2 3E F7          LD A,#F7
1272++68D4 18 EB          JR L6011_114
1273++68D6              L6011_117:
1274++68D6 3E 0B          LD A,#0B
1275++68D8 DD 86 19       ADD A,(IX+#19)
1276++68DB C3 9C 68       JP L6011_108
1277++68DE              L6011_118:
1278++68DE 3E 0B          LD A,#0B
1279++68E0 DD 86 19       ADD A,(IX+#19)
1280++68E3 C3 C1 68       JP L6011_114
1281++68E6              L6011_119:
1282++68E6 3E 0B          LD A,#0B
1283++68E8 DD 86 1A       ADD A,(IX+#1A)
1284++68EB DD 86 19       ADD A,(IX+#19)
1285++68EE C3 C1 68       JP L6011_114
1286++68F1              L6011_120:
1287++68F1 3E 0B          LD A,#0B
1288++68F3 DD 86 19       ADD A,(IX+#19)
1289++68F6 C3 B1 68       JP L6011_110
1290++68F9              L6011_121:
1291++68F9 FE FE          CP #FE
1292++68FB 28 BD          JR Z,L6011_112
1293++68FD FE FF          CP #FF
1294++68FF 28 0E          JR Z,L6011_122
1295++6901 FE 40          CP #40
1296++6903 D0             RET NC
1297++6904 C6 61          ADD A,#61
1298++6906 E5             PUSH HL
1299++6907 21 15 7F       LD HL,#7F15
1300++690A 86             ADD A,(HL)
1301++690B E1             POP HL
1302++690C C3 C1 68       JP L6011_114
1303++690F              L6011_122:
1304++690F 3E 01          LD A,#01
1305++6911 C3 C1 68       JP L6011_114
1306++6914 FE 40          CP #40
1307++6916 D0             RET NC
1308++6917 C6 61          ADD A,#61
1309++6919 E5             PUSH HL
1310++691A 21 15 7F       LD HL,#7F15
1311++691D 86             ADD A,(HL)
1312++691E E1             POP HL
1313++691F C3 9C 68       JP L6011_108
1314++6922              L6011_123:
1315++6922 FE 40          CP #40
1316++6924 D0             RET NC
1317++6925 C6 61          ADD A,#61
1318++6927 E5             PUSH HL
1319++6928 21 15 7F       LD HL,#7F15
1320++692B 86             ADD A,(HL)
1321++692C E1             POP HL
1322++692D C3 B1 68       JP L6011_110
1323++6930 FE 40          CP #40
1324++6932 D0             RET NC
1325++6933 C6 20          ADD A,#20
1326++6935 C3 C1 68       JP L6011_114
1327++6938 FE 40          CP #40
1328++693A D0             RET NC
1329++693B C6 20          ADD A,#20
1330++693D C3 9C 68       JP L6011_108
1331++6940 FE 40          CP #40
1332++6942 D0             RET NC
1333++6943 C6 20          ADD A,#20
1334++6945 C3 B1 68       JP L6011_110
1335++6948 FE 01          CP #01
1336++694A 28 19          JR Z,L6011_126
1337++694C FE 02          CP #02
1338++694E 28 11          JR Z,L6011_125
1339++6950 FE 03          CP #03
1340++6952 28 09          JR Z,L6011_124
1341++6954 FE 04          CP #04
1342++6956 C2 9F 69       JP NZ,L6011_131
1343++6959 3E 50          LD A,#50
1344++695B 18 0A          JR L6011_127
1345++695D              L6011_124:
1346++695D 3E 40          LD A,#40
1347++695F 18 06          JR L6011_127
1348++6961              L6011_125:
1349++6961 3E 30          LD A,#30
1350++6963 18 02          JR L6011_127
1351++6965              L6011_126:
1352++6965 3E 20          LD A,#20
1353++6967              L6011_127:
1354++6967 32 56 7F       LD (#7F56),A
1355++696A C9             RET
1356++696B 79             LD A,C
1357++696C FE 40          CP #40
1358++696E D0             RET NC
1359++696F C6 20          ADD A,#20
1360++6971 01 AF 16       LD BC,#16AF
1361++6974 ED 79          OUT (C),A
1362++6976 C9             RET
1363++6977 79             LD A,C
1364++6978 FE 40          CP #40
1365++697A D0             RET NC
1366++697B C6 20          ADD A,#20
1367++697D CB 40          BIT 0,B
1368++697F 20 06          JR NZ,L6011_128
1369++6981 01 AF 17       LD BC,#17AF
1370++6984 ED 79          OUT (C),A
1371++6986 C9             RET
1372++6987              L6011_128:
1373++6987 01 AF 18       LD BC,#18AF
1374++698A ED 79          OUT (C),A
1375++698C C9             RET
1376++698D 79             LD A,C
1377++698E FE 40          CP #40
1378++6990 D0             RET NC
1379++6991 C6 20          ADD A,#20
1380++6993 01 AF 19       LD BC,#19AF
1381++6996 ED 79          OUT (C),A
1382++6998 C9             RET
1383++6999              L6011_129:
1384++6999 AF             XOR A
1385++699A              L6011_130:
1386++699A 77             LD (HL),A
1387++699B 23             INC HL
1388++699C 10 FC          DJNZ L6011_130
1389++699E C9             RET
1390++699F              L6011_131:
1391++699F F3             DI
1392++69A0 AF             XOR A
1393++69A1 32 56 7F       LD (#7F56),A
1394++69A4 32 10 60       LD (#6010),A
1395++69A7 3A 0F 60       LD A,(#600F)
1396++69AA 32 57 7F       LD (#7F57),A
1397++69AD AF             XOR A
1398++69AE 47             LD B,A
1399++69AF 4F             LD C,A
1400++69B0 ED 43 58 7F    LD (#7F58),BC
1401++69B4 ED 43 5A 7F    LD (#7F5A),BC
1402++69B8 FB             EI
1403++69B9 76             HALT
1404++69BA 01 AF 0F       LD BC,#0FAF
1405++69BD ED 79          OUT (C),A
1406++69BF 3E 20          LD A,#20
1407++69C1 CD C1 68       CALL L6011_114
1408++69C4 CD FE 69       CALL L6011_134
1409++69C7 21 E8 7E       LD HL,#7EE8
1410++69CA 11 00 10       LD DE,#1000
1411++69CD 01 20 00       LD BC,#0020
1412++69D0 ED B0          LDIR
1413++69D2 21 E8 7E       LD HL,#7EE8
1414++69D5 11 E0 11       LD DE,#11E0
1415++69D8 0E 20          LD C,#20
1416++69DA ED B0          LDIR
1417++69DC EB             EX DE,HL
1418++69DD CD F0 69       CALL L6011_132
1419++69E0 2E 40          LD L,#40
1420++69E2 06 04          LD B,#04
1421++69E4 CD F0 69       CALL L6011_132
1422++69E7 CD F7 69       CALL L6011_133
1423++69EA 01 AF 07       LD BC,#07AF
1424++69ED ED 79          OUT (C),A
1425++69EF C9             RET
1426++69F0              L6011_132:
1427++69F0 71             LD (HL),C
1428++69F1 2C             INC L
1429++69F2 71             LD (HL),C
1430++69F3 23             INC HL
1431++69F4 10 FA          DJNZ L6011_132
1432++69F6 C9             RET
1433++69F7              L6011_133:
1434++69F7 AF             XOR A
1435++69F8 01 AF 15       LD BC,#15AF
1436++69FB ED 79          OUT (C),A
1437++69FD C9             RET
1438++69FE              L6011_134:
1439++69FE 3E 11          LD A,#11
1440++6A00 01 AF 15       LD BC,#15AF
1441++6A03 ED 79          OUT (C),A
1442++6A05 C9             RET
1443++6A06 AF             XOR A
1444++6A07 47             LD B,A
1445++6A08 4F             LD C,A
1446++6A09 ED 43 58 7F    LD (#7F58),BC
1447++6A0D ED 43 5A 7F    LD (#7F5A),BC
1448++6A11 32 56 7F       LD (#7F56),A
1449++6A14 01 AF 0F       LD BC,#0FAF
1450++6A17 ED 79          OUT (C),A
1451++6A19 C9             RET
1452++6A1A 32 57 7F       LD (#7F57),A
1453++6A1D C9             RET
1454++6A1E 22 58 7F       LD (#7F58),HL
1455++6A21 C9             RET
1456++6A22 22 5A 7F       LD (#7F5A),HL
1457++6A25 C9             RET
1458++6A26              L6011_135:
1459++6A26 23             INC HL
1460++6A27 4F             LD C,A
1461++6A28 E6 0F          AND #0F
1462++6A2A FE 0A          CP #0A
1463++6A2C 38 02          JR C,L6011_136
1464++6A2E C6 07          ADD A,#07
1465++6A30              L6011_136:
1466++6A30 C6 30          ADD A,#30
1467++6A32 77             LD (HL),A
1468++6A33 2B             DEC HL
1469++6A34 71             LD (HL),C
1470++6A35 AF             XOR A
1471++6A36 ED 6F          RLD
1472++6A38 FE 0A          CP #0A
1473++6A3A 38 02          JR C,L6011_137
1474++6A3C C6 07          ADD A,#07
1475++6A3E              L6011_137:
1476++6A3E C6 30          ADD A,#30
1477++6A40 77             LD (HL),A
1478++6A41 23             INC HL
1479++6A42 23             INC HL
1480++6A43 C9             RET
1481++6A44              INIT:
1482++6A44              L6011_138:
1483++6A44 01 AF 00       LD BC,#00AF
1484++6A47 3E 30          LD A,#30
1485++6A49 ED 79          OUT (C),A
1486++6A4B 01 F7 EF       LD BC,#EFF7
1487++6A4E 3E 80          LD A,#80
1488++6A50 ED 79          OUT (C),A
1489++6A52 06 DF          LD B,#DF
1490++6A54 3E 0B          LD A,#0B
1491++6A56 ED 79          OUT (C),A
1492++6A58 06 BF          LD B,#BF
1493++6A5A AF             XOR A
1494++6A5B ED 79          OUT (C),A
1495++6A5D 06 DF          LD B,#DF
1496++6A5F 3E 0C          LD A,#0C
1497++6A61 ED 79          OUT (C),A
1498++6A63 06 BF          LD B,#BF
1499++6A65 3E 01          LD A,#01
1500++6A67 ED 79          OUT (C),A
1501++6A69 06 DF          LD B,#DF
1502++6A6B 3E F0          LD A,#F0
1503++6A6D ED 79          OUT (C),A
1504++6A6F 06 BF          LD B,#BF
1505++6A71 3E 02          LD A,#02
1506++6A73 ED 79          OUT (C),A
1507++6A75 3E 01          LD A,#01
1508++6A77 CD 90 6A       CALL L6011_141
1509++6A7A              L6011_139:
1510++6A7A 3E 00          LD A,#00
1511++6A7C 32 4D 7F       LD (#7F4D),A
1512++6A7F AF             XOR A
1513++6A80 32 4C 7F       LD (#7F4C),A
1514++6A83 3C             INC A
1515++6A84 32 4E 7F       LD (#7F4E),A
1516++6A87 C9             RET
1517++6A88              TURBOof:
1518++6A88              L6011_140:
1519++6A88 01 F7 EF       LD BC,#EFF7
1520++6A8B AF             XOR A
1521++6A8C ED 79          OUT (C),A
1522++6A8E 3E 00          LD A,#00
1523++6A90              TURBO:
1524++6A90              L6011_141:
1525++6A90 E6 03          AND #03
1526++6A92 01 AF 20       LD BC,#20AF
1527++6A95 ED 79          OUT (C),A
1528++6A97              L6011_142:
1529++6A97 3E 02          LD A,#02
1530++6A99              L6011_143:
1531++6A99 01 AF 2B       LD BC,#2BAF
1532++6A9C ED 79          OUT (C),A
1533++6A9E C9             RET
1534++6A9F              GBD:
1535++6A9F              L6011_144:
1536++6A9F 01 F7 DF       LD BC,#DFF7
1537++6AA2 3E B2          LD A,#B2
1538++6AA4 ED 79          OUT (C),A
1539++6AA6 06 BF          LD B,#BF
1540++6AA8 ED 78          IN A,(C)
1541++6AAA C9             RET
1542++6AAB CD 7A 6B       CALL L6011_145
1543++6AAE CD 96 6B       CALL L6011_147
1544++6AB1 D5             PUSH DE
1545++6AB2 CD BE 68       CALL L6011_113
1546++6AB5 CD 15 40       CALL #4015
1547++6AB8 D1             POP DE
1548++6AB9 CD B1 6B       CALL L6011_149
1549++6ABC C3 8B 6B       JP L6011_146
1550++6ABF CD 7A 6B       CALL L6011_145
1551++6AC2 CD 96 6B       CALL L6011_147
1552++6AC5 D5             PUSH DE
1553++6AC6 CD 18 40       CALL #4018
1554++6AC9 D1             POP DE
1555++6ACA CD B1 6B       CALL L6011_149
1556++6ACD C3 8B 6B       JP L6011_146
1557++6AD0 CD 7A 6B       CALL L6011_145
1558++6AD3 CD F4 6B       CALL L6011_155
1559++6AD6 C3 8B 6B       JP L6011_146
1560++6AD9 CD 7A 6B       CALL L6011_145
1561++6ADC CD FA 6B       CALL L6011_156
1562++6ADF C3 8B 6B       JP L6011_146
1563++6AE2 CD 7A 6B       CALL L6011_145
1564++6AE5 CD 03 6C       CALL L6011_157
1565++6AE8 C3 8B 6B       JP L6011_146
1566++6AEB CD 7A 6B       CALL L6011_145
1567++6AEE CD 4A 6D       CALL L6011_187
1568++6AF1 C3 8B 6B       JP L6011_146
1569++6AF4 CD 7A 6B       CALL L6011_145
1570++6AF7 CD 4B 6D       CALL L6011_188
1571++6AFA C3 8B 6B       JP L6011_146
1572++6AFD CD 7A 6B       CALL L6011_145
1573++6B00 CD E1 6D       CALL L6011_202
1574++6B03 C3 8B 6B       JP L6011_146
1575++6B06 CD 7A 6B       CALL L6011_145
1576++6B09 CD 46 6F       CALL L6011_227
1577++6B0C C3 8B 6B       JP L6011_146
1578++6B0F CD 7A 6B       CALL L6011_145
1579++6B12 CD 08 6E       CALL L6011_205
1580++6B15 08             EX AF,AF'
1581++6B16 3A 00 60       LD A,(#6000)
1582++6B19 32 0B 60       LD (#600B),A
1583++6B1C 08             EX AF,AF'
1584++6B1D C3 8B 6B       JP L6011_146
1585++6B20 CD 7A 6B       CALL L6011_145
1586++6B23 CD 5A 40       CALL #405A
1587++6B26 C3 8B 6B       JP L6011_146
1588++6B29 CD 7A 6B       CALL L6011_145
1589++6B2C CD CB 6E       CALL L6011_217
1590++6B2F C3 8B 6B       JP L6011_146
1591++6B32 CD 7A 6B       CALL L6011_145
1592++6B35 CD 51 40       CALL #4051
1593++6B38 C3 8B 6B       JP L6011_146
1594++6B3B CD 7A 6B       CALL L6011_145
1595++6B3E CD 54 40       CALL #4054
1596++6B41 C3 8B 6B       JP L6011_146
1597++6B44 CD 7A 6B       CALL L6011_145
1598++6B47 CD 52 6F       CALL L6011_228
1599++6B4A C3 8B 6B       JP L6011_146
1600++6B4D CD 7A 6B       CALL L6011_145
1601++6B50 CD 58 6F       CALL L6011_229
1602++6B53 C3 8B 6B       JP L6011_146
1603++6B56 CD 7A 6B       CALL L6011_145
1604++6B59 CD 5E 6F       CALL L6011_230
1605++6B5C C3 8B 6B       JP L6011_146
1606++6B5F CD 7A 6B       CALL L6011_145
1607++6B62 CD 7B 6F       CALL L6011_231
1608++6B65 C3 8B 6B       JP L6011_146
1609++6B68 CD 7A 6B       CALL L6011_145
1610++6B6B CD 42 40       CALL #4042
1611++6B6E C3 8B 6B       JP L6011_146
1612++6B71 CD 7A 6B       CALL L6011_145
1613++6B74 CD 81 6F       CALL L6011_232
1614++6B77 C3 8B 6B       JP L6011_146
1615++6B7A              L6011_145:
1616++6B7A F5             PUSH AF
1617++6B7B C5             PUSH BC
1618++6B7C 3A 00 60       LD A,(#6000)
1619++6B7F 32 0C 60       LD (#600C),A
1620++6B82 3A 0B 60       LD A,(#600B)
1621++6B85 CD 9C 68       CALL L6011_108
1622++6B88 C1             POP BC
1623++6B89 F1             POP AF
1624++6B8A C9             RET
1625++6B8B              L6011_146:
1626++6B8B F5             PUSH AF
1627++6B8C C5             PUSH BC
1628++6B8D 3A 0C 60       LD A,(#600C)
1629++6B90 CD 9C 68       CALL L6011_108
1630++6B93 C1             POP BC
1631++6B94 F1             POP AF
1632++6B95 C9             RET
1633++6B96              L6011_147:
1634++6B96 F5             PUSH AF
1635++6B97 C5             PUSH BC
1636++6B98 16 01          LD D,#01
1637++6B9A 7C             LD A,H
1638++6B9B FE 40          CP #40
1639++6B9D 30 0F          JR NC,L6011_148
1640++6B9F 15             DEC D
1641++6BA0 3A 03 60       LD A,(#6003)
1642++6BA3 5F             LD E,A
1643++6BA4 3A 0C 60       LD A,(#600C)
1644++6BA7 CD C1 68       CALL L6011_114
1645++6BAA 01 00 C0       LD BC,LC000
1646++6BAD 09             ADD HL,BC
1647++6BAE              L6011_148:
1648++6BAE C1             POP BC
1649++6BAF F1             POP AF
1650++6BB0 C9             RET
1651++6BB1              L6011_149:
1652++6BB1 F5             PUSH AF
1653++6BB2 C5             PUSH BC
1654++6BB3 15             DEC D
1655++6BB4 28 08          JR Z,L6011_150
1656++6BB6 7B             LD A,E
1657++6BB7 CD C1 68       CALL L6011_114
1658++6BBA 01 00 40       LD BC,#4000
1659++6BBD 09             ADD HL,BC
1660++6BBE              L6011_150:
1661++6BBE C1             POP BC
1662++6BBF F1             POP AF
1663++6BC0 C9             RET
1664++6BC1 04             INC B
1665++6BC2 28 29          JR Z,L6011_154
1666++6BC4 05             DEC B
1667++6BC5 20 18          JR NZ,L6011_153
1668++6BC7 79             LD A,C
1669++6BC8 E6 03          AND #03
1670++6BCA 4F             LD C,A
1671++6BCB 06 38          LD B,#38
1672++6BCD              L6011_151:
1673++6BCD 3A 1F 7F       LD A,(#7F1F)
1674++6BD0 A0             AND B
1675++6BD1 B1             OR C
1676++6BD2              L6011_152:
1677++6BD2 01 AF 20       LD BC,#20AF
1678++6BD5 ED 79          OUT (C),A
1679++6BD7 3E 02          LD A,#02
1680++6BD9 01 AF 2B       LD BC,#2BAF
1681++6BDC ED 79          OUT (C),A
1682++6BDE C9             RET
1683++6BDF              L6011_153:
1684++6BDF 79             LD A,C
1685++6BE0 E6 07          AND #07
1686++6BE2 CB 27          SLA A
1687++6BE4 CB 27          SLA A
1688++6BE6 CB 27          SLA A
1689++6BE8 4F             LD C,A
1690++6BE9 06 03          LD B,#03
1691++6BEB 18 E0          JR L6011_151
1692++6BED              DEF:
1693++6BED              L6011_154:
1694++6BED 3A 20 7F       LD A,(#7F20)
1695++6BF0 E6 3B          AND #3B
1696++6BF2 18 DE          JR L6011_152
1697++6BF4              GIPAGPL:
1698++6BF4              L6011_155:
1699++6BF4 21 28 7F       LD HL,#7F28
1700++6BF7 C3 12 40       JP #4012
1701++6BFA              TENTRY2:
1702++6BFA              L6011_156:
1703++6BFA 21 6B 7F       LD HL,#7F6B
1704++6BFD 01 20 00       LD BC,#0020
1705++6C00 ED B0          LDIR
1706++6C02 C9             RET
1707++6C03              CHTOSEP:
1708++6C03              L6011_157:
1709++6C03 21 28 7F       LD HL,#7F28
1710++6C06 C3 48 40       JP #4048
1711++6C09              L6011_158:
1712++6C09 3E 01          LD A,#01
1713++6C0B 18 0E          JR L6011_163
1714++6C0D              L6011_159:
1715++6C0D 3E 81          LD A,#81
1716++6C0F 18 0A          JR L6011_163
1717++6C11              L6011_160:
1718++6C11 3E 04          LD A,#04
1719++6C13 18 06          JR L6011_163
1720++6C15              L6011_161:
1721++6C15 3E 84          LD A,#84
1722++6C17 18 02          JR L6011_163
1723++6C19              L6011_162:
1724++6C19 3E 85          LD A,#85
1725++6C1B              L6011_163:
1726++6C1B 21 21 7F       LD HL,#7F21
1727++6C1E B6             OR (HL)
1728++6C1F 23             INC HL
1729++6C20 B6             OR (HL)
1730++6C21 23             INC HL
1731++6C22 B6             OR (HL)
1732++6C23 08             EX AF,AF'
1733++6C24 CD 84 6C       CALL L6011_166
1734++6C27 C0             RET NZ
1735++6C28 08             EX AF,AF'
1736++6C29 01 AF 27       LD BC,#27AF
1737++6C2C ED 79          OUT (C),A
1738++6C2E 18 4A          JR L6011_164
1739++6C30 FE FC          CP #FC
1740++6C32 28 D5          JR Z,L6011_158
1741++6C34 FE FB          CP #FB
1742++6C36 28 D5          JR Z,L6011_159
1743++6C38 FE FA          CP #FA
1744++6C3A 28 D5          JR Z,L6011_160
1745++6C3C FE F9          CP #F9
1746++6C3E 28 D5          JR Z,L6011_161
1747++6C40 FE F8          CP #F8
1748++6C42 28 D5          JR Z,L6011_162
1749++6C44 FE FF          CP #FF
1750++6C46 28 32          JR Z,L6011_164
1751++6C48 FE FE          CP #FE
1752++6C4A 28 45          JR Z,L6011_168
1753++6C4C FE FD          CP #FD
1754++6C4E 28 47          JR Z,L6011_169
1755++6C50 B7             OR A
1756++6C51 28 51          JR Z,L6011_170
1757++6C53 3D             DEC A
1758++6C54 28 55          JR Z,L6011_171
1759++6C56 3D             DEC A
1760++6C57 28 64          JR Z,L6011_173
1761++6C59 3D             DEC A
1762++6C5A 28 73          JR Z,L6011_175
1763++6C5C 3D             DEC A
1764++6C5D 28 75          JR Z,L6011_176
1765++6C5F 3D             DEC A
1766++6C60 28 77          JR Z,L6011_177
1767++6C62 3D             DEC A
1768++6C63 28 7B          JR Z,L6011_178
1769++6C65 3D             DEC A
1770++6C66 CA E7 6C       JP Z,L6011_179
1771++6C69 3D             DEC A
1772++6C6A CA FA 6C       JP Z,L6011_181
1773++6C6D 3D             DEC A
1774++6C6E CA 07 6D       JP Z,L6011_182
1775++6C71 3D             DEC A
1776++6C72 CA 16 6D       JP Z,L6011_183
1777++6C75 3D             DEC A
1778++6C76 CA EF 6C       JP Z,L6011_180
1779++6C79 C9             RET
1780++6C7A              L6011_164:
1781++6C7A 01 AF 27       LD BC,#27AF
1782++6C7D              L6011_165:
1783++6C7D ED 70          DB #ED,#70
1784++6C7F FA 7D 6C       JP M,L6011_165
1785++6C82 AF             XOR A
1786++6C83 C9             RET
1787++6C84              L6011_166:
1788++6C84 01 AF 27       LD BC,#27AF
1789++6C87 ED 70          DB #ED,#70
1790++6C89 FA 8E 6C       JP M,L6011_167
1791++6C8C AF             XOR A
1792++6C8D C9             RET
1793++6C8E              L6011_167:
1794++6C8E AF             XOR A
1795++6C8F 3C             INC A
1796++6C90 C9             RET
1797++6C91              L6011_168:
1798++6C91 CD 97 6C       CALL L6011_169
1799++6C94 C0             RET NZ
1800++6C95 18 E3          JR L6011_164
1801++6C97              L6011_169:
1802++6C97 CD 84 6C       CALL L6011_166
1803++6C9A C0             RET NZ
1804++6C9B 01 AF 27       LD BC,#27AF
1805++6C9E 3E 01          LD A,#01
1806++6CA0 ED 79          OUT (C),A
1807++6CA2 AF             XOR A
1808++6CA3 C9             RET
1809++6CA4              L6011_170:
1810++6CA4 C5             PUSH BC
1811++6CA5 CD AB 6C       CALL L6011_171
1812++6CA8 C1             POP BC
1813++6CA9 18 12          JR L6011_173
1814++6CAB              L6011_171:
1815++6CAB 78             LD A,B
1816++6CAC CD 23 6D       CALL L6011_184
1817++6CAF              L6011_172:
1818++6CAF 01 AF 1A       LD BC,#1AAF
1819++6CB2 ED 69          OUT (C),L
1820++6CB4 06 1B          LD B,#1B
1821++6CB6 ED 61          OUT (C),H
1822++6CB8 06 1C          LD B,#1C
1823++6CBA ED 79          OUT (C),A
1824++6CBC C9             RET
1825++6CBD              L6011_173:
1826++6CBD 79             LD A,C
1827++6CBE CD 23 6D       CALL L6011_184
1828++6CC1              L6011_174:
1829++6CC1 01 AF 1D       LD BC,#1DAF
1830++6CC4 ED 59          OUT (C),E
1831++6CC6 06 1E          LD B,#1E
1832++6CC8 ED 51          OUT (C),D
1833++6CCA 06 1F          LD B,#1F
1834++6CCC ED 79          OUT (C),A
1835++6CCE C9             RET
1836++6CCF              L6011_175:
1837++6CCF CD 37 6D       CALL L6011_186
1838++6CD2 18 DB          JR L6011_172
1839++6CD4              L6011_176:
1840++6CD4 CD 37 6D       CALL L6011_186
1841++6CD7 18 E8          JR L6011_174
1842++6CD9              L6011_177:
1843++6CD9 78             LD A,B
1844++6CDA 01 AF 28       LD BC,#28AF
1845++6CDD ED 79          OUT (C),A
1846++6CDF C9             RET
1847++6CE0              L6011_178:
1848++6CE0 78             LD A,B
1849++6CE1 01 AF 26       LD BC,#26AF
1850++6CE4 ED 79          OUT (C),A
1851++6CE6 C9             RET
1852++6CE7              L6011_179:
1853++6CE7 C5             PUSH BC
1854++6CE8 CD D9 6C       CALL L6011_177
1855++6CEB C1             POP BC
1856++6CEC 41             LD B,C
1857++6CED 18 F1          JR L6011_178
1858++6CEF              L6011_180:
1859++6CEF 4B             LD C,E
1860++6CF0 CD 16 6D       CALL L6011_183
1861++6CF3 4C             LD C,H
1862++6CF4 CD FA 6C       CALL L6011_181
1863++6CF7 4D             LD C,L
1864++6CF8 18 0D          JR L6011_182
1865++6CFA              L6011_181:
1866++6CFA 79             LD A,C
1867++6CFB CB 0F          RRC A
1868++6CFD CB 0F          RRC A
1869++6CFF CB 0F          RRC A
1870++6D01 E6 20          AND #20
1871++6D03 32 21 7F       LD (#7F21),A
1872++6D06 C9             RET
1873++6D07              L6011_182:
1874++6D07 79             LD A,C
1875++6D08 CB 0F          RRC A
1876++6D0A CB 0F          RRC A
1877++6D0C CB 0F          RRC A
1878++6D0E CB 0F          RRC A
1879++6D10 E6 10          AND #10
1880++6D12 32 22 7F       LD (#7F22),A
1881++6D15 C9             RET
1882++6D16              L6011_183:
1883++6D16 79             LD A,C
1884++6D17 CB 27          SLA A
1885++6D19 CB 27          SLA A
1886++6D1B CB 27          SLA A
1887++6D1D E6 08          AND #08
1888++6D1F 32 23 7F       LD (#7F23),A
1889++6D22 C9             RET
1890++6D23              L6011_184:
1891++6D23 CB 7F          BIT 7,A
1892++6D25 20 05          JR NZ,L6011_185
1893++6D27 E6 3F          AND #3F
1894++6D29 C6 20          ADD A,#20
1895++6D2B C9             RET
1896++6D2C              L6011_185:
1897++6D2C E6 0F          AND #0F
1898++6D2E C6 61          ADD A,#61
1899++6D30 D9             EXX
1900++6D31 21 15 7F       LD HL,#7F15
1901++6D34 86             ADD A,(HL)
1902++6D35 D9             EXX
1903++6D36 C9             RET
1904++6D37              L6011_186:
1905++6D37 78             LD A,B
1906++6D38 E6 03          AND #03
1907++6D3A D9             EXX
1908++6D3B 26 60          LD H,#60
1909++6D3D 6F             LD L,A
1910++6D3E 7E             LD A,(HL)
1911++6D3F D9             EXX
1912++6D40 C9             RET
1913++6D41 B7             OR A
1914++6D42 CA BA 73       JP Z,L7143_33
1915++6D45 3D             DEC A
1916++6D46 CA 2B 74       JP Z,L7143_44
1917++6D49 C9             RET
1918++6D4A              L6011_187:
1919++6D4A C9             RET
1920++6D4B              L6011_188:
1921++6D4B 7C             LD A,H
1922++6D4C B5             OR L
1923++6D4D CA AB 6D       JP Z,L6011_197
1924++6D50 CB 7C          BIT 7,H
1925++6D52 F5             PUSH AF
1926++6D53 CB BC          RES 7,H
1927++6D55 D5             PUSH DE
1928++6D56 E5             PUSH HL
1929++6D57 21 00 00       LD HL,#0000
1930++6D5A D9             EXX
1931++6D5B D1             POP DE
1932++6D5C 21 00 00       LD HL,#0000
1933++6D5F              L6011_189:
1934++6D5F D9             EXX
1935++6D60              L6011_190:
1936++6D60 22 46 7F       LD (#7F46),HL
1937++6D63 CD 4F 63       CALL L6011_36
1938++6D66 28 3E          JR Z,L6011_196
1939++6D68 01 10 00       LD BC,#0010
1940++6D6B 09             ADD HL,BC
1941++6D6C 7E             LD A,(HL)
1942++6D6D B7             OR A
1943++6D6E 28 05          JR Z,L6011_191
1944++6D70 ED 42          SBC HL,BC
1945++6D72 7E             LD A,(HL)
1946++6D73 CB 47          BIT 0,A
1947++6D75              L6011_191:
1948++6D75 2A 46 7F       LD HL,(#7F46)
1949++6D78 23             INC HL
1950++6D79 28 E5          JR Z,L6011_190
1951++6D7B D9             EXX
1952++6D7C 23             INC HL
1953++6D7D B7             OR A
1954++6D7E ED 52          SBC HL,DE
1955++6D80 28 04          JR Z,L6011_192
1956++6D82 19             ADD HL,DE
1957++6D83 C3 5F 6D       JP L6011_189
1958++6D86              L6011_192:
1959++6D86 D9             EXX
1960++6D87 2B             DEC HL
1961++6D88 CD 0B 63       CALL L6011_34
1962++6D8B EB             EX DE,HL
1963++6D8C 23             INC HL
1964++6D8D D1             POP DE
1965++6D8E 01 FF FF       LD BC,#FFFF
1966++6D91              L6011_193:
1967++6D91 7E             LD A,(HL)
1968++6D92 B7             OR A
1969++6D93 28 09          JR Z,L6011_194
1970++6D95 7A             LD A,D
1971++6D96 FE C0          CP #C0
1972++6D98 30 06          JR NC,L6011_195
1973++6D9A ED A0          LDI
1974++6D9C 10 F3          DJNZ L6011_193
1975++6D9E              L6011_194:
1976++6D9E AF             XOR A
1977++6D9F 12             LD (DE),A
1978++6DA0              L6011_195:
1979++6DA0 F1             POP AF
1980++6DA1 CC F4 6B       CALL Z,L6011_155
1981++6DA4 AF             XOR A
1982++6DA5 C9             RET
1983++6DA6              L6011_196:
1984++6DA6 D1             POP DE
1985++6DA7 F1             POP AF
1986++6DA8 AF             XOR A
1987++6DA9 3C             INC A
1988++6DAA C9             RET
1989++6DAB              L6011_197:
1990++6DAB 21 00 00       LD HL,#0000
1991++6DAE D9             EXX
1992++6DAF 01 00 00       LD BC,#0000
1993++6DB2              L6011_198:
1994++6DB2 D9             EXX
1995++6DB3              L6011_199:
1996++6DB3 22 46 7F       LD (#7F46),HL
1997++6DB6 CD 4F 63       CALL L6011_36
1998++6DB9 28 18          JR Z,L6011_201
1999++6DBB 01 10 00       LD BC,#0010
2000++6DBE 09             ADD HL,BC
2001++6DBF 7E             LD A,(HL)
2002++6DC0 B7             OR A
2003++6DC1 28 05          JR Z,L6011_200
2004++6DC3 ED 42          SBC HL,BC
2005++6DC5 7E             LD A,(HL)
2006++6DC6 CB 47          BIT 0,A
2007++6DC8              L6011_200:
2008++6DC8 2A 46 7F       LD HL,(#7F46)
2009++6DCB 23             INC HL
2010++6DCC 28 E5          JR Z,L6011_199
2011++6DCE D9             EXX
2012++6DCF 03             INC BC
2013++6DD0 C3 B2 6D       JP L6011_198
2014++6DD3              L6011_201:
2015++6DD3 D9             EXX
2016++6DD4 21 00 00       LD HL,#0000
2017++6DD7 22 46 7F       LD (#7F46),HL
2018++6DDA ED 43 44 7F    LD (#7F44),BC
2019++6DDE 78             LD A,B
2020++6DDF B1             OR C
2021++6DE0 C9             RET
2022++6DE1              L6011_202:
2023++6DE1 C9             RET
2024++6DE2              L6011_203:
2025++6DE2 3E F2          LD A,#F2
2026++6DE4 CD 9C 68       CALL L6011_108
2027++6DE7 CD 9F 6A       CALL L6011_144
2028++6DEA CD 24 6E       CALL L6011_206
2029++6DED 3E 01          LD A,#01
2030++6DEF C0             RET NZ
2031++6DF0 21 AB 7F       LD HL,#7FAB
2032++6DF3 CD 4E 40       CALL #404E
2033++6DF6 3E 02          LD A,#02
2034++6DF8 28 0C          JR Z,L6011_204
2035++6DFA 22 30 7F       LD (#7F30),HL
2036++6DFD ED 53 32 7F    LD (#7F32),DE
2037++6E01 CD 58 6F       CALL L6011_229
2038++6E04 AF             XOR A
2039++6E05 C9             RET
2040++6E06              L6011_204:
2041++6E06 B7             OR A
2042++6E07 C9             RET
2043++6E08              L6011_205:
2044++6E08 7A             LD A,D
2045++6E09 FE FF          CP #FF
2046++6E0B 28 46          JR Z,L6011_209
2047++6E0D FE FE          CP #FE
2048++6E0F 28 4E          JR Z,L6011_210
2049++6E11 FE FD          CP #FD
2050++6E13 28 CD          JR Z,L6011_203
2051++6E15 C5             PUSH BC
2052++6E16 E6 01          AND #01
2053++6E18 C6 F3          ADD A,#F3
2054++6E1A CD 9C 68       CALL L6011_108
2055++6E1D C1             POP BC
2056++6E1E 58             LD E,B
2057++6E1F 03             INC BC
2058++6E20 78             LD A,B
2059++6E21 B1             OR C
2060++6E22 C8             RET Z
2061++6E23 7B             LD A,E
2062++6E24              L6011_206:
2063++6E24 B7             OR A
2064++6E25 28 1C          JR Z,L6011_207
2065++6E27 3D             DEC A
2066++6E28 0E 00          LD C,#00
2067++6E2A 28 19          JR Z,L6011_208
2068++6E2C 3D             DEC A
2069++6E2D 0E 05          LD C,#05
2070++6E2F 28 14          JR Z,L6011_208
2071++6E31 3D             DEC A
2072++6E32 28 0F          JR Z,L6011_207
2073++6E34 3D             DEC A
2074++6E35 0E 03          LD C,#03
2075++6E37 28 0C          JR Z,L6011_208
2076++6E39 3D             DEC A
2077++6E3A 0E 04          LD C,#04
2078++6E3C 28 07          JR Z,L6011_208
2079++6E3E 3D             DEC A
2080++6E3F 0E 06          LD C,#06
2081++6E41 28 02          JR Z,L6011_208
2082++6E43              L6011_207:
2083++6E43 0E 01          LD C,#01
2084++6E45              L6011_208:
2085++6E45 79             LD A,C
2086++6E46 CD 1B 40       CALL #401B
2087++6E49 CD 03 40       CALL #4003
2088++6E4C C0             RET NZ
2089++6E4D CD 09 40       CALL #4009
2090++6E50 C0             RET NZ
2091++6E51 AF             XOR A
2092++6E52 C9             RET
2093++6E53              L6011_209:
2094++6E53 21 00 00       LD HL,#0000
2095++6E56 22 30 7F       LD (#7F30),HL
2096++6E59 22 32 7F       LD (#7F32),HL
2097++6E5C C3 58 6F       JP L6011_229
2098++6E5F              L6011_210:
2099++6E5F 21 00 00       LD HL,#0000
2100++6E62 54             LD D,H
2101++6E63 5D             LD E,L
2102++6E64 3A 18 60       LD A,(#6018)
2103++6E67 CD AF 6C       CALL L6011_172
2104++6E6A 3E F4          LD A,#F4
2105++6E6C CD C1 6C       CALL L6011_174
2106++6E6F 06 1F          LD B,#1F
2107++6E71 CD D9 6C       CALL L6011_177
2108++6E74 06 FF          LD B,#FF
2109++6E76 CD E0 6C       CALL L6011_178
2110++6E79 01 AF 27       LD BC,#27AF
2111++6E7C 3E 01          LD A,#01
2112++6E7E ED 79          OUT (C),A
2113++6E80 CD 7A 6C       CALL L6011_164
2114++6E83              L6011_211:
2115++6E83 3A 18 60       LD A,(#6018)
2116++6E86 CD AF 6C       CALL L6011_172
2117++6E89 3E F3          LD A,#F3
2118++6E8B CD C1 6C       CALL L6011_174
2119++6E8E 01 AF 27       LD BC,#27AF
2120++6E91 3E 01          LD A,#01
2121++6E93 ED 79          OUT (C),A
2122++6E95 CD 7A 6C       CALL L6011_164
2123++6E98              L6011_212:
2124++6E98 3E F3          LD A,#F3
2125++6E9A C3 9C 68       JP L6011_108
2126++6E9D              L6011_213:
2127++6E9D 06 FF          LD B,#FF
2128++6E9F 23             INC HL
2129++6EA0              L6011_214:
2130++6EA0 7E             LD A,(HL)
2131++6EA1 B7             OR A
2132++6EA2 C8             RET Z
2133++6EA3 FE 5C          CP #5C
2134++6EA5 37             SCF
2135++6EA6 C8             RET Z
2136++6EA7 FE 2F          CP #2F
2137++6EA9 37             SCF
2138++6EAA C8             RET Z
2139++6EAB 23             INC HL
2140++6EAC 10 F2          DJNZ L6011_214
2141++6EAE AF             XOR A
2142++6EAF 3D             DEC A
2143++6EB0 C9             RET
2144++6EB1              L6011_215:
2145++6EB1 11 00 5E       LD DE,#5E00
2146++6EB4 12             LD (DE),A
2147++6EB5 13             INC DE
2148++6EB6 23             INC HL
2149++6EB7 08             EX AF,AF'
2150++6EB8 3E FF          LD A,#FF
2151++6EBA 90             SUB B
2152++6EBB C8             RET Z
2153++6EBC 0E FF          LD C,#FF
2154++6EBE 47             LD B,A
2155++6EBF              L6011_216:
2156++6EBF ED A0          LDI
2157++6EC1 10 FC          DJNZ L6011_216
2158++6EC3 22 4F 7F       LD (#7F4F),HL
2159++6EC6 AF             XOR A
2160++6EC7 12             LD (DE),A
2161++6EC8 08             EX AF,AF'
2162++6EC9 3C             INC A
2163++6ECA C9             RET
2164++6ECB              L6011_217:
2165++6ECB E5             PUSH HL
2166++6ECC CD 9D 6E       CALL L6011_213
2167++6ECF E1             POP HL
2168++6ED0 38 02          JR C,L6011_218
2169++6ED2 28 58          JR Z,L6011_226
2170++6ED4              L6011_218:
2171++6ED4 3C             INC A
2172++6ED5 C8             RET Z
2173++6ED6 3E 10          LD A,#10
2174++6ED8 CD B1 6E       CALL L6011_215
2175++6EDB C8             RET Z
2176++6EDC CD 20 6F       CALL L6011_224
2177++6EDF              L6011_219:
2178++6EDF 21 00 5E       LD HL,#5E00
2179++6EE2 CD 4E 40       CALL #404E
2180++6EE5 28 14          JR Z,L6011_220
2181++6EE7 22 30 7F       LD (#7F30),HL
2182++6EEA ED 53 32 7F    LD (#7F32),DE
2183++6EEE CD 58 6F       CALL L6011_229
2184++6EF1 2A 4F 7F       LD HL,(#7F4F)
2185++6EF4 CD 9D 6E       CALL L6011_213
2186++6EF7 38 07          JR C,L6011_221
2187++6EF9 28 07          JR Z,L6011_222
2188++6EFB              L6011_220:
2189++6EFB CD 16 6F       CALL L6011_223
2190++6EFE AF             XOR A
2191++6EFF C9             RET
2192++6F00              L6011_221:
2193++6F00 3E 10          LD A,#10
2194++6F02              L6011_222:
2195++6F02 2A 4F 7F       LD HL,(#7F4F)
2196++6F05 CD B1 6E       CALL L6011_215
2197++6F08 28 F1          JR Z,L6011_220
2198++6F0A FE 11          CP #11
2199++6F0C 28 D1          JR Z,L6011_219
2200++6F0E 21 00 5E       LD HL,#5E00
2201++6F11 CD 2C 6F       CALL L6011_226
2202++6F14 28 E5          JR Z,L6011_220
2203++6F16              L6011_223:
2204++6F16 E5             PUSH HL
2205++6F17 D5             PUSH DE
2206++6F18 CD 26 6F       CALL L6011_225
2207++6F1B D1             POP DE
2208++6F1C E1             POP HL
2209++6F1D AF             XOR A
2210++6F1E 3C             INC A
2211++6F1F C9             RET
2212++6F20              L6011_224:
2213++6F20 11 34 7F       LD DE,#7F34
2214++6F23 C3 21 40       JP #4021
2215++6F26              L6011_225:
2216++6F26 21 34 7F       LD HL,#7F34
2217++6F29 C3 1E 40       JP #401E
2218++6F2C              L6011_226:
2219++6F2C CD 4E 40       CALL #404E
2220++6F2F C8             RET Z
2221++6F30 22 30 7F       LD (#7F30),HL
2222++6F33 ED 53 32 7F    LD (#7F32),DE
2223++6F37 D9             EXX
2224++6F38 11 6B 7F       LD DE,#7F6B
2225++6F3B CD 36 40       CALL #4036
2226++6F3E 2A 87 7F       LD HL,(#7F87)
2227++6F41 ED 5B 89 7F    LD DE,(#7F89)
2228++6F45 C9             RET
2229++6F46              L6011_227:
2230++6F46 11 30 7F       LD DE,#7F30
2231++6F49 CD 21 40       CALL #4021
2232++6F4C FE 01          CP #01
2233++6F4E 28 08          JR Z,L6011_229
2234++6F50 B7             OR A
2235++6F51 C0             RET NZ
2236++6F52              L6011_228:
2237++6F52 21 30 7F       LD HL,#7F30
2238++6F55 C3 12 40       JP #4012
2239++6F58              L6011_229:
2240++6F58 21 30 7F       LD HL,#7F30
2241++6F5B C3 1E 40       JP #401E
2242++6F5E              L6011_230:
2243++6F5E CD B7 6F       CALL L6011_238
2244++6F61 CD 39 40       CALL #4039
2245++6F64 C0             RET NZ
2246++6F65 22 28 7F       LD (#7F28),HL
2247++6F68 ED 53 2A 7F    LD (#7F2A),DE
2248++6F6C E5             PUSH HL
2249++6F6D D5             PUSH DE
2250++6F6E 11 6B 7F       LD DE,#7F6B
2251++6F71 CD 36 40       CALL #4036
2252++6F74 CD F4 6B       CALL L6011_155
2253++6F77 D1             POP DE
2254++6F78 E1             POP HL
2255++6F79 AF             XOR A
2256++6F7A C9             RET
2257++6F7B              L6011_231:
2258++6F7B CD B7 6F       CALL L6011_238
2259++6F7E C3 3C 40       JP #403C
2260++6F81              L6011_232:
2261++6F81 CD 3F 40       CALL #403F
2262++6F84 C8             RET Z
2263++6F85 C9             RET
2264++6F86              L6011_233:
2265++6F86 01 AF 12       LD BC,#12AF
2266++6F89 ED 78          IN A,(C)
2267++6F8B ED 4B 02 60    LD BC,(#6002)
2268++6F8F B9             CP C
2269++6F90 C0             RET NZ
2270++6F91 C3 00 00       JP #0000
2271++6F94              L6011_234:
2272++6F94 22 92 6F       LD (#6F92),HL
2273++6F97 32 4C 7F       LD (#7F4C),A
2274++6F9A C9             RET
2275++6F9B FE FF          CP #FF
2276++6F9D 28 F5          JR Z,L6011_234
2277++6F9F B7             OR A
2278++6FA0 28 07          JR Z,L6011_235
2279++6FA2 3D             DEC A
2280++6FA3 28 0A          JR Z,L6011_236
2281++6FA5 3D             DEC A
2282++6FA6 28 0B          JR Z,L6011_237
2283++6FA8 C9             RET
2284++6FA9              L6011_235:
2285++6FA9 CD B3 6F       CALL L6011_237
2286++6FAC 32 4C 7F       LD (#7F4C),A
2287++6FAF              L6011_236:
2288++6FAF 32 4D 7F       LD (#7F4D),A
2289++6FB2 C9             RET
2290++6FB3              L6011_237:
2291++6FB3 32 4E 7F       LD (#7F4E),A
2292++6FB6 C9             RET
2293++6FB7              L6011_238:
2294++6FB7 E5             PUSH HL
2295++6FB8 CD CB 67       CALL L6011_100
2296++6FBB 21 6B 7F       LD HL,#7F6B
2297++6FBE CD 33 40       CALL #4033
2298++6FC1 E1             POP HL
2299++6FC2 C9             RET
2300++6FC3 B7             OR A
2301++6FC4 C8             RET Z
2302++6FC5 FE 09          CP #09
2303++6FC7 D0             RET NC
2304++6FC8 F3             DI
2305++6FC9 5F             LD E,A
2306++6FCA 16 00          LD D,#00
2307++6FCC 3E 60          LD A,#60
2308++6FCE CD CC 68       CALL L6011_115
2309++6FD1 2A 1A 7F       LD HL,(#7F1A)
2310++6FD4 19             ADD HL,DE
2311++6FD5 4E             LD C,(HL)
2312++6FD6 CD BE 68       CALL L6011_113
2313++6FD9 79             LD A,C
2314++6FDA B7             OR A
2315++6FDB FB             EI
2316++6FDC C9             RET
2317++6FDD              ; ABI плагинов Wild Commander. Номер функции приходит в A. Диспетчер читает
2318++6FDD              ; соответствующее слово FUX, кладёт адрес на стек и выполняет RET, то есть
2319++6FDD              ; передаёт управление выбранной процедуре без дополнительного уровня CALL.
2320++6FDD              ; Это внешний API плагинов; его нельзя смешивать с внутренним API WildDOS #4000.
2321++6FDD              PLUGIN_API_DISPATCH:
2322++6FDD              FUN:
2323++6FDD D9             EXX
2324++6FDE E5             PUSH HL
2325++6FDF 21 EF 6F       LD HL,PLUGIN_API_TABLE
2326++6FE2 06 00          LD B,#00
2327++6FE4 4F             LD C,A
2328++6FE5 09             ADD HL,BC
2329++6FE6 09             ADD HL,BC
2330++6FE7 4E             LD C,(HL)
2331++6FE8 23             INC HL
2332++6FE9 46             LD B,(HL)
2333++6FEA E1             POP HL
2334++6FEB C5             PUSH BC                 ; Адрес выбранной процедуры становится адресом возврата.
2335++6FEC D9             EXX
2336++6FED 08             EX AF,AF'
2337++6FEE              FEX:
2338++6FEE C9             RET                     ; Пункты 76, 77 и 82 используют этот пустой обработчик.
2339++6FEF
2340++6FEF              ; 87 двухбайтовых адресов API. Диапазон #6FEF..#709C является данными,
2341++6FEF              ; а не исполняемыми командами.
2342++6FEF              PLUGIN_API_TABLE:
2343++6FEF              FUX:
2344++6FEF F9 68          DW #68F9                ;  0 MNGC_PL   — переключить страницу плагина.
2345++6FF1 2C 79          DW #792C                ;  1 PRWOW     — нарисовать окно.
2346++6FF3 CE 7A          DW #7ACE                ;  2 RRESB     — восстановить сохранённую область.
2347++6FF5 25 7D          DW #7D25                ;  3 PRSRW     — вывести строку.
2348++6FF7 39 7D          DW #7D39                ;  4 PRIAT     — записать атрибуты.
2349++6FF9 45 7D          DW #7D45                ;  5 GADRW     — получить экранный адрес.
2350++6FFB D5 7C          DW #7CD5                ;  6 CURSOR    — обновить курсор.
2351++6FFD F2 7C          DW #7CF2                ;  7 CURSER    — погасить курсор.
2352++6FFF 73 66          DW #6673                ;  8 YN        — диалог «да/нет».
2353++7001 76 71          DW #7176                ;  9 ISTR      — строковый редактор.
2354++7003 26 6A          DW #6A26                ; 10 NORK      — нормализовать регистр символа.
2355++7005 81 7D          DW #7D81                ; 11 TXTPR     — печать управляющей строки.
2356++7007 6D 7D          DW #7D6D                ; 12 MEZZ      — измерить/подготовить строку.
2357++7009 30 6C          DW #6C30                ; 13 DMAPL     — операция DMA для плагина.
2358++700B C1 6B          DW #6BC1                ; 14 TURBOPL   — управление частотой и кэшем.
2359++700D 9F 69          DW #699F                ; 15 GEDPL     — получить окружение плагина.
2360++700F 7C 74          DW #747C
2361++7011 53 74          DW #7453                ; 17 UPPP      — вверх.
2362++7013 59 74          DW #7459                ; 18 DWWW      — вниз.
2363++7015 5F 74          DW #745F                ; 19 LFFF      — влево.
2364++7017 65 74          DW #7465                ; 20 RGGG      — вправо.
2365++7019 DC 74          DW #74DC
2366++701B 77 74          DW #7477
2367++701D 9A 74          DW #749A
2368++701F 81 74          DW #7481
2369++7021 6B 74          DW #746B
2370++7023 71 74          DW #7471
2371++7025 86 74          DW #7486
2372++7027 8B 74          DW #748B
2373++7029 9E 74          DW #749E
2374++702B A2 74          DW #74A2
2375++702D A6 74          DW #74A6
2376++702F AA 74          DW #74AA
2377++7031 AE 74          DW #74AE
2378++7033 B2 74          DW #74B2
2379++7035 B6 74          DW #74B6
2380++7037 BA 74          DW #74BA
2381++7039 BE 74          DW #74BE
2382++703B C2 74          DW #74C2
2383++703D CB 74          DW #74CB
2384++703F D1 74          DW #74D1
2385++7041 D7 74          DW #74D7
2386++7043 41 6D          DW #6D41                ; 42 KBSCN     — чтение клавиатурного состояния.
2387++7045 90 74          DW #7490
2388++7047 C6 74          DW #74C6
2389++7049 5B 75          DW #755B                ; 45 ANYK      — любая клавиша.
2390++704B 4B 74          DW #744B                ; 46 USPO      — ждать отпускания.
2391++704D 43 74          DW #7443                ; 47 NUSP      — ждать нажатия.
2392++704F AB 6A          DW #6AAB                ; 48 XLD512    — LOAD512 с пейджингом плагина.
2393++7051 BF 6A          DW #6ABF                ; 49 XSV512    — SAVE512 с пейджингом плагина.
2394++7053 D0 6A          DW #6AD0                ; 50 XGIPGPL   — GIPAG для окружения плагина.
2395++7055 D9 6A          DW #6AD9                ; 51 XTNTRY2   — экспорт записи каталога.
2396++7057 E2 6A          DW #6AE2                ; 52 XCHTS     — цепочка кластеров в сектора.
2397++7059 EB 6A          DW #6AEB                ; 53 XTNTRYN   — получить следующую запись.
2398++705B F4 6A          DW #6AF4                ; 54 XTMRKFL   — отметить файл.
2399++705D FD 6A          DW #6AFD                ; 55 XTMRKNX   — отметить следующую запись.
2400++705F 06 6B          DW #6B06                ; 56 XADIR     — добавить каталог.
2401++7061 0F 6B          DW #6B0F                ; 57 XSTREAM   — потоковый доступ.
2402++7063 20 6B          DW #6B20                ; 58 XXTETY2   — расширенное перечисление каталога.
2403++7065 29 6B          DW #6B29                ; 59 XFENTRY   — получить файловую запись.
2404++7067 32 6B          DW #6B32                ; 60 XLD256    — чтение по 256 байт.
2405++7069 3B 6B          DW #6B3B                ; 61 XLDNON    — пропуск потоковых данных.
2406++706B 44 6B          DW #6B44                ; 62 XGFILE    — получить файл.
2407++706D 4D 6B          DW #6B4D                ; 63 XGDIR     — получить каталог.
2408++706F 48 69          DW #6948                ; 64 MNGV_PL   — управление видеостраницей.
2409++7071 30 69          DW #6930                ; 65 MNGCVPL   — управление страницей и видео.
2410++7073 1A 6A          DW #6A1A                ; 66 GVmod     — получить Vmod.
2411++7075 1E 6A          DW #6A1E                ; 67 GYoff     — получить Yoff.
2412++7077 22 6A          DW #6A22                ; 68 GXoff     — получить Xoff.
2413++7079 6B 69          DW #696B                ; 69 GVtm      — получить Vtm.
2414++707B 77 69          DW #6977                ; 70 GVtl      — получить Vtl.
2415++707D 8D 69          DW #698D                ; 71 GVsgp     — получить Vsgp.
2416++707F 56 6B          DW #6B56                ; 72 XMKfile   — создать файл через шлюз.
2417++7081 5F 6B          DW #6B5F                ; 73 XMKdir    — создать каталог через шлюз.
2418++7083 68 6B          DW #6B68                ; 74 XREname   — переименовать через шлюз.
2419++7085 71 6B          DW #6B71                ; 75 XDelFl    — удалить через шлюз.
2420++7087 EE 6F          DW #6FEE                ; 76 FEX       — пустой обработчик.
2421++7089 EE 6F          DW #6FEE                ; 77 FEX       — пустой обработчик.
2422++708B 14 69          DW #6914                ; 78 MNG0_PL   — страница окна #0000.
2423++708D 22 69          DW #6922                ; 79 MNG8_PL   — страница окна #8000.
2424++708F 38 69          DW #6938                ; 80 MNG0VPL   — страница #0000 с видео.
2425++7091 40 69          DW #6940                ; 81 MNG8VPL   — страница #8000 с видео.
2426++7093 EE 6F          DW #6FEE                ; 82 FEX       — пустой обработчик.
2427++7095 C3 6F          DW #6FC3                ; 83 PRM_PL    — параметры плагина.
2428++7097 E6 7B          DW #7BE6                ; 84 SCRLWOW   — прокрутить окно.
2429++7099 95 74          DW #7495
2430++709B 9B 6F          DW #6F9B                ; 86 INT_PL    — установить обработчик прерывания плагина.
2431++709D                ASSERT $ == #709D, нарушена конечная граница FUX
2432++709D              L6011_240:
2433++709D C5             PUSH BC
2434++709E CD B2 70       CALL L6011_241
2435++70A1 E1             POP HL
2436++70A2 3E 00          LD A,#00
2437++70A4 CD D3 70       CALL L6011_244
2438++70A7 F5             PUSH AF
2439++70A8 3E 02          LD A,#02
2440++70AA CD B1 68       CALL L6011_110
2441++70AD CD F4 6B       CALL L6011_155
2442++70B0 F1             POP AF
2443++70B1 C9             RET
2444++70B2              L6011_241:
2445++70B2 3A 00 B0       LD A,(#B000)
2446++70B5 32 15 7F       LD (#7F15),A
2447++70B8 21 23 B0       LD HL,#B023
2448++70BB 86             ADD A,(HL)
2449++70BC C6 61          ADD A,#61
2450++70BE C3 B1 68       JP L6011_110
2451++70C1              L6011_242:
2452++70C1 3E 01          LD A,#01
2453++70C3              L6011_243:
2454++70C3 F5             PUSH AF
2455++70C4 CD B2 70       CALL L6011_241
2456++70C7 F1             POP AF
2457++70C8 CD D3 70       CALL L6011_244
2458++70CB F5             PUSH AF
2459++70CC 3E 02          LD A,#02
2460++70CE CD B1 68       CALL L6011_110
2461++70D1 F1             POP AF
2462++70D2 C9             RET
2463++70D3              L6011_244:
2464++70D3 F5             PUSH AF
2465++70D4 AF             XOR A
2466++70D5 32 21 7F       LD (#7F21),A
2467++70D8 32 22 7F       LD (#7F22),A
2468++70DB 32 23 7F       LD (#7F23),A
2469++70DE CD C1 68       CALL L6011_114
2470++70E1 F1             POP AF
2471++70E2 ED 4B 00 60    LD BC,(#6000)
2472++70E6 ED 43 0B 60    LD (#600B),BC
2473++70EA ED 43 18 60    LD (#6018),BC
2474++70EE C5             PUSH BC
2475++70EF ED 4B 2A 7F    LD BC,(#7F2A)
2476++70F3 C5             PUSH BC
2477++70F4 ED 4B 28 7F    LD BC,(#7F28)
2478++70F8 C5             PUSH BC
2479++70F9 ED 4B 11 60    LD BC,(L6011)
2480++70FD ED 43 13 60    LD (#6013),BC
2481++7101 DD 22 24 7F    LD (#7F24),IX
2482++7105 08             EX AF,AF'
2483++7106 3E 00          LD A,#00
2484++7108 08             EX AF,AF'
2485++7109 D9             EXX
2486++710A DD 6E 10       LD L,(IX+#10)
2487++710D DD 66 11       LD H,(IX+#11)
2488++7110 DD 5E 0C       LD E,(IX+#0C)
2489++7113 16 00          LD D,#00
2490++7115 19             ADD HL,DE
2491++7116 DD 5E 12       LD E,(IX+#12)
2492++7119 DD 56 13       LD D,(IX+#13)
2493++711C D9             EXX
2494++711D 01 00 5E       LD BC,#5E00
2495++7120 CD 00 80       CALL F5WND
2496++7123 DD 2A 24 7F    LD IX,(#7F24)
2497++7127 2A 13 60       LD HL,(#6013)
2498++712A 22 11 60       LD (L6011),HL
2499++712D E1             POP HL
2500++712E 22 28 7F       LD (#7F28),HL
2501++7131 E1             POP HL
2502++7132 22 2A 7F       LD (#7F2A),HL
2503++7135 E1             POP HL
2504++7136 F5             PUSH AF
2505++7137 7D             LD A,L
2506++7138 CD 9C 68       CALL L6011_108
2507++713B CD ED 6B       CALL L6011_154
2508++713E CD 7A 6A       CALL L6011_139
2509++7141 F1             POP AF
2510++7142 C9             RET
2511++7143
# file closed: MD20_DISASM.ASM
  26+ 7143                      ASSERT $ == #7143, нарушена граница MD20_DISASM.ASM
  27+ 7143
  28+ 7143                      INCLUDE "PS2P_DISASM.ASM"
# file opened: PS2P_DISASM.ASM
   1++7143              ; PS2P — клавиатура PS/2, состояние клавиш и строковый редактор.
   2++7143              ; Exact-диапазон: #7143..#7827.
   3++7143              ; Основные процедуры и данные:
   4++7143              ;   #7143 TAB4E — проверить 20 байтов состояния клавиш; Z означает «нет нажатий»;
   5++7143              ;   #7176 ISTR  — автомат строкового ввода и редактирования;
   6++7143              ;   #7259 IINIT — инициализировать буфер, размеры и положение курсора;
   7++7143              ;   #73BA CLAvA — получить символ с учётом языка, Shift и Caps;
   8++7143              ;   #742B CLAVA — упрощённое преобразование scan-кода в символ;
   9++7143              ;   #7443 NUSP  — ждать нажатия; #744B USPO — ждать отпускания;
  10++7143              ;   #75C9 PSD   — принять PS/2 scan-code set 2;
  11++7143              ;   #767A KFF   — зарегистрировать нажатие; #7685 KOF — отпускание;
  12++7143              ;   #76B4 TAB   — таблица текущего состояния клавиш;
  13++7143              ;   #76CE TAI0  — scan-коды символьных клавиш;
  14++7143              ;   #7701..#77F1 — английская и русская раскладки;
  15++7143              ;   #77F2 ISINF — строки индикаторов режима ввода.
  16++7143              TAB4E:
  17++7143              L7143:
  18++7143 2A B4 76       LD HL,(#76B4)
  19++7146 7C             LD A,H
  20++7147 B5             OR L
  21++7148 2A B6 76       LD HL,(#76B6)
  22++714B B4             OR H
  23++714C B5             OR L
  24++714D 2A B8 76       LD HL,(#76B8)
  25++7150 B4             OR H
  26++7151 B5             OR L
  27++7152 2A BA 76       LD HL,(#76BA)
  28++7155 B4             OR H
  29++7156 B5             OR L
  30++7157 2A BC 76       LD HL,(#76BC)
  31++715A B4             OR H
  32++715B B5             OR L
  33++715C 2A BE 76       LD HL,(#76BE)
  34++715F B4             OR H
  35++7160 B5             OR L
  36++7161 2A C0 76       LD HL,(#76C0)
  37++7164 B4             OR H
  38++7165 B5             OR L
  39++7166 2A C2 76       LD HL,(#76C2)
  40++7169 B4             OR H
  41++716A B5             OR L
  42++716B 2A C4 76       LD HL,(#76C4)
  43++716E B4             OR H
  44++716F B5             OR L
  45++7170 2A C6 76       LD HL,(#76C6)
  46++7173 B4             OR H
  47++7174 B5             OR L
  48++7175 C9             RET
  49++7176              ; Автомат строкового редактора.
  50++7176              ; Вход A задаёт режим: #FF — первичная инициализация, #FD — ввод в окне,
  51++7176              ; #FE — положение строки состояния, #FC — Insert/Caps, 0 — обработка кадра,
  52++7176              ; 1 — завершение. Рабочие адреса и курсор хранятся в IWAD..IISP.
  53++7176              ISTR:
  54++7176              L7143_0:
  55++7176 3C             INC A
  56++7177 CA 59 72       JP Z,L7143_11
  57++717A 3C             INC A
  58++717B CA 2E 73       JP Z,L7143_23
  59++717E 3C             INC A
  60++717F CA 78 72       JP Z,L7143_13
  61++7182 3C             INC A
  62++7183 CA 96 73       JP Z,L7143_30
  63++7186 FE 05          CP #05
  64++7188 CA 71 72       JP Z,L7143_12
  65++718B FE 06          CP #06
  66++718D CA 81 73       JP Z,L7143_29
  67++7190 FE 07          CP #07
  68++7192 CA 3B 73       JP Z,L7143_25
  69++7195 CD 81 74       CALL L7143_57
  70++7198 C4 24 72       CALL NZ,L7143_7
  71++719B CD 90 74       CALL L7143_60
  72++719E C4 40 72       CALL NZ,L7143_10
  73++71A1 CD 65 74       CALL L7143_52
  74++71A4 C4 D8 71       CALL NZ,L7143_3
  75++71A7 CD 5F 74       CALL L7143_51
  76++71AA C4 07 72       CALL NZ,L7143_5
  77++71AD CD 95 74       CALL L7143_61
  78++71B0 C4 25 73       CALL NZ,L7143_22
  79++71B3 CD F8 72       CALL L7143_20
  80++71B6 CD 0B 73       CALL L7143_21
  81++71B9 CD BA 73       CALL L7143_33
  82++71BC C8             RET Z
  83++71BD CD CF 72       CALL L7143_18
  84++71C0 4F             LD C,A
  85++71C1 3A 1B 78       LD A,(INOV)
  86++71C4 B7             OR A
  87++71C5 20 10          JR NZ,L7143_2
  88++71C7 E5             PUSH HL
  89++71C8 C5             PUSH BC
  90++71C9 CD DF 72       CALL L7143_19
  91++71CC 28 07          JR Z,L7143_1
  92++71CE 09             ADD HL,BC
  93++71CF 2B             DEC HL
  94++71D0 54             LD D,H
  95++71D1 5D             LD E,L
  96++71D2 13             INC DE
  97++71D3 ED B8          LDDR
  98++71D5              L7143_1:
  99++71D5 C1             POP BC
 100++71D6 E1             POP HL
 101++71D7              L7143_2:
 102++71D7 71             LD (HL),C
 103++71D8              L7143_3:
 104++71D8 ED 4B 24 78    LD BC,(#7824)
 105++71DC 79             LD A,C
 106++71DD 3C             INC A
 107++71DE B8             CP B
 108++71DF 30 09          JR NC,L7143_4
 109++71E1 CD 9D 72       CALL L7143_15
 110++71E4 32 24 78       LD (#7824),A
 111++71E7 C3 9D 72       JP L7143_15
 112++71EA              L7143_4:
 113++71EA 2A 20 78       LD HL,(#7820)
 114++71ED ED 5B 24 78    LD DE,(#7824)
 115++71F1 5A             LD E,D
 116++71F2 16 00          LD D,#00
 117++71F4 B7             OR A
 118++71F5 ED 52          SBC HL,DE
 119++71F7 C8             RET Z
 120++71F8 D8             RET C
 121++71F9 EB             EX DE,HL
 122++71FA 2A 1E 78       LD HL,(#781E)
 123++71FD ED 52          SBC HL,DE
 124++71FF D0             RET NC
 125++7200 19             ADD HL,DE
 126++7201 23             INC HL
 127++7202 22 1E 78       LD (#781E),HL
 128++7205 AF             XOR A
 129++7206 C9             RET
 130++7207              L7143_5:
 131++7207 ED 4B 24 78    LD BC,(#7824)
 132++720B 79             LD A,C
 133++720C 3D             DEC A
 134++720D B8             CP B
 135++720E 30 09          JR NC,L7143_6
 136++7210 CD 9D 72       CALL L7143_15
 137++7213 32 24 78       LD (#7824),A
 138++7216 C3 9D 72       JP L7143_15
 139++7219              L7143_6:
 140++7219 2A 1E 78       LD HL,(#781E)
 141++721C 7C             LD A,H
 142++721D B5             OR L
 143++721E C8             RET Z
 144++721F 2B             DEC HL
 145++7220 22 1E 78       LD (#781E),HL
 146++7223 C9             RET
 147++7224              L7143_7:
 148++7224 CD 07 72       CALL L7143_5
 149++7227 C8             RET Z
 150++7228 CD CF 72       CALL L7143_18
 151++722B 3A 1B 78       LD A,(INOV)
 152++722E B7             OR A
 153++722F 28 03          JR Z,L7143_9
 154++7231              L7143_8:
 155++7231 36 20          LD (HL),#20
 156++7233 C9             RET
 157++7234              L7143_9:
 158++7234 EB             EX DE,HL
 159++7235 62             LD H,D
 160++7236 6B             LD L,E
 161++7237 23             INC HL
 162++7238 CD DF 72       CALL L7143_19
 163++723B ED B0          LDIR
 164++723D EB             EX DE,HL
 165++723E 18 F1          JR L7143_8
 166++7240              L7143_10:
 167++7240 CD CF 72       CALL L7143_18
 168++7243 EB             EX DE,HL
 169++7244 2A 20 78       LD HL,(#7820)
 170++7247 ED 4B 22 78    LD BC,(#7822)
 171++724B 09             ADD HL,BC
 172++724C EB             EX DE,HL
 173++724D 23             INC HL
 174++724E B7             OR A
 175++724F ED 52          SBC HL,DE
 176++7251 08             EX AF,AF'
 177++7252 19             ADD HL,DE
 178++7253 2B             DEC HL
 179++7254 08             EX AF,AF'
 180++7255 30 DA          JR NC,L7143_8
 181++7257 18 DB          JR L7143_9
 182++7259              ; Инициализировать редактор: сохранить адрес строки, размер буфера,
 183++7259              ; положение курсора и сбросить смещение видимой области.
 184++7259              IINIT:
 185++7259              L7143_11:
 186++7259 22 22 78       LD (#7822),HL
 187++725C ED 53 24 78    LD (#7824),DE
 188++7260 21 00 00       LD HL,#0000
 189++7263 22 1E 78       LD (#781E),HL
 190++7266 6A             LD L,D
 191++7267 22 20 78       LD (#7820),HL
 192++726A AF             XOR A
 193++726B 32 9F 72       LD (#729F),A
 194++726E C3 9D 72       JP L7143_15
 195++7271              L7143_12:
 196++7271 CD 9D 72       CALL L7143_15
 197++7274 2A 22 78       LD HL,(#7822)
 198++7277 C9             RET
 199++7278              L7143_13:
 200++7278 22 22 78       LD (#7822),HL
 201++727B ED 43 24 78    LD (#7824),BC
 202++727F ED 53 1C 78    LD (#781C),DE
 203++7283 D9             EXX
 204++7284 7C             LD A,H
 205++7285 B7             OR A
 206++7286 20 07          JR NZ,L7143_14
 207++7288 3A 25 78       LD A,(#7825)
 208++728B BD             CP L
 209++728C 38 01          JR C,L7143_14
 210++728E 6F             LD L,A
 211++728F              L7143_14:
 212++728F 22 20 78       LD (#7820),HL
 213++7292 21 00 00       LD HL,#0000
 214++7295 22 1E 78       LD (#781E),HL
 215++7298 3E 01          LD A,#01
 216++729A 32 9F 72       LD (#729F),A
 217++729D              L7143_15:
 218++729D F5             PUSH AF
 219++729E 3E 00          LD A,#00
 220++72A0 B7             OR A
 221++72A1 CC C3 72       CALL Z,L7143_17
 222++72A4 C4 AE 72       CALL NZ,L7143_16
 223++72A7 CB FD          SET 7,L
 224++72A9 7E             LD A,(HL)
 225++72AA ED 67          RRD
 226++72AC F1             POP AF
 227++72AD C9             RET
 228++72AE              L7143_16:
 229++72AE CD 30 7B       CALL L7828_44
 230++72B1 ED 4B 1C 78    LD BC,(#781C)
 231++72B5 7C             LD A,H
 232++72B6 80             ADD A,B
 233++72B7 67             LD H,A
 234++72B8 7D             LD A,L
 235++72B9 81             ADD A,C
 236++72BA 6F             LD L,A
 237++72BB ED 4B 24 78    LD BC,(#7824)
 238++72BF 06 00          LD B,#00
 239++72C1 09             ADD HL,BC
 240++72C2 C9             RET
 241++72C3              L7143_17:
 242++72C3 2A 22 78       LD HL,(#7822)
 243++72C6 ED 4B 24 78    LD BC,(#7824)
 244++72CA 06 00          LD B,#00
 245++72CC 09             ADD HL,BC
 246++72CD BF             CP A
 247++72CE C9             RET
 248++72CF              L7143_18:
 249++72CF 2A 22 78       LD HL,(#7822)
 250++72D2 ED 4B 24 78    LD BC,(#7824)
 251++72D6 06 00          LD B,#00
 252++72D8 09             ADD HL,BC
 253++72D9 ED 4B 1E 78    LD BC,(#781E)
 254++72DD 09             ADD HL,BC
 255++72DE C9             RET
 256++72DF              L7143_19:
 257++72DF E5             PUSH HL
 258++72E0 2A 20 78       LD HL,(#7820)
 259++72E3 ED 4B 24 78    LD BC,(#7824)
 260++72E7 06 00          LD B,#00
 261++72E9 0C             INC C
 262++72EA B7             OR A
 263++72EB ED 42          SBC HL,BC
 264++72ED ED 4B 1E 78    LD BC,(#781E)
 265++72F1 B7             OR A
 266++72F2 ED 42          SBC HL,BC
 267++72F4 44             LD B,H
 268++72F5 4D             LD C,L
 269++72F6 E1             POP HL
 270++72F7 C9             RET
 271++72F8              L7143_20:
 272++72F8 CD D7 74       CALL L7143_76
 273++72FB C8             RET Z
 274++72FC CD D1 74       CALL L7143_75
 275++72FF C8             RET Z
 276++7300 3A 1A 78       LD A,(#781A)
 277++7303 EE 01          XOR #01
 278++7305 32 1A 78       LD (#781A),A
 279++7308 C3 4B 74       JP L7143_48
 280++730B              L7143_21:
 281++730B CD C6 74       CALL L7143_73
 282++730E C8             RET Z
 283++730F 01 F7 DF       LD BC,#DFF7
 284++7312 3E 0C          LD A,#0C
 285++7314 ED 79          OUT (C),A
 286++7316 06 BF          LD B,#BF
 287++7318 3A 19 78       LD A,(CLST)
 288++731B EE 01          XOR #01
 289++731D 32 19 78       LD (CLST),A
 290++7320 CB 27          SLA A
 291++7322 ED 79          OUT (C),A
 292++7324 C9             RET
 293++7325              L7143_22:
 294++7325 3A 1B 78       LD A,(INOV)
 295++7328 EE 01          XOR #01
 296++732A 32 1B 78       LD (INOV),A
 297++732D C9             RET
 298++732E              L7143_23:
 299++732E AF             XOR A
 300++732F 25             DEC H
 301++7330 20 04          JR NZ,L7143_24
 302++7332 DD 7E 05       LD A,(IX+#05)
 303++7335 3D             DEC A
 304++7336              L7143_24:
 305++7336 67             LD H,A
 306++7337 22 26 78       LD (#7826),HL
 307++733A C9             RET
 308++733B              L7143_25:
 309++733B 3A 1A 78       LD A,(#781A)
 310++733E B7             OR A
 311++733F 21 06 78       LD HL,#7806
 312++7342 28 03          JR Z,L7143_26
 313++7344 21 09 78       LD HL,#7809
 314++7347              L7143_26:
 315++7347 11 F4 77       LD DE,#77F4
 316++734A 01 03 00       LD BC,#0003
 317++734D ED B0          LDIR
 318++734F 3A 1B 78       LD A,(INOV)
 319++7352 B7             OR A
 320++7353 21 0C 78       LD HL,#780C
 321++7356 28 03          JR Z,L7143_27
 322++7358 21 0F 78       LD HL,#780F
 323++735B              L7143_27:
 324++735B 11 F8 77       LD DE,#77F8
 325++735E 01 03 00       LD BC,#0003
 326++7361 ED B0          LDIR
 327++7363 3A 19 78       LD A,(CLST)
 328++7366 B7             OR A
 329++7367 21 12 78       LD HL,#7812
 330++736A 28 03          JR Z,L7143_28
 331++736C 21 15 78       LD HL,#7815
 332++736F              L7143_28:
 333++736F 11 02 78       LD DE,#7802
 334++7372 01 03 00       LD BC,#0003
 335++7375 ED B0          LDIR
 336++7377 21 F2 77       LD HL,#77F2
 337++737A ED 5B 26 78    LD DE,(#7826)
 338++737E C3 81 7D       JP L7828_80
 339++7381              L7143_29:
 340++7381 2A 22 78       LD HL,(#7822)
 341++7384 ED 4B 1E 78    LD BC,(#781E)
 342++7388 09             ADD HL,BC
 343++7389 ED 5B 1C 78    LD DE,(#781C)
 344++738D 3A 25 78       LD A,(#7825)
 345++7390 06 00          LD B,#00
 346++7392 4F             LD C,A
 347++7393 C3 25 7D       JP L7828_72
 348++7396              L7143_30:
 349++7396 CD 95 74       CALL L7143_61
 350++7399 C4 25 73       CALL NZ,L7143_22
 351++739C CD F8 72       CALL L7143_20
 352++739F CD 0B 73       CALL L7143_21
 353++73A2 3A 1A 78       LD A,(#781A)
 354++73A5 E6 03          AND #03
 355++73A7 4F             LD C,A
 356++73A8 3A 1B 78       LD A,(INOV)
 357++73AB B7             OR A
 358++73AC 28 02          JR Z,L7143_31
 359++73AE CB F9          SET 7,C
 360++73B0              L7143_31:
 361++73B0 3A 19 78       LD A,(CLST)
 362++73B3 B7             OR A
 363++73B4 28 02          JR Z,L7143_32
 364++73B6 CB F1          SET 6,C
 365++73B8              L7143_32:
 366++73B8 79             LD A,C
 367++73B9 C9             RET
 368++73BA              ; Преобразовать scan-код в печатный символ с учётом LANG, Shift и Caps.
 369++73BA              ; Выход: Z — символ отсутствует; NZ — A содержит символ кодировки WC.
 370++73BA              CLAvA:
 371++73BA              L7143_33:
 372++73BA 21 C1 76       LD HL,#76C1
 373++73BD              L7143_34:
 374++73BD 7E             LD A,(HL)
 375++73BE 23             INC HL
 376++73BF B7             OR A
 377++73C0 28 FB          JR Z,L7143_34
 378++73C2 FE FF          CP #FF
 379++73C4 C8             RET Z
 380++73C5 CD 2E 75       CALL L7143_88
 381++73C8 C8             RET Z
 382++73C9 7E             LD A,(HL)
 383++73CA 21 CE 76       LD HL,#76CE
 384++73CD 06 33          LD B,#33
 385++73CF              L7143_35:
 386++73CF BE             CP (HL)
 387++73D0 28 05          JR Z,L7143_36
 388++73D2 23             INC HL
 389++73D3 10 FA          DJNZ L7143_35
 390++73D5 AF             XOR A
 391++73D6 C9             RET
 392++73D7              L7143_36:
 393++73D7 01 32 89       LD BC,#8932
 394++73DA 09             ADD HL,BC
 395++73DB AF             XOR A
 396++73DC 32 18 78       LD (#7818),A
 397++73DF 3A 19 78       LD A,(CLST)
 398++73E2 B7             OR A
 399++73E3 20 24          JR NZ,L7143_41
 400++73E5              L7143_37:
 401++73E5 3A 1A 78       LD A,(#781A)
 402++73E8 01 01 77       LD BC,#7701
 403++73EB B7             OR A
 404++73EC 28 03          JR Z,L7143_38
 405++73EE 01 8C 77       LD BC,#778C
 406++73F1              L7143_38:
 407++73F1 09             ADD HL,BC
 408++73F2 E5             PUSH HL
 409++73F3 CD D1 74       CALL L7143_75
 410++73F6 E1             POP HL
 411++73F7 0E 00          LD C,#00
 412++73F9 28 01          JR Z,L7143_39
 413++73FB 0C             INC C
 414++73FC              L7143_39:
 415++73FC 3A 18 78       LD A,(#7818)
 416++73FF A9             XOR C
 417++7400 28 04          JR Z,L7143_40
 418++7402 01 33 00       LD BC,#0033
 419++7405 09             ADD HL,BC
 420++7406              L7143_40:
 421++7406 7E             LD A,(HL)
 422++7407 B7             OR A
 423++7408 C9             RET
 424++7409              L7143_41:
 425++7409 3A 1A 78       LD A,(#781A)
 426++740C 01 67 77       LD BC,#7767
 427++740F B7             OR A
 428++7410 28 03          JR Z,L7143_42
 429++7412 01 7D 77       LD BC,#777D
 430++7415              L7143_42:
 431++7415 CD 21 74       CALL L7143_43
 432++7418 20 CB          JR NZ,L7143_37
 433++741A 3E 01          LD A,#01
 434++741C 32 18 78       LD (#7818),A
 435++741F 18 C4          JR L7143_37
 436++7421              L7143_43:
 437++7421 0A             LD A,(BC)
 438++7422 03             INC BC
 439++7423 FE FF          CP #FF
 440++7425 C8             RET Z
 441++7426 BD             CP L
 442++7427 20 F8          JR NZ,L7143_43
 443++7429 3C             INC A
 444++742A C9             RET
 445++742B              ; Упрощённое преобразование scan-кода по TAI0 без полного изменения регистра.
 446++742B              CLAVA:
 447++742B              L7143_44:
 448++742B CD FA 74       CALL L7143_83
 449++742E C8             RET Z
 450++742F 21 CE 76       LD HL,#76CE
 451++7432 06 33          LD B,#33
 452++7434              L7143_45:
 453++7434 BE             CP (HL)
 454++7435 28 05          JR Z,L7143_46
 455++7437 23             INC HL
 456++7438 10 FA          DJNZ L7143_45
 457++743A AF             XOR A
 458++743B C9             RET
 459++743C              L7143_46:
 460++743C 01 33 00       LD BC,#0033
 461++743F 09             ADD HL,BC
 462++7440 7E             LD A,(HL)
 463++7441 B7             OR A
 464++7442 C9             RET
 465++7443              ; Ждать появления любой активной клавиши, синхронизируясь через EI/HALT.
 466++7443              NUSP:
 467++7443              L7143_47:
 468++7443 FB             EI
 469++7444 76             HALT
 470++7445 CD 5B 75       CALL L7143_93
 471++7448 C0             RET NZ
 472++7449 18 F8          JR L7143_47
 473++744B              ; Ждать отпускания всех клавиш, синхронизируясь через EI/HALT.
 474++744B              USPO:
 475++744B              L7143_48:
 476++744B FB             EI
 477++744C 76             HALT
 478++744D CD 5B 75       CALL L7143_93
 479++7450 C8             RET Z
 480++7451 18 F8          JR L7143_48
 481++7453              UPPP:
 482++7453              L7143_49:
 483++7453 21 B9 76       LD HL,#76B9
 484++7456 C3 39 75       JP L7143_89
 485++7459              DWWW:
 486++7459              L7143_50:
 487++7459 21 BB 76       LD HL,#76BB
 488++745C C3 39 75       JP L7143_89
 489++745F              LFFF:
 490++745F              L7143_51:
 491++745F 21 BA 76       LD HL,#76BA
 492++7462 C3 39 75       JP L7143_89
 493++7465              RGGG:
 494++7465              L7143_52:
 495++7465 21 BC 76       LD HL,#76BC
 496++7468 C3 39 75       JP L7143_89
 497++746B              PGU:
 498++746B              L7143_53:
 499++746B 21 BE 76       LD HL,#76BE
 500++746E C3 39 75       JP L7143_89
 501++7471              PGD:
 502++7471              L7143_54:
 503++7471 21 C0 76       LD HL,#76C0
 504++7474 C3 39 75       JP L7143_89
 505++7477              ENKE:
 506++7477              L7143_55:
 507++7477 3E 5A          LD A,#5A
 508++7479 C3 2E 75       JP L7143_88
 509++747C              SPKE:
 510++747C              L7143_56:
 511++747C 3E 29          LD A,#29
 512++747E C3 2E 75       JP L7143_88
 513++7481              BSPC:
 514++7481              L7143_57:
 515++7481 3E 66          LD A,#66
 516++7483 C3 2E 75       JP L7143_88
 517++7486              HOME_KEY:
 518++7486              L7143_58:
 519++7486 3E 6C          LD A,#6C
 520++7488 C3 2E 75       JP L7143_88
 521++748B              END_KEY:
 522++748B              L7143_59:
 523++748B 3E 69          LD A,#69
 524++748D C3 2E 75       JP L7143_88
 525++7490              DELE:
 526++7490              L7143_60:
 527++7490 3E 71          LD A,#71
 528++7492 C3 2E 75       JP L7143_88
 529++7495              INS_KEY:
 530++7495              L7143_61:
 531++7495 3E 70          LD A,#70
 532++7497 C3 2E 75       JP L7143_88
 533++749A              ESC_KEY:
 534++749A              L7143_62:
 535++749A 3E 76          LD A,#76
 536++749C 18 54          JR L7143_81
 537++749E              F1_KEY:
 538++749E              L7143_63:
 539++749E 3E 05          LD A,#05
 540++74A0 18 50          JR L7143_81
 541++74A2              F2_KEY:
 542++74A2              L7143_64:
 543++74A2 3E 06          LD A,#06
 544++74A4 18 4C          JR L7143_81
 545++74A6              F3_KEY:
 546++74A6              L7143_65:
 547++74A6 3E 04          LD A,#04
 548++74A8 18 48          JR L7143_81
 549++74AA              F4_KEY:
 550++74AA              L7143_66:
 551++74AA 3E 0C          LD A,#0C
 552++74AC 18 44          JR L7143_81
 553++74AE              F5_KEY:
 554++74AE              L7143_67:
 555++74AE 3E 03          LD A,#03
 556++74B0 18 40          JR L7143_81
 557++74B2              F6_KEY:
 558++74B2              L7143_68:
 559++74B2 3E 0B          LD A,#0B
 560++74B4 18 3C          JR L7143_81
 561++74B6              F7_KEY:
 562++74B6              L7143_69:
 563++74B6 3E 83          LD A,#83
 564++74B8 18 38          JR L7143_81
 565++74BA              F8_KEY:
 566++74BA              L7143_70:
 567++74BA 3E 0A          LD A,#0A
 568++74BC 18 34          JR L7143_81
 569++74BE              F9_KEY:
 570++74BE              L7143_71:
 571++74BE 3E 01          LD A,#01
 572++74C0 18 30          JR L7143_81
 573++74C2              F10_KEY:
 574++74C2              L7143_72:
 575++74C2 3E 09          LD A,#09
 576++74C4 18 2C          JR L7143_81
 577++74C6              CAPS_KEY:
 578++74C6              L7143_73:
 579++74C6 21 B5 76       LD HL,#76B5
 580++74C9 18 6E          JR L7143_89
 581++74CB              ALT_KEY:
 582++74CB              L7143_74:
 583++74CB 21 BD 76       LD HL,#76BD
 584++74CE C3 56 75       JP L7143_92
 585++74D1              SHIFT_KEY:
 586++74D1              L7143_75:
 587++74D1 21 B6 76       LD HL,#76B6
 588++74D4 C3 56 75       JP L7143_92
 589++74D7              CTRL_KEY:
 590++74D7              L7143_76:
 591++74D7 21 B7 76       LD HL,#76B7
 592++74DA 18 7A          JR L7143_92
 593++74DC              TAB_KEY:
 594++74DC              L7143_77:
 595++74DC 21 B4 76       LD HL,#76B4
 596++74DF 18 58          JR L7143_89
 597++74E1              L7143_78:
 598++74E1 3E 5A          LD A,#5A
 599++74E3 21 C1 76       LD HL,#76C1
 600++74E6 18 05          JR L7143_80
 601++74E8              L7143_79:
 602++74E8 3E 76          LD A,#76
 603++74EA 21 B8 76       LD HL,#76B8
 604++74ED              L7143_80:
 605++74ED BE             CP (HL)
 606++74EE 20 08          JR NZ,L7143_82
 607++74F0 18 5F          JR L7143_90
 608++74F2              L7143_81:
 609++74F2 21 B8 76       LD HL,#76B8
 610++74F5 BE             CP (HL)
 611++74F6 28 41          JR Z,L7143_89
 612++74F8              L7143_82:
 613++74F8 AF             XOR A
 614++74F9 C9             RET
 615++74FA              L7143_83:
 616++74FA 21 C1 76       LD HL,#76C1
 617++74FD              L7143_84:
 618++74FD 7E             LD A,(HL)
 619++74FE 23             INC HL
 620++74FF B7             OR A
 621++7500 28 FB          JR Z,L7143_84
 622++7502 22 FB 74       LD (#74FB),HL
 623++7505 2B             DEC HL
 624++7506 FE FF          CP #FF
 625++7508 28 1D          JR Z,L7143_87
 626++750A 7E             LD A,(HL)
 627++750B B7             OR A
 628++750C C8             RET Z
 629++750D 3A CC 76       LD A,(#76CC)
 630++7510 BE             CP (HL)
 631++7511 20 0F          JR NZ,L7143_85
 632++7513 3A CB 76       LD A,(#76CB)
 633++7516 B7             OR A
 634++7517 28 09          JR Z,L7143_85
 635++7519 FE FF          CP #FF
 636++751B 20 08          JR NZ,L7143_86
 637++751D 3E 19          LD A,#19
 638++751F 32 CB 76       LD (#76CB),A
 639++7522              L7143_85:
 640++7522 7E             LD A,(HL)
 641++7523 B7             OR A
 642++7524 C9             RET
 643++7525              L7143_86:
 644++7525 AF             XOR A
 645++7526 C9             RET
 646++7527              L7143_87:
 647++7527 21 C1 76       LD HL,#76C1
 648++752A 22 FB 74       LD (#74FB),HL
 649++752D C9             RET
 650++752E              L7143_88:
 651++752E 21 C1 76       LD HL,#76C1
 652++7531 01 07 00       LD BC,#0007
 653++7534 ED B1          CPIR
 654++7536 20 C0          JR NZ,L7143_82
 655++7538 2B             DEC HL
 656++7539              L7143_89:
 657++7539 7E             LD A,(HL)
 658++753A B7             OR A
 659++753B C8             RET Z
 660++753C 3A CC 76       LD A,(#76CC)
 661++753F BE             CP (HL)
 662++7540 20 12          JR NZ,L7143_91
 663++7542 3A CB 76       LD A,(#76CB)
 664++7545 B7             OR A
 665++7546 28 09          JR Z,L7143_90
 666++7548 FE FF          CP #FF
 667++754A 20 08          JR NZ,L7143_91
 668++754C 3E 19          LD A,#19
 669++754E 32 CB 76       LD (#76CB),A
 670++7551              L7143_90:
 671++7551 AF             XOR A
 672++7552 3C             INC A
 673++7553 C9             RET
 674++7554              L7143_91:
 675++7554 AF             XOR A
 676++7555 C9             RET
 677++7556              L7143_92:
 678++7556 7E             LD A,(HL)
 679++7557 B7             OR A
 680++7558 C8             RET Z
 681++7559 18 F6          JR L7143_90
 682++755B              L7143_93:
 683++755B 21 B4 76       LD HL,#76B4
 684++755E 06 14          LD B,#14
 685++7560 AF             XOR A
 686++7561              L7143_94:
 687++7561 BE             CP (HL)
 688++7562 20 04          JR NZ,L7143_95
 689++7564 23             INC HL
 690++7565 10 FA          DJNZ L7143_94
 691++7567 C9             RET
 692++7568              L7143_95:
 693++7568 3E 19          LD A,#19
 694++756A 32 CB 76       LD (#76CB),A
 695++756D C9             RET
 696++756E              L7143_96:
 697++756E 21 C1 76       LD HL,#76C1
 698++7571 01 07 00       LD BC,#0007
 699++7574 ED B1          CPIR
 700++7576 C8             RET Z
 701++7577 5F             LD E,A
 702++7578 AF             XOR A
 703++7579 21 C1 76       LD HL,#76C1
 704++757C 01 07 00       LD BC,#0007
 705++757F ED B1          CPIR
 706++7581 C0             RET NZ
 707++7582 2B             DEC HL
 708++7583 73             LD (HL),E
 709++7584 DD 73 18       LD (IX+#18),E
 710++7587 DD 36 17 FF    LD (IX+#17),#FF
 711++758B C9             RET
 712++758C              L7143_97:
 713++758C 01 F7 DF       LD BC,#DFF7
 714++758F 3E 0C          LD A,#0C
 715++7591 ED 79          OUT (C),A
 716++7593 06 BF          LD B,#BF
 717++7595 3E 01          LD A,#01
 718++7597 ED 79          OUT (C),A
 719++7599 06 DF          LD B,#DF
 720++759B 3E F0          LD A,#F0
 721++759D ED 79          OUT (C),A
 722++759F AF             XOR A
 723++75A0 32 CD 76       LD (#76CD),A
 724++75A3 21 B4 76       LD HL,#76B4
 725++75A6 06 14          LD B,#14
 726++75A8              L7143_98:
 727++75A8 77             LD (HL),A
 728++75A9 23             INC HL
 729++75AA 10 FC          DJNZ L7143_98
 730++75AC AF             XOR A
 731++75AD 3C             INC A
 732++75AE C9             RET
 733++75AF              L7143_99:
 734++75AF 32 BD 76       LD (#76BD),A
 735++75B2 C9             RET
 736++75B3              L7143_100:
 737++75B3 32 CD 76       LD (#76CD),A
 738++75B6 18 1B          JR L7143_103
 739++75B8              L7143_101:
 740++75B8 DD 21 B4 76    LD IX,#76B4
 741++75BC DD 7E 17       LD A,(IX+#17)
 742++75BF B7             OR A
 743++75C0 28 07          JR Z,L7143_102
 744++75C2 FE FF          CP #FF
 745++75C4 28 03          JR Z,L7143_102
 746++75C6 DD 35 17       DEC (IX+#17)
 747++75C9              ; Приём одного события PS/2 scan-code set 2. Префикс #E0 отмечает
 748++75C9              ; расширенный код, #F0 переключает обработку на отпускание клавиши.
 749++75C9              PSD:
 750++75C9              L7143_102:
 751++75C9 01 F7 DF       LD BC,#DFF7
 752++75CC 3E F0          LD A,#F0
 753++75CE ED 79          OUT (C),A
 754++75D0 01 F7 BF       LD BC,#BFF7
 755++75D3              L7143_103:
 756++75D3 ED 78          IN A,(C)
 757++75D5 B7             OR A
 758++75D6 C8             RET Z
 759++75D7 FE E0          CP #E0
 760++75D9 28 D8          JR Z,L7143_100
 761++75DB FE F0          CP #F0
 762++75DD CA 85 76       JP Z,L7143_118
 763++75E0 FE FF          CP #FF
 764++75E2 28 A8          JR Z,L7143_97
 765++75E4 CA 8A 76       JP Z,L7143_119
 766++75E7 4F             LD C,A
 767++75E8 3A CD 76       LD A,(#76CD)
 768++75EB B7             OR A
 769++75EC DD 36 19 00    LD (IX+#19),#00
 770++75F0 79             LD A,C
 771++75F1 28 06          JR Z,L7143_104
 772++75F3 FE 12          CP #12
 773++75F5 C8             RET Z
 774++75F6 FE 59          CP #59
 775++75F8 C8             RET Z
 776++75F9              L7143_104:
 777++75F9 FE 12          CP #12
 778++75FB 28 4D          JR Z,L7143_107
 779++75FD FE 59          CP #59
 780++75FF 28 49          JR Z,L7143_107
 781++7601 FE 11          CP #11
 782++7603 28 AA          JR Z,L7143_99
 783++7605 FE 0D          CP #0D
 784++7607 28 37          JR Z,L7143_105
 785++7609 FE 58          CP #58
 786++760B 28 38          JR Z,L7143_106
 787++760D FE 14          CP #14
 788++760F 28 3E          JR Z,L7143_108
 789++7611 FE 0D          CP #0D
 790++7613 38 3F          JR C,L7143_109
 791++7615 FE 76          CP #76
 792++7617 28 3B          JR Z,L7143_109
 793++7619 FE 78          CP #78
 794++761B 28 37          JR Z,L7143_109
 795++761D FE 83          CP #83
 796++761F 28 33          JR Z,L7143_109
 797++7621 FE 75          CP #75
 798++7623 28 34          JR Z,L7143_110
 799++7625 FE 6B          CP #6B
 800++7627 28 35          JR Z,L7143_111
 801++7629 FE 72          CP #72
 802++762B 28 36          JR Z,L7143_112
 803++762D FE 74          CP #74
 804++762F 28 37          JR Z,L7143_113
 805++7631 FE 7D          CP #7D
 806++7633 28 38          JR Z,L7143_114
 807++7635 FE 7A          CP #7A
 808++7637 28 3E          JR Z,L7143_116
 809++7639 FE 77          CP #77
 810++763B 28 35          JR Z,L7143_115
 811++763D C3 6E 75       JP L7143_96
 812++7640              L7143_105:
 813++7640 21 B4 76       LD HL,#76B4
 814++7643 18 35          JR L7143_117
 815++7645              L7143_106:
 816++7645 21 B5 76       LD HL,#76B5
 817++7648 18 30          JR L7143_117
 818++764A              L7143_107:
 819++764A 21 B6 76       LD HL,#76B6
 820++764D 18 2B          JR L7143_117
 821++764F              L7143_108:
 822++764F 21 B7 76       LD HL,#76B7
 823++7652 18 26          JR L7143_117
 824++7654              L7143_109:
 825++7654 21 B8 76       LD HL,#76B8
 826++7657 18 21          JR L7143_117
 827++7659              L7143_110:
 828++7659 21 B9 76       LD HL,#76B9
 829++765C 18 1C          JR L7143_117
 830++765E              L7143_111:
 831++765E 21 BA 76       LD HL,#76BA
 832++7661 18 17          JR L7143_117
 833++7663              L7143_112:
 834++7663 21 BB 76       LD HL,#76BB
 835++7666 18 12          JR L7143_117
 836++7668              L7143_113:
 837++7668 21 BC 76       LD HL,#76BC
 838++766B 18 0D          JR L7143_117
 839++766D              L7143_114:
 840++766D 21 BE 76       LD HL,#76BE
 841++7670 18 08          JR L7143_117
 842++7672              L7143_115:
 843++7672 21 BF 76       LD HL,#76BF
 844++7675 18 03          JR L7143_117
 845++7677              L7143_116:
 846++7677 21 C0 76       LD HL,#76C0
 847++767A              ; Зарегистрировать make-код: записать его в выбранную ячейку TAB,
 848++767A              ; сохранить как последний код ARK и запустить задержку автоповтора.
 849++767A              KFF:
 850++767A              L7143_117:
 851++767A BE             CP (HL)
 852++767B C8             RET Z
 853++767C 77             LD (HL),A
 854++767D 32 CC 76       LD (#76CC),A
 855++7680 DD 36 17 FF    LD (IX+#17),#FF
 856++7684 C9             RET
 857++7685              ; Обработать break-код после #F0: найти его среди 20 ячеек TAB и очистить.
 858++7685              KOF:
 859++7685              L7143_118:
 860++7685 ED 78          IN A,(C)
 861++7687 B7             OR A
 862++7688 28 24          JR Z,L7143_121
 863++768A              L7143_119:
 864++768A 4F             LD C,A
 865++768B 3E CA          LD A,#CA
 866++768D 32 E4 75       LD (#75E4),A
 867++7690 3A CD 76       LD A,(#76CD)
 868++7693 B7             OR A
 869++7694 DD 36 19 00    LD (IX+#19),#00
 870++7698 79             LD A,C
 871++7699 28 06          JR Z,L7143_120
 872++769B FE 12          CP #12
 873++769D C8             RET Z
 874++769E FE 59          CP #59
 875++76A0 C8             RET Z
 876++76A1              L7143_120:
 877++76A1 21 B4 76       LD HL,#76B4
 878++76A4 01 14 00       LD BC,#0014
 879++76A7 ED B1          CPIR
 880++76A9 C0             RET NZ
 881++76AA 2B             DEC HL
 882++76AB 36 00          LD (HL),#00
 883++76AD C9             RET
 884++76AE              L7143_121:
 885++76AE 3E C3          LD A,#C3
 886++76B0 32 E4 75       LD (#75E4),A
 887++76B3 C9             RET
 888++76B4              ; Данные клавиатуры и строкового редактора, #76B4..#7827.
 889++76B4              ; Ранее этот диапазон был ошибочно разобран как команды Z80.
 890++76B4              ; TAB+0..+19 — текущие make-коды групп клавиш. KFF записывает код,
 891++76B4              ; KOF очищает соответствующую ячейку после break-префикса #F0.
 892++76B4              TAB:
 893++76B4 00 00 00...    DS 20,0
 894++76C8 FF             DB #FF                  ; Начальное служебное значение повтора.
 895++76C9              NXF:
 896++76C9 00             DB 0                    ; Служебное состояние повтора клавиши.
 897++76CA              WIN:
 898++76CA 00             DB 0                    ; Состояние оконного режима ввода.
 899++76CB              ARR:
 900++76CB 00             DB 0                    ; Счётчик автоповтора.
 901++76CC              ARK:
 902++76CC 00             DB 0                    ; Последний принятый scan-код.
 903++76CD              E0F:
 904++76CD 00             DB 0                    ; Ненулевое значение означает префикс #E0.
 905++76CE                ASSERT $ == #76CE, нарушена граница состояния клавиатуры
 906++76CE
 907++76CE              ; 51 scan-код символьных клавиш PS/2 scan-code set 2.
 908++76CE              TAI0:
 909++76CE 0E 16 1E 26    DB #0E,#16,#1E,#26,#25,#2E,#36,#3D,#3E,#46,#45,#4E,#55
 909++76D2 25 2E 36 3D
 909++76D6 3E 46 45 4E
 909++76DA 55
 910++76DB 15 1D 24 2D    DB #15,#1D,#24,#2D,#2C,#35,#3C,#43,#44,#4D,#54,#5B,#5D
 910++76DF 2C 35 3C 43
 910++76E3 44 4D 54 5B
 910++76E7 5D
 911++76E8 1C 1B 23 2B    DB #1C,#1B,#23,#2B,#34,#33,#3B,#42,#4B,#4C,#52
 911++76EC 34 33 3B 42
 911++76F0 4B 4C 52
 912++76F3 1A 22 21 2A    DB #1A,#22,#21,#2A,#32,#31,#3A,#41,#49,#4A,#29
 912++76F7 32 31 3A 41
 912++76FB 49 4A 29
 913++76FE 79 7B 7C       DB #79,#7B,#7C
 914++7701                ASSERT $ == #7701, нарушена граница TAI0
 915++7701
 916++7701              ; Английская раскладка: без Shift и с Shift.
 917++7701              TAIE1:
 918++7701 27 31 32 33    DB #27,"1234567890-="
 918++7705 34 35 36 37
 918++7709 38 39 30 2D
 918++770D 3D
 919++770E 71 77 65 72    DB "qwertyuiop[]",#5C
 919++7712 74 79 75 69
 919++7716 6F 70 5B 5D
 919++771A 5C
 920++771B 61 73 64 66    DB "asdfghjkl;",#27
 920++771F 67 68 6A 6B
 920++7723 6C 3B 27
 921++7726 7A 78 63 76    DB "zxcvbnm,./ +-*"
 921++772A 62 6E 6D 2C
 921++772E 2E 2F 20 2B
 921++7732 2D 2A
 922++7734              TAIE2:
 923++7734 7E 21 40 23    DB #7E,"!@#$%^&*()_+"
 923++7738 24 25 5E 26
 923++773C 2A 28 29 5F
 923++7740 2B
 924++7741 51 57 45 52    DB "QWERTYUIOP{}",#7C
 924++7745 54 59 55 49
 924++7749 4F 50 7B 7D
 924++774D 7C
 925++774E 41 53 44 46    DB "ASDFGHJKL:",#22
 925++7752 47 48 4A 4B
 925++7756 4C 3A 22
 926++7759 5A 58 43 56    DB "ZXCVBNM<>? +-*"
 926++775D 42 4E 4D 3C
 926++7761 3E 3F 20 2B
 926++7765 2D 2A
 927++7767                ASSERT $ == #7767, нарушена граница английской раскладки
 928++7767
 929++7767              ; Индексы клавиш, для которых применяется дополнительная смена регистра.
 930++7767              TAIE0:
 931++7767 00 01 02 03    DB 0,1,2,3,4,5,6,7,8,9,10,11,12
 931++776B 04 05 06 07
 931++776F 08 09 0A 0B
 931++7773 0C
 932++7774 17 18 19 23    DB 23,24,25,35,36,44,45,46,#FF
 932++7778 24 2C 2D 2E
 932++777C FF
 933++777D              TAIR0:
 934++777D 01 02 03 04    DB 1,2,3,4,5,6,7,8,9,10,11,12,25,46,#FF
 934++7781 05 06 07 08
 934++7785 09 0A 0B 0C
 934++7789 19 2E FF
 935++778C                ASSERT $ == #778C, нарушена граница индексных таблиц
 936++778C
 937++778C              ; Русская раскладка в однобайтовой кодировке, используемой WC.
 938++778C              TAIR1:
 939++778C F1 31 32 33    DB #F1,"1234567890-="
 939++7790 34 35 36 37
 939++7794 38 39 30 2D
 939++7798 3D
 940++7799 A9 E6 E3 AA    DB #A9,#E6,#E3,#AA,#A5,#AD,#A3,#E8,#E9,#A7,#E5,#EA,#5C
 940++779D A5 AD A3 E8
 940++77A1 E9 A7 E5 EA
 940++77A5 5C
 941++77A6 E4 EB A2 A0    DB #E4,#EB,#A2,#A0,#AF,#E0,#AE,#AB,#A4,#A6,#ED
 941++77AA AF E0 AE AB
 941++77AE A4 A6 ED
 942++77B1 EF E7 E1 AC    DB #EF,#E7,#E1,#AC,#A8,#E2,#EC,#A1,#EE,#2E," +-*"
 942++77B5 A8 E2 EC A1
 942++77B9 EE 2E 20 2B
 942++77BD 2D 2A
 943++77BF              TAIR2:
 944++77BF F0 21 22 FB    DB #F0,#21,#22,#FB,#3B,#25,#3A,#3F,#2A,#28,#29,#5F,#2B
 944++77C3 3B 25 3A 3F
 944++77C7 2A 28 29 5F
 944++77CB 2B
 945++77CC 89 96 93 8A    DB #89,#96,#93,#8A,#85,#8D,#83,#98,#99,#87,#95,#9A,#2F
 945++77D0 85 8D 83 98
 945++77D4 99 87 95 9A
 945++77D8 2F
 946++77D9 94 9B 82 80    DB #94,#9B,#82,#80,#8F,#90,#8E,#8B,#84,#86,#9D
 946++77DD 8F 90 8E 8B
 946++77E1 84 86 9D
 947++77E4 9F 97 91 8C    DB #9F,#97,#91,#8C,#88,#92,#9C,#81,#9E,#2C," +-*"
 947++77E8 88 92 9C 81
 947++77EC 9E 2C 20 2B
 947++77F0 2D 2A
 948++77F2                ASSERT $ == #77F2, нарушена граница русской раскладки
 949++77F2
 950++77F2              ; Строка состояния редактора и варианты её трёхбуквенных индикаторов.
 951++77F2              ISINF:
 952++77F2 09 0E          DB #09,#0E
 953++77F4              ISIL:
 954++77F4 45 4E 47 2F    DB "ENG",#2F
 955++77F8              ISII:
 956++77F8 49 4E 53 0B    DB "INS",#0B,1,"CAPS:"
 956++77FC 01 43 41 50
 956++7800 53 3A
 957++7802              ISIC:
 958++7802 4F 46 46 00    DB "OFF",0
 959++7806              ISI1:
 960++7806 45 4E 47       DB "ENG"
 961++7809              ISI2:
 962++7809 52 55 53       DB "RUS"
 963++780C              ISI3:
 964++780C 49 4E 53       DB "INS"
 965++780F              ISI4:
 966++780F 4F 56 52       DB "OVR"
 967++7812              ISI5:
 968++7812 4F 46 46       DB "OFF"
 969++7815              ISI6:
 970++7815 4F 4E 20       DB "ON "
 971++7818                ASSERT $ == #7818, нарушена граница строк индикаторов
 972++7818
 973++7818              ; Рабочее состояние строкового редактора.
 974++7818              CLTT:
 975++7818 00             DB 0                    ; Временный символ.
 976++7819              CLST:
 977++7819 00             DB 0                    ; 0 — нижний регистр, 1 — верхний.
 978++781A              LANG:
 979++781A 00             DB 0                    ; 0 — английская, 1 — русская раскладка.
 980++781B              INOV:
 981++781B 00             DB 0                    ; 0 — вставка, 1 — замена.
 982++781C              IWAD:
 983++781C 00 00          DW 0                    ; Адрес описателя окна.
 984++781E              IWOF:
 985++781E 00 00          DW 0                    ; Смещение видимой части строки.
 986++7820              IBSZ:
 987++7820 00 00          DW 0                    ; Размер редактируемого буфера.
 988++7822              ISAD:
 989++7822 00 00          DW 0                    ; Адрес строки.
 990++7824              ICUP:
 991++7824 00 00          DW 0                    ; Положение курсора.
 992++7826              IISP:
 993++7826 00 00          DW 0                    ; Сохранённая экранная позиция.
 994++7828                ASSERT $ == #7828, нарушена конечная граница PS2P
 995++7828
 996++7828              ; Имена отдельных групп в 20-байтовой таблице TAB.
 997++7828              BCA EQU TAB+1
 998++7828              BCS EQU TAB+2
 999++7828              BSS EQU TAB+3
1000++7828              BFS EQU TAB+4
1001++7828              BUP EQU TAB+5
1002++7828              BLF EQU TAB+6
1003++7828              BDN EQU TAB+7
1004++7828              BRG EQU TAB+8
1005++7828              BHM EQU TAB+9
1006++7828              BPU EQU TAB+10
1007++7828              BED EQU TAB+11
1008++7828              BPD EQU TAB+12
1009++7828              BAL EQU TAB+13
1010++7828
# file closed: PS2P_DISASM.ASM
  29+ 7828                      ASSERT $ == #7828, нарушена граница PS2P_DISASM.ASM
  30+ 7828
  31+ 7828                      INCLUDE "WCIF_DISASM.ASM"
# file opened: WCIF_DISASM.ASM
   1++7828              ; WCIF — оконный интерфейс, курсор, печать и индикатор прогресса.
   2++7828              ; Exact-диапазон: #7828..#7E9F.
   3++7828              ; Основные процедуры:
   4++7828              ;   #7828 PBINIT  — инициализировать индикатор; IX=окно, DE=полный объём;
   5++7828              ;   #785C PBPRINT — вывести положение индикатора для значения HL;
   6++7828              ;   #792C PRWOW   — нарисовать окно по 36-байтовому описателю IX;
   7++7828              ;   #7BE6 SCRLWOW — прокрутить прямоугольную область окна;
   8++7828              ;   #7CAF CURSORF — принудительно погасить или восстановить курсор;
   9++7828              ;   #7CD5 CURSOR  — кадровое мигание курсора активной панели;
  10++7828              ;   #7D25 PRSRW   — скопировать строку в окно;
  11++7828              ;   #7D39 PRIAT   — записать атрибуты строки;
  12++7828              ;   #7D45 GADRW   — преобразовать координаты окна в экранный адрес;
  13++7828              ;   #7D81 TXTPR   — печатать строку с управляющими кодами оформления.
  14++7828              ; Инициализировать индикатор прогресса.
  15++7828              ; Вход: IX — описатель окна; DE — полное количество элементов.
  16++7828              ; При DE=0 процедура немедленно возвращает управление.
  17++7828              PBINIT:
  18++7828              L7828:
  19++7828 ED 53 6D 78    LD (#786D),DE
  20++782C 7A             LD A,D
  21++782D B3             OR E
  22++782E C8             RET Z
  23++782F DD 7E 0A       LD A,(IX+#0A)
  24++7832 B7             OR A
  25++7833 3E F6          LD A,#F6
  26++7835 20 02          JR NZ,L7828_0
  27++7837 3E DF          LD A,#DF
  28++7839              L7828_0:
  29++7839 32 9C 78       LD (#789C),A
  30++783C DD 7E 05       LD A,(IX+#05)
  31++783F DD 96 0A       SUB (IX+#0A)
  32++7842 D6 03          SUB #03
  33++7844 32 7D 78       LD (#787D),A
  34++7847 06 00          LD B,#00
  35++7849 26 00          LD H,#00
  36++784B 6F             LD L,A
  37++784C              L7828_1:
  38++784C 04             INC B
  39++784D B7             OR A
  40++784E ED 52          SBC HL,DE
  41++7850 28 02          JR Z,L7828_2
  42++7852 30 F8          JR NC,L7828_1
  43++7854              L7828_2:
  44++7854 32 64 78       LD (#7864),A
  45++7857 78             LD A,B
  46++7858 32 9F 78       LD (#789F),A
  47++785B C9             RET
  48++785C              ; Пересчитать заполненную часть индикатора.
  49++785C              ; Вход: IX — окно прогресса; HL — текущая абсолютная позиция.
  50++785C              PBPRINT:
  51++785C              L7828_3:
  52++785C DD 5E 0C       LD E,(IX+#0C)
  53++785F 16 00          LD D,#00
  54++7861 1D             DEC E
  55++7862 19             ADD HL,DE
  56++7863 06 00          LD B,#00
  57++7865 EB             EX DE,HL
  58++7866 21 00 00       LD HL,#0000
  59++7869              L7828_4:
  60++7869 19             ADD HL,DE
  61++786A 10 FD          DJNZ L7828_4
  62++786C 11 00 00       LD DE,#0000
  63++786F 7A             LD A,D
  64++7870 B3             OR E
  65++7871 C8             RET Z
  66++7872 AF             XOR A
  67++7873              L7828_5:
  68++7873 3C             INC A
  69++7874 ED 52          SBC HL,DE
  70++7876 28 03          JR Z,L7828_6
  71++7878 30 F9          JR NC,L7828_5
  72++787A 3D             DEC A
  73++787B              L7828_6:
  74++787B 4F             LD C,A
  75++787C 06 00          LD B,#00
  76++787E 78             LD A,B
  77++787F 91             SUB C
  78++7880 4F             LD C,A
  79++7881 16 01          LD D,#01
  80++7883 DD 5E 04       LD E,(IX+#04)
  81++7886 1D             DEC E
  82++7887 CD 45 7D       CALL L7828_75
  83++788A 36 DC          LD (HL),#DC
  84++788C 24             INC H
  85++788D 11 DB B0       LD DE,#B0DB
  86++7890 79             LD A,C
  87++7891              L7828_7:
  88++7891 B8             CP B
  89++7892 CC 9E 78       CALL Z,L7828_9
  90++7895 28 04          JR Z,L7828_8
  91++7897 72             LD (HL),D
  92++7898 24             INC H
  93++7899 10 F6          DJNZ L7828_7
  94++789B              L7828_8:
  95++789B 36 F6          LD (HL),#F6
  96++789D C9             RET
  97++789E              L7828_9:
  98++789E 3E 00          LD A,#00
  99++78A0              L7828_10:
 100++78A0 73             LD (HL),E
 101++78A1 24             INC H
 102++78A2 05             DEC B
 103++78A3 C8             RET Z
 104++78A4 3D             DEC A
 105++78A5 20 F9          JR NZ,L7828_10
 106++78A7 78             LD A,B
 107++78A8 B7             OR A
 108++78A9 3E FF          LD A,#FF
 109++78AB C9             RET
 110++78AC              L7828_11:
 111++78AC DD CB 00 7E    BIT 7,(IX+#00)
 112++78B0 C8             RET Z
 113++78B1 CD 30 7B       CALL L7828_44
 114++78B4 3A 1D 7F       LD A,(#7F1D)
 115++78B7 47             LD B,A
 116++78B8 DD 7E 04       LD A,(IX+#04)
 117++78BB FE 02          CP #02
 118++78BD D8             RET C
 119++78BE 85             ADD A,L
 120++78BF 6F             LD L,A
 121++78C0 B8             CP B
 122++78C1 D0             RET NC
 123++78C2 CB FD          SET 7,L
 124++78C4 DD 7E 05       LD A,(IX+#05)
 125++78C7 FE 02          CP #02
 126++78C9 D8             RET C
 127++78CA 47             LD B,A
 128++78CB              L7828_12:
 129++78CB 24             INC H
 130++78CC 7E             LD A,(HL)
 131++78CD E6 00          AND #00
 132++78CF 77             LD (HL),A
 133++78D0 10 F9          DJNZ L7828_12
 134++78D2 DD 46 04       LD B,(IX+#04)
 135++78D5 05             DEC B
 136++78D6              L7828_13:
 137++78D6 2D             DEC L
 138++78D7 7E             LD A,(HL)
 139++78D8 E6 00          AND #00
 140++78DA 77             LD (HL),A
 141++78DB 10 F9          DJNZ L7828_13
 142++78DD C9             RET
 143++78DE              L7828_14:
 144++78DE DD CB 00 66    BIT 4,(IX+#00)
 145++78E2 28 1B          JR Z,L7828_15
 146++78E4 F5             PUSH AF
 147++78E5 07             RLCA
 148++78E6 07             RLCA
 149++78E7 07             RLCA
 150++78E8 07             RLCA
 151++78E9 32 2E 7A       LD (#7A2E),A
 152++78EC 32 36 7A       LD (#7A36),A
 153++78EF 11 20 20       LD DE,#2020
 154++78F2 0E 20          LD C,#20
 155++78F4 CD 27 7A       CALL L7828_28
 156++78F7 F1             POP AF
 157++78F8 32 2E 7A       LD (#7A2E),A
 158++78FB 32 36 7A       LD (#7A36),A
 159++78FE C9             RET
 160++78FF              L7828_15:
 161++78FF 32 2E 7A       LD (#7A2E),A
 162++7902 32 36 7A       LD (#7A36),A
 163++7905 11 BF DA       LD DE,#DABF
 164++7908 0E C4          LD C,#C4
 165++790A CD 27 7A       CALL L7828_28
 166++790D C9             RET
 167++790E BB             CP E
 168++790F C9             RET
 169++7910 CD BA BA       CALL #BABA
 170++7913 B6             OR (HL)
 171++7914 C7             RST #00
 172++7915 BC             CP H
 173++7916 C8             RET Z
 174++7917 CD F9 F8       CALL #F8F9
 175++791A F7             RST #30
 176++791B FF             RST #38
 177++791C FE FB          CP #FB
 178++791E FA FD FC       JP M,#FCFD
 179++7921 5F             LD E,A
 180++7922 BF             CP A
 181++7923 DA C4 B3       JP C,#B3C4
 182++7926 B3             OR E
 183++7927 B4             OR H
 184++7928 C3 D9 C0       JP LC069_5
 185++792B C4 06 03       CALL NZ,#0306
 186++792E DD 7E 00       LD A,(IX+#00)
 187++7931 E6 0F          AND #0F
 188++7933 21 0E 79       LD HL,#790E
 189++7936 11 0A 00       LD DE,#000A
 190++7939              L7828_16:
 191++7939 28 75          JR Z,L7828_23
 192++793B 3D             DEC A
 193++793C 28 3D          JR Z,L7828_20
 194++793E 3D             DEC A
 195++793F 28 05          JR Z,L7828_17
 196++7941 19             ADD HL,DE
 197++7942 3D             DEC A
 198++7943 10 F4          DJNZ L7828_16
 199++7945 C9             RET
 200++7946              L7828_17:
 201++7946 CD B0 79       CALL L7828_23
 202++7949 DD 7E 11       LD A,(IX+#11)
 203++794C B7             OR A
 204++794D 28 0A          JR Z,L7828_18
 205++794F DD 6E 10       LD L,(IX+#10)
 206++7952 67             LD H,A
 207++7953 11 00 00       LD DE,#0000
 208++7956 CD 81 7D       CALL L7828_80
 209++7959              L7828_18:
 210++7959 DD 7E 13       LD A,(IX+#13)
 211++795C B7             OR A
 212++795D 28 0D          JR Z,L7828_19
 213++795F DD 6E 12       LD L,(IX+#12)
 214++7962 67             LD H,A
 215++7963 DD 56 05       LD D,(IX+#05)
 216++7966 15             DEC D
 217++7967 1E 00          LD E,#00
 218++7969 CD 81 7D       CALL L7828_80
 219++796C              L7828_19:
 220++796C DD 7E 15       LD A,(IX+#15)
 221++796F B7             OR A
 222++7970 C8             RET Z
 223++7971 DD 6E 14       LD L,(IX+#14)
 224++7974 67             LD H,A
 225++7975 11 01 01       LD DE,#0101
 226++7978 C3 81 7D       JP L7828_80
 227++797B              L7828_20:
 228++797B CD B0 79       CALL L7828_23
 229++797E DD 7E 0D       LD A,(IX+#0D)
 230++7981 B7             OR A
 231++7982 28 0A          JR Z,L7828_21
 232++7984 DD 6E 0C       LD L,(IX+#0C)
 233++7987 67             LD H,A
 234++7988 11 00 00       LD DE,#0000
 235++798B CD 81 7D       CALL L7828_80
 236++798E              L7828_21:
 237++798E DD 7E 0F       LD A,(IX+#0F)
 238++7991 B7             OR A
 239++7992 28 0D          JR Z,L7828_22
 240++7994 DD 6E 0E       LD L,(IX+#0E)
 241++7997 67             LD H,A
 242++7998 DD 56 05       LD D,(IX+#05)
 243++799B 15             DEC D
 244++799C 1E 00          LD E,#00
 245++799E CD 81 7D       CALL L7828_80
 246++79A1              L7828_22:
 247++79A1 DD 7E 11       LD A,(IX+#11)
 248++79A4 B7             OR A
 249++79A5 C8             RET Z
 250++79A6 DD 6E 10       LD L,(IX+#10)
 251++79A9 67             LD H,A
 252++79AA 11 01 01       LD DE,#0101
 253++79AD C3 81 7D       JP L7828_80
 254++79B0              L7828_23:
 255++79B0 7E             LD A,(HL)
 256++79B1 23             INC HL
 257++79B2 32 06 79       LD (#7906),A
 258++79B5 7E             LD A,(HL)
 259++79B6 23             INC HL
 260++79B7 32 07 79       LD (#7907),A
 261++79BA 7E             LD A,(HL)
 262++79BB 23             INC HL
 263++79BC 32 09 79       LD (#7909),A
 264++79BF 7E             LD A,(HL)
 265++79C0 23             INC HL
 266++79C1 32 FA 79       LD (#79FA),A
 267++79C4 7E             LD A,(HL)
 268++79C5 23             INC HL
 269++79C6 32 FB 79       LD (#79FB),A
 270++79C9 7E             LD A,(HL)
 271++79CA 23             INC HL
 272++79CB 32 1C 7A       LD (#7A1C),A
 273++79CE 7E             LD A,(HL)
 274++79CF 23             INC HL
 275++79D0 32 1D 7A       LD (#7A1D),A
 276++79D3 7E             LD A,(HL)
 277++79D4 23             INC HL
 278++79D5 32 0F 7A       LD (#7A0F),A
 279++79D8 7E             LD A,(HL)
 280++79D9 23             INC HL
 281++79DA 32 10 7A       LD (#7A10),A
 282++79DD 7E             LD A,(HL)
 283++79DE 23             INC HL
 284++79DF 32 12 7A       LD (#7A12),A
 285++79E2 CD 3F 7A       CALL L7828_30
 286++79E5 DD 7E 04       LD A,(IX+#04)
 287++79E8 3D             DEC A
 288++79E9 32 28 7A       LD (#7A28),A
 289++79EC DD 7E 06       LD A,(IX+#06)
 290++79EF CD DE 78       CALL L7828_14
 291++79F2 DD 7E 05       LD A,(IX+#05)
 292++79F5 D6 02          SUB #02
 293++79F7 28 15          JR Z,L7828_26
 294++79F9 11 B3 B3       LD DE,#B3B3
 295++79FC 0E 20          LD C,#20
 296++79FE              L7828_24:
 297++79FE DD BE 0A       CP (IX+#0A)
 298++7A01 28 16          JR Z,L7828_27
 299++7A03 DD BE 0B       CP (IX+#0B)
 300++7A06 28 11          JR Z,L7828_27
 301++7A08 CD 27 7A       CALL L7828_28
 302++7A0B              L7828_25:
 303++7A0B 3D             DEC A
 304++7A0C 20 F0          JR NZ,L7828_24
 305++7A0E              L7828_26:
 306++7A0E 11 D9 C0       LD DE,LC069_5
 307++7A11 0E C4          LD C,#C4
 308++7A13 CD 27 7A       CALL L7828_28
 309++7A16 C3 AC 78       JP L7828_11
 310++7A19              L7828_27:
 311++7A19 D5             PUSH DE
 312++7A1A C5             PUSH BC
 313++7A1B 11 B4 C3       LD DE,#C3B4
 314++7A1E 0E C4          LD C,#C4
 315++7A20 CD 27 7A       CALL L7828_28
 316++7A23 C1             POP BC
 317++7A24 D1             POP DE
 318++7A25 18 E4          JR L7828_25
 319++7A27              L7828_28:
 320++7A27 06 00          LD B,#00
 321++7A29 E5             PUSH HL
 322++7A2A 72             LD (HL),D
 323++7A2B CB FD          SET 7,L
 324++7A2D 36 00          LD (HL),#00
 325++7A2F CB BD          RES 7,L
 326++7A31              L7828_29:
 327++7A31 23             INC HL
 328++7A32 71             LD (HL),C
 329++7A33 CB FD          SET 7,L
 330++7A35 36 00          LD (HL),#00
 331++7A37 CB BD          RES 7,L
 332++7A39 10 F6          DJNZ L7828_29
 333++7A3B 73             LD (HL),E
 334++7A3C E1             POP HL
 335++7A3D 24             INC H
 336++7A3E C9             RET
 337++7A3F              L7828_30:
 338++7A3F DD 7E 04       LD A,(IX+#04)
 339++7A42 B7             OR A
 340++7A43 20 06          JR NZ,L7828_31
 341++7A45 3A 1D 7F       LD A,(#7F1D)
 342++7A48 DD 77 04       LD (IX+#04),A
 343++7A4B              L7828_31:
 344++7A4B DD 7E 05       LD A,(IX+#05)
 345++7A4E B7             OR A
 346++7A4F 20 06          JR NZ,L7828_32
 347++7A51 3A 0E 60       LD A,(#600E)
 348++7A54 DD 77 05       LD (IX+#05),A
 349++7A57              L7828_32:
 350++7A57 DD 7E 02       LD A,(IX+#02)
 351++7A5A FE FF          CP #FF
 352++7A5C 20 0B          JR NZ,L7828_33
 353++7A5E 3A 1D 7F       LD A,(#7F1D)
 354++7A61 DD 96 04       SUB (IX+#04)
 355++7A64 CB 3F          SRL A
 356++7A66 DD 77 02       LD (IX+#02),A
 357++7A69              L7828_33:
 358++7A69 DD 7E 03       LD A,(IX+#03)
 359++7A6C FE FF          CP #FF
 360++7A6E 20 0B          JR NZ,L7828_34
 361++7A70 3A 0E 60       LD A,(#600E)
 362++7A73 DD 96 05       SUB (IX+#05)
 363++7A76 CB 3F          SRL A
 364++7A78 DD 77 03       LD (IX+#03),A
 365++7A7B              L7828_34:
 366++7A7B CD 30 7B       CALL L7828_44
 367++7A7E DD 7E 08       LD A,(IX+#08)
 368++7A81 DD B6 09       OR (IX+#09)
 369++7A84 C0             RET NZ
 370++7A85 E5             PUSH HL
 371++7A86 ED 5B 11 60    LD DE,(L6011)
 372++7A8A DD 73 08       LD (IX+#08),E
 373++7A8D DD 72 09       LD (IX+#09),D
 374++7A90 DD 7E 04       LD A,(IX+#04)
 375++7A93 DD CB 00 7E    BIT 7,(IX+#00)
 376++7A97 28 01          JR Z,L7828_35
 377++7A99 3C             INC A
 378++7A9A              L7828_35:
 379++7A9A 32 B6 7A       LD (#7AB6),A
 380++7A9D 32 BD 7A       LD (#7ABD),A
 381++7AA0 DD 7E 05       LD A,(IX+#05)
 382++7AA3 DD CB 00 7E    BIT 7,(IX+#00)
 383++7AA7 28 01          JR Z,L7828_36
 384++7AA9 3C             INC A
 385++7AAA              L7828_36:
 386++7AAA 08             EX AF,AF'
 387++7AAB 3E 1D          LD A,#1D
 388++7AAD CD B4 68       CALL L6011_111
 389++7AB0 7D             LD A,L
 390++7AB1 08             EX AF,AF'
 391++7AB2 06 00          LD B,#00
 392++7AB4              L7828_37:
 393++7AB4 08             EX AF,AF'
 394++7AB5 0E 00          LD C,#00
 395++7AB7 ED B0          LDIR
 396++7AB9 6F             LD L,A
 397++7ABA CB FD          SET 7,L
 398++7ABC 0E 00          LD C,#00
 399++7ABE ED B0          LDIR
 400++7AC0 6F             LD L,A
 401++7AC1 24             INC H
 402++7AC2 08             EX AF,AF'
 403++7AC3 3D             DEC A
 404++7AC4 20 EE          JR NZ,L7828_37
 405++7AC6 ED 53 11 60    LD (L6011),DE
 406++7ACA E1             POP HL
 407++7ACB C3 AE 68       JP L6011_109
 408++7ACE              L7828_38:
 409++7ACE CD 30 7B       CALL L7828_44
 410++7AD1 EB             EX DE,HL
 411++7AD2 DD 6E 08       LD L,(IX+#08)
 412++7AD5 DD 66 09       LD H,(IX+#09)
 413++7AD8 7C             LD A,H
 414++7AD9 FE BF          CP #BF
 415++7ADB D0             RET NC
 416++7ADC B5             OR L
 417++7ADD C8             RET Z
 418++7ADE E5             PUSH HL
 419++7ADF DD 7E 04       LD A,(IX+#04)
 420++7AE2 DD CB 00 7E    BIT 7,(IX+#00)
 421++7AE6 28 01          JR Z,L7828_39
 422++7AE8 3C             INC A
 423++7AE9              L7828_39:
 424++7AE9 32 05 7B       LD (#7B05),A
 425++7AEC 32 0C 7B       LD (#7B0C),A
 426++7AEF DD 7E 05       LD A,(IX+#05)
 427++7AF2 DD CB 00 7E    BIT 7,(IX+#00)
 428++7AF6 28 01          JR Z,L7828_40
 429++7AF8 3C             INC A
 430++7AF9              L7828_40:
 431++7AF9 08             EX AF,AF'
 432++7AFA 3E 1D          LD A,#1D
 433++7AFC CD B4 68       CALL L6011_111
 434++7AFF 7B             LD A,E
 435++7B00 08             EX AF,AF'
 436++7B01 06 00          LD B,#00
 437++7B03              L7828_41:
 438++7B03 08             EX AF,AF'
 439++7B04 0E 00          LD C,#00
 440++7B06 ED B0          LDIR
 441++7B08 5F             LD E,A
 442++7B09 CB FB          SET 7,E
 443++7B0B 0E 00          LD C,#00
 444++7B0D ED B0          LDIR
 445++7B0F 5F             LD E,A
 446++7B10 14             INC D
 447++7B11 08             EX AF,AF'
 448++7B12 3D             DEC A
 449++7B13 20 EE          JR NZ,L7828_41
 450++7B15 C1             POP BC
 451++7B16 EB             EX DE,HL
 452++7B17 2A 11 60       LD HL,(L6011)
 453++7B1A B7             OR A
 454++7B1B ED 52          SBC HL,DE
 455++7B1D 28 02          JR Z,L7828_42
 456++7B1F 18 04          JR L7828_43
 457++7B21              L7828_42:
 458++7B21 ED 43 11 60    LD (L6011),BC
 459++7B25              L7828_43:
 460++7B25 CD AE 68       CALL L6011_109
 461++7B28 AF             XOR A
 462++7B29 DD 77 08       LD (IX+#08),A
 463++7B2C DD 77 09       LD (IX+#09),A
 464++7B2F C9             RET
 465++7B30              L7828_44:
 466++7B30 AF             XOR A
 467++7B31 CD C1 68       CALL L6011_114
 468++7B34 21 00 C0       LD HL,LC000
 469++7B37 DD 7E 02       LD A,(IX+#02)
 470++7B3A 85             ADD A,L
 471++7B3B 6F             LD L,A
 472++7B3C DD 7E 03       LD A,(IX+#03)
 473++7B3F 84             ADD A,H
 474++7B40 67             LD H,A
 475++7B41 C9             RET
 476++7B42              L7828_45:
 477++7B42 7C             LD A,H
 478++7B43 B7             OR A
 479++7B44 28 4D          JR Z,L7828_48
 480++7B46 3D             DEC A
 481++7B47 28 01          JR Z,L7828_46
 482++7B49 C9             RET
 483++7B4A              L7828_46:
 484++7B4A CD A6 7C       CALL L7828_64
 485++7B4D DA EC 7B       JP C,L7828_51
 486++7B50 21 00 00       LD HL,#0000
 487++7B53 DD 7E 02       LD A,(IX+#02)
 488++7B56 85             ADD A,L
 489++7B57 83             ADD A,E
 490++7B58 6F             LD L,A
 491++7B59 DD 7E 03       LD A,(IX+#03)
 492++7B5C 84             ADD A,H
 493++7B5D 82             ADD A,D
 494++7B5E 67             LD H,A
 495++7B5F 50             LD D,B
 496++7B60 59             LD E,C
 497++7B61 15             DEC D
 498++7B62 15             DEC D
 499++7B63 1D             DEC E
 500++7B64 AF             XOR A
 501++7B65 01 AF 1D       LD BC,#1DAF
 502++7B68 ED 69          OUT (C),L
 503++7B6A 06 1E          LD B,#1E
 504++7B6C ED 61          OUT (C),H
 505++7B6E 06 1F          LD B,#1F
 506++7B70 ED 79          OUT (C),A
 507++7B72 06 1C          LD B,#1C
 508++7B74 ED 79          OUT (C),A
 509++7B76 24             INC H
 510++7B77 06 1A          LD B,#1A
 511++7B79 ED 69          OUT (C),L
 512++7B7B 06 1B          LD B,#1B
 513++7B7D ED 61          OUT (C),H
 514++7B7F 06 26          LD B,#26
 515++7B81 ED 59          OUT (C),E
 516++7B83 06 28          LD B,#28
 517++7B85 ED 51          OUT (C),D
 518++7B87 06 27          LD B,#27
 519++7B89 3E 31          LD A,#31
 520++7B8B ED 79          OUT (C),A
 521++7B8D              L7828_47:
 522++7B8D ED 70          DB #ED,#70
 523++7B8F FA 8D 7B       JP M,L7828_47
 524++7B92 C9             RET
 525++7B93              L7828_48:
 526++7B93 CD A6 7C       CALL L7828_64
 527++7B96 38 54          JR C,L7828_51
 528++7B98 21 00 00       LD HL,#0000
 529++7B9B DD 7E 02       LD A,(IX+#02)
 530++7B9E 85             ADD A,L
 531++7B9F 83             ADD A,E
 532++7BA0 5F             LD E,A
 533++7BA1 DD 7E 03       LD A,(IX+#03)
 534++7BA4 84             ADD A,H
 535++7BA5 82             ADD A,D
 536++7BA6 80             ADD A,B
 537++7BA7 57             LD D,A
 538++7BA8 15             DEC D
 539++7BA9 62             LD H,D
 540++7BAA 6B             LD L,E
 541++7BAB 25             DEC H
 542++7BAC 78             LD A,B
 543++7BAD 3D             DEC A
 544++7BAE 08             EX AF,AF'
 545++7BAF 79             LD A,C
 546++7BB0 01 AF 26       LD BC,#26AF
 547++7BB3 ED 79          OUT (C),A
 548++7BB5 AF             XOR A
 549++7BB6 06 1F          LD B,#1F
 550++7BB8 ED 79          OUT (C),A
 551++7BBA 06 1C          LD B,#1C
 552++7BBC ED 79          OUT (C),A
 553++7BBE 06 28          LD B,#28
 554++7BC0 ED 79          OUT (C),A
 555++7BC2 08             EX AF,AF'
 556++7BC3              L7828_49:
 557++7BC3 08             EX AF,AF'
 558++7BC4 06 1D          LD B,#1D
 559++7BC6 ED 59          OUT (C),E
 560++7BC8 06 1E          LD B,#1E
 561++7BCA ED 51          OUT (C),D
 562++7BCC 15             DEC D
 563++7BCD 06 1A          LD B,#1A
 564++7BCF ED 69          OUT (C),L
 565++7BD1 06 1B          LD B,#1B
 566++7BD3 ED 61          OUT (C),H
 567++7BD5 25             DEC H
 568++7BD6 06 27          LD B,#27
 569++7BD8 3E 01          LD A,#01
 570++7BDA ED 79          OUT (C),A
 571++7BDC              L7828_50:
 572++7BDC ED 70          DB #ED,#70
 573++7BDE FA DC 7B       JP M,L7828_50
 574++7BE1 08             EX AF,AF'
 575++7BE2 3D             DEC A
 576++7BE3 20 DE          JR NZ,L7828_49
 577++7BE5 C9             RET
 578++7BE6 67             LD H,A
 579++7BE7 E6 FC          AND #FC
 580++7BE9 CA 42 7B       JP Z,L7828_45
 581++7BEC              L7828_51:
 582++7BEC 7C             LD A,H
 583++7BED 21 39 7C       LD HL,#7C39
 584++7BF0 36 00          LD (HL),#00
 585++7BF2 CB 7F          BIT 7,A
 586++7BF4 28 02          JR Z,L7828_52
 587++7BF6 36 01          LD (HL),#01
 588++7BF8              L7828_52:
 589++7BF8 21 50 7C       LD HL,#7C50
 590++7BFB 36 00          LD (HL),#00
 591++7BFD CB 77          BIT 6,A
 592++7BFF 28 02          JR Z,L7828_53
 593++7C01 36 01          LD (HL),#01
 594++7C03              L7828_53:
 595++7C03 6F             LD L,A
 596++7C04 E6 3C          AND #3C
 597++7C06 1F             RRA
 598++7C07 1F             RRA
 599++7C08 3C             INC A
 600++7C09 32 2C 7C       LD (#7C2C),A
 601++7C0C 7D             LD A,L
 602++7C0D E6 03          AND #03
 603++7C0F B7             OR A
 604++7C10 28 57          JR Z,L7828_61
 605++7C12 3D             DEC A
 606++7C13 28 05          JR Z,L7828_55
 607++7C15 3D             DEC A
 608++7C16 28 01          JR Z,L7828_54
 609++7C18 C9             RET
 610++7C19              L7828_54:
 611++7C19 C9             RET
 612++7C1A              L7828_55:
 613++7C1A CD 30 7B       CALL L7828_44
 614++7C1D 7A             LD A,D
 615++7C1E 84             ADD A,H
 616++7C1F 67             LD H,A
 617++7C20 7B             LD A,E
 618++7C21 85             ADD A,L
 619++7C22 6F             LD L,A
 620++7C23 54             LD D,H
 621++7C24 5D             LD E,L
 622++7C25 3A 2C 7C       LD A,(#7C2C)
 623++7C28 84             ADD A,H
 624++7C29 67             LD H,A
 625++7C2A 78             LD A,B
 626++7C2B D6 00          SUB #00
 627++7C2D D8             RET C
 628++7C2E 47             LD B,A
 629++7C2F              L7828_56:
 630++7C2F C5             PUSH BC
 631++7C30 E5             PUSH HL
 632++7C31 D5             PUSH DE
 633++7C32 79             LD A,C
 634++7C33 08             EX AF,AF'
 635++7C34 06 00          LD B,#00
 636++7C36 ED B0          LDIR
 637++7C38 3E 00          LD A,#00
 638++7C3A B7             OR A
 639++7C3B 28 0A          JR Z,L7828_57
 640++7C3D CB FD          SET 7,L
 641++7C3F CB FB          SET 7,E
 642++7C41 2D             DEC L
 643++7C42 1D             DEC E
 644++7C43 08             EX AF,AF'
 645++7C44 4F             LD C,A
 646++7C45 ED B8          LDDR
 647++7C47              L7828_57:
 648++7C47 D1             POP DE
 649++7C48 E1             POP HL
 650++7C49 24             INC H
 651++7C4A 14             INC D
 652++7C4B C1             POP BC
 653++7C4C 10 E1          DJNZ L7828_56
 654++7C4E 25             DEC H
 655++7C4F              L7828_58:
 656++7C4F 3E 00          LD A,#00
 657++7C51 B7             OR A
 658++7C52 C8             RET Z
 659++7C53 AF             XOR A
 660++7C54 41             LD B,C
 661++7C55              L7828_59:
 662++7C55 77             LD (HL),A
 663++7C56 2C             INC L
 664++7C57 10 FC          DJNZ L7828_59
 665++7C59 3A 39 7C       LD A,(#7C39)
 666++7C5C B7             OR A
 667++7C5D C8             RET Z
 668++7C5E CB FD          SET 7,L
 669++7C60 DD 7E 06       LD A,(IX+#06)
 670++7C63 41             LD B,C
 671++7C64              L7828_60:
 672++7C64 2D             DEC L
 673++7C65 77             LD (HL),A
 674++7C66 10 FC          DJNZ L7828_60
 675++7C68 C9             RET
 676++7C69              L7828_61:
 677++7C69 CD 30 7B       CALL L7828_44
 678++7C6C 7A             LD A,D
 679++7C6D 84             ADD A,H
 680++7C6E 80             ADD A,B
 681++7C6F 67             LD H,A
 682++7C70 25             DEC H
 683++7C71 7B             LD A,E
 684++7C72 85             ADD A,L
 685++7C73 6F             LD L,A
 686++7C74 54             LD D,H
 687++7C75 5D             LD E,L
 688++7C76 C5             PUSH BC
 689++7C77 3A 2C 7C       LD A,(#7C2C)
 690++7C7A 4F             LD C,A
 691++7C7B 7C             LD A,H
 692++7C7C 91             SUB C
 693++7C7D 67             LD H,A
 694++7C7E 78             LD A,B
 695++7C7F 91             SUB C
 696++7C80 C1             POP BC
 697++7C81 D8             RET C
 698++7C82 47             LD B,A
 699++7C83              L7828_62:
 700++7C83 C5             PUSH BC
 701++7C84 E5             PUSH HL
 702++7C85 D5             PUSH DE
 703++7C86 79             LD A,C
 704++7C87 08             EX AF,AF'
 705++7C88 06 00          LD B,#00
 706++7C8A ED B0          LDIR
 707++7C8C 3A 39 7C       LD A,(#7C39)
 708++7C8F B7             OR A
 709++7C90 28 0A          JR Z,L7828_63
 710++7C92 CB FD          SET 7,L
 711++7C94 CB FB          SET 7,E
 712++7C96 2D             DEC L
 713++7C97 1D             DEC E
 714++7C98 08             EX AF,AF'
 715++7C99 4F             LD C,A
 716++7C9A ED B8          LDDR
 717++7C9C              L7828_63:
 718++7C9C D1             POP DE
 719++7C9D E1             POP HL
 720++7C9E 25             DEC H
 721++7C9F 15             DEC D
 722++7CA0 C1             POP BC
 723++7CA1 10 E0          DJNZ L7828_62
 724++7CA3 24             INC H
 725++7CA4 18 A9          JR L7828_58
 726++7CA6              L7828_64:
 727++7CA6 DD 7E 02       LD A,(IX+#02)
 728++7CA9 83             ADD A,E
 729++7CAA 1F             RRA
 730++7CAB D8             RET C
 731++7CAC 79             LD A,C
 732++7CAD 1F             RRA
 733++7CAE C9             RET
 734++7CAF              ; Принудительно погасить либо восстановить курсор панели.
 735++7CAF              CURSORF:
 736++7CAF              L7828_65:
 737++7CAF 05             DEC B
 738++7CB0 05             DEC B
 739++7CB1 2D             DEC L
 740++7CB2 3E 0F          LD A,#0F
 741++7CB4 A7             AND A
 742++7CB5 A6             AND (HL)
 743++7CB6 4F             LD C,A
 744++7CB7 3E F0          LD A,#F0
 745++7CB9 DD A6 0E       AND (IX+#0E)
 746++7CBC B1             OR C
 747++7CBD 77             LD (HL),A
 748++7CBE 2C             INC L
 749++7CBF F5             PUSH AF
 750++7CC0 DD 7E 01       LD A,(IX+#01)
 751++7CC3 A7             AND A
 752++7CC4 A6             AND (HL)
 753++7CC5 DD B6 0E       OR (IX+#0E)
 754++7CC8 BE             CP (HL)
 755++7CC9 28 04          JR Z,L7828_66
 756++7CCB 4E             LD C,(HL)
 757++7CCC DD 71 0F       LD (IX+#0F),C
 758++7CCF              L7828_66:
 759++7CCF CD ED 7C       CALL L7828_68
 760++7CD2 F1             POP AF
 761++7CD3 77             LD (HL),A
 762++7CD4 C9             RET
 763++7CD5              ; Кадровое мигание курсора активной панели. Главный цикл вызывает процедуру
 764++7CD5              ; сразу после EI/HALT; координаты и цвета берутся из полей описателя IX.
 765++7CD5              CURSOR:
 766++7CD5              L7828_67:
 767++7CD5 CD 12 7D       CALL L7828_71
 768++7CD8 20 D5          JR NZ,L7828_65
 769++7CDA 05             DEC B
 770++7CDB C8             RET Z
 771++7CDC 05             DEC B
 772++7CDD C8             RET Z
 773++7CDE DD 7E 01       LD A,(IX+#01)
 774++7CE1 A7             AND A
 775++7CE2 A6             AND (HL)
 776++7CE3 DD B6 0E       OR (IX+#0E)
 777++7CE6 BE             CP (HL)
 778++7CE7 28 04          JR Z,L7828_68
 779++7CE9 4E             LD C,(HL)
 780++7CEA DD 71 0F       LD (IX+#0F),C
 781++7CED              L7828_68:
 782++7CED 77             LD (HL),A
 783++7CEE 2C             INC L
 784++7CEF 10 FC          DJNZ L7828_68
 785++7CF1 C9             RET
 786++7CF2              L7828_69:
 787++7CF2 CD 12 7D       CALL L7828_71
 788++7CF5 20 09          JR NZ,L7828_70
 789++7CF7 05             DEC B
 790++7CF8 C8             RET Z
 791++7CF9 05             DEC B
 792++7CFA C8             RET Z
 793++7CFB DD 7E 0F       LD A,(IX+#0F)
 794++7CFE 18 ED          JR L7828_68
 795++7D00              L7828_70:
 796++7D00 2D             DEC L
 797++7D01 DD 7E 06       LD A,(IX+#06)
 798++7D04 77             LD (HL),A
 799++7D05 2C             INC L
 800++7D06 05             DEC B
 801++7D07 05             DEC B
 802++7D08 F5             PUSH AF
 803++7D09 DD 7E 0F       LD A,(IX+#0F)
 804++7D0C CD ED 7C       CALL L7828_68
 805++7D0F F1             POP AF
 806++7D10 77             LD (HL),A
 807++7D11 C9             RET
 808++7D12              L7828_71:
 809++7D12 CD 30 7B       CALL L7828_44
 810++7D15 DD 46 04       LD B,(IX+#04)
 811++7D18 CB FD          SET 7,L
 812++7D1A 2C             INC L
 813++7D1B DD 7E 0C       LD A,(IX+#0C)
 814++7D1E 84             ADD A,H
 815++7D1F 67             LD H,A
 816++7D20 DD CB 00 76    BIT 6,(IX+#00)
 817++7D24 C9             RET
 818++7D25              ; Скопировать строку в окно.
 819++7D25              ; Вход: IX — окно, HL — текст, BC — длина, D/E — координаты Y/X.
 820++7D25              ; Выход: HL — вычисленный экранный адрес.
 821++7D25              PRSRW:
 822++7D25              L7828_72:
 823++7D25 D5             PUSH DE
 824++7D26 E5             PUSH HL
 825++7D27 CD 30 7B       CALL L7828_44
 826++7D2A 7A             LD A,D
 827++7D2B 84             ADD A,H
 828++7D2C 67             LD H,A
 829++7D2D 7B             LD A,E
 830++7D2E 85             ADD A,L
 831++7D2F 6F             LD L,A
 832++7D30 EB             EX DE,HL
 833++7D31 E1             POP HL
 834++7D32 79             LD A,C
 835++7D33 ED B0          LDIR
 836++7D35 47             LD B,A
 837++7D36 EB             EX DE,HL
 838++7D37 D1             POP DE
 839++7D38 C9             RET
 840++7D39              ; Записать атрибуты строки. Вход: HL — экранный адрес, A — цвет, B — длина.
 841++7D39              PRIAT:
 842++7D39              L7828_73:
 843++7D39 CD 51 7D       CALL L7828_76
 844++7D3C D8             RET C
 845++7D3D CB FD          SET 7,L
 846++7D3F 2D             DEC L
 847++7D40              L7828_74:
 848++7D40 77             LD (HL),A
 849++7D41 2D             DEC L
 850++7D42 10 FC          DJNZ L7828_74
 851++7D44 C9             RET
 852++7D45              ; Преобразовать координаты D/E внутри окна IX в экранный адрес HL.
 853++7D45              GADRW:
 854++7D45              L7828_75:
 855++7D45 D5             PUSH DE
 856++7D46 CD 30 7B       CALL L7828_44
 857++7D49 7A             LD A,D
 858++7D4A 84             ADD A,H
 859++7D4B 67             LD H,A
 860++7D4C 7B             LD A,E
 861++7D4D 85             ADD A,L
 862++7D4E 6F             LD L,A
 863++7D4F D1             POP DE
 864++7D50 C9             RET
 865++7D51              L7828_76:
 866++7D51 F5             PUSH AF
 867++7D52 78             LD A,B
 868++7D53 FE 5B          CP #5B
 869++7D55 30 13          JR NC,L7828_77
 870++7D57 7C             LD A,H
 871++7D58 FE C0          CP #C0
 872++7D5A 38 0E          JR C,L7828_77
 873++7D5C CB 7D          BIT 7,L
 874++7D5E 20 0A          JR NZ,L7828_77
 875++7D60 3A 03 60       LD A,(#6003)
 876++7D63 FE 00          CP #00
 877++7D65 20 03          JR NZ,L7828_77
 878++7D67 F1             POP AF
 879++7D68 B7             OR A
 880++7D69 C9             RET
 881++7D6A              L7828_77:
 882++7D6A F1             POP AF
 883++7D6B 37             SCF
 884++7D6C C9             RET
 885++7D6D B7             OR A
 886++7D6E 28 11          JR Z,L7828_80
 887++7D70 D5             PUSH DE
 888++7D71 5F             LD E,A
 889++7D72 01 00 20       LD BC,#2000
 890++7D75              L7828_78:
 891++7D75 AF             XOR A
 892++7D76              L7828_79:
 893++7D76 ED B1          CPIR
 894++7D78 7E             LD A,(HL)
 895++7D79 23             INC HL
 896++7D7A B7             OR A
 897++7D7B 20 F8          JR NZ,L7828_78
 898++7D7D 1D             DEC E
 899++7D7E 20 F6          JR NZ,L7828_79
 900++7D80 D1             POP DE
 901++7D81              ; Печатать управляющую строку из HL с началом в D/E.
 902++7D81              ; Коды 11/12/13/14 задают табуляцию, смещение, новую строку и центрирование;
 903++7D81              ; значения меньше 10 переключают оформление.
 904++7D81              TXTPR:
 905++7D81              L7828_80:
 906++7D81 AF             XOR A
 907++7D82 CD C1 68       CALL L6011_114
 908++7D85 ED 53 54 7F    LD (#7F54),DE
 909++7D89 DD 7E 06       LD A,(IX+#06)
 910++7D8C 32 53 7F       LD (#7F53),A
 911++7D8F              L7828_81:
 912++7D8F 7E             LD A,(HL)
 913++7D90 B7             OR A
 914++7D91 28 25          JR Z,L7828_82
 915++7D93 FE 0B          CP #0B
 916++7D95 28 27          JR Z,L7828_83
 917++7D97 FE 0C          CP #0C
 918++7D99 28 2A          JR Z,L7828_84
 919++7D9B FE 0D          CP #0D
 920++7D9D CA 2E 7E       JP Z,L7828_93
 921++7DA0 FE 0E          CP #0E
 922++7DA2 28 28          JR Z,L7828_85
 923++7DA4 FE FE          CP #FE
 924++7DA6 CC 37 7E       CALL Z,L7828_94
 925++7DA9 28 E4          JR Z,L7828_81
 926++7DAB FE 0A          CP #0A
 927++7DAD DC 5A 7E       CALL C,L7828_96
 928++7DB0 38 DD          JR C,L7828_81
 929++7DB2 CD 0C 7E       CALL L7828_92
 930++7DB5 C3 8F 7D       JP L7828_81
 931++7DB8              L7828_82:
 932++7DB8 ED 5B 54 7F    LD DE,(#7F54)
 933++7DBC 14             INC D
 934++7DBD C9             RET
 935++7DBE              L7828_83:
 936++7DBE 23             INC HL
 937++7DBF 7B             LD A,E
 938++7DC0 86             ADD A,(HL)
 939++7DC1 5F             LD E,A
 940++7DC2 23             INC HL
 941++7DC3 18 CA          JR L7828_81
 942++7DC5              L7828_84:
 943++7DC5 23             INC HL
 944++7DC6 7A             LD A,D
 945++7DC7 86             ADD A,(HL)
 946++7DC8 57             LD D,A
 947++7DC9 23             INC HL
 948++7DCA 18 C3          JR L7828_81
 949++7DCC              L7828_85:
 950++7DCC E5             PUSH HL
 951++7DCD 01 00 50       LD BC,#5000
 952++7DD0 CD E8 7D       CALL L7828_87
 953++7DD3 20 0F          JR NZ,L7828_86
 954++7DD5 79             LD A,C
 955++7DD6 B7             OR A
 956++7DD7 28 0B          JR Z,L7828_86
 957++7DD9 DD 7E 04       LD A,(IX+#04)
 958++7DDC 91             SUB C
 959++7DDD 38 05          JR C,L7828_86
 960++7DDF 28 03          JR Z,L7828_86
 961++7DE1 CB 3F          SRL A
 962++7DE3 5F             LD E,A
 963++7DE4              L7828_86:
 964++7DE4 E1             POP HL
 965++7DE5 23             INC HL
 966++7DE6 18 A7          JR L7828_81
 967++7DE8              L7828_87:
 968++7DE8 23             INC HL
 969++7DE9 7E             LD A,(HL)
 970++7DEA B7             OR A
 971++7DEB C8             RET Z
 972++7DEC FE 0D          CP #0D
 973++7DEE C8             RET Z
 974++7DEF FE 0E          CP #0E
 975++7DF1 28 15          JR Z,L7828_91
 976++7DF3 FE FE          CP #FE
 977++7DF5 30 11          JR NC,L7828_91
 978++7DF7 FE 10          CP #10
 979++7DF9 38 01          JR C,L7828_88
 980++7DFB 0C             INC C
 981++7DFC              L7828_88:
 982++7DFC FE 0B          CP #0B
 983++7DFE 20 01          JR NZ,L7828_89
 984++7E00 23             INC HL
 985++7E01              L7828_89:
 986++7E01 FE 0C          CP #0C
 987++7E03 20 01          JR NZ,L7828_90
 988++7E05 23             INC HL
 989++7E06              L7828_90:
 990++7E06 10 E0          DJNZ L7828_87
 991++7E08              L7828_91:
 992++7E08 3E FE          LD A,#FE
 993++7E0A B7             OR A
 994++7E0B C9             RET
 995++7E0C              L7828_92:
 996++7E0C E5             PUSH HL
 997++7E0D 7E             LD A,(HL)
 998++7E0E 08             EX AF,AF'
 999++7E0F 21 00 C0       LD HL,LC000
1000++7E12 DD 7E 02       LD A,(IX+#02)
1001++7E15 85             ADD A,L
1002++7E16 6F             LD L,A
1003++7E17 DD 7E 03       LD A,(IX+#03)
1004++7E1A 84             ADD A,H
1005++7E1B 67             LD H,A
1006++7E1C 7A             LD A,D
1007++7E1D 84             ADD A,H
1008++7E1E 67             LD H,A
1009++7E1F 7B             LD A,E
1010++7E20 85             ADD A,L
1011++7E21 6F             LD L,A
1012++7E22 08             EX AF,AF'
1013++7E23 77             LD (HL),A
1014++7E24 CB FD          SET 7,L
1015++7E26 3A 53 7F       LD A,(#7F53)
1016++7E29 77             LD (HL),A
1017++7E2A E1             POP HL
1018++7E2B 1C             INC E
1019++7E2C 23             INC HL
1020++7E2D C9             RET
1021++7E2E              L7828_93:
1022++7E2E ED 5B 54 7F    LD DE,(#7F54)
1023++7E32 14             INC D
1024++7E33 23             INC HL
1025++7E34 C3 81 7D       JP L7828_80
1026++7E37              L7828_94:
1027++7E37 23             INC HL
1028++7E38 7E             LD A,(HL)
1029++7E39 23             INC HL
1030++7E3A 08             EX AF,AF'
1031++7E3B 7E             LD A,(HL)
1032++7E3C 23             INC HL
1033++7E3D E5             PUSH HL
1034++7E3E 67             LD H,A
1035++7E3F 08             EX AF,AF'
1036++7E40 6F             LD L,A
1037++7E41 CD 47 7E       CALL L7828_95
1038++7E44 E1             POP HL
1039++7E45 AF             XOR A
1040++7E46 C9             RET
1041++7E47              L7828_95:
1042++7E47 7E             LD A,(HL)
1043++7E48 B7             OR A
1044++7E49 C8             RET Z
1045++7E4A FE 0D          CP #0D
1046++7E4C C8             RET Z
1047++7E4D FE 0A          CP #0A
1048++7E4F DC 5A 7E       CALL C,L7828_96
1049++7E52 38 F3          JR C,L7828_95
1050++7E54 CD 0C 7E       CALL L7828_92
1051++7E57 C3 47 7E       JP L7828_95
1052++7E5A              L7828_96:
1053++7E5A FE 09          CP #09
1054++7E5C 20 0D          JR NZ,L7828_97
1055++7E5E 3A 53 7F       LD A,(#7F53)
1056++7E61 0F             RRCA
1057++7E62 0F             RRCA
1058++7E63 0F             RRCA
1059++7E64 0F             RRCA
1060++7E65 32 53 7F       LD (#7F53),A
1061++7E68 23             INC HL
1062++7E69 37             SCF
1063++7E6A C9             RET
1064++7E6B              L7828_97:
1065++7E6B 08             EX AF,AF'
1066++7E6C 23             INC HL
1067++7E6D 7E             LD A,(HL)
1068++7E6E FE 09          CP #09
1069++7E70 38 0F          JR C,L7828_98
1070++7E72 08             EX AF,AF'
1071++7E73 E6 07          AND #07
1072++7E75 4F             LD C,A
1073++7E76 DD 7E 06       LD A,(IX+#06)
1074++7E79 E6 F0          AND #F0
1075++7E7B B1             OR C
1076++7E7C 32 53 7F       LD (#7F53),A
1077++7E7F 37             SCF
1078++7E80 C9             RET
1079++7E81              L7828_98:
1080++7E81 D9             EXX
1081++7E82 4F             LD C,A
1082++7E83 08             EX AF,AF'
1083++7E84 B9             CP C
1084++7E85 28 0E          JR Z,L7828_100
1085++7E87 3D             DEC A
1086++7E88 0D             DEC C
1087++7E89 87             ADD A,A
1088++7E8A 87             ADD A,A
1089++7E8B 87             ADD A,A
1090++7E8C 87             ADD A,A
1091++7E8D B1             OR C
1092++7E8E              L7828_99:
1093++7E8E 32 53 7F       LD (#7F53),A
1094++7E91 37             SCF
1095++7E92 D9             EXX
1096++7E93 23             INC HL
1097++7E94 C9             RET
1098++7E95              L7828_100:
1099++7E95 F6 08          OR #08
1100++7E97 4F             LD C,A
1101++7E98 DD 7E 06       LD A,(IX+#06)
1102++7E9B E6 F0          AND #F0
1103++7E9D B1             OR C
1104++7E9E 18 EE          JR L7828_99
1105++7EA0
# file closed: WCIF_DISASM.ASM
  32+ 7EA0                      ASSERT $ == #7EA0, нарушена граница WCIF_DISASM.ASM
  33+ 7EA0
  34+ 7EA0                      INCLUDE "WCVLS.ASM"
# file opened: WCVLS.ASM
   1++7EA0              ; WCVLS — структуры состояния Wild Commander, описатели окон и текстовые данные.
   2++7EA0              ; Exact-диапазон: #7EA0..#8530. При сборке с базой #7EA0 файл побайтно совпадает
   3++7EA0              ; с поставляемым boot.$C: 1681 байт, различий нет.
   4++7EA0              ; Основные структуры:
   5++7EA0              ;   WINDOW/WINDO2 — 36-байтовые описатели левой и правой панелей;
   6++7EA0              ;   PALLIT — таблица сочетаний страниц/палитры;
   7++7EA0              ;   PPFR..PHEP — состояние загрузчика и активного плагина;
   8++7EA0              ;   BRRR..ERRR — кластеры, размер и сохранённые каталоги файловых операций;
   9++7EA0              ;   INTPL/INTTM/INTPS — флаги обработчиков прерывания;
  10++7EA0              ;   ENTRY — текущая 32-байтовая запись каталога;
  11++7EA0              ;   ERWND/PBWND/MDWND/F5WND/HPWND/F11WND — описатели диалоговых окон.
  12++7EA0              ; Поля 36-байтового описателя панели:
  13++7EA0              ;   +0 тип, +1 маска курсора, +2/+3 X/Y, +4/+5 ширина/высота,
  14++7EA0              ;   +6 цвет, +8 адрес буфера, +10 число строк, +12/+13 курсор и максимум,
  15++7EA0              ;   +14/+15 цвета курсора, +16 верх списка, +18 число записей,
  16++7EA0              ;   +20/+21 признаки конца/начала, +22 страница, +23 смещение,
  17++7EA0              ;   +25 начальная и +26 текущая страница каталога, +27 страница драйвера,
  18++7EA0              ;   +28 флаг активации, +29 устройство, +30 начало, +32 текущий указатель,
  19++7EA0              ;   +34 флаг инициализации, +35 критерий сортировки.
  20++7EA0              ; Значения ниже раньше приходили из MD20.ASM. Условия сохраняют совместимость
  21++7EA0              ; как с отдельной exact-сборкой, так и с историческим верхнеуровневым файлом.
  22++7EA0                      IFNDEF CURmsk
  23++7EA0              CURmsk  EQU %00000111
  24++7EA0                      ENDIF
  25++7EA0                      IFNDEF WNDCLR
  26++7EA0              WNDCLR  EQU %00011111
  27++7EA0                      ENDIF
  28++7EA0                      IFNDEF CURclr
  29++7EA0              CURclr  EQU %01011000
  30++7EA0                      ENDIF
  31++7EA0                      IFNDEF TBG
  32++7EA0              TBG     EQU %00010111
  33++7EA0                      ENDIF
  34++7EA0                      IFNDEF CPPG1
  35++7EA0              CPPG1   EQU 30
  36++7EA0                      ENDIF
  37++7EA0                      IFNDEF CPPG2
  38++7EA0              CPPG2   EQU 31
  39++7EA0                      ENDIF
  40++7EA0                      IFNDEF RLPNL
  41++7EA0              RLPNL   EQU #1000
  42++7EA0                      ENDIF
  43++7EA0                      IFNDEF RRPNL
  44++7EA0              RRPNL   EQU #2000
  45++7EA0                      ENDIF
  46++7EA0                      IFNDEF CATMX
  47++7EA0              CATMX   EQU 9
  48++7EA0                      ENDIF
  49++7EA0                      IFNDEF WID1
  50++7EA0              WID1    EQU 80
  51++7EA0                      ENDIF
  52++7EA0                      IFNDEF WID2
  53++7EA0              WID2    EQU 90
  54++7EA0                      ENDIF
  55++7EA0                      IFNDEF HEIMAX
  56++7EA0              HEIMAX  EQU 36
  57++7EA0                      ENDIF
  58++7EA0                      IFNDEF DEFRQ
  59++7EA0              DEFRQ   EQU %00000001
  60++7EA0                      ENDIF
  61++7EA0                      IFNDEF DRVRS
  62++7EA0              DRVRS   EQU 7
  63++7EA0                      ENDIF
  64++7EA0                      IFNDEF RUNSPG
  65++7EA0              RUNSPG  EQU #957B
  66++7EA0                      ENDIF
  67++7EA0                      IFNDEF RUNHOB
  68++7EA0              RUNHOB  EQU #9367
  69++7EA0                      ENDIF
  70++7EA0                      IFNDEF LDPLG
  71++7EA0              LDPLG   EQU #973A
  72++7EA0                      ENDIF
  73++7EA0
  74++7EA0              ; Левая панель.
  75++7EA0 16 07        WINDOW  DB 6+16,CURmsk
  76++7EA2 00 00                DB 0,0
  77++7EA4 28 02                DB 40,2
  78++7EA6 1F                   DB WNDCLR
  79++7EA7 00                   DB 0
  80++7EA8 FF FF                DW #FFFF
  81++7EAA 02 00                DB 2,0
  82++7EAC 01 00                DB 1,0
  83++7EAE 58                   DB CURclr
  84++7EAF 17                   DB TBG
  85++7EB0 00 00                DW 0
  86++7EB2 00 00                DW 0
  87++7EB4 00 00                DB 0,0
  88++7EB6 1E                   DB CPPG1
  89++7EB7 00 00                DW 0
  90++7EB9 00 00                DB 0,0
  91++7EBB 00 00                DB 0,0
  92++7EBD 01                   DB 1
  93++7EBE 00 10                DW RLPNL
  94++7EC0 00 10                DW RLPNL
  95++7EC2 00                   DB 0
  96++7EC3 00                   DB 0
  97++7EC4
  98++7EC4              ; Правая панель.
  99++7EC4 16 07        WINDO2  DB 6+16,CURmsk
 100++7EC6 28 00                DB 40,0
 101++7EC8 28 02                DB 40,2
 102++7ECA 1F                   DB WNDCLR
 103++7ECB 00                   DB 0
 104++7ECC FF FF                DW #FFFF
 105++7ECE 02 00                DB 2,0
 106++7ED0 01 00                DB 1,0
 107++7ED2 58                   DB CURclr
 108++7ED3 17                   DB TBG
 109++7ED4 00 00                DW 0
 110++7ED6 00 00                DW 0
 111++7ED8 00 00                DB 0,0
 112++7EDA 1F                   DB CPPG2
 113++7EDB 00 00                DW 0
 114++7EDD 09 00                DB CATMX,0
 115++7EDF 01 00                DB 1,0
 116++7EE1 01                   DB 1
 117++7EE2 00 20                DW RRPNL
 118++7EE4 00 20                DW RRPNL
 119++7EE6 00                   DB 0
 120++7EE7 00                   DB 0
 121++7EE8
 122++7EE8              ; Сочетания страниц/палитры для режимов интерфейса.
 123++7EE8 00 00 10 00  PALLIT  DW #0000,#0010,#4000,#4010
 123++7EEC 00 40 10 40
 124++7EF0 00 02 10 02          DW #0200,#0210,#4200,#4210
 124++7EF4 00 42 10 42
 125++7EF8 00 00 18 00          DW #0000,#0018,#6000,#6018
 125++7EFC 00 60 18 60
 126++7F00 00 03 18 03          DW #0300,#0318,#6300,#6318
 126++7F04 00 63 18 63
 127++7F08              ; Пятисимвольные признаки каталога и файла в списке панели.
 128++7F08 3C 44 49 52  SDIR    DB "<DIR>"
 128++7F0C 3E
 129++7F0D 20 46 49 4C  SFIL    DB " FILE"
 129++7F11 45
 130++7F12
 131++7F12 00           CSEL    NOP
 132++7F13 00           CNSL    NOP
 133++7F14
 134++7F14              ; Состояние загрузки плагинов и указатели на их заголовки.
 135++7F14 00           PPFR    NOP
 136++7F15 00           PPGP    NOP
 137++7F16 00           PPGM    NOP
 138++7F17 00           PPG2    NOP
 139++7F18 00 00        PHED    DS 2
 140++7F1A 00 00        PHEP    DS 2
 141++7F1C
 142++7F1C 00           LFLT    NOP
 143++7F1D 50           WID     DB WID1
 143++7F1E 00            NOP
 144++7F1F
 145++7F1F 01           AYZ80   DB DEFRQ
 146++7F20 01           DFRQ    DB DEFRQ
 147++7F21
 148++7F21 00           DSA     NOP
 149++7F22 00           DDA     NOP
 150++7F23 00           DAS     NOP
 151++7F24
 152++7F24 00 00        IXBU    DS 2
 153++7F26 00 00        SPBU    DS 2
 154++7F28
 155++7F28              ; Рабочие 32-битные значения файловых операций.
 156++7F28              ; BRRR — кластер записи; ARRR — размер; CRRR — рабочий кластер;
 157++7F28              ; DRRR — сохранённый каталог; ERRR — каталог рекурсивного копирования.
 158++7F28 00 00 00 00  BRRR    DS 4
 159++7F2C 00 00 00 00  ARRR    DS 4
 160++7F30 00 00 00 00  CRRR    DS 4
 161++7F34 00 00 00 00  DRRR    DS 4
 162++7F38 00 00 00 00  ERRR    DS 4
 163++7F3C
 164++7F3C 00 00        IXHL    DS 2
 165++7F3E
 166++7F3E 00 00 00 00  PBNOW   DS 4
 167++7F42
 168++7F42 00           RSTA    NOP
 169++7F43
 170++7F43 00           STUS    NOP
 171++7F44
 172++7F44 00 00        MRCT    DS 2
 173++7F46 00 00        MRRN    DS 2
 174++7F48 00 00        AAHL    DS 2
 175++7F4A 00 00        AADE    DS 2
 176++7F4C
 177++7F4C              ; Флаги вызовов из обработчика IM2: плагин, часы и PS/2.
 178++7F4C 00           INTPL   NOP
 179++7F4D 00           INTTM   NOP
 180++7F4E 00           INTPS   NOP
 181++7F4F
 182++7F4F 00 00        TTHL    DS 2
 183++7F51 00 00        TTDE    DS 2
 184++7F53
 185++7F53 00           CLRN    NOP
 186++7F54 00 00        LXY     DS 2
 187++7F56
 188++7F56              ; Теневые значения видеорегистров, выводимые процедурой VPRT.
 189++7F56 00           VVpag   NOP
 190++7F57 00           VVmod   NOP
 191++7F58
 192++7F58 00           VYofL   NOP
 193++7F59 00           VYofH   NOP
 194++7F5A 00           VXofL   NOP
 195++7F5B 00           VXofH   NOP
 196++7F5C
 197++7F5C              ; Таймер бездействия и порог запуска плагина-заставки.
 198++7F5C 00 00        TABTM   DS 2
 199++7F5E 00 08        AFTM    DW 2048
 200++7F60
 201++7F60 03 06 2E     TMR     DB 3,6,49-3
 202++7F63 58 58 3A 58  TTM     DB "XX:XX.XX"
 202++7F67 58 2E 58 58
 203++7F6B              ; Текущая 32-байтовая запись каталога FAT.
 204++7F6B 00 00 00...  ENTRY   DS 32
 205++7F8B 5B 20 20 4F  TXT00   DB "[  OK  ]"
 205++7F8F 4B 20 20 5D
 206++7F93 5B 43 41 4E  TXT01   DB "[CANCEL]"
 206++7F97 43 45 4C 5D
 207++7F9B 5B 20 59 45  TXT00y  DB "[ YES  ]"
 207++7F9F 53 20 20 5D
 208++7FA3 5B 20 20 4E  TXT01n  DB "[  NO  ]"
 208++7FA7 4F 20 20 5D
 209++7FAB 10 77 63 00  WCDIR   DB #10,"wc",0
 210++7FAF 00 77 63 2E  WCINI   DB #00,"wc.ini",0
 210++7FB3 69 6E 69 00
 211++7FB7              ; Окно сообщения об ошибке.
 212++7FB7 94 00        ERWND   DB 4+16+128,0
 213++7FB9 FF FF                DB 255,255
 214++7FBB 3E 05                DB 60+2,3+2
 215++7FBD 2F                   DB %00101111
 216++7FBE 00                   DB 0
 217++7FBF 00 00                DW #0000
 218++7FC1 00 00                DB 0,0
 219++7FC3 C9 7F                DW ERHD
 220++7FC5 D2 7F                DW ERSL
 221++7FC7 00 00                DW 0
 222++7FC9 0E 09 45 52  ERHD    DB #0E,#09,"ERROR:",0
 222++7FCD 52 4F 52 3A
 222++7FD1 00
 223++7FD2 0E 09 70 72  ERSL    DB #0E,#09,"press any key",0
 223++7FD6 65 73 73 20
 223++7FDA 61 6E 79 20
 223++7FDE 6B 65 79 00
 224++7FE2
 225++7FE2              ; Окно индикатора прогресса.
 226++7FE2 84 00        PBWND   DB 4+128,0
 227++7FE4 FF FF                DB 255,255
 228++7FE6 42 04                DB 64+2,2+2
 229++7FE8 5F                   DB %01011111
 230++7FE9 00                   DB 0
 231++7FEA 00 00                DW #0000
 232++7FEC 00 00                DB 0,0
 233++7FEE 00 00                DW 0
 234++7FF0 00 00                DW 0
 235++7FF2 00 00                DW 0
 236++7FF4
 237++7FF4              ; Диалог создания каталога и переименования.
 238++7FF4 93 00        MDWND   DB 3+16+128,0
 239++7FF6 FF FF                DB 255,255
 240++7FF8 28 03                DB 38+2,1+2
 241++7FFA 5F                   DB %01011111
 242++7FFB 00                   DB 0
 243++7FFC 00 00                DW #0000
 244++7FFE 00 00                DB 0,0
 245++8000
 246++8000              ; Диалог копирования.
 247++8000 93 00        F5WND   DB 3+16+128,0
 248++8002 FF FF                DB 255,255
 249++8004 28 06                DB 38+2,6
 250++8006 7F                   DB %01111111
 251++8007 00                   DB 0
 252++8008 00 00                DW #0000
 253++800A 02 00                DB 2,0
 254++800C
 255++800C              ; Диалог прерывания операции.
 256++800C 93 00        ABWND   DB 3+16+128,0
 257++800E FF FF                DB 255,255
 258++8010 28 06                DB 38+2,6
 259++8012 7F                   DB %01111111
 260++8013 00                   DB 0
 261++8014 00 00                DW #0000
 262++8016 02 00                DB 2,0
 263++8018
 264++8018              ; Окно справки.
 265++8018 94 00        HPWND   DB 4+16+128,0
 266++801A FF FF                DB 255,255
 267++801C 28 08                DB 38+2,6+2
 268++801E 7F                   DB %01111111
 269++801F 00                   DB 0
 270++8020 00 00                DW #0000
 271++8022 02 05                DB 2,5
 272++8024 CB 83                DW ABHED
 273++8026 00 00                DW 0
 274++8028 D3 83                DW ABTXT
 275++802A
 276++802A              ; Сообщение об успешной загрузке плагина.
 277++802A 93 00        LGWND   DB 3+16+128,0
 278++802C FF FF                DB 255,255
 279++802E 22 04                DB 32+2,2+2
 280++8030 7F                   DB %01111111
 281++8031 00                   DB 0
 282++8032 00 00                DW #0000
 283++8034 00 00                DB 0,0
 284++8036
 285++8036              ; Меню загруженных плагинов.
 286++8036 D5 00        F11WND  DB 5+16+128+64,0
 287++8038 FF FF                DB 255,255
 288++803A 22 02                DB 32+2,2
 289++803C 5F                   DB %01011111
 290++803D 00                   DB 0
 291++803E 00 00                DW #0000
 292++8040 00 00                DB 0,0
 293++8042
 294++8042 01 00                DB 1,0
 295++8044 E1                   DB %11100001
 296++8045 00                   DB 0
 297++8046
 298++8046 4C 80                DW F11TXT
 299++8048 59 80                DW F11BOT
 300++804A 00 00                DW 0
 301++804C
 302++804C 0E 09 52 55  F11TXT  DB #0E,#09,"RUN PLUGIN",0
 302++8050 4E 20 50 4C
 302++8054 55 47 49 4E
 302++8058 00
 303++8059 0B 0E 09     F11BOT  DB #0B,14,#09
 304++805C 44 45 4C 20          DB "DEL - delete plugin",0
 304++8060 2D 20 64 65
 304++8064 6C 65 74 65
 304++8068 20 70 6C 75
 304++806C 67 69 6E 00
 305++8070
 306++8070              ; Сообщение о выбранном критерии сортировки.
 307++8070 94 00        SMWND   DB 4+16+128,0
 308++8072 FF FF                DB 255,255
 309++8074 1A 03                DB 24+2,3
 310++8076 7F                   DB %01111111
 311++8077 00                   DB 0
 312++8078 00 00                DW #0000
 313++807A 00 00                DB 0,0
 314++807C
 315++807C 00 00                DW 0
 316++807E 00 00                DW 0
 317++8080 F0 83                DW SORTIP
 318++8082
 319++8082              ; Диалог выбора устройства панели.
 320++8082 D5 00        DSWND   DB 5+16+128+64,0
 321++8084 00 00                DB 0,0
 322++8086 20 09                DB 30+2,DRVRS+2
 323++8088 7F                   DB %01111111
 324++8089 00                   DB 0
 325++808A 00 00                DW #0000
 326++808C 00 00                DB 0,0
 327++808E
 328++808E 01 07                DB 1,DRVRS
 329++8090 E0                   DB %11100000
 330++8091 00                   DB 0
 331++8092
 332++8092 01 84                DW TXT4
 333++8094 00 00                DW 0
 334++8096 12 84                DW THDD
 335++8098
 336++8098              BASEOP  EQU 0
 337++8098              ; Диалог выбора обработчика расширения.
 338++8098 C5 07        GRWND   DB 5+128+64,CURmsk
 339++809A 00 00                DB 0,0
 340++809C 1A 02                DB 24+2,BASEOP+2
 341++809E 4F                   DB %01001111
 342++809F 00                   DB 0
 343++80A0 00 00                DW #0000
 344++80A2 00 00                DB 0,0
 345++80A4
 346++80A4 01 00                DB 1,BASEOP
 347++80A6 F0                   DB %11110000
 348++80A7 00                   DB 0
 349++80A8
 350++80A8 00 00                DW 0
 351++80AA 00 00                DW 0
 352++80AC 00 00                DW 0
 353++80AE
 354++80AE              ; Диалог выбора частоты и режима.
 355++80AE D5 00        FRWND   DB 5+16+128+64,0
 356++80B0 FF FF                DB 255,255
 357++80B2 14 08                DB 18+2,6+2
 358++80B4 7F                   DB %01111111
 359++80B5 00                   DB 0
 360++80B6 00 00                DW #0000
 361++80B8 02 00                DB 2,0
 362++80BA
 363++80BA 01 04                DB 1,4
 364++80BC E0                   DB %11100000
 365++80BD 00                   DB 0
 366++80BE
 367++80BE C4 80                DW FRWNDH
 368++80C0 00 00                DW 0
 369++80C2 D3 80                DW FREQS
 370++80C4
 371++80C4 0E 09 52 55  FRWNDH  DB #0E,#09,"RUN File AT:",0
 371++80C8 4E 20 46 69
 371++80CC 6C 65 20 41
 371++80D0 54 3A 00
 372++80D3 0E 33 2E 35  FREQS   DB #0E,"3.5 MHz",13
 372++80D7 20 4D 48 7A
 372++80DB 0D
 373++80DC 0E 37 2E 30          DB #0E,"7.0 MHz",13
 373++80E0 20 4D 48 7A
 373++80E4 0D
 374++80E5 0E 31 34 20          DB #0E,"14 MHz",13
 374++80E9 4D 48 7A 0D
 375++80ED 0E 31 34 2B          DB #0E,"14+MHz",0
 375++80F1 4D 48 7A 00
 376++80F5
 377++80F5 53 50 47     EXTZ    DB "SPG"
 377++80F8 7B 95         DW RUNSPG
 378++80FA 24 43 20             DB "$C "
 378++80FD 67 93         DW RUNHOB
 379++80FF 57 4D 46             DB "WMF"
 379++8102 3A 97         DW LDPLG
 380++8104 00                   NOP
 381++8105 0E 09 4D 61  TXT6    DB #0E,#09,"Make Directory",0
 381++8109 6B 65 20 44
 381++810D 69 72 65 63
 381++8111 74 6F 72 79
 381++8115 00
 382++8116 0E 09 52 65  TXT7    DB #0E,#09,"ReName",0
 382++811A 4E 61 6D 65
 382++811E 00
 383++811F 0E 09 43 6F  TXT8    DB #0E,#09,"Copy",0
 383++8123 70 79 00
 384++8126 43 6F 70 79  TXT9    DB "Copy ",#FE
 384++812A 20 FE
 384++812C 50 81         DW TXTD7
 384++812E 00            NOP
 385++812F 0E 3C 30 30  TXT10   DB #0E,"<0000 of 0000>",0
 385++8133 30 30 20 6F
 385++8137 66 20 30 30
 385++813B 30 30 3E 00
 386++813F 0E 09 44 65  TXTB    DB #0E,#09,"Delete",0
 386++8143 6C 65 74 65
 386++8147 00
 387++8148 0E 44 65 6C  TXTD    DB #0E,"Delete "
 387++814C 65 74 65 20
 388++8150 20 20 20 20  TXTD7   DB "     files/dirs?",0
 388++8154 20 66 69 6C
 388++8158 65 73 2F 64
 388++815C 69 72 73 3F
 388++8160 00
 389++8161 02 0E        TXTE    DB 2,#0E
 390++8163 44 65 6C 65          DB "Deleting is in Progress!",0
 390++8167 74 69 6E 67
 390++816B 20 69 73 20
 390++816F 69 6E 20 50
 390++8173 72 6F 67 72
 390++8177 65 73 73 21
 390++817B 00
 391++817C 0E 09 41 62  TXTF    DB #0E,#09,"Aborting",0
 391++8180 6F 72 74 69
 391++8184 6E 67 00
 392++8187 0E 41 62 6F  TXTG    DB #0E,"Abort operation?",0
 392++818B 72 74 20 6F
 392++818F 70 65 72 61
 392++8193 74 69 6F 6E
 392++8197 3F 00
 393++8199
 394++8199 0E 44 45 4C  TXTK    DB #0E,"DELETE PLUGIN?",0
 394++819D 45 54 45 20
 394++81A1 50 4C 55 47
 394++81A5 49 4E 3F 00
 395++81A9 0E 50 6C 75  TXTL    DB #0E,"Plugin already exists!"
 395++81AD 67 69 6E 20
 395++81B1 61 6C 72 65
 395++81B5 61 64 79 20
 395++81B9 65 78 69 73
 395++81BD 74 73 21
 396++81C0 0D                   DB 13
 397++81C1 0E 52 45 4C          DB #0E,"RELOAD IT?",0
 397++81C5 4F 41 44 20
 397++81C9 49 54 3F 00
 398++81CD
 399++81CD 4E 61 6D 65  TCT0    DB "Name:",0
 399++81D1 3A 00
 400++81D3
 401++81D3 0E 44 65 76  TER0    DB #0E,"Device Not Found!",0
 401++81D7 69 63 65 20
 401++81DB 4E 6F 74 20
 401++81DF 46 6F 75 6E
 401++81E3 64 21 00
 402++81E6 0E 46 41 54  TER1    DB #0E,"FAT32 Not Found!",0
 402++81EA 33 32 20 4E
 402++81EE 6F 74 20 46
 402++81F2 6F 75 6E 64
 402++81F6 21 00
 403++81F8
 404++81F8 0E 4E 6F 74  TER2    DB #0E,"Not Enough Space!",0
 404++81FC 20 45 6E 6F
 404++8200 75 67 68 20
 404++8204 53 70 61 63
 404++8208 65 21 00
 405++820B 0E           TER2A   DB #0E
 406++820C 53 6F 75 72          DB "Source file is not found!",0
 406++8210 63 65 20 66
 406++8214 69 6C 65 20
 406++8218 69 73 20 6E
 406++821C 6F 74 20 66
 406++8220 6F 75 6E 64
 406++8224 21 00
 407++8226 0E           TER2B   DB #0E
 408++8227 4C 6F 6E 67          DB "Long Name is not valid!",0
 408++822B 20 4E 61 6D
 408++822F 65 20 69 73
 408++8233 20 6E 6F 74
 408++8237 20 76 61 6C
 408++823B 69 64 21 00
 409++823F 0E           TER2C   DB #0E
 410++8240 53 68 6F 72          DB "Short Name index FATALITY",0
 410++8244 74 20 4E 61
 410++8248 6D 65 20 69
 410++824C 6E 64 65 78
 410++8250 20 46 41 54
 410++8254 41 4C 49 54
 410++8258 59 00
 411++825A 0E           TER2D   DB #0E
 412++825B 4E 61 6D 65          DB "Name already exists!",0
 412++825F 20 61 6C 72
 412++8263 65 61 64 79
 412++8267 20 65 78 69
 412++826B 73 74 73 21
 412++826F 00
 413++8270 0E 44 49 52  TER2F   DB #0E,"DIR with same name "
 413++8274 20 77 69 74
 413++8278 68 20 73 61
 413++827C 6D 65 20 6E
 413++8280 61 6D 65 20
 414++8284 61 6C 72 65          DB "already exists!",0
 414++8288 61 64 79 20
 414++828C 65 78 69 73
 414++8290 74 73 21 00
 415++8294 0E 44 49 52  TER30   DB #0E,"DIR is not empty!",0
 415++8298 20 69 73 20
 415++829C 6E 6F 74 20
 415++82A0 65 6D 70 74
 415++82A4 79 21 00
 416++82A7 0E           TER2X   DB #0E
 417++82A8 55 4E 4B 4E          DB "UNKNOWN ERROR!!!",0
 417++82AC 4F 57 4E 20
 417++82B0 45 52 52 4F
 417++82B4 52 21 21 21
 417++82B8 00
 418++82B9
 419++82B9 0E 44 49 52  TERC1   DB #0E,"DIR not found (src)",0
 419++82BD 20 6E 6F 74
 419++82C1 20 66 6F 75
 419++82C5 6E 64 20 28
 419++82C9 73 72 63 29
 419++82CD 00
 420++82CE 0E 4D 61 6B  TERC2   DB #0E,"Make DIR failed (dst)",0
 420++82D2 65 20 44 49
 420++82D6 52 20 66 61
 420++82DA 69 6C 65 64
 420++82DE 20 28 64 73
 420++82E2 74 29 00
 421++82E5 0E 44 49 52  TERC3   DB #0E,"DIR not found (dst)",0
 421++82E9 20 6E 6F 74
 421++82ED 20 66 6F 75
 421++82F1 6E 64 20 28
 421++82F5 64 73 74 29
 421++82F9 00
 422++82FA 0E 55 50 44  TERC4   DB #0E,"UPDIR not found (src)",0
 422++82FE 49 52 20 6E
 422++8302 6F 74 20 66
 422++8306 6F 75 6E 64
 422++830A 20 28 73 72
 422++830E 63 29 00
 423++8311 0E 55 50 44  TERC5   DB #0E,"UPDIR not found (dst)",0
 423++8315 49 52 20 6E
 423++8319 6F 74 20 66
 423++831D 6F 75 6E 64
 423++8321 20 28 64 73
 423++8325 74 29 00
 424++8328 0E 49 4E 44  TERC6   DB #0E,"INDEX out of DIR",0
 424++832C 45 58 20 6F
 424++8330 75 74 20 6F
 424++8334 66 20 44 49
 424++8338 52 00
 425++833A 0E 44 49 52  TERD7   DB #0E,"DIR name too long/"
 425++833E 20 6E 61 6D
 425++8342 65 20 74 6F
 425++8346 6F 20 6C 6F
 425++834A 6E 67 2F
 426++834D 45 4E 44 20          DB "END of buffer",0
 426++8351 6F 66 20 62
 426++8355 75 66 66 65
 426++8359 72 00
 427++835B 0E 46 69 6C  TERD8   DB #0E,"File not found",0
 427++835F 65 20 6E 6F
 427++8363 74 20 66 6F
 427++8367 75 6E 64 00
 428++836B 0E 41 62 6F  TERCU   DB #0E,"Aborted by user!",0
 428++836F 72 74 65 64
 428++8373 20 62 79 20
 428++8377 75 73 65 72
 428++837B 21 00
 429++837D
 430++837D 0E           TER3    DB #0E
 431++837E 54 68 69 73          DB "This PLUGIN can't be run"
 431++8382 20 50 4C 55
 431++8386 47 49 4E 20
 431++838A 63 61 6E 27
 431++838E 74 20 62 65
 431++8392 20 72 75 6E
 432++8396 20 66 72 6F          DB " from menu!!!",0
 432++839A 6D 20 6D 65
 432++839E 6E 75 21 21
 432++83A2 21 00
 433++83A4 0E           TER4    DB #0E
 434++83A5 57 72 6F 6E          DB "Wrong version of Plugin!",0
 434++83A9 67 20 76 65
 434++83AD 72 73 69 6F
 434++83B1 6E 20 6F 66
 434++83B5 20 50 6C 75
 434++83B9 67 69 6E 21
 434++83BD 00
 435++83BE
 436++83BE 4C 4F 41 44  TEM0    DB "LOADED!!!"
 436++83C2 45 44 21 21
 436++83C6 21
 437++83C7
 438++83C7 42 65 74 61  BETA    DB "Beta"
 439++83CB
 440++83CB 0E 09 41 42  ABHED   DB #0E,#09,"ABOUT",0
 440++83CF 4F 55 54 00
 441++83D3 0B 09 FE     ABTXT   DB #0B,9,#FE
 441++83D6 91 84         DW TXTC
 441++83D8 0D            DB 13
 442++83D9 0C 04                DB #0C,4
 443++83DB 0E 28 43 29          DB #0E,"(C) KOSHI/MGN "
 443++83DF 20 4B 4F 53
 443++83E3 48 49 2F 4D
 443++83E7 47 4E 20
 444++83EA 01 32 30 32          DB 1,"2025",0
 444++83EE 35 00
 445++83F0 0E 20 20 53  SORTIP  DB #0E,"  Sorting... ;P",0
 445++83F4 6F 72 74 69
 445++83F8 6E 67 2E 2E
 445++83FC 2E 20 3B 50
 445++8400 00
 446++8401 0E 09 53 65  TXT4    DB #0E,#09,"Select Device:",0
 446++8405 6C 65 63 74
 446++8409 20 44 65 76
 446++840D 69 63 65 3A
 446++8411 00
 447++8412 49 44 45 20  THDD    DB "IDE NEMO: Master",13
 447++8416 4E 45 4D 4F
 447++841A 3A 20 4D 61
 447++841E 73 74 65 72
 447++8422 0D
 448++8423 0B 06 53 44          DB #0B,6,"SD: Z-Controller",13
 448++8427 3A 20 5A 2D
 448++842B 43 6F 6E 74
 448++842F 72 6F 6C 6C
 448++8433 65 72 0D
 449++8436 0B 05 53 44          DB #0B,5,"SD2: Z-Controller",13
 449++843A 32 3A 20 5A
 449++843E 2D 43 6F 6E
 449++8442 74 72 6F 6C
 449++8446 6C 65 72 0D
 450++844A 0B 06 53 44          DB #0B,6,"SD: NeoGS",13
 450++844E 3A 20 4E 65
 450++8452 6F 47 53 0D
 451++8456 49 44 45 20          DB "IDE SMUC: Master",13
 451++845A 53 4D 55 43
 451++845E 3A 20 4D 61
 451++8462 73 74 65 72
 451++8466 0D
 452++8467 49 44 45 20          DB "IDE SMUC: Slave",13
 452++846B 53 4D 55 43
 452++846F 3A 20 53 6C
 452++8473 61 76 65 0D
 453++8477 49 44 45 20          DB "IDE NEMO: Slave",0
 453++847B 4E 45 4D 4F
 453++847F 3A 20 53 6C
 453++8483 61 76 65 00
 454++8487 0F 00        WND     DB #0F,0
 455++8489 00 00                DB 0,0
 456++848B 50           WND_W   DB 80
 457++848C 24           WND_H   DB 36
 458++848D 00                   DB %00000000
 459++848E
 460++848E 0E 05 05     TXT1    DB #0E,5,5
 461++8491              TXTC
 462++8491 57 69 6C 64          DB "Wild Commander v1.10",0
 462++8495 20 43 6F 6D
 462++8499 6D 61 6E 64
 462++849D 65 72 20 76
 462++84A1 31 2E 31 30
 462++84A5 00
 463++84A6 07 07 46 31  TXT2    DB 7,7,"F1",6,1,"Help  "
 463++84AA 06 01 48 65
 463++84AE 6C 70 20 20
 464++84B2 07 07 46 32          DB 7,7,"F2",8,1
 464++84B6 08 01
 465++84B8 20 20 20 20  F2TXT   DB "      "
 465++84BC 20 20
 466++84BE 07 07 46 33          DB 7,7,"F3",6,1,"View  "
 466++84C2 06 01 56 69
 466++84C6 65 77 20 20
 467++84CA 07 07 46 34          DB 7,7,"F4",8,1
 467++84CE 08 01
 468++84D0 20 20 20 20  F4TXT   DB "      "
 468++84D4 20 20
 469++84D6 07 07 46 35          DB 7,7,"F5",6,1,"Copy  "
 469++84DA 06 01 43 6F
 469++84DE 70 79 20 20
 470++84E2 07 07 46 36          DB 7,7,"F6",8,1,"ReName"
 470++84E6 08 01 52 65
 470++84EA 4E 61 6D 65
 471++84EE 07 07 46 37          DB 7,7,"F7",6,1,"MkDir "
 471++84F2 06 01 4D 6B
 471++84F6 44 69 72 20
 472++84FA 07 07 46 38          DB 7,7,"F8",8,1,"Delete"
 472++84FE 08 01 44 65
 472++8502 6C 65 74 65
 473++8506 07 07 46 39          DB 7,7,"F9",6,1,"SetUP "
 473++850A 06 01 53 65
 473++850E 74 55 50 20
 474++8512 07 07 31 30          DB 7,7,"10",8,1,"Plugin"
 474++8516 08 01 50 6C
 474++851A 75 67 69 6E
 475++851E 07 07 20 06          DB 7,7,32,6,1,"KOSHI/MGN"
 475++8522 01 4B 4F 53
 475++8526 48 49 2F 4D
 475++852A 47 4E
 476++852C 00                   NOP
 477++852D 10 2E 2E 00  UPDIR   DB #10,"..",0
 478++8531
# file closed: WCVLS.ASM
  35+ 8531                      ASSERT $ == #8531, нарушена граница WCVLS.ASM
  36+ 8531
  37+ 8531                      INCLUDE "WCFX_DISASM.ASM"
# file opened: WCFX_DISASM.ASM
   1++8531              ; WCFX — действия функциональных клавиш и файловые операции панелей.
   2++8531              ; Exact-диапазон: #8531..#9148.
   3++8531              ; Основные процедуры:
   4++8531              ;   #8531 F36     — команды Ctrl и выбор критерия сортировки;
   5++8531              ;   #8567 MarkALL — групповая отметка; #8575 MarkMUL — смена всех отметок;
   6++8531              ;   #85B4 Mark    — изменить отметку текущей записи;
   7++8531              ;   #8747 STATUS  — обновить строку состояния и индикатор;
   8++8531              ;   #8809 F12     — Alt+F1/Alt+F2, выбор устройства для панели;
   9++8531              ;   #88AB HELP    — показать справку;
  10++8531              ;   #8983 COPY    — верхний уровень копирования;
  11++8531              ;   #8ACC COPYF   — копировать файл; #8B79 DIRCOPY — каталог рекурсивно;
  12++8531              ;   #8CCB MkDir   — создать каталог;
  13++8531              ;   #8D4D Move    — подготовить перенос/переименование;
  14++8531              ;   #8E40 DelFl   — удалить отмеченные объекты;
  15++8531              ;   #90FB F2MENU  — выбрать редактор; #9100 EDIT — запустить редактор.
  16++8531              ; Обработать команды с Ctrl: F3/F4/F6 выбирают критерий сортировки в IX+35;
  17++8531              ; символы «r» и «a» меняют порядок либо выполняют групповую отметку.
  18++8531              F36:
  19++8531              L8531:
  20++8531 CD A6 74       CALL L7143_65
  21++8534 3E 01          LD A,#01
  22++8536 20 21          JR NZ,L8531_1
  23++8538 CD AA 74       CALL L7143_66
  24++853B 3E 02          LD A,#02
  25++853D 20 1A          JR NZ,L8531_1
  26++853F CD B2 74       CALL L7143_68
  27++8542 3E 03          LD A,#03
  28++8544 20 13          JR NZ,L8531_1
  29++8546 CD 2B 74       CALL L7143_44
  30++8549 28 0A          JR Z,L8531_0
  31++854B FE 72          CP #72
  32++854D CC 39 8D       CALL Z,L8531_94
  33++8550 FE 61          CP #61
  34++8552 CC 67 85       CALL Z,L8531_3
  35++8555              L8531_0:
  36++8555 3E 01          LD A,#01
  37++8557 B7             OR A
  38++8558 C9             RET
  39++8559              L8531_1:
  40++8559 DD BE 23       CP (IX+#23)
  41++855C 20 01          JR NZ,L8531_2
  42++855E AF             XOR A
  43++855F              L8531_2:
  44++855F DD 77 23       LD (IX+#23),A
  45++8562 CD 39 8D       CALL L8531_94
  46++8565 18 EE          JR L8531_0
  47++8567              ; Установить одинаковое состояние отметки для всех доступных записей панели.
  48++8567              MarkALL:
  49++8567              L8531_3:
  50++8567 3E F6          LD A,#F6
  51++8569 32 92 85       LD (#8592),A
  52++856C CD 75 85       CALL L8531_4
  53++856F 3E EE          LD A,#EE
  54++8571 32 92 85       LD (#8592),A
  55++8574 C9             RET
  56++8575              ; Инвертировать групповую отметку и перерисовать список с курсором.
  57++8575              MarkMUL:
  58++8575              L8531_4:
  59++8575 21 FF FF       LD HL,#FFFF
  60++8578 22 7C 85       LD (#857C),HL
  61++857B              L8531_5:
  62++857B 21 00 00       LD HL,#0000
  63++857E 23             INC HL
  64++857F 22 7C 85       LD (#857C),HL
  65++8582 CD 0B 63       CALL L6011_34
  66++8585 CD 9D 85       CALL L8531_7
  67++8588 38 0D          JR C,L8531_6
  68++858A 28 EF          JR Z,L8531_5
  69++858C EB             EX DE,HL
  70++858D 11 F0 FF       LD DE,#FFF0
  71++8590 19             ADD HL,DE
  72++8591 7E             LD A,(HL)
  73++8592 EE 01          XOR #01
  74++8594 77             LD (HL),A
  75++8595 18 E4          JR L8531_5
  76++8597              L8531_6:
  77++8597 CD BB 65       CALL L6011_78
  78++859A C3 D5 7C       JP L7828_67
  79++859D              L8531_7:
  80++859D 08             EX AF,AF'
  81++859E 7C             LD A,H
  82++859F B5             OR L
  83++85A0 37             SCF
  84++85A1 C8             RET Z
  85++85A2 08             EX AF,AF'
  86++85A3 C0             RET NZ
  87++85A4 D5             PUSH DE
  88++85A5 E1             POP HL
  89++85A6 23             INC HL
  90++85A7 7E             LD A,(HL)
  91++85A8 EE 2E          XOR #2E
  92++85AA C0             RET NZ
  93++85AB 23             INC HL
  94++85AC 7E             LD A,(HL)
  95++85AD EE 2E          XOR #2E
  96++85AF C0             RET NZ
  97++85B0 23             INC HL
  98++85B1 7E             LD A,(HL)
  99++85B2 B7             OR A
 100++85B3 C9             RET
 101++85B4              ; Переключить отметку текущей записи, исключая служебные «.» и «..».
 102++85B4              Mark:
 103++85B4              L8531_8:
 104++85B4 CD FE 62       CALL L6011_33
 105++85B7 CD 9D 85       CALL L8531_7
 106++85BA C8             RET Z
 107++85BB EB             EX DE,HL
 108++85BC 11 F0 FF       LD DE,#FFF0
 109++85BF 19             ADD HL,DE
 110++85C0 7E             LD A,(HL)
 111++85C1 EE 01          XOR #01
 112++85C3 77             LD (HL),A
 113++85C4 DD 6E 10       LD L,(IX+#10)
 114++85C7 DD 66 11       LD H,(IX+#11)
 115++85CA E5             PUSH HL
 116++85CB CD 1C 62       CALL L6011_14
 117++85CE E1             POP HL
 118++85CF DD 5E 10       LD E,(IX+#10)
 119++85D2 DD 56 11       LD D,(IX+#11)
 120++85D5 B7             OR A
 121++85D6 ED 52          SBC HL,DE
 122++85D8 C0             RET NZ
 123++85D9 CD F2 7C       CALL L7828_69
 124++85DC CD BB 65       CALL L6011_78
 125++85DF C3 D5 7C       JP L7828_67
 126++85E2              L8531_9:
 127++85E2 CD FE 62       CALL L6011_33
 128++85E5 CD 9D 85       CALL L8531_7
 129++85E8 C8             RET Z
 130++85E9 EB             EX DE,HL
 131++85EA 11 F0 FF       LD DE,#FFF0
 132++85ED 19             ADD HL,DE
 133++85EE 7E             LD A,(HL)
 134++85EF EE 01          XOR #01
 135++85F1 77             LD (HL),A
 136++85F2 CD BB 65       CALL L6011_78
 137++85F5 AF             XOR A
 138++85F6 32 45 7F       LD (#7F45),A
 139++85F9 3C             INC A
 140++85FA 32 44 7F       LD (#7F44),A
 141++85FD C9             RET
 142++85FE              L8531_10:
 143++85FE 21 00 00       LD HL,#0000
 144++8601 AF             XOR A
 145++8602 32 04 60       LD (#6004),A
 146++8605 D9             EXX
 147++8606 01 00 00       LD BC,#0000
 148++8609              L8531_11:
 149++8609 D9             EXX
 150++860A              L8531_12:
 151++860A 22 46 7F       LD (#7F46),HL
 152++860D CD 4F 63       CALL L6011_36
 153++8610 28 0E          JR Z,L8531_13
 154++8612 7E             LD A,(HL)
 155++8613 CB 47          BIT 0,A
 156++8615 2A 46 7F       LD HL,(#7F46)
 157++8618 23             INC HL
 158++8619 28 EF          JR Z,L8531_12
 159++861B D9             EXX
 160++861C 03             INC BC
 161++861D C3 09 86       JP L8531_11
 162++8620              L8531_13:
 163++8620 D9             EXX
 164++8621 21 00 00       LD HL,#0000
 165++8624 22 46 7F       LD (#7F46),HL
 166++8627 ED 43 44 7F    LD (#7F44),BC
 167++862B 78             LD A,B
 168++862C B1             OR C
 169++862D C9             RET
 170++862E              L8531_14:
 171++862E CB 3A          SRL D
 172++8630 CB 1B          RR E
 173++8632 CB 1C          RR H
 174++8634 CB 1D          RR L
 175++8636 CB 3A          SRL D
 176++8638 CB 1B          RR E
 177++863A CB 1C          RR H
 178++863C CB 1D          RR L
 179++863E CB 3A          SRL D
 180++8640 CB 1B          RR E
 181++8642 CB 1C          RR H
 182++8644 CB 1D          RR L
 183++8646 CB 3A          SRL D
 184++8648 CB 1B          RR E
 185++864A CB 1C          RR H
 186++864C CB 1D          RR L
 187++864E CB 3A          SRL D
 188++8650 CB 1B          RR E
 189++8652 CB 1C          RR H
 190++8654 CB 1D          RR L
 191++8656 CB 3A          SRL D
 192++8658 CB 1B          RR E
 193++865A CB 1C          RR H
 194++865C CB 1D          RR L
 195++865E C9             RET
 196++865F              L8531_15:
 197++865F ED 4B 72 86    LD BC,(#8672)
 198++8663 78             LD A,B
 199++8664 B1             OR C
 200++8665 ED 4B 7C 86    LD BC,(#867C)
 201++8669 B0             OR B
 202++866A B1             OR C
 203++866B C8             RET Z
 204++866C              L8531_16:
 205++866C DD 21 FF FF    LD IX,#FFFF
 206++8670              L8531_17:
 207++8670 B7             OR A
 208++8671              L8531_18:
 209++8671 01 00 00       LD BC,#0000
 210++8674 DD 23          INC IX
 211++8676 EB             EX DE,HL
 212++8677 ED 42          SBC HL,BC
 213++8679 38 18          JR C,L8531_19
 214++867B 01 00 00       LD BC,#0000
 215++867E EB             EX DE,HL
 216++867F ED 42          SBC HL,BC
 217++8681 30 EE          JR NC,L8531_18
 218++8683 1B             DEC DE
 219++8684 7A             LD A,D
 220++8685 3C             INC A
 221++8686 20 E8          JR NZ,L8531_17
 222++8688 7B             LD A,E
 223++8689 3C             INC A
 224++868A 20 E4          JR NZ,L8531_17
 225++868C 13             INC DE
 226++868D 09             ADD HL,BC
 227++868E EB             EX DE,HL
 228++868F ED 4B 72 86    LD BC,(#8672)
 229++8693              L8531_19:
 230++8693 09             ADD HL,BC
 231++8694 EB             EX DE,HL
 232++8695 DD E5          PUSH IX
 233++8697 C1             POP BC
 234++8698 79             LD A,C
 235++8699 C6 30          ADD A,#30
 236++869B C9             RET
 237++869C              L8531_20:
 238++869C 01 00 CA       LD BC,#CA00
 239++869F ED 43 7C 86    LD (#867C),BC
 240++86A3 01 9A 3B       LD BC,#3B9A
 241++86A6 ED 43 72 86    LD (#8672),BC
 242++86AA CD 6C 86       CALL L8531_16
 243++86AD D9             EXX
 244++86AE 12             LD (DE),A
 245++86AF 13             INC DE
 246++86B0 D9             EXX
 247++86B1 01 00 E1       LD BC,#E100
 248++86B4 ED 43 7C 86    LD (#867C),BC
 249++86B8 01 F5 05       LD BC,#05F5
 250++86BB ED 43 72 86    LD (#8672),BC
 251++86BF CD 6C 86       CALL L8531_16
 252++86C2 D9             EXX
 253++86C3 12             LD (DE),A
 254++86C4 13             INC DE
 255++86C5 D9             EXX
 256++86C6 01 80 96       LD BC,#9680
 257++86C9 ED 43 7C 86    LD (#867C),BC
 258++86CD 01 98 00       LD BC,#0098
 259++86D0 ED 43 72 86    LD (#8672),BC
 260++86D4 CD 6C 86       CALL L8531_16
 261++86D7 D9             EXX
 262++86D8 12             LD (DE),A
 263++86D9 13             INC DE
 264++86DA D9             EXX
 265++86DB 01 40 42       LD BC,#4240
 266++86DE ED 43 7C 86    LD (#867C),BC
 267++86E2 01 0F 00       LD BC,#000F
 268++86E5 ED 43 72 86    LD (#8672),BC
 269++86E9 CD 6C 86       CALL L8531_16
 270++86EC D9             EXX
 271++86ED 12             LD (DE),A
 272++86EE 13             INC DE
 273++86EF D9             EXX
 274++86F0 01 A0 86       LD BC,#86A0
 275++86F3 ED 43 7C 86    LD (#867C),BC
 276++86F7 01 01 00       LD BC,#0001
 277++86FA ED 43 72 86    LD (#8672),BC
 278++86FE CD 6C 86       CALL L8531_16
 279++8701 D9             EXX
 280++8702 12             LD (DE),A
 281++8703 13             INC DE
 282++8704 D9             EXX
 283++8705 01 10 27       LD BC,#2710
 284++8708 ED 43 7C 86    LD (#867C),BC
 285++870C 01 00 00       LD BC,#0000
 286++870F ED 43 72 86    LD (#8672),BC
 287++8713 CD 6C 86       CALL L8531_16
 288++8716 E5             PUSH HL
 289++8717 D9             EXX
 290++8718 12             LD (DE),A
 291++8719 13             INC DE
 292++871A E1             POP HL
 293++871B              L8531_21:
 294++871B 01 E8 03       LD BC,#03E8
 295++871E CD 3A 87       CALL L8531_23
 296++8721 12             LD (DE),A
 297++8722 13             INC DE
 298++8723 01 64 00       LD BC,#0064
 299++8726 CD 3A 87       CALL L8531_23
 300++8729 12             LD (DE),A
 301++872A 13             INC DE
 302++872B              L8531_22:
 303++872B 0E 0A          LD C,#0A
 304++872D CD 3A 87       CALL L8531_23
 305++8730 12             LD (DE),A
 306++8731 13             INC DE
 307++8732 0E 01          LD C,#01
 308++8734 CD 3A 87       CALL L8531_23
 309++8737 12             LD (DE),A
 310++8738 13             INC DE
 311++8739 C9             RET
 312++873A              L8531_23:
 313++873A 3E FF          LD A,#FF
 314++873C B7             OR A
 315++873D              L8531_24:
 316++873D 3C             INC A
 317++873E ED 42          SBC HL,BC
 318++8740 D2 3D 87       JP NC,L8531_24
 319++8743 09             ADD HL,BC
 320++8744 C6 30          ADD A,#30
 321++8746 C9             RET
 322++8747              ; Обновить строку состояния и индикатор только при ненулевом STUS.
 323++8747              ; Поля текущей панели читаются через IX; после обновления STUS сбрасывается.
 324++8747              STATUS:
 325++8747              L8531_25:
 326++8747 AF             XOR A
 327++8748 21 43 7F       LD HL,#7F43
 328++874B BE             CP (HL)
 329++874C C8             RET Z
 330++874D 77             LD (HL),A
 331++874E DD 5E 12       LD E,(IX+#12)
 332++8751 DD 56 13       LD D,(IX+#13)
 333++8754 CD 28 78       CALL L7828
 334++8757 DD 6E 10       LD L,(IX+#10)
 335++875A DD 66 11       LD H,(IX+#11)
 336++875D CD 5C 78       CALL L7828_3
 337++8760 CD 32 9F       CALL L9B7C_42
 338++8763 DD 7E 0A       LD A,(IX+#0A)
 339++8766 FE 02          CP #02
 340++8768 C0             RET NZ
 341++8769 CD FE 62       CALL L6011_33
 342++876C 08             EX AF,AF'
 343++876D 1A             LD A,(DE)
 344++876E B7             OR A
 345++876F 3E 20          LD A,#20
 346++8771 28 02          JR Z,L8531_26
 347++8773 3E 2E          LD A,#2E
 348++8775              L8531_26:
 349++8775 23             INC HL
 350++8776 E5             PUSH HL
 351++8777 21 6B 7F       LD HL,#7F6B
 352++877A 11 00 B0       LD DE,#B000
 353++877D 01 08 00       LD BC,#0008
 354++8780 ED B0          LDIR
 355++8782 12             LD (DE),A
 356++8783 13             INC DE
 357++8784 E1             POP HL
 358++8785 0E 03          LD C,#03
 359++8787 ED B0          LDIR
 360++8789 3E 20          LD A,#20
 361++878B 12             LD (DE),A
 362++878C 13             INC DE
 363++878D 08             EX AF,AF'
 364++878E 21 08 7F       LD HL,#7F08
 365++8791 28 03          JR Z,L8531_27
 366++8793 21 0D 7F       LD HL,#7F0D
 367++8796              L8531_27:
 368++8796 0E 05          LD C,#05
 369++8798 ED B0          LDIR
 370++879A 3E 20          LD A,#20
 371++879C 12             LD (DE),A
 372++879D 13             INC DE
 373++879E 12             LD (DE),A
 374++879F 13             INC DE
 375++87A0 12             LD (DE),A
 376++87A1 13             INC DE
 377++87A2 12             LD (DE),A
 378++87A3 13             INC DE
 379++87A4 12             LD (DE),A
 380++87A5 13             INC DE
 381++87A6 12             LD (DE),A
 382++87A7 13             INC DE
 383++87A8 12             LD (DE),A
 384++87A9 13             INC DE
 385++87AA D9             EXX
 386++87AB 2A 2C 7F       LD HL,(#7F2C)
 387++87AE ED 5B 2E 7F    LD DE,(#7F2E)
 388++87B2 DD E5          PUSH IX
 389++87B4 CD 9C 86       CALL L8531_20
 390++87B7 DD E1          POP IX
 391++87B9 1B             DEC DE
 392++87BA 62             LD H,D
 393++87BB 6B             LD L,E
 394++87BC 01 F7 FF       LD BC,#FFF7
 395++87BF 09             ADD HL,BC
 396++87C0 06 0A          LD B,#0A
 397++87C2 3E 30          LD A,#30
 398++87C4              L8531_28:
 399++87C4 BE             CP (HL)
 400++87C5 20 05          JR NZ,L8531_29
 401++87C7 36 20          LD (HL),#20
 402++87C9 23             INC HL
 403++87CA 10 F8          DJNZ L8531_28
 404++87CC              L8531_29:
 405++87CC 62             LD H,D
 406++87CD 6B             LD L,E
 407++87CE 13             INC DE
 408++87CF 13             INC DE
 409++87D0 13             INC DE
 410++87D1 3E 20          LD A,#20
 411++87D3 01 03 00       LD BC,#0003
 412++87D6 ED B8          LDDR
 413++87D8 12             LD (DE),A
 414++87D9 1B             DEC DE
 415++87DA 0E 03          LD C,#03
 416++87DC ED B8          LDDR
 417++87DE 12             LD (DE),A
 418++87DF 1B             DEC DE
 419++87E0 0E 03          LD C,#03
 420++87E2 ED B8          LDDR
 421++87E4 12             LD (DE),A
 422++87E5 1B             DEC DE
 423++87E6 7E             LD A,(HL)
 424++87E7 12             LD (DE),A
 425++87E8 DD 7E 05       LD A,(IX+#05)
 426++87EB D6 02          SUB #02
 427++87ED 21 00 B0       LD HL,#B000
 428++87F0 57             LD D,A
 429++87F1 1E 01          LD E,#01
 430++87F3 01 26 00       LD BC,#0026
 431++87F6 C3 25 7D       JP L7828_72
 432++87F9              R2B2:
 433++87F9              L8531_30:
 434++87F9 CD 77 74       CALL L7143_55
 435++87FC C2 5B 91       JP NZ,L9149_1
 436++87FF CD A6 74       CALL L7143_65
 437++8802 C2 5B 91       JP NZ,L9149_1
 438++8805 3E 01          LD A,#01
 439++8807 B7             OR A
 440++8808 C9             RET
 441++8809              ; Обработать Alt+F1/Alt+F2: выбрать левую или правую панель,
 442++8809              ; открыть диалог устройства и активировать соответствующий драйвер.
 443++8809              F12:
 444++8809              L8531_31:
 445++8809 CD 9E 74       CALL L7143_63
 446++880C 20 07          JR NZ,L8531_32
 447++880E CD A2 74       CALL L7143_64
 448++8811 20 07          JR NZ,L8531_33
 449++8813 18 26          JR L8531_35
 450++8815              L8531_32:
 451++8815 21 A0 7E       LD HL,WINDOW
 452++8818 18 03          JR L8531_34
 453++881A              L8531_33:
 454++881A 21 C4 7E       LD HL,#7EC4
 455++881D              L8531_34:
 456++881D CD 3F 88       CALL L8531_36
 457++8820 04             INC B
 458++8821 28 18          JR Z,L8531_35
 459++8823 DD E5          PUSH IX
 460++8825 DD 2A 3C 7F    LD IX,(#7F3C)
 461++8829 DD 77 1D       LD (IX+#1D),A
 462++882C DD 36 1C 00    LD (IX+#1C),#00
 463++8830 CD 68 68       CALL L6011_104
 464++8833 CD ED 63       CALL L6011_46
 465++8836 DD E1          POP IX
 466++8838 CD 68 68       CALL L6011_104
 467++883B              L8531_35:
 468++883B 3E 01          LD A,#01
 469++883D B7             OR A
 470++883E C9             RET
 471++883F              L8531_36:
 472++883F DD E5          PUSH IX
 473++8841 E5             PUSH HL
 474++8842 CD F2 7C       CALL L7828_69
 475++8845 E1             POP HL
 476++8846 22 3C 7F       LD (#7F3C),HL
 477++8849 E5             PUSH HL
 478++884A FD E1          POP IY
 479++884C DD 21 82 80    LD IX,#8082
 480++8850 FD 7E 02       LD A,(IY+#02)
 481++8853 C6 02          ADD A,#02
 482++8855 DD 77 02       LD (IX+#02),A
 483++8858 FD 7E 03       LD A,(IY+#03)
 484++885B C6 02          ADD A,#02
 485++885D DD 77 03       LD (IX+#03),A
 486++8860 FD 7E 1D       LD A,(IY+#1D)
 487++8863 FE 06          CP #06
 488++8865 20 04          JR NZ,L8531_37
 489++8867 3E 02          LD A,#02
 490++8869 18 05          JR L8531_38
 491++886B              L8531_37:
 492++886B FE 02          CP #02
 493++886D 38 01          JR C,L8531_38
 494++886F 3C             INC A
 495++8870              L8531_38:
 496++8870 3C             INC A
 497++8871 DD 77 0C       LD (IX+#0C),A
 498++8874 CD 2C 79       CALL #792C
 499++8877              L8531_39:
 500++8877 FB             EI
 501++8878 76             HALT
 502++8879 CD D5 7C       CALL L7828_67
 503++887C CD 53 74       CALL L7143_49
 504++887F C4 8E 62       CALL NZ,L6011_26
 505++8882 CD 59 74       CALL L7143_50
 506++8885 C4 85 62       CALL NZ,L6011_25
 507++8888 CD 9A 74       CALL L7143_62
 508++888B 06 FF          LD B,#FF
 509++888D 20 07          JR NZ,L8531_40
 510++888F CD 77 74       CALL L7143_55
 511++8892 28 E3          JR Z,L8531_39
 512++8894 06 00          LD B,#00
 513++8896              L8531_40:
 514++8896 C5             PUSH BC
 515++8897 CD CE 7A       CALL L7828_38
 516++889A C1             POP BC
 517++889B DD 7E 0C       LD A,(IX+#0C)
 518++889E 3D             DEC A
 519++889F FE 02          CP #02
 520++88A1 20 02          JR NZ,L8531_41
 521++88A3 3E 07          LD A,#07
 522++88A5              L8531_41:
 523++88A5 38 01          JR C,L8531_42
 524++88A7 3D             DEC A
 525++88A8              L8531_42:
 526++88A8 DD E1          POP IX
 527++88AA C9             RET
 528++88AB              ; Сохранить экран, показать окно справки, дождаться клавиши и восстановить экран.
 529++88AB              HELP:
 530++88AB              L8531_43:
 531++88AB DD E5          PUSH IX
 532++88AD DD 21 18 80    LD IX,#8018
 533++88B1 CD 2C 79       CALL #792C
 534++88B4 CD C3 88       CALL L8531_44
 535++88B7 CD 4B 74       CALL L7143_48
 536++88BA CD 43 74       CALL L7143_47
 537++88BD CD CE 7A       CALL L7828_38
 538++88C0 DD E1          POP IX
 539++88C2 C9             RET
 540++88C3              L8531_44:
 541++88C3 CD 5F 89       CALL L8531_47
 542++88C6 21 10 B0       LD HL,#B010
 543++88C9 06 20          LD B,#20
 544++88CB CD 99 69       CALL L6011_129
 545++88CE 21 00 B0       LD HL,#B000
 546++88D1 11 10 B0       LD DE,#B010
 547++88D4 0E 0C          LD C,#0C
 548++88D6 ED B0          LDIR
 549++88D8 CD 18 89       CALL L8531_46
 550++88DB 21 10 B0       LD HL,#B010
 551++88DE 11 07 03       LD DE,#0307
 552++88E1 01 1C 00       LD BC,#001C
 553++88E4 CD 25 7D       CALL L7828_72
 554++88E7 3E 71          LD A,#71
 555++88E9 CD 39 7D       CALL L7828_73
 556++88EC 21 53 AB       LD HL,#AB53
 557++88EF 11 00 B0       LD DE,#B000
 558++88F2 01 0E 00       LD BC,#000E
 559++88F5 ED B0          LDIR
 560++88F7 3A 0D 60       LD A,(#600D)
 561++88FA 21 61 AB       LD HL,#AB61
 562++88FD B7             OR A
 563++88FE 20 03          JR NZ,L8531_45
 564++8900 21 69 AB       LD HL,#AB69
 565++8903              L8531_45:
 566++8903 0E 08          LD C,#08
 567++8905 ED B0          LDIR
 568++8907 21 00 B0       LD HL,#B000
 569++890A 11 0B 04       LD DE,#040B
 570++890D 01 16 00       LD BC,#0016
 571++8910 CD 25 7D       CALL L7828_72
 572++8913 3E 70          LD A,#70
 573++8915 C3 39 7D       JP L7828_73
 574++8918              L8531_46:
 575++8918 7E             LD A,(HL)
 576++8919 E6 1F          AND #1F
 577++891B E5             PUSH HL
 578++891C 6F             LD L,A
 579++891D 26 00          LD H,#00
 580++891F CD 2B 87       CALL L8531_22
 581++8922 3E 2E          LD A,#2E
 582++8924 12             LD (DE),A
 583++8925 13             INC DE
 584++8926 E1             POP HL
 585++8927 7E             LD A,(HL)
 586++8928 23             INC HL
 587++8929 CB 3E          SRL (HL)
 588++892B 1F             RRA
 589++892C CB 3F          SRL A
 590++892E CB 3F          SRL A
 591++8930 CB 3F          SRL A
 592++8932 CB 3F          SRL A
 593++8934 E5             PUSH HL
 594++8935 6F             LD L,A
 595++8936 26 00          LD H,#00
 596++8938 CD 2B 87       CALL L8531_22
 597++893B E1             POP HL
 598++893C EB             EX DE,HL
 599++893D 36 2E          LD (HL),#2E
 600++893F 23             INC HL
 601++8940 36 32          LD (HL),#32
 602++8942 23             INC HL
 603++8943 36 30          LD (HL),#30
 604++8945 23             INC HL
 605++8946 EB             EX DE,HL
 606++8947 7E             LD A,(HL)
 607++8948 E6 3F          AND #3F
 608++894A E5             PUSH HL
 609++894B 6F             LD L,A
 610++894C 26 00          LD H,#00
 611++894E CD 2B 87       CALL L8531_22
 612++8951 E1             POP HL
 613++8952 CB 76          BIT 6,(HL)
 614++8954 C0             RET NZ
 615++8955 13             INC DE
 616++8956 21 C7 83       LD HL,#83C7
 617++8959 01 04 00       LD BC,#0004
 618++895C ED B0          LDIR
 619++895E C9             RET
 620++895F              L8531_47:
 621++895F 01 F7 DF       LD BC,#DFF7
 622++8962 3E F0          LD A,#F0
 623++8964 5F             LD E,A
 624++8965 ED 79          OUT (C),A
 625++8967 06 BF          LD B,#BF
 626++8969 AF             XOR A
 627++896A ED 79          OUT (C),A
 628++896C 21 00 B0       LD HL,#B000
 629++896F              L8531_48:
 630++896F 06 BF          LD B,#BF
 631++8971 ED A2          INI
 632++8973 1C             INC E
 633++8974 28 06          JR Z,L8531_49
 634++8976 06 DF          LD B,#DF
 635++8978 ED 59          OUT (C),E
 636++897A 18 F3          JR L8531_48
 637++897C              L8531_49:
 638++897C 06 BF          LD B,#BF
 639++897E 3E 02          LD A,#02
 640++8980 ED 79          OUT (C),A
 641++8982 C9             RET
 642++8983              ; Верхний уровень копирования. Определяет текущую/отмеченные записи,
 643++8983              ; подготавливает целевой путь и передаёт файлы в COPYF, каталоги — в DIRCOPY.
 644++8983              COPY:
 645++8983              L8531_50:
 646++8983 CD F2 7C       CALL L7828_69
 647++8986 CD FE 85       CALL L8531_10
 648++8989 CC E2 85       CALL Z,L8531_9
 649++898C C8             RET Z
 650++898D CD A3 89       CALL L8531_51
 651++8990 CD 9F 8C       CALL L8531_85
 652++8993 11 28 7F       LD DE,#7F28
 653++8996 CD 21 40       CALL #4021
 654++8999 CD EB 62       CALL L6011_32
 655++899C CD F0 63       CALL L6011_47
 656++899F CD 9F 8C       CALL L8531_85
 657++89A2 C9             RET
 658++89A3              L8531_51:
 659++89A3 DD E5          PUSH IX
 660++89A5 DD 21 00 80    LD IX,F5WND
 661++89A9 CD 2C 79       CALL #792C
 662++89AC 21 1F 81       LD HL,#811F
 663++89AF 11 00 00       LD DE,#0000
 664++89B2 CD 81 7D       CALL L7828_80
 665++89B5 2A 44 7F       LD HL,(#7F44)
 666++89B8 11 50 81       LD DE,#8150
 667++89BB CD 1B 87       CALL L8531_21
 668++89BE 21 26 81       LD HL,#8126
 669++89C1 11 0A 02       LD DE,#020A
 670++89C4 CD 81 7D       CALL L7828_80
 671++89C7 3E 01          LD A,#01
 672++89C9 CD 73 66       CALL L6011_87
 673++89CC              L8531_52:
 674++89CC FB             EI
 675++89CD 76             HALT
 676++89CE AF             XOR A
 677++89CF CD 73 66       CALL L6011_87
 678++89D2 CD 77 74       CALL L7143_55
 679++89D5 20 0B          JR NZ,L8531_54
 680++89D7 CD 9A 74       CALL L7143_62
 681++89DA 28 F0          JR Z,L8531_52
 682++89DC              L8531_53:
 683++89DC CD CE 7A       CALL L7828_38
 684++89DF DD E1          POP IX
 685++89E1 C9             RET
 686++89E2              L8531_54:
 687++89E2 3E FF          LD A,#FF
 688++89E4 CD 73 66       CALL L6011_87
 689++89E7 20 F3          JR NZ,L8531_53
 690++89E9 DD E1          POP IX
 691++89EB 21 00 00       LD HL,#0000
 692++89EE              L8531_55:
 693++89EE E5             PUSH HL
 694++89EF CD 0B 63       CALL L6011_34
 695++89F2 08             EX AF,AF'
 696++89F3 7C             LD A,H
 697++89F4 B5             OR L
 698++89F5 28 0E          JR Z,L8531_56
 699++89F7 08             EX AF,AF'
 700++89F8 CB 46          BIT 0,(HL)
 701++89FA 36 00          LD (HL),#00
 702++89FC C4 CC 8A       CALL NZ,L8531_67
 703++89FF 20 04          JR NZ,L8531_56
 704++8A01 E1             POP HL
 705++8A02 23             INC HL
 706++8A03 18 E9          JR L8531_55
 707++8A05              L8531_56:
 708++8A05 E1             POP HL
 709++8A06 DD E5          PUSH IX
 710++8A08 DD 21 00 80    LD IX,F5WND
 711++8A0C CD CE 7A       CALL L7828_38
 712++8A0F DD E1          POP IX
 713++8A11 C3 BB 65       JP L6011_78
 714++8A14              L8531_57:
 715++8A14 CD 7B 8A       CALL L8531_60
 716++8A17 AF             XOR A
 717++8A18 11 00 B2       LD DE,#B200
 718++8A1B 01 FF 26       LD BC,#26FF
 719++8A1E              L8531_58:
 720++8A1E ED A0          LDI
 721++8A20 BE             CP (HL)
 722++8A21 28 02          JR Z,L8531_59
 723++8A23 10 F9          DJNZ L8531_58
 724++8A25              L8531_59:
 725++8A25 78             LD A,B
 726++8A26 B7             OR A
 727++8A27 EB             EX DE,HL
 728++8A28 C4 99 69       CALL NZ,L6011_129
 729++8A2B DD E5          PUSH IX
 730++8A2D DD 21 00 80    LD IX,F5WND
 731++8A31 2A 46 7F       LD HL,(#7F46)
 732++8A34 23             INC HL
 733++8A35 22 46 7F       LD (#7F46),HL
 734++8A38 11 31 81       LD DE,#8131
 735++8A3B CD 1B 87       CALL L8531_21
 736++8A3E 2A 44 7F       LD HL,(#7F44)
 737++8A41 11 39 81       LD DE,#8139
 738++8A44 CD 1B 87       CALL L8531_21
 739++8A47 21 A0 5E       LD HL,#5EA0
 740++8A4A 06 20          LD B,#20
 741++8A4C E5             PUSH HL
 742++8A4D CD 99 69       CALL L6011_129
 743++8A50 E1             POP HL
 744++8A51 11 01 02       LD DE,#0201
 745++8A54 01 20 00       LD BC,#0020
 746++8A57 CD 25 7D       CALL L7828_72
 747++8A5A 21 2F 81       LD HL,#812F
 748++8A5D 11 00 02       LD DE,#0200
 749++8A60 CD 81 7D       CALL L7828_80
 750++8A63 21 00 B2       LD HL,#B200
 751++8A66 11 01 01       LD DE,#0101
 752++8A69 01 26 00       LD BC,#0026
 753++8A6C CD 25 7D       CALL L7828_72
 754++8A6F 3E 70          LD A,#70
 755++8A71 CD 39 7D       CALL L7828_73
 756++8A74 DD E1          POP IX
 757++8A76 3A 04 60       LD A,(#6004)
 758++8A79 B7             OR A
 759++8A7A C9             RET
 760++8A7B              L8531_60:
 761++8A7B EB             EX DE,HL
 762++8A7C 11 04 B0       LD DE,#B004
 763++8A7F 7E             LD A,(HL)
 764++8A80 E6 10          AND #10
 765++8A82 EE 10          XOR #10
 766++8A84 12             LD (DE),A
 767++8A85 23             INC HL
 768++8A86 13             INC DE
 769++8A87 E5             PUSH HL
 770++8A88 01 00 01       LD BC,#0100
 771++8A8B ED B0          LDIR
 772++8A8D E1             POP HL
 773++8A8E C9             RET
 774++8A8F              L8531_61:
 775++8A8F 3D             DEC A
 776++8A90 21 26 82       LD HL,#8226
 777++8A93 C8             RET Z
 778++8A94 3D             DEC A
 779++8A95 21 3F 82       LD HL,#823F
 780++8A98 C8             RET Z
 781++8A99 3D             DEC A
 782++8A9A 21 5A 82       LD HL,#825A
 783++8A9D C8             RET Z
 784++8A9E 3D             DEC A
 785++8A9F 21 5A 82       LD HL,#825A
 786++8AA2 C8             RET Z
 787++8AA3 FE 04          CP #04
 788++8AA5 21 0B 82       LD HL,#820B
 789++8AA8 C8             RET Z
 790++8AA9 FE 0C          CP #0C
 791++8AAB 21 F8 81       LD HL,#81F8
 792++8AAE C8             RET Z
 793++8AAF 21 A7 82       LD HL,#82A7
 794++8AB2 C9             RET
 795++8AB3              L8531_62:
 796++8AB3 CD 8F 8A       CALL L8531_61
 797++8AB6 C3 DE 90       JP L8531_149
 798++8AB9              L8531_63:
 799++8AB9 21 0B 82       LD HL,#820B
 800++8ABC 18 08          JR L8531_65
 801++8ABE              L8531_64:
 802++8ABE CD 8F 8A       CALL L8531_61
 803++8AC1 E5             PUSH HL
 804++8AC2 CD 9F 8C       CALL L8531_85
 805++8AC5 E1             POP HL
 806++8AC6              L8531_65:
 807++8AC6 CD DE 90       CALL L8531_149
 808++8AC9              L8531_66:
 809++8AC9 AF             XOR A
 810++8ACA 3C             INC A
 811++8ACB C9             RET
 812++8ACC              ; Скопировать один файл с созданием цепочки назначения и индикатором прогресса.
 813++8ACC              COPYF:
 814++8ACC              L8531_67:
 815++8ACC B7             OR A
 816++8ACD CA 79 8B       JP Z,L8531_74
 817++8AD0 CD 14 8A       CALL L8531_57
 818++8AD3 C4 E0 8F       CALL NZ,L8531_132
 819++8AD6 20 F1          JR NZ,L8531_66
 820++8AD8 21 00 00       LD HL,#0000
 821++8ADB 3E 03          LD A,#03
 822++8ADD              L8531_68:
 823++8ADD 32 E7 7F       LD (#7FE7),A
 824++8AE0 22 F2 7F       LD (#7FF2),HL
 825++8AE3 21 04 B0       LD HL,#B004
 826++8AE6 CD 2C 6F       CALL L6011_226
 827++8AE9 28 CE          JR Z,L8531_63
 828++8AEB 3A 04 B0       LD A,(#B004)
 829++8AEE 32 00 B0       LD (#B000),A
 830++8AF1 22 01 B0       LD (#B001),HL
 831++8AF4 ED 53 03 B0    LD (#B003),DE
 832++8AF8 CD 52 6F       CALL L6011_228
 833++8AFB CD 9F 8C       CALL L8531_85
 834++8AFE 21 00 B0       LD HL,#B000
 835++8B01 CD 5E 6F       CALL L6011_230
 836++8B04 20 B8          JR NZ,L8531_64
 837++8B06 3E 08          LD A,#08
 838++8B08 CD C1 68       CALL L6011_114
 839++8B0B CD 43 90       CALL L8531_139
 840++8B0E              L8531_69:
 841++8B0E CD 7D 90       CALL L8531_141
 842++8B11 CD 9F 8C       CALL L8531_85
 843++8B14 21 00 C0       LD HL,LC000
 844++8B17 06 20          LD B,#20
 845++8B19 CD 15 40       CALL #4015
 846++8B1C CD 9F 8C       CALL L8531_85
 847++8B1F 21 00 C0       LD HL,LC000
 848++8B22 06 20          LD B,#20
 849++8B24 CD 18 40       CALL #4018
 850++8B27 FE 0F          CP #0F
 851++8B29 20 E3          JR NZ,L8531_69
 852++8B2B CD 71 90       CALL L8531_140
 853++8B2E CD 9F 8C       CALL L8531_85
 854++8B31 AF             XOR A
 855++8B32 C9             RET
 856++8B33              L8531_70:
 857++8B33 05             DEC B
 858++8B34 21 B9 82       LD HL,#82B9
 859++8B37 C8             RET Z
 860++8B38 05             DEC B
 861++8B39 21 CE 82       LD HL,#82CE
 862++8B3C C8             RET Z
 863++8B3D 05             DEC B
 864++8B3E 21 E5 82       LD HL,#82E5
 865++8B41 C8             RET Z
 866++8B42 05             DEC B
 867++8B43 21 FA 82       LD HL,#82FA
 868++8B46 C8             RET Z
 869++8B47 05             DEC B
 870++8B48 21 11 83       LD HL,#8311
 871++8B4B C8             RET Z
 872++8B4C 05             DEC B
 873++8B4D 21 28 83       LD HL,#8328
 874++8B50 C8             RET Z
 875++8B51 05             DEC B
 876++8B52 21 3A 83       LD HL,#833A
 877++8B55 C8             RET Z
 878++8B56 05             DEC B
 879++8B57 21 5B 83       LD HL,#835B
 880++8B5A C8             RET Z
 881++8B5B 21 6B 83       LD HL,#836B
 882++8B5E C9             RET
 883++8B5F              L8531_71:
 884++8B5F F5             PUSH AF
 885++8B60 C5             PUSH BC
 886++8B61 CD AB 8C       CALL L8531_87
 887++8B64 CD 9F 8C       CALL L8531_85
 888++8B67 CD 26 6F       CALL L6011_225
 889++8B6A C1             POP BC
 890++8B6B F1             POP AF
 891++8B6C              L8531_72:
 892++8B6C 04             INC B
 893++8B6D 28 07          JR Z,L8531_73
 894++8B6F 05             DEC B
 895++8B70 CD 33 8B       CALL L8531_70
 896++8B73 CD DE 90       CALL L8531_149
 897++8B76              L8531_73:
 898++8B76 AF             XOR A
 899++8B77 3C             INC A
 900++8B78 C9             RET
 901++8B79              ; Рекурсивно скопировать каталог, сохраняя исходный и целевой текущие каталоги.
 902++8B79              DIRCOPY:
 903++8B79              L8531_74:
 904++8B79 CD 14 8A       CALL L8531_57
 905++8B7C CD 20 6F       CALL L6011_224
 906++8B7F CD 9F 8C       CALL L8531_85
 907++8B82 CD A5 8C       CALL L8531_86
 908++8B85 CD 9F 8C       CALL L8531_85
 909++8B88 21 00 C0       LD HL,LC000
 910++8B8B 22 71 8F       LD (#8F71),HL
 911++8B8E              L8531_75:
 912++8B8E CD 9A 8C       CALL L8531_84
 913++8B91 11 02 00       LD DE,#0002
 914++8B94 73             LD (HL),E
 915++8B95 2C             INC L
 916++8B96 72             LD (HL),D
 917++8B97 21 04 B0       LD HL,#B004
 918++8B9A CD 2C 6F       CALL L6011_226
 919++8B9D 06 01          LD B,#01
 920++8B9F CA 90 8C       JP Z,L8531_83
 921++8BA2 CD 58 6F       CALL L6011_229
 922++8BA5 CD 9F 8C       CALL L8531_85
 923++8BA8 21 04 B0       LD HL,#B004
 924++8BAB E5             PUSH HL
 925++8BAC 23             INC HL
 926++8BAD CD 7B 6F       CALL L6011_231
 927++8BB0 E1             POP HL
 928++8BB1 06 02          LD B,#02
 929++8BB3 20 AA          JR NZ,L8531_71
 930++8BB5 CD 2C 6F       CALL L6011_226
 931++8BB8 06 03          LD B,#03
 932++8BBA 28 A3          JR Z,L8531_71
 933++8BBC CD 58 6F       CALL L6011_229
 934++8BBF CD 9F 8C       CALL L8531_85
 935++8BC2 CD B1 8C       CALL L8531_88
 936++8BC5 11 00 B4       LD DE,#B400
 937++8BC8 D5             PUSH DE
 938++8BC9 AF             XOR A
 939++8BCA CD 5A 40       CALL #405A
 940++8BCD D1             POP DE
 941++8BCE AF             XOR A
 942++8BCF CD 5A 40       CALL #405A
 943++8BD2              L8531_76:
 944++8BD2 CD 9A 8C       CALL L8531_84
 945++8BD5 2A 71 8F       LD HL,(#8F71)
 946++8BD8 5E             LD E,(HL)
 947++8BD9 2C             INC L
 948++8BDA 56             LD D,(HL)
 949++8BDB 13             INC DE
 950++8BDC 72             LD (HL),D
 951++8BDD 2D             DEC L
 952++8BDE 73             LD (HL),E
 953++8BDF CD 98 6E       CALL L6011_212
 954++8BE2 11 04 B0       LD DE,#B004
 955++8BE5 AF             XOR A
 956++8BE6 CD 5A 40       CALL #405A
 957++8BE9 CD C5 8C       CALL L8531_89
 958++8BEC 28 3A          JR Z,L8531_78
 959++8BEE 21 04 B0       LD HL,#B004
 960++8BF1 7E             LD A,(HL)
 961++8BF2 E6 10          AND #10
 962++8BF4 77             LD (HL),A
 963++8BF5 20 26          JR NZ,L8531_77
 964++8BF7 21 05 B0       LD HL,#B005
 965++8BFA 11 A0 5E       LD DE,#5EA0
 966++8BFD D5             PUSH DE
 967++8BFE 01 40 00       LD BC,#0040
 968++8C01 ED B0          LDIR
 969++8C03 AF             XOR A
 970++8C04 12             LD (DE),A
 971++8C05 E1             POP HL
 972++8C06 3E 04          LD A,#04
 973++8C08 CD DD 8A       CALL L8531_68
 974++8C0B 06 FF          LD B,#FF
 975++8C0D C2 90 8C       JP NZ,L8531_83
 976++8C10 3A 04 60       LD A,(#6004)
 977++8C13 B7             OR A
 978++8C14 C4 E0 8F       CALL NZ,L8531_132
 979++8C17 06 FE          LD B,#FE
 980++8C19 20 75          JR NZ,L8531_83
 981++8C1B 18 B5          JR L8531_76
 982++8C1D              L8531_77:
 983++8C1D 2A 71 8F       LD HL,(#8F71)
 984++8C20 23             INC HL
 985++8C21 23             INC HL
 986++8C22 22 71 8F       LD (#8F71),HL
 987++8C25 C3 8E 8B       JP L8531_75
 988++8C28              L8531_78:
 989++8C28 2A 71 8F       LD HL,(#8F71)
 990++8C2B 7D             LD A,L
 991++8C2C B7             OR A
 992++8C2D 20 05          JR NZ,L8531_79
 993++8C2F 7C             LD A,H
 994++8C30 FE C0          CP #C0
 995++8C32 28 4C          JR Z,L8531_81
 996++8C34              L8531_79:
 997++8C34 2B             DEC HL
 998++8C35 2B             DEC HL
 999++8C36 22 71 8F       LD (#8F71),HL
1000++8C39 21 2D 85       LD HL,#852D
1001++8C3C CD 2C 6F       CALL L6011_226
1002++8C3F 06 04          LD B,#04
1003++8C41 28 4D          JR Z,L8531_83
1004++8C43 CD 58 6F       CALL L6011_229
1005++8C46 CD 9F 8C       CALL L8531_85
1006++8C49 21 2D 85       LD HL,#852D
1007++8C4C CD 2C 6F       CALL L6011_226
1008++8C4F 06 05          LD B,#05
1009++8C51 CA 5F 8B       JP Z,L8531_71
1010++8C54 CD 58 6F       CALL L6011_229
1011++8C57 CD 9F 8C       CALL L8531_85
1012++8C5A CD B1 8C       CALL L8531_88
1013++8C5D CD 9A 8C       CALL L8531_84
1014++8C60 2A 71 8F       LD HL,(#8F71)
1015++8C63 4E             LD C,(HL)
1016++8C64 2C             INC L
1017++8C65 46             LD B,(HL)
1018++8C66              L8531_80:
1019++8C66 11 00 B4       LD DE,#B400
1020++8C69 C5             PUSH BC
1021++8C6A CD 98 6E       CALL L6011_212
1022++8C6D AF             XOR A
1023++8C6E CD 5A 40       CALL #405A
1024++8C71 CD C5 8C       CALL L8531_89
1025++8C74 C1             POP BC
1026++8C75 28 17          JR Z,L8531_82
1027++8C77 0B             DEC BC
1028++8C78 78             LD A,B
1029++8C79 B1             OR C
1030++8C7A CA D2 8B       JP Z,L8531_76
1031++8C7D C3 66 8C       JP L8531_80
1032++8C80              L8531_81:
1033++8C80 CD 26 6F       CALL L6011_225
1034++8C83 CD 9F 8C       CALL L8531_85
1035++8C86 CD AB 8C       CALL L8531_87
1036++8C89 CD 9F 8C       CALL L8531_85
1037++8C8C AF             XOR A
1038++8C8D C9             RET
1039++8C8E              L8531_82:
1040++8C8E 06 06          LD B,#06
1041++8C90              L8531_83:
1042++8C90 F5             PUSH AF
1043++8C91 C5             PUSH BC
1044++8C92 CD 80 8C       CALL L8531_81
1045++8C95 C1             POP BC
1046++8C96 F1             POP AF
1047++8C97 C3 6C 8B       JP L8531_72
1048++8C9A              L8531_84:
1049++8C9A 3E 20          LD A,#20
1050++8C9C C3 C1 68       JP L6011_114
1051++8C9F              L8531_85:
1052++8C9F CD 53 68       CALL L6011_102
1053++8CA2 C3 68 68       JP L6011_104
1054++8CA5              L8531_86:
1055++8CA5 11 38 7F       LD DE,#7F38
1056++8CA8 C3 21 40       JP #4021
1057++8CAB              L8531_87:
1058++8CAB 21 38 7F       LD HL,#7F38
1059++8CAE C3 1E 40       JP #401E
1060++8CB1              L8531_88:
1061++8CB1 3A 00 60       LD A,(#6000)
1062++8CB4 32 18 60       LD (#6018),A
1063++8CB7 21 00 30       LD HL,#3000
1064++8CBA 54             LD D,H
1065++8CBB 5D             LD E,L
1066++8CBC 01 FF 07       LD BC,#07FF
1067++8CBF CD E7 6C       CALL L6011_179
1068++8CC2 C3 83 6E       JP L6011_211
1069++8CC5              L8531_89:
1070++8CC5 3A 18 60       LD A,(#6018)
1071++8CC8 C3 9C 68       JP L6011_108
1072++8CCB              ; Показать MDWND, получить имя и создать каталог через API WildDOS.
1073++8CCB              MkDir:
1074++8CCB              L8531_90:
1075++8CCB CD F2 7C       CALL L7828_69
1076++8CCE DD E5          PUSH IX
1077++8CD0 DD 21 F4 7F    LD IX,#7FF4
1078++8CD4 CD 2C 79       CALL #792C
1079++8CD7 21 05 81       LD HL,#8105
1080++8CDA 11 00 00       LD DE,#0000
1081++8CDD CD 81 7D       CALL L7828_80
1082++8CE0 21 CD 81       LD HL,#81CD
1083++8CE3 11 01 01       LD DE,#0101
1084++8CE6 CD 81 7D       CALL L7828_80
1085++8CE9 11 06 01       LD DE,#0106
1086++8CEC CD 45 7D       CALL L7828_75
1087++8CEF 22 1A 8D       LD (#8D1A),HL
1088++8CF2 11 00 21       LD DE,#2100
1089++8CF5 3E FF          LD A,#FF
1090++8CF7 CD 76 71       CALL L7143_0
1091++8CFA 21 00 01       LD HL,#0100
1092++8CFD 3E FE          LD A,#FE
1093++8CFF CD 76 71       CALL L7143_0
1094++8D02              L8531_91:
1095++8D02 FB             EI
1096++8D03 76             HALT
1097++8D04 CD 9A 74       CALL L7143_62
1098++8D07 20 3E          JR NZ,L8531_95
1099++8D09 CD 77 74       CALL L7143_55
1100++8D0C 20 0B          JR NZ,L8531_92
1101++8D0E AF             XOR A
1102++8D0F CD 76 71       CALL L7143_0
1103++8D12 3E 03          LD A,#03
1104++8D14 CD 76 71       CALL L7143_0
1105++8D17 18 E9          JR L8531_91
1106++8D19              L8531_92:
1107++8D19 21 00 00       LD HL,#0000
1108++8D1C 11 00 B0       LD DE,#B000
1109++8D1F 01 21 00       LD BC,#0021
1110++8D22 ED B0          LDIR
1111++8D24 AF             XOR A
1112++8D25 12             LD (DE),A
1113++8D26 21 00 B0       LD HL,#B000
1114++8D29 CD 7B 6F       CALL L6011_231
1115++8D2C 28 06          JR Z,L8531_93
1116++8D2E 21 70 82       LD HL,#8270
1117++8D31 CD DE 90       CALL L8531_149
1118++8D34              L8531_93:
1119++8D34 CD CE 7A       CALL L7828_38
1120++8D37 DD E1          POP IX
1121++8D39              L8531_94:
1122++8D39 11 28 7F       LD DE,#7F28
1123++8D3C CD 21 40       CALL #4021
1124++8D3F CD EB 62       CALL L6011_32
1125++8D42 CD F0 63       CALL L6011_47
1126++8D45 AF             XOR A
1127++8D46 C9             RET
1128++8D47              L8531_95:
1129++8D47 CD CE 7A       CALL L7828_38
1130++8D4A DD E1          POP IX
1131++8D4C C9             RET
1132++8D4D              ; Подготовить имя текущей записи и открыть диалог переноса/переименования.
1133++8D4D              Move:
1134++8D4D              L8531_96:
1135++8D4D CD FE 62       CALL L6011_33
1136++8D50 7C             LD A,H
1137++8D51 B5             OR L
1138++8D52 C8             RET Z
1139++8D53 13             INC DE
1140++8D54 1A             LD A,(DE)
1141++8D55 FE 2E          CP #2E
1142++8D57 20 0C          JR NZ,L8531_98
1143++8D59 13             INC DE
1144++8D5A 1A             LD A,(DE)
1145++8D5B FE 2E          CP #2E
1146++8D5D 20 05          JR NZ,L8531_97
1147++8D5F 13             INC DE
1148++8D60 1A             LD A,(DE)
1149++8D61 B7             OR A
1150++8D62 C8             RET Z
1151++8D63 1B             DEC DE
1152++8D64              L8531_97:
1153++8D64 1B             DEC DE
1154++8D65              L8531_98:
1155++8D65 1B             DEC DE
1156++8D66 CD 7B 8A       CALL L8531_60
1157++8D69 CD F2 7C       CALL L7828_69
1158++8D6C CD 7F 8D       CALL L8531_99
1159++8D6F C8             RET Z
1160++8D70 21 04 B0       LD HL,#B004
1161++8D73 11 00 B2       LD DE,#B200
1162++8D76 CD 42 40       CALL #4042
1163++8D79 CC B3 8A       CALL Z,L8531_62
1164++8D7C C3 39 8D       JP L8531_94
1165++8D7F              ; Выполнить переименование после подтверждения диалога и обновить панель.
1166++8D7F              RENAME_UI:
1167++8D7F              L8531_99:
1168++8D7F DD E5          PUSH IX
1169++8D81 D5             PUSH DE
1170++8D82 21 F4 7F       LD HL,#7FF4
1171++8D85 11 80 5E       LD DE,#5E80
1172++8D88 01 0C 00       LD BC,#000C
1173++8D8B ED B0          LDIR
1174++8D8D DD 5E 02       LD E,(IX+#02)
1175++8D90 DD 56 03       LD D,(IX+#03)
1176++8D93 DD 7E 0C       LD A,(IX+#0C)
1177++8D96 3D             DEC A
1178++8D97 DD 21 80 5E    LD IX,#5E80
1179++8D9B DD 36 01 00    LD (IX+#01),#00
1180++8D9F DD 73 02       LD (IX+#02),E
1181++8DA2 82             ADD A,D
1182++8DA3 DD 77 03       LD (IX+#03),A
1183++8DA6 CD 2C 79       CALL #792C
1184++8DA9 21 16 81       LD HL,#8116
1185++8DAC 11 00 00       LD DE,#0000
1186++8DAF CD 81 7D       CALL L7828_80
1187++8DB2 CD F3 8D       CALL L8531_102
1188++8DB5 3E FF          LD A,#FF
1189++8DB7 91             SUB C
1190++8DB8 FE 27          CP #27
1191++8DBA 38 01          JR C,L8531_100
1192++8DBC AF             XOR A
1193++8DBD              L8531_100:
1194++8DBD 21 FF 00       LD HL,#00FF
1195++8DC0 D9             EXX
1196++8DC1 21 00 B2       LD HL,#B200
1197++8DC4 11 01 01       LD DE,#0101
1198++8DC7 06 26          LD B,#26
1199++8DC9 4F             LD C,A
1200++8DCA 3E FD          LD A,#FD
1201++8DCC CD 76 71       CALL L7143_0
1202++8DCF 21 00 01       LD HL,#0100
1203++8DD2 3E FE          LD A,#FE
1204++8DD4 CD 76 71       CALL L7143_0
1205++8DD7              L8531_101:
1206++8DD7 FB             EI
1207++8DD8 76             HALT
1208++8DD9 CD 9A 74       CALL L7143_62
1209++8DDC 20 55          JR NZ,L8531_110
1210++8DDE CD 77 74       CALL L7143_55
1211++8DE1 20 31          JR NZ,L8531_107
1212++8DE3 AF             XOR A
1213++8DE4 CD 76 71       CALL L7143_0
1214++8DE7 3E 02          LD A,#02
1215++8DE9 CD 76 71       CALL L7143_0
1216++8DEC 3E 03          LD A,#03
1217++8DEE CD 76 71       CALL L7143_0
1218++8DF1 18 E4          JR L8531_101
1219++8DF3              L8531_102:
1220++8DF3 21 05 B0       LD HL,#B005
1221++8DF6 11 00 B2       LD DE,#B200
1222++8DF9 AF             XOR A
1223++8DFA 01 FF FF       LD BC,#FFFF
1224++8DFD              L8531_103:
1225++8DFD ED A0          LDI
1226++8DFF BE             CP (HL)
1227++8E00 28 08          JR Z,L8531_105
1228++8E02 10 F9          DJNZ L8531_103
1229++8E04              L8531_104:
1230++8E04 EB             EX DE,HL
1231++8E05 3E 20          LD A,#20
1232++8E07 C3 9A 69       JP L6011_130
1233++8E0A              L8531_105:
1234++8E0A 1B             DEC DE
1235++8E0B 1A             LD A,(DE)
1236++8E0C FE 20          CP #20
1237++8E0E 20 01          JR NZ,L8531_106
1238++8E10 0C             INC C
1239++8E11              L8531_106:
1240++8E11 13             INC DE
1241++8E12 18 F0          JR L8531_104
1242++8E14              L8531_107:
1243++8E14 3E 01          LD A,#01
1244++8E16 CD 76 71       CALL L7143_0
1245++8E19 11 FF B2       LD DE,#B2FF
1246++8E1C 06 FF          LD B,#FF
1247++8E1E              L8531_108:
1248++8E1E 1B             DEC DE
1249++8E1F 1A             LD A,(DE)
1250++8E20 FE 20          CP #20
1251++8E22 20 02          JR NZ,L8531_109
1252++8E24 10 F8          DJNZ L8531_108
1253++8E26              L8531_109:
1254++8E26 13             INC DE
1255++8E27 AF             XOR A
1256++8E28 12             LD (DE),A
1257++8E29 CD CE 7A       CALL L7828_38
1258++8E2C D1             POP DE
1259++8E2D DD E1          POP IX
1260++8E2F 3E 01          LD A,#01
1261++8E31 B7             OR A
1262++8E32 C9             RET
1263++8E33              L8531_110:
1264++8E33 3E 01          LD A,#01
1265++8E35 CD 76 71       CALL L7143_0
1266++8E38 CD CE 7A       CALL L7828_38
1267++8E3B D1             POP DE
1268++8E3C DD E1          POP IX
1269++8E3E AF             XOR A
1270++8E3F C9             RET
1271++8E40              ; Удалить текущие либо отмеченные объекты. Для каталога сначала проверить
1272++8E40              ; содержимое, затем удалить цепочку и запись, после чего перестроить панель.
1273++8E40              DelFl:
1274++8E40              L8531_111:
1275++8E40 CD F2 7C       CALL L7828_69
1276++8E43 CD FE 85       CALL L8531_10
1277++8E46 CC E2 85       CALL Z,L8531_9
1278++8E49 C8             RET Z
1279++8E4A CD 92 8E       CALL L8531_114
1280++8E4D C8             RET Z
1281++8E4E 11 28 7F       LD DE,#7F28
1282++8E51 CD 21 40       CALL #4021
1283++8E54 CD EB 62       CALL L6011_32
1284++8E57 CD F0 63       CALL L6011_47
1285++8E5A C9             RET
1286++8E5B              ; Внутренняя ветвь удаления каталога с временной сменой активного каталога.
1287++8E5B              DELDIR:
1288++8E5B              L8531_112:
1289++8E5B CD 20 6F       CALL L6011_224
1290++8E5E 21 04 B0       LD HL,#B004
1291++8E61 CD 2C 6F       CALL L6011_226
1292++8E64 CA 0D 8F       JP Z,L8531_120
1293++8E67 CD 58 6F       CALL L6011_229
1294++8E6A 11 00 B4       LD DE,#B400
1295++8E6D CD 57 40       CALL #4057
1296++8E70 28 15          JR Z,L8531_113
1297++8E72 CD 57 40       CALL #4057
1298++8E75 28 10          JR Z,L8531_113
1299++8E77 CD 57 40       CALL #4057
1300++8E7A 20 0B          JR NZ,L8531_113
1301++8E7C CD 26 6F       CALL L6011_225
1302++8E7F 21 04 B0       LD HL,#B004
1303++8E82 CD 81 6F       CALL L6011_232
1304++8E85 AF             XOR A
1305++8E86 C9             RET
1306++8E87              L8531_113:
1307++8E87 21 94 82       LD HL,#8294
1308++8E8A CD DE 90       CALL L8531_149
1309++8E8D CD 26 6F       CALL L6011_225
1310++8E90 AF             XOR A
1311++8E91 C9             RET
1312++8E92              L8531_114:
1313++8E92 DD E5          PUSH IX
1314++8E94 CD 4B 74       CALL L7143_48
1315++8E97 DD 21 00 80    LD IX,F5WND
1316++8E9B CD 2C 79       CALL #792C
1317++8E9E 21 3F 81       LD HL,#813F
1318++8EA1 11 00 00       LD DE,#0000
1319++8EA4 CD 81 7D       CALL L7828_80
1320++8EA7 2A 44 7F       LD HL,(#7F44)
1321++8EAA 11 50 81       LD DE,#8150
1322++8EAD CD 1B 87       CALL L8531_21
1323++8EB0 21 48 81       LD HL,#8148
1324++8EB3 11 00 02       LD DE,#0200
1325++8EB6 CD 81 7D       CALL L7828_80
1326++8EB9 3E 01          LD A,#01
1327++8EBB CD 73 66       CALL L6011_87
1328++8EBE              L8531_115:
1329++8EBE FB             EI
1330++8EBF 76             HALT
1331++8EC0 AF             XOR A
1332++8EC1 CD 73 66       CALL L6011_87
1333++8EC4 CD 77 74       CALL L7143_55
1334++8EC7 20 0C          JR NZ,L8531_117
1335++8EC9 CD 9A 74       CALL L7143_62
1336++8ECC 28 F0          JR Z,L8531_115
1337++8ECE              L8531_116:
1338++8ECE CD CE 7A       CALL L7828_38
1339++8ED1 DD E1          POP IX
1340++8ED3 AF             XOR A
1341++8ED4 C9             RET
1342++8ED5              L8531_117:
1343++8ED5 3E FF          LD A,#FF
1344++8ED7 CD 73 66       CALL L6011_87
1345++8EDA 20 F2          JR NZ,L8531_116
1346++8EDC 21 61 81       LD HL,#8161
1347++8EDF 11 00 04       LD DE,#0400
1348++8EE2 CD 81 7D       CALL L7828_80
1349++8EE5 DD E1          POP IX
1350++8EE7 21 00 00       LD HL,#0000
1351++8EEA              L8531_118:
1352++8EEA E5             PUSH HL
1353++8EEB CD 0B 63       CALL L6011_34
1354++8EEE 08             EX AF,AF'
1355++8EEF 7C             LD A,H
1356++8EF0 B5             OR L
1357++8EF1 28 0E          JR Z,L8531_119
1358++8EF3 08             EX AF,AF'
1359++8EF4 CB 46          BIT 0,(HL)
1360++8EF6 36 00          LD (HL),#00
1361++8EF8 C4 10 8F       CALL NZ,L8531_121
1362++8EFB 20 04          JR NZ,L8531_119
1363++8EFD E1             POP HL
1364++8EFE 23             INC HL
1365++8EFF 18 E9          JR L8531_118
1366++8F01              L8531_119:
1367++8F01 E1             POP HL
1368++8F02 DD E5          PUSH IX
1369++8F04 DD 21 00 80    LD IX,F5WND
1370++8F08 CD CE 7A       CALL L7828_38
1371++8F0B DD E1          POP IX
1372++8F0D              L8531_120:
1373++8F0D AF             XOR A
1374++8F0E 3C             INC A
1375++8F0F C9             RET
1376++8F10              L8531_121:
1377++8F10 B7             OR A
1378++8F11 28 12          JR Z,L8531_122
1379++8F13 CD 14 8A       CALL L8531_57
1380++8F16 C4 E0 8F       CALL NZ,L8531_132
1381++8F19 20 F2          JR NZ,L8531_120
1382++8F1B 21 04 B0       LD HL,#B004
1383++8F1E CD 3F 40       CALL #403F
1384++8F21 28 EA          JR Z,L8531_120
1385++8F23 AF             XOR A
1386++8F24 C9             RET
1387++8F25              L8531_122:
1388++8F25 CD 14 8A       CALL L8531_57
1389++8F28 CD 20 6F       CALL L6011_224
1390++8F2B 21 00 C0       LD HL,LC000
1391++8F2E 22 71 8F       LD (#8F71),HL
1392++8F31 21 04 B0       LD HL,#B004
1393++8F34              L8531_123:
1394++8F34 CD 2C 6F       CALL L6011_226
1395++8F37 06 01          LD B,#01
1396++8F39 CA D8 8F       JP Z,L8531_131
1397++8F3C CD 58 6F       CALL L6011_229
1398++8F3F CD B1 8C       CALL L8531_88
1399++8F42              L8531_124:
1400++8F42 CD 98 6E       CALL L6011_212
1401++8F45 11 00 B4       LD DE,#B400
1402++8F48 3E 01          LD A,#01
1403++8F4A CD 5A 40       CALL #405A
1404++8F4D CD C5 8C       CALL L8531_89
1405++8F50 28 1B          JR Z,L8531_125
1406++8F52 21 00 B4       LD HL,#B400
1407++8F55 7E             LD A,(HL)
1408++8F56 E6 10          AND #10
1409++8F58 77             LD (HL),A
1410++8F59 CD 3F 40       CALL #403F
1411++8F5C 06 08          LD B,#08
1412++8F5E 28 78          JR Z,L8531_131
1413++8F60 3A 04 60       LD A,(#6004)
1414++8F63 B7             OR A
1415++8F64 C4 E0 8F       CALL NZ,L8531_132
1416++8F67 06 FE          LD B,#FE
1417++8F69 20 6D          JR NZ,L8531_131
1418++8F6B 18 D5          JR L8531_124
1419++8F6D              L8531_125:
1420++8F6D CD 9A 8C       CALL L8531_84
1421++8F70              L8531_126:
1422++8F70 11 00 00       LD DE,#0000
1423++8F73 3E 02          LD A,#02
1424++8F75 D5             PUSH DE
1425++8F76 CD 5A 40       CALL #405A
1426++8F79 D1             POP DE
1427++8F7A 3E 02          LD A,#02
1428++8F7C D5             PUSH DE
1429++8F7D CD 5A 40       CALL #405A
1430++8F80 D1             POP DE
1431++8F81 3E 02          LD A,#02
1432++8F83 D5             PUSH DE
1433++8F84 CD 5A 40       CALL #405A
1434++8F87 E1             POP HL
1435++8F88 28 1A          JR Z,L8531_127
1436++8F8A EB             EX DE,HL
1437++8F8B E5             PUSH HL
1438++8F8C B7             OR A
1439++8F8D ED 52          SBC HL,DE
1440++8F8F C1             POP BC
1441++8F90 38 44          JR C,L8531_130
1442++8F92 7C             LD A,H
1443++8F93 B7             OR A
1444++8F94 20 40          JR NZ,L8531_130
1445++8F96 7D             LD A,L
1446++8F97 02             LD (BC),A
1447++8F98 03             INC BC
1448++8F99 ED 43 71 8F    LD (#8F71),BC
1449++8F9D EB             EX DE,HL
1450++8F9E 7E             LD A,(HL)
1451++8F9F E6 10          AND #10
1452++8FA1 77             LD (HL),A
1453++8FA2 18 90          JR L8531_123
1454++8FA4              L8531_127:
1455++8FA4 21 2D 85       LD HL,#852D
1456++8FA7 CD 2C 6F       CALL L6011_226
1457++8FAA 06 04          LD B,#04
1458++8FAC 28 2A          JR Z,L8531_131
1459++8FAE CD 58 6F       CALL L6011_229
1460++8FB1 2A 71 8F       LD HL,(#8F71)
1461++8FB4 7D             LD A,L
1462++8FB5 B7             OR A
1463++8FB6 20 05          JR NZ,L8531_128
1464++8FB8 7C             LD A,H
1465++8FB9 FE C0          CP #C0
1466++8FBB 28 13          JR Z,L8531_129
1467++8FBD              L8531_128:
1468++8FBD 2B             DEC HL
1469++8FBE 4E             LD C,(HL)
1470++8FBF 06 00          LD B,#00
1471++8FC1 B7             OR A
1472++8FC2 ED 42          SBC HL,BC
1473++8FC4 22 71 8F       LD (#8F71),HL
1474++8FC7 CD 81 6F       CALL L6011_232
1475++8FCA 06 03          LD B,#03
1476++8FCC 28 0A          JR Z,L8531_131
1477++8FCE 18 A0          JR L8531_126
1478++8FD0              L8531_129:
1479++8FD0 CD 26 6F       CALL L6011_225
1480++8FD3 C3 5B 8E       JP L8531_112
1481++8FD6              L8531_130:
1482++8FD6 06 07          LD B,#07
1483++8FD8              L8531_131:
1484++8FD8 C5             PUSH BC
1485++8FD9 CD 26 6F       CALL L6011_225
1486++8FDC C1             POP BC
1487++8FDD C3 6C 8B       JP L8531_72
1488++8FE0              L8531_132:
1489++8FE0 DD E5          PUSH IX
1490++8FE2 DD 21 0C 80    LD IX,#800C
1491++8FE6 CD 2C 79       CALL #792C
1492++8FE9 21 7C 81       LD HL,#817C
1493++8FEC 11 00 00       LD DE,#0000
1494++8FEF CD 81 7D       CALL L7828_80
1495++8FF2 21 87 81       LD HL,#8187
1496++8FF5 11 00 02       LD DE,#0200
1497++8FF8 CD 81 7D       CALL L7828_80
1498++8FFB CD 4B 74       CALL L7143_48
1499++8FFE              L8531_133:
1500++8FFE 3E 01          LD A,#01
1501++9000 CD 73 66       CALL L6011_87
1502++9003              L8531_134:
1503++9003 FB             EI
1504++9004 76             HALT
1505++9005 AF             XOR A
1506++9006 CD 73 66       CALL L6011_87
1507++9009 CD 9A 74       CALL L7143_62
1508++900C 20 19          JR NZ,L8531_137
1509++900E CD 77 74       CALL L7143_55
1510++9011 28 F0          JR Z,L8531_134
1511++9013 CD CE 7A       CALL L7828_38
1512++9016 3E FF          LD A,#FF
1513++9018 CD 73 66       CALL L6011_87
1514++901B 3E 01          LD A,#01
1515++901D 28 01          JR Z,L8531_136
1516++901F              L8531_135:
1517++901F AF             XOR A
1518++9020              L8531_136:
1519++9020 DD E1          POP IX
1520++9022 32 04 60       LD (#6004),A
1521++9025 B7             OR A
1522++9026 C9             RET
1523++9027              L8531_137:
1524++9027 CD 4B 74       CALL L7143_48
1525++902A CD CE 7A       CALL L7828_38
1526++902D 18 F0          JR L8531_135
1527++902F              L8531_138:
1528++902F DD E5          PUSH IX
1529++9031 E5             PUSH HL
1530++9032 D5             PUSH DE
1531++9033 C5             PUSH BC
1532++9034 DD 21 0C 80    LD IX,#800C
1533++9038 CD 2C 79       CALL #792C
1534++903B C1             POP BC
1535++903C D1             POP DE
1536++903D E1             POP HL
1537++903E CD 81 7D       CALL L7828_80
1538++9041 18 BB          JR L8531_133
1539++9043              L8531_139:
1540++9043 DD E5          PUSH IX
1541++9045 3A 03 60       LD A,(#6003)
1542++9048 F5             PUSH AF
1543++9049 DD 21 E2 7F    LD IX,#7FE2
1544++904D CD 2C 79       CALL #792C
1545++9050 2A 87 7F       LD HL,(#7F87)
1546++9053 ED 5B 89 7F    LD DE,(#7F89)
1547++9057 CD 2E 86       CALL L8531_14
1548++905A 22 7C 86       LD (#867C),HL
1549++905D ED 53 72 86    LD (#8672),DE
1550++9061 21 00 00       LD HL,#0000
1551++9064 22 3E 7F       LD (#7F3E),HL
1552++9067 22 40 7F       LD (#7F40),HL
1553++906A F1             POP AF
1554++906B CD C1 68       CALL L6011_114
1555++906E DD E1          POP IX
1556++9070 C9             RET
1557++9071              L8531_140:
1558++9071 DD E5          PUSH IX
1559++9073 DD 21 E2 7F    LD IX,#7FE2
1560++9077 CD CE 7A       CALL L7828_38
1561++907A DD E1          POP IX
1562++907C C9             RET
1563++907D              L8531_141:
1564++907D DD E5          PUSH IX
1565++907F 3A 03 60       LD A,(#6003)
1566++9082 F5             PUSH AF
1567++9083 AF             XOR A
1568++9084 CD C1 68       CALL L6011_114
1569++9087 2A 3E 7F       LD HL,(#7F3E)
1570++908A ED 5B 40 7F    LD DE,(#7F40)
1571++908E 01 00 40       LD BC,#4000
1572++9091 09             ADD HL,BC
1573++9092 30 01          JR NC,L8531_142
1574++9094 13             INC DE
1575++9095              L8531_142:
1576++9095 22 3E 7F       LD (#7F3E),HL
1577++9098 ED 53 40 7F    LD (#7F40),DE
1578++909C CD 5F 86       CALL L8531_15
1579++909F 21 A0 5E       LD HL,#5EA0
1580++90A2 79             LD A,C
1581++90A3 0E 40          LD C,#40
1582++90A5 B7             OR A
1583++90A6 20 03          JR NZ,L8531_143
1584++90A8 79             LD A,C
1585++90A9 18 10          JR L8531_146
1586++90AB              L8531_143:
1587++90AB B9             CP C
1588++90AC 38 01          JR C,L8531_144
1589++90AE 79             LD A,C
1590++90AF              L8531_144:
1591++90AF 47             LD B,A
1592++90B0 79             LD A,C
1593++90B1 90             SUB B
1594++90B2 0E DB          LD C,#DB
1595++90B4              L8531_145:
1596++90B4 71             LD (HL),C
1597++90B5 23             INC HL
1598++90B6 10 FC          DJNZ L8531_145
1599++90B8 B7             OR A
1600++90B9 28 07          JR Z,L8531_148
1601++90BB              L8531_146:
1602++90BB 47             LD B,A
1603++90BC 0E B1          LD C,#B1
1604++90BE              L8531_147:
1605++90BE 71             LD (HL),C
1606++90BF 23             INC HL
1607++90C0 10 FC          DJNZ L8531_147
1608++90C2              L8531_148:
1609++90C2 DD 21 E2 7F    LD IX,#7FE2
1610++90C6 21 A0 5E       LD HL,#5EA0
1611++90C9 DD 7E 05       LD A,(IX+#05)
1612++90CC D6 02          SUB #02
1613++90CE 57             LD D,A
1614++90CF 1E 01          LD E,#01
1615++90D1 01 40 00       LD BC,#0040
1616++90D4 CD 25 7D       CALL L7828_72
1617++90D7 F1             POP AF
1618++90D8 CD C1 68       CALL L6011_114
1619++90DB DD E1          POP IX
1620++90DD C9             RET
1621++90DE              L8531_149:
1622++90DE DD E5          PUSH IX
1623++90E0 E5             PUSH HL
1624++90E1 DD 21 B7 7F    LD IX,#7FB7
1625++90E5 CD 2C 79       CALL #792C
1626++90E8 E1             POP HL
1627++90E9 11 01 02       LD DE,#0201
1628++90EC CD 81 7D       CALL L7828_80
1629++90EF CD 4B 74       CALL L7143_48
1630++90F2 CD 43 74       CALL L7143_47
1631++90F5 CD CE 7A       CALL L7828_38
1632++90F8 DD E1          POP IX
1633++90FA C9             RET
1634++90FB              ; Выбрать редактор/обработчик по клавише F2.
1635++90FB              F2MENU:
1636++90FB              L8531_150:
1637++90FB 01 13 11       LD BC,#1113
1638++90FE 18 13          JR L8531_152
1639++9100              ; Запустить выбранный редактор по F4 для текущей записи.
1640++9100              EDIT:
1641++9100              L8531_151:
1642++9100 CD FE 62       CALL L6011_33
1643++9103 C8             RET Z
1644++9104 7C             LD A,H
1645++9105 B5             OR L
1646++9106 C8             RET Z
1647++9107 CD 3E 91       CALL L8531_154
1648++910A 21 28 7F       LD HL,#7F28
1649++910D CD 12 40       CALL #4012
1650++9110 01 16 13       LD BC,#1316
1651++9113              L8531_152:
1652++9113 3E 60          LD A,#60
1653++9115 CD C1 68       CALL L6011_114
1654++9118 11 C5 BE       LD DE,#BEC5
1655++911B              L8531_153:
1656++911B 2A 18 7F       LD HL,(#7F18)
1657++911E B7             OR A
1658++911F ED 52          SBC HL,DE
1659++9121 D8             RET C
1660++9122 21 00 02       LD HL,#0200
1661++9125 19             ADD HL,DE
1662++9126 EB             EX DE,HL
1663++9127 1A             LD A,(DE)
1664++9128 B8             CP B
1665++9129 38 F0          JR C,L8531_153
1666++912B B9             CP C
1667++912C 30 ED          JR NC,L8531_153
1668++912E 78             LD A,B
1669++912F 3C             INC A
1670++9130 01 3B FF       LD BC,#FF3B
1671++9133 32 A3 70       LD (#70A3),A
1672++9136 CD 01 9B       CALL L9149_101
1673++9139 AF             XOR A
1674++913A 32 A3 70       LD (#70A3),A
1675++913D C9             RET
1676++913E              ; Скопировать 256 байт текущего имени/окружения каталога в рабочий BUX #5E00.
1677++913E              TOBUX:
1678++913E              L8531_154:
1679++913E EB             EX DE,HL
1680++913F 23             INC HL
1681++9140 11 00 5E       LD DE,#5E00
1682++9143 01 00 01       LD BC,#0100
1683++9146 ED B0          LDIR
1684++9148 C9             RET
1685++9149
# file closed: WCFX_DISASM.ASM
  38+ 9149                      ASSERT $ == #9149, нарушена граница WCFX_DISASM.ASM
  39+ 9149
  40+ 9149                      INCLUDE "WCVW_DISASM.ASM"
# file opened: WCVW_DISASM.ASM
   1++9149              ; WCVW — просмотрщики, запуск файлов и управление плагинами.
   2++9149              ; Exact-диапазон: #9149..#9B7B.
   3++9149              ; Основные процедуры:
   4++9149              ;   #9149 NXTFL   — следующий файл; #9152 PRVFL — предыдущий;
   5++9149              ;   #9281 CHEXT   — найти обработчик по расширению;
   6++9149              ;   #92BA VIEW    — вход просмотра по F3;
   7++9149              ;   #92C9 VIE     — вход по Enter; #92CA EXEcute — общий диспетчер запуска;
   8++9149              ;   #9367 RUNHOB  — проверить и запустить HoBeta;
   9++9149              ;   #957B RUNSPG  — загрузить и запустить SPG;
  10++9149              ;   #973A LDPLG   — загрузить модуль плагина;
  11++9149              ;   #9841 PDCHECK — проверить дубликат сигнатуры плагина;
  12++9149              ;   #9906 F11MENU — построить меню загруженных плагинов;
  13++9149              ;   #99A6 PSEXE   — выполнить выбранный пункт плагина;
  14++9149              ;   #9A1D PLGDINI — инициализировать каталог плагинов;
  15++9149              ;   #9ABE GOPLG   — найти плагин для расширения и режима запуска.
  16++9149              ; Перейти к следующему файлу панели, обновить STATUS и повторно войти в VIEW.
  17++9149              NXTFL:
  18++9149              L9149:
  19++9149 CD 1C 62       CALL L6011_14
  20++914C CD 47 87       CALL L8531_25
  21++914F C3 BA 92       JP L9149_20
  22++9152              ; Перейти к предыдущему файлу панели, обновить STATUS и повторно войти в VIEW.
  23++9152              PRVFL:
  24++9152              L9149_0:
  25++9152 CD 61 62       CALL L6011_21
  26++9155 CD 47 87       CALL L8531_25
  27++9158 C3 BA 92       JP L9149_20
  28++915B              L9149_1:
  29++915B CD FE 62       CALL L6011_33
  30++915E C8             RET Z
  31++915F 7C             LD A,H
  32++9160 B5             OR L
  33++9161 C8             RET Z
  34++9162 CD 3E 91       CALL L8531_154
  35++9165 21 28 7F       LD HL,#7F28
  36++9168 CD 12 40       CALL #4012
  37++916B              L9149_2:
  38++916B CD 9F 69       CALL L6011_131
  39++916E DD 7E 02       LD A,(IX+#02)
  40++9171 C6 02          ADD A,#02
  41++9173 32 9A 80       LD (#809A),A
  42++9176 DD 7E 03       LD A,(IX+#03)
  43++9179 DD 86 0C       ADD A,(IX+#0C)
  44++917C C6 02          ADD A,#02
  45++917E 32 9B 80       LD (#809B),A
  46++9181 DD E5          PUSH IX
  47++9183 3A 19 7F       LD A,(#7F19)
  48++9186 0E 00          LD C,#00
  49++9188 FE C2          CP #C2
  50++918A 38 43          JR C,L9149_7
  51++918C 3E 60          LD A,#60
  52++918E CD C1 68       CALL L6011_114
  53++9191 21 C5 C0       LD HL,#C0C5
  54++9194 11 00 B0       LD DE,#B000
  55++9197              L9149_3:
  56++9197 7E             LD A,(HL)
  57++9198 FE 04          CP #04
  58++919A 28 0D          JR Z,L9149_4
  59++919C FE 05          CP #05
  60++919E 28 09          JR Z,L9149_4
  61++91A0 FE 15          CP #15
  62++91A2 28 05          JR Z,L9149_4
  63++91A4 01 00 02       LD BC,#0200
  64++91A7 18 0B          JR L9149_5
  65++91A9              L9149_4:
  66++91A9 01 07 00       LD BC,#0007
  67++91AC 09             ADD HL,BC
  68++91AD 0E 18          LD C,#18
  69++91AF ED B0          LDIR
  70++91B1 01 E1 01       LD BC,#01E1
  71++91B4              L9149_5:
  72++91B4 09             ADD HL,BC
  73++91B5 3A 19 7F       LD A,(#7F19)
  74++91B8 BC             CP H
  75++91B9 20 DC          JR NZ,L9149_3
  76++91BB AF             XOR A
  77++91BC EB             EX DE,HL
  78++91BD 77             LD (HL),A
  79++91BE 21 00 B0       LD HL,#B000
  80++91C1 11 18 00       LD DE,#0018
  81++91C4 01 00 08       LD BC,#0800
  82++91C7              L9149_6:
  83++91C7 7E             LD A,(HL)
  84++91C8 B7             OR A
  85++91C9 28 04          JR Z,L9149_7
  86++91CB 19             ADD HL,DE
  87++91CC 0C             INC C
  88++91CD 10 F8          DJNZ L9149_6
  89++91CF              L9149_7:
  90++91CF 79             LD A,C
  91++91D0 DD 21 98 80    LD IX,#8098
  92++91D4 F5             PUSH AF
  93++91D5 C6 00          ADD A,#00
  94++91D7 DD 77 0D       LD (IX+#0D),A
  95++91DA DD BE 0C       CP (IX+#0C)
  96++91DD 30 04          JR NC,L9149_8
  97++91DF DD 36 0C 01    LD (IX+#0C),#01
  98++91E3              L9149_8:
  99++91E3 C6 02          ADD A,#02
 100++91E5 DD 77 05       LD (IX+#05),A
 101++91E8 DD 7E 03       LD A,(IX+#03)
 102++91EB DD 86 05       ADD A,(IX+#05)
 103++91EE ED 4B 0E 60    LD BC,(#600E)
 104++91F2 B9             CP C
 105++91F3 38 0B          JR C,L9149_9
 106++91F5 DD 7E 03       LD A,(IX+#03)
 107++91F8 DD 96 05       SUB (IX+#05)
 108++91FB D6 03          SUB #03
 109++91FD DD 77 03       LD (IX+#03),A
 110++9200              L9149_9:
 111++9200 CD 2C 79       CALL #792C
 112++9203 C1             POP BC
 113++9204 78             LD A,B
 114++9205 B7             OR A
 115++9206 28 19          JR Z,L9149_11
 116++9208 21 00 B0       LD HL,#B000
 117++920B 11 01 01       LD DE,#0101
 118++920E              L9149_10:
 119++920E C5             PUSH BC
 120++920F E5             PUSH HL
 121++9210 D5             PUSH DE
 122++9211 01 18 00       LD BC,#0018
 123++9214 CD 25 7D       CALL L7828_72
 124++9217 D1             POP DE
 125++9218 E1             POP HL
 126++9219 01 18 00       LD BC,#0018
 127++921C 09             ADD HL,BC
 128++921D 14             INC D
 129++921E C1             POP BC
 130++921F 10 ED          DJNZ L9149_10
 131++9221              L9149_11:
 132++9221 FB             EI
 133++9222 76             HALT
 134++9223 CD D5 7C       CALL L7828_67
 135++9226 CD 53 74       CALL L7143_49
 136++9229 C4 8E 62       CALL NZ,L6011_26
 137++922C CD 59 74       CALL L7143_50
 138++922F C4 85 62       CALL NZ,L6011_25
 139++9232 CD 77 74       CALL L7143_55
 140++9235 20 0B          JR NZ,L9149_12
 141++9237 CD 9A 74       CALL L7143_62
 142++923A 28 E5          JR Z,L9149_11
 143++923C CD CE 7A       CALL L7828_38
 144++923F DD E1          POP IX
 145++9241 C9             RET
 146++9242              L9149_12:
 147++9242 CD CE 7A       CALL L7828_38
 148++9245 DD E1          POP IX
 149++9247 3A A4 80       LD A,(#80A4)
 150++924A F5             PUSH AF
 151++924B 3E 60          LD A,#60
 152++924D CD C1 68       CALL L6011_114
 153++9250 C1             POP BC
 154++9251 11 C5 BE       LD DE,#BEC5
 155++9254              L9149_13:
 156++9254 2A 18 7F       LD HL,(#7F18)
 157++9257 B7             OR A
 158++9258 ED 52          SBC HL,DE
 159++925A D8             RET C
 160++925B 21 00 02       LD HL,#0200
 161++925E 19             ADD HL,DE
 162++925F 7E             LD A,(HL)
 163++9260 EB             EX DE,HL
 164++9261 FE 04          CP #04
 165++9263 28 08          JR Z,L9149_14
 166++9265 FE 05          CP #05
 167++9267 28 04          JR Z,L9149_14
 168++9269 FE 15          CP #15
 169++926B 20 E7          JR NZ,L9149_13
 170++926D              L9149_14:
 171++926D 10 E5          DJNZ L9149_13
 172++926F 01 3B FF       LD BC,#FF3B
 173++9272 3E 04          LD A,#04
 174++9274 32 A3 70       LD (#70A3),A
 175++9277 CD 01 9B       CALL L9149_101
 176++927A AF             XOR A
 177++927B 32 A3 70       LD (#70A3),A
 178++927E C3 9F 69       JP L6011_131
 179++9281              ; Найти расширение в таблице пятибайтовых записей:
 180++9281              ; три символа расширения и двухбайтовый адрес обработчика.
 181++9281              CHEXT:
 182++9281              L9149_15:
 183++9281 1A             LD A,(DE)
 184++9282 B7             OR A
 185++9283 C8             RET Z
 186++9284 BE             CP (HL)
 187++9285 20 10          JR NZ,L9149_17
 188++9287 23             INC HL
 189++9288 13             INC DE
 190++9289 1A             LD A,(DE)
 191++928A BE             CP (HL)
 192++928B 20 08          JR NZ,L9149_16
 193++928D 23             INC HL
 194++928E 13             INC DE
 195++928F 1A             LD A,(DE)
 196++9290 BE             CP (HL)
 197++9291 28 0B          JR Z,L9149_18
 198++9293 2B             DEC HL
 199++9294 1B             DEC DE
 200++9295              L9149_16:
 201++9295 2B             DEC HL
 202++9296 1B             DEC DE
 203++9297              L9149_17:
 204++9297 13             INC DE
 205++9298 13             INC DE
 206++9299 13             INC DE
 207++929A 13             INC DE
 208++929B 13             INC DE
 209++929C 18 E3          JR L9149_15
 210++929E              L9149_18:
 211++929E 13             INC DE
 212++929F 1A             LD A,(DE)
 213++92A0 6F             LD L,A
 214++92A1 13             INC DE
 215++92A2 1A             LD A,(DE)
 216++92A3 67             LD H,A
 217++92A4 3E 01          LD A,#01
 218++92A6 B7             OR A
 219++92A7 C9             RET
 220++92A8              L9149_19:
 221++92A8 01 00 00       LD BC,#0000
 222++92AB ED 43 97 92    LD (L9149_17),BC
 223++92AF CD 81 92       CALL L9149_15
 224++92B2 01 13 13       LD BC,#1313
 225++92B5 ED 43 97 92    LD (L9149_17),BC
 226++92B9 C9             RET
 227++92BA              ; Вход просмотра по F3. Получить текущую запись, установить режим F3
 228++92BA              ; и передать управление общему диспетчеру EXEcute.
 229++92BA              VIEW:
 230++92BA              L9149_20:
 231++92BA CD FE 62       CALL L6011_33
 232++92BD CA 9F 69       JP Z,L6011_131
 233++92C0 7C             LD A,H
 234++92C1 B5             OR L
 235++92C2 CA 9F 69       JP Z,L6011_131
 236++92C5 3E 01          LD A,#01
 237++92C7 18 01          JR L9149_22
 238++92C9              ; Вход общего диспетчера по Enter.
 239++92C9              VIE:
 240++92C9              L9149_21:
 241++92C9 AF             XOR A
 242++92CA              ; Подготовить имя и окружение, сначала попытаться найти плагин через GOPLG,
 243++92CA              ; затем выбрать встроенный обработчик расширения или формат запуска.
 244++92CA              EXEcute:
 245++92CA              L9149_22:
 246++92CA 32 17 60       LD (#6017),A
 247++92CD CD 3E 91       CALL L8531_154
 248++92D0 21 28 7F       LD HL,#7F28
 249++92D3 CD 12 40       CALL #4012
 250++92D6 CD BE 9A       CALL L9149_97
 251++92D9 B7             OR A
 252++92DA CA 9F 69       JP Z,L6011_131
 253++92DD 3D             DEC A
 254++92DE 28 09          JR Z,L9149_23
 255++92E0 3D             DEC A
 256++92E1 CA 49 91       JP Z,L9149
 257++92E4 3D             DEC A
 258++92E5 3D             DEC A
 259++92E6 CA 52 91       JP Z,L9149_0
 260++92E9              L9149_23:
 261++92E9 3A 17 60       LD A,(#6017)
 262++92EC B7             OR A
 263++92ED C2 6B 91       JP NZ,L9149_2
 264++92F0 21 73 7F       LD HL,#7F73
 265++92F3 11 F5 80       LD DE,#80F5
 266++92F6 CD 81 92       CALL L9149_15
 267++92F9 CA 6B 91       JP Z,L9149_2
 268++92FC E9             JP (HL)
 269++92FD              L9149_24:
 270++92FD 0E 0D          LD C,#0D
 271++92FF              L9149_25:
 272++92FF 7E             LD A,(HL)
 273++9300 B7             OR A
 274++9301 C8             RET Z
 275++9302 23             INC HL
 276++9303 B9             CP C
 277++9304 C8             RET Z
 278++9305 C3 FF 92       JP L9149_25
 279++9308              L9149_26:
 280++9308 CD 9F 69       CALL L6011_131
 281++930B DD E5          PUSH IX
 282++930D DD 21 AE 80    LD IX,#80AE
 283++9311 CD 2C 79       CALL #792C
 284++9314 3E 01          LD A,#01
 285++9316 CD 73 66       CALL L6011_87
 286++9319              L9149_27:
 287++9319 FB             EI
 288++931A 76             HALT
 289++931B CD D5 7C       CALL L7828_67
 290++931E AF             XOR A
 291++931F CD 73 66       CALL L6011_87
 292++9322 CD 53 74       CALL L7143_49
 293++9325 C4 8E 62       CALL NZ,L6011_26
 294++9328 CD 59 74       CALL L7143_50
 295++932B C4 85 62       CALL NZ,L6011_25
 296++932E CD 9A 74       CALL L7143_62
 297++9331 20 2D          JR NZ,L9149_29
 298++9333 CD 77 74       CALL L7143_55
 299++9336 28 E1          JR Z,L9149_27
 300++9338 3E FF          LD A,#FF
 301++933A CD 73 66       CALL L6011_87
 302++933D 20 21          JR NZ,L9149_29
 303++933F DD 7E 0C       LD A,(IX+#0C)
 304++9342 0E 00          LD C,#00
 305++9344 3D             DEC A
 306++9345 28 0C          JR Z,L9149_28
 307++9347 0E 01          LD C,#01
 308++9349 3D             DEC A
 309++934A 28 07          JR Z,L9149_28
 310++934C 0E 02          LD C,#02
 311++934E 3D             DEC A
 312++934F 28 02          JR Z,L9149_28
 313++9351 0E 03          LD C,#03
 314++9353              L9149_28:
 315++9353 79             LD A,C
 316++9354 32 8F 6A       LD (#6A8F),A
 317++9357 CD CE 7A       CALL L7828_38
 318++935A DD E1          POP IX
 319++935C 3E 01          LD A,#01
 320++935E B7             OR A
 321++935F C9             RET
 322++9360              L9149_29:
 323++9360 CD CE 7A       CALL L7828_38
 324++9363 DD E1          POP IX
 325++9365 AF             XOR A
 326++9366 C9             RET
 327++9367 CD 08 93       CALL L9149_26
 328++936A C8             RET Z
 329++936B 21 00 02       LD HL,#0200
 330++936E 06 01          LD B,#01
 331++9370 CD 15 40       CALL #4015
 332++9373 2A 0B 02       LD HL,(#020B)
 333++9376 7C             LD A,H
 334++9377 FE A0          CP #A0
 335++9379 D0             RET NC
 336++937A ED 5B 09 02    LD DE,(#0209)
 337++937E 7A             LD A,D
 338++937F FE 60          CP #60
 339++9381 D8             RET C
 340++9382 D9             EXX
 341++9383 3E 20          LD A,#20
 342++9385 32 57 7F       LD (#7F57),A
 343++9388 CD 21 A7       CALL L9B7C_162
 344++938B AF             XOR A
 345++938C CD C1 68       CALL L6011_114
 346++938F CD 88 6A       CALL L6011_140
 347++9392 21 B1 93       LD HL,#93B1
 348++9395 11 00 5B       LD DE,#5B00
 349++9398 01 60 00       LD BC,#0060
 350++939B ED B0          LDIR
 351++939D 21 85 68       LD HL,L6011_106
 352++93A0 11 60 5B       LD DE,#5B60
 353++93A3 01 20 00       LD BC,#0020
 354++93A6 ED B0          LDIR
 355++93A8 D9             EXX
 356++93A9 21 EF 01       LD HL,#01EF
 357++93AC 19             ADD HL,DE
 358++93AD D5             PUSH DE
 359++93AE C3 00 5B       JP #5B00
 360++93B1 D5             PUSH DE
 361++93B2              L9149_30:
 362++93B2 7C             LD A,H
 363++93B3 FE 60          CP #60
 364++93B5 38 09          JR C,L9149_31
 365++93B7 06 01          LD B,#01
 366++93B9 CD 15 40       CALL #4015
 367++93BC FE 0F          CP #0F
 368++93BE 20 F2          JR NZ,L9149_30
 369++93C0              L9149_31:
 370++93C0 D1             POP DE
 371++93C1 21 11 02       LD HL,#0211
 372++93C4 01 EF 01       LD BC,#01EF
 373++93C7 ED B0          LDIR
 374++93C9 F3             DI
 375++93CA 3E 3F          LD A,#3F
 376++93CC ED 47          LD I,A
 377++93CE ED 56          IM 1
 378++93D0 FD 21 3A 5C    LD IY,#5C3A
 379++93D4 21 00 58       LD HL,#5800
 380++93D7 54             LD D,H
 381++93D8 5D             LD E,L
 382++93D9 13             INC DE
 383++93DA 01 FF 02       LD BC,#02FF
 384++93DD 75             LD (HL),L
 385++93DE ED B0          LDIR
 386++93E0 01 AF 00       LD BC,#00AF
 387++93E3 AF             XOR A
 388++93E4 ED 79          OUT (C),A
 389++93E6 CD 60 5B       CALL #5B60
 390++93E9 01 FD 7F       LD BC,#7FFD
 391++93EC 3E 10          LD A,#10
 392++93EE ED 79          OUT (C),A
 393++93F0 C9             RET
 394++93F1              L9149_32:
 395++93F1 FE 10          CP #10
 396++93F3 C2 9F 69       JP NZ,L6011_131
 397++93F6 3E 20          LD A,#20
 398++93F8 32 57 7F       LD (#7F57),A
 399++93FB CD 21 A7       CALL L9B7C_162
 400++93FE 3E F5          LD A,#F5
 401++9400 CD C1 68       CALL L6011_114
 402++9403 21 00 C0       LD HL,LC000
 403++9406 54             LD D,H
 404++9407 5D             LD E,L
 405++9408 13             INC DE
 406++9409 75             LD (HL),L
 407++940A 01 FF 3F       LD BC,#3FFF
 408++940D ED B0          LDIR
 409++940F 2A 30 B0       LD HL,(#B030)
 410++9412 22 64 95       LD (#9564),HL
 411++9415 2A 32 B0       LD HL,(#B032)
 412++9418 22 67 95       LD (#9567),HL
 413++941B 2A 38 B0       LD HL,(#B038)
 414++941E 22 6A 95       LD (#956A),HL
 415++9421 3A 34 B0       LD A,(#B034)
 416++9424 32 37 95       LD (#9537),A
 417++9427 3A 35 B0       LD A,(#B035)
 418++942A 4F             LD C,A
 419++942B E6 03          AND #03
 420++942D 32 8F 6A       LD (#6A8F),A
 421++9430 79             LD A,C
 422++9431 E6 04          AND #04
 423++9433 3E F3          LD A,#F3
 424++9435 28 02          JR Z,L9149_33
 425++9437 3E FB          LD A,#FB
 426++9439              L9149_33:
 427++9439 32 79 95       LD (#9579),A
 428++943C 21 00 B0       LD HL,#B000
 429++943F 11 00 10       LD DE,#1000
 430++9442 01 00 04       LD BC,#0400
 431++9445 ED B0          LDIR
 432++9447 21 70 94       LD HL,#9470
 433++944A 11 00 00       LD DE,#0000
 434++944D 01 0B 01       LD BC,#010B
 435++9450 ED B0          LDIR
 436++9452 3E 01          LD A,#01
 437++9454 CD C1 68       CALL L6011_114
 438++9457 21 00 FE       LD HL,#FE00
 439++945A 11 00 0D       LD DE,#0D00
 440++945D 01 00 01       LD BC,#0100
 441++9460 ED B0          LDIR
 442++9462 21 E9 FE       LD HL,#FEE9
 443++9465 11 00 0E       LD DE,#0E00
 444++9468 01 00 02       LD BC,#0200
 445++946B ED B0          LDIR
 446++946D C3 00 00       JP #0000
 447++9470 DD 21 00 11    LD IX,#1100
 448++9474 3E F4          LD A,#F4
 449++9476 CD B1 68       CALL L6011_110
 450++9479 06 00          LD B,#00
 451++947B              L9149_34:
 452++947B DD 7E 00       LD A,(IX+#00)
 453++947E DD 23          INC IX
 454++9480 4F             LD C,A
 455++9481 E6 1F          AND #1F
 456++9483 87             ADD A,A
 457++9484 C6 C0          ADD A,#C0
 458++9486 67             LD H,A
 459++9487 2E 00          LD L,#00
 460++9489 DD 23          INC IX
 461++948B DD 7E 00       LD A,(IX+#00)
 462++948E DD 23          INC IX
 463++9490 FE 02          CP #02
 464++9492 20 02          JR NZ,L9149_35
 465++9494 3E F6          LD A,#F6
 466++9496              L9149_35:
 467++9496 FE 05          CP #05
 468++9498 20 02          JR NZ,L9149_36
 469++949A 3E F5          LD A,#F5
 470++949C              L9149_36:
 471++949C CD C1 68       CALL L6011_114
 472++949F DD 7E FE       LD A,(IX-#02)
 473++94A2 5F             LD E,A
 474++94A3 E6 C0          AND #C0
 475++94A5 07             RLCA
 476++94A6 07             RLCA
 477++94A7 57             LD D,A
 478++94A8 7B             LD A,E
 479++94A9 E6 1F          AND #1F
 480++94AB 3C             INC A
 481++94AC C5             PUSH BC
 482++94AD DD E5          PUSH IX
 483++94AF 47             LD B,A
 484++94B0 7A             LD A,D
 485++94B1 B7             OR A
 486++94B2 20 0F          JR NZ,L9149_38
 487++94B4 CD 15 40       CALL #4015
 488++94B7              L9149_37:
 489++94B7 DD E1          POP IX
 490++94B9 C1             POP BC
 491++94BA 79             LD A,C
 492++94BB E6 80          AND #80
 493++94BD 20 36          JR NZ,L9149_41
 494++94BF 10 BA          DJNZ L9149_34
 495++94C1 18 32          JR L9149_41
 496++94C3              L9149_38:
 497++94C3 3D             DEC A
 498++94C4 28 1A          JR Z,L9149_40
 499++94C6 E5             PUSH HL
 500++94C7 21 00 80       LD HL,F5WND
 501++94CA CD 15 40       CALL #4015
 502++94CD D1             POP DE
 503++94CE F3             DI
 504++94CF ED 73 26 7F    LD (#7F26),SP
 505++94D3 DD 21 00 80    LD IX,F5WND
 506++94D7 CD 00 0E       CALL #0E00
 507++94DA              L9149_39:
 508++94DA ED 7B 26 7F    LD SP,(#7F26)
 509++94DE 18 D7          JR L9149_37
 510++94E0              L9149_40:
 511++94E0 E5             PUSH HL
 512++94E1 21 00 80       LD HL,F5WND
 513++94E4 CD 15 40       CALL #4015
 514++94E7 D1             POP DE
 515++94E8 F3             DI
 516++94E9 ED 73 26 7F    LD (#7F26),SP
 517++94ED 21 00 80       LD HL,F5WND
 518++94F0 CD 00 0D       CALL #0D00
 519++94F3 18 E5          JR L9149_39
 520++94F5              L9149_41:
 521++94F5 3E F6          LD A,#F6
 522++94F7 CD B1 68       CALL L6011_110
 523++94FA 3E 02          LD A,#02
 524++94FC CD C1 68       CALL L6011_114
 525++94FF 21 00 80       LD HL,F5WND
 526++9502 11 00 C0       LD DE,LC000
 527++9505 01 00 40       LD BC,#4000
 528++9508 ED B0          LDIR
 529++950A F3             DI
 530++950B CD 88 6A       CALL L6011_140
 531++950E 3E F5          LD A,#F5
 532++9510 CD B1 68       CALL L6011_110
 533++9513 3E 05          LD A,#05
 534++9515 CD C1 68       CALL L6011_114
 535++9518 21 00 80       LD HL,F5WND
 536++951B 11 00 C0       LD DE,LC000
 537++951E 01 00 40       LD BC,#4000
 538++9521 ED B0          LDIR
 539++9523 01 AF 01       LD BC,#01AF
 540++9526 3E 05          LD A,#05
 541++9528 ED 79          OUT (C),A
 542++952A 01 AF 00       LD BC,#00AF
 543++952D AF             XOR A
 544++952E ED 79          OUT (C),A
 545++9530 3E 3F          LD A,#3F
 546++9532 ED 47          LD I,A
 547++9534 ED 56          IM 1
 548++9536 3E 00          LD A,#00
 549++9538 01 AF 13       LD BC,#13AF
 550++953B ED 79          OUT (C),A
 551++953D 3E 02          LD A,#02
 552++953F 06 12          LD B,#12
 553++9541 ED 79          OUT (C),A
 554++9543 3E 05          LD A,#05
 555++9545 06 11          LD B,#11
 556++9547 ED 79          OUT (C),A
 557++9549 21 FC 00       LD HL,#00FC
 558++954C ED 5B FA 00    LD DE,(#00FA)
 559++9550 01 10 00       LD BC,#0010
 560++9553 ED B0          LDIR
 561++9555 21 58 27       LD HL,#2758
 562++9558 D9             EXX
 563++9559 FD 21 3A 5C    LD IY,#5C3A
 564++955D 01 AF 28       LD BC,#28AF
 565++9560 AF             XOR A
 566++9561 ED 79          OUT (C),A
 567++9563 21 00 00       LD HL,#0000
 568++9566 31 00 60       LD SP,#6000
 569++9569 C3 00 00       JP #0000
 570++956C 01 AF 21       LD BC,#21AF
 571++956F 3E 01          LD A,#01
 572++9571 ED 79          OUT (C),A
 573++9573 06 10          LD B,#10
 574++9575 3E 03          LD A,#03
 575++9577 ED 79          OUT (C),A
 576++9579 F3             DI
 577++957A E9             JP (HL)
 578++957B 21 00 B0       LD HL,#B000
 579++957E 06 02          LD B,#02
 580++9580 CD 15 40       CALL #4015
 581++9583 21 20 B0       LD HL,#B020
 582++9586 11 24 AB       LD DE,#AB24
 583++9589 06 0C          LD B,#0C
 584++958B CD 2B A7       CALL L9B7C_163
 585++958E C2 9F 69       JP NZ,L6011_131
 586++9591 7E             LD A,(HL)
 587++9592 FE 03          CP #03
 588++9594 D2 F1 93       JP NC,L9149_32
 589++9597 FE 02          CP #02
 590++9599 38 17          JR C,L9149_42
 591++959B 3E 0F          LD A,#0F
 592++959D 32 3F 96       LD (#963F),A
 593++95A0 3E 10          LD A,#10
 594++95A2 32 E4 95       LD (#95E4),A
 595++95A5 32 D6 96       LD (#96D6),A
 596++95A8 3E 04          LD A,#04
 597++95AA 32 68 96       LD (#9668),A
 598++95AD 3E 0F          LD A,#0F
 599++95AF 32 AD 96       LD (#96AD),A
 600++95B2              L9149_42:
 601++95B2 CD 08 93       CALL L9149_26
 602++95B5 C8             RET Z
 603++95B6 CD 88 6A       CALL L6011_140
 604++95B9 3E 20          LD A,#20
 605++95BB 32 57 7F       LD (#7F57),A
 606++95BE CD 21 A7       CALL L9B7C_162
 607++95C1 21 00 B4       LD HL,#B400
 608++95C4 06 02          LD B,#02
 609++95C6 CD 15 40       CALL #4015
 610++95C9 21 00 B0       LD HL,#B000
 611++95CC 11 00 53       LD DE,#5300
 612++95CF 01 00 08       LD BC,#0800
 613++95D2 ED B0          LDIR
 614++95D4 21 0D 97       LD HL,#970D
 615++95D7 11 00 53       LD DE,#5300
 616++95DA 01 20 00       LD BC,#0020
 617++95DD ED B0          LDIR
 618++95DF AF             XOR A
 619++95E0 CD C1 68       CALL L6011_114
 620++95E3 3E 08          LD A,#08
 621++95E5 32 43 7F       LD (#7F43),A
 622++95E8 2A 40 53       LD HL,(#5340)
 623++95EB 22 D0 96       LD (#96D0),HL
 624++95EE 3A 42 53       LD A,(#5342)
 625++95F1 32 AB 96       LD (#96AB),A
 626++95F4 2A 4A 53       LD HL,(#534A)
 627++95F7 7C             LD A,H
 628++95F8 FE 40          CP #40
 629++95FA 30 03          JR NC,L9149_43
 630++95FC 2A 26 7F       LD HL,(#7F26)
 631++95FF              L9149_43:
 632++95FF 22 CD 96       LD (#96CD),HL
 633++9602 2A 44 53       LD HL,(#5344)
 634++9605 22 94 96       LD (#9694),HL
 635++9608 2A 4C 53       LD HL,(#534C)
 636++960B 7C             LD A,H
 637++960C B5             OR L
 638++960D 28 03          JR Z,L9149_44
 639++960F 22 A6 96       LD (#96A6),HL
 640++9612              L9149_44:
 641++9612 ED 4B 4E 53    LD BC,(#534E)
 642++9616 78             LD A,B
 643++9617 B1             OR C
 644++9618 28 0D          JR Z,L9149_45
 645++961A 78             LD A,B
 646++961B B7             OR A
 647++961C 28 09          JR Z,L9149_45
 648++961E 06 01          LD B,#01
 649++9620 79             LD A,C
 650++9621 FE 41          CP #41
 651++9623 38 02          JR C,L9149_45
 652++9625 0E 00          LD C,#00
 653++9627              L9149_45:
 654++9627 ED 43 9C 96    LD (#969C),BC
 655++962B DD 21 80 53    LD IX,#5380
 656++962F              L9149_46:
 657++962F DD 7E 02       LD A,(IX+#02)
 658++9632 FE 0E          CP #0E
 659++9634 38 02          JR C,L9149_47
 660++9636 3E 0D          LD A,#0D
 661++9638              L9149_47:
 662++9638 32 5B 96       LD (#965B),A
 663++963B DD 7E 03       LD A,(IX+#03)
 664++963E E6 07          AND #07
 665++9640 CD C1 68       CALL L6011_114
 666++9643 21 00 55       LD HL,#5500
 667++9646 DD 5E 00       LD E,(IX+#00)
 668++9649 DD 56 01       LD D,(IX+#01)
 669++964C 01 00 06       LD BC,#0600
 670++964F CD D2 96       CALL L9149_53
 671++9652 EB             EX DE,HL
 672++9653 7C             LD A,H
 673++9654 FE A0          CP #A0
 674++9656 38 1D          JR C,L9149_48
 675++9658 DD E5          PUSH IX
 676++965A 06 01          LD B,#01
 677++965C CB 20          SLA B
 678++965E CB 20          SLA B
 679++9660 78             LD A,B
 680++9661 B7             OR A
 681++9662 C4 15 40       CALL NZ,#4015
 682++9665 DD E1          POP IX
 683++9667 11 08 00       LD DE,#0008
 684++966A DD 19          ADD IX,DE
 685++966C 3A 43 7F       LD A,(#7F43)
 686++966F 3D             DEC A
 687++9670 32 43 7F       LD (#7F43),A
 688++9673 20 BA          JR NZ,L9149_46
 689++9675              L9149_48:
 690++9675 F3             DI
 691++9676 3E 3F          LD A,#3F
 692++9678 ED 47          LD I,A
 693++967A ED 56          IM 1
 694++967C FD 21 3A 5C    LD IY,#5C3A
 695++9680 01 AF 00       LD BC,#00AF
 696++9683 AF             XOR A
 697++9684 ED 79          OUT (C),A
 698++9686 CD 85 68       CALL L6011_106
 699++9689 01 FD 7F       LD BC,#7FFD
 700++968C 3E 10          LD A,#10
 701++968E ED 79          OUT (C),A
 702++9690 21 00 53       LD HL,#5300
 703++9693 11 00 00       LD DE,#0000
 704++9696 01 20 00       LD BC,#0020
 705++9699 ED B0          LDIR
 706++969B 01 00 00       LD BC,#0000
 707++969E 78             LD A,B
 708++969F B1             OR C
 709++96A0 28 08          JR Z,L9149_49
 710++96A2 21 C0 53       LD HL,#53C0
 711++96A5 11 00 5B       LD DE,#5B00
 712++96A8 ED B0          LDIR
 713++96AA              L9149_49:
 714++96AA 3E 00          LD A,#00
 715++96AC E6 07          AND #07
 716++96AE CD 00 53       CALL #5300
 717++96B1 3A AD 96       LD A,(#96AD)
 718++96B4 FE 07          CP #07
 719++96B6 28 14          JR Z,L9149_52
 720++96B8 21 31 53       LD HL,#5331
 721++96BB 1E 05          LD E,#05
 722++96BD              L9149_50:
 723++96BD 4E             LD C,(HL)
 724++96BE 23             INC HL
 725++96BF 46             LD B,(HL)
 726++96C0 23             INC HL
 727++96C1 78             LD A,B
 728++96C2 B1             OR C
 729++96C3 28 03          JR Z,L9149_51
 730++96C5 7E             LD A,(HL)
 731++96C6 ED 79          OUT (C),A
 732++96C8              L9149_51:
 733++96C8 23             INC HL
 734++96C9 1D             DEC E
 735++96CA 20 F1          JR NZ,L9149_50
 736++96CC              L9149_52:
 737++96CC 31 00 00       LD SP,#0000
 738++96CF C3 00 00       JP #0000
 739++96D2              L9149_53:
 740++96D2 3A 43 7F       LD A,(#7F43)
 741++96D5 FE 08          CP #08
 742++96D7 C0             RET NZ
 743++96D8 7A             LD A,D
 744++96D9 FE A0          CP #A0
 745++96DB 30 1F          JR NC,L9149_54
 746++96DD ED 53 03 97    LD (#9703),DE
 747++96E1 C6 06          ADD A,#06
 748++96E3 57             LD D,A
 749++96E4 D5             PUSH DE
 750++96E5 2A D0 96       LD HL,(#96D0)
 751++96E8 22 0B 97       LD (#970B),HL
 752++96EB 11 20 53       LD DE,#5320
 753++96EE ED 53 D0 96    LD (#96D0),DE
 754++96F2 21 FF 96       LD HL,#96FF
 755++96F5 01 10 00       LD BC,#0010
 756++96F8 ED B0          LDIR
 757++96FA D1             POP DE
 758++96FB C9             RET
 759++96FC              L9149_54:
 760++96FC ED B0          LDIR
 761++96FE C9             RET
 762++96FF 21 00 55       LD HL,#5500
 763++9702 11 00 00       LD DE,#0000
 764++9705 01 00 06       LD BC,#0600
 765++9708 ED B0          LDIR
 766++970A C3 00 00       JP #0000
 767++970D C5             PUSH BC
 768++970E 01 AF 13       LD BC,#13AF
 769++9711 ED 79          OUT (C),A
 770++9713 C1             POP BC
 771++9714 C9             RET
 772++9715              L9149_55:
 773++9715 21 A4 83       LD HL,#83A4
 774++9718 C3 DE 90       JP L8531_149
 775++971B              L9149_56:
 776++971B 3A 14 7F       LD A,(#7F14)
 777++971E B7             OR A
 778++971F C0             RET NZ
 779++9720 E5             PUSH HL
 780++9721 21 A9 81       LD HL,#81A9
 781++9724 11 00 01       LD DE,#0100
 782++9727 CD 2F 90       CALL L8531_138
 783++972A E1             POP HL
 784++972B C8             RET Z
 785++972C E5             PUSH HL
 786++972D CD 1D 9A       CALL L9149_88
 787++9730 E1             POP HL
 788++9731 2E 00          LD L,#00
 789++9733 24             INC H
 790++9734 24             INC H
 791++9735 CD 2F 9A       CALL L9149_89
 792++9738 18 15          JR L9149_58
 793++973A CD 9F 69       CALL L6011_131
 794++973D AF             XOR A
 795++973E 32 00 B2       LD (#B200),A
 796++9741              L9149_57:
 797++9741 32 14 7F       LD (#7F14),A
 798++9744 21 00 B0       LD HL,#B000
 799++9747 06 01          LD B,#01
 800++9749 CD 15 40       CALL #4015
 801++974C CD 83 98       CALL L9149_70
 802++974F              L9149_58:
 803++974F 3A 20 B0       LD A,(#B020)
 804++9752 FE 02          CP #02
 805++9754 38 BF          JR C,L9149_55
 806++9756 FE 11          CP #11
 807++9758 30 BB          JR NC,L9149_55
 808++975A 21 30 AB       LD HL,#AB30
 809++975D 11 10 B0       LD DE,#B010
 810++9760 06 10          LD B,#10
 811++9762 CD 2B A7       CALL L9B7C_163
 812++9765 C0             RET NZ
 813++9766 3A 16 7F       LD A,(#7F16)
 814++9769 32 15 7F       LD (#7F15),A
 815++976C 32 00 B0       LD (#B000),A
 816++976F 2A 22 B0       LD HL,(#B022)
 817++9772 85             ADD A,L
 818++9773 D8             RET C
 819++9774 FE 3F          CP #3F
 820++9776 D0             RET NC
 821++9777 32 17 7F       LD (#7F17),A
 822++977A 3E 60          LD A,#60
 823++977C CD C1 68       CALL L6011_114
 824++977F 3A 19 7F       LD A,(#7F19)
 825++9782 FE 40          CP #40
 826++9784 D8             RET C
 827++9785 CD 41 98       CALL L9149_64
 828++9788 DA 1B 97       JP C,L9149_56
 829++978B 21 00 B0       LD HL,#B000
 830++978E ED 5B 18 7F    LD DE,(#7F18)
 831++9792 01 00 02       LD BC,#0200
 832++9795 ED B0          LDIR
 833++9797 ED 53 18 7F    LD (#7F18),DE
 834++979B EB             EX DE,HL
 835++979C 06 00          LD B,#00
 836++979E CD 99 69       CALL L6011_129
 837++97A1 21 24 B0       LD HL,#B024
 838++97A4              L9149_59:
 839++97A4 7E             LD A,(HL)
 840++97A5 23             INC HL
 841++97A6 CD F9 68       CALL L6011_121
 842++97A9 7E             LD A,(HL)
 843++97AA 23             INC HL
 844++97AB B7             OR A
 845++97AC 28 0B          JR Z,L9149_60
 846++97AE E5             PUSH HL
 847++97AF 47             LD B,A
 848++97B0 21 00 C0       LD HL,LC000
 849++97B3 CD 15 40       CALL #4015
 850++97B6 E1             POP HL
 851++97B7 18 EB          JR L9149_59
 852++97B9              L9149_60:
 853++97B9 3A 17 7F       LD A,(#7F17)
 854++97BC 32 16 7F       LD (#7F16),A
 855++97BF 3A 14 7F       LD A,(#7F14)
 856++97C2 0E 01          LD C,#01
 857++97C4 B7             OR A
 858++97C5 20 63          JR NZ,L9149_62
 859++97C7 DD E5          PUSH IX
 860++97C9 DD 21 2A 80    LD IX,#802A
 861++97CD CD 2C 79       CALL #792C
 862++97D0 21 00 B2       LD HL,#B200
 863++97D3 06 20          LD B,#20
 864++97D5 CD 99 69       CALL L6011_129
 865++97D8 21 C4 B0       LD HL,#B0C4
 866++97DB 06 20          LD B,#20
 867++97DD 78             LD A,B
 868++97DE CD 7D 98       CALL L9149_69
 869++97E1 48             LD C,B
 870++97E2 90             SUB B
 871++97E3 CB 3F          SRL A
 872++97E5 47             LD B,A
 873++97E6 11 00 B2       LD DE,#B200
 874++97E9 3E 1F          LD A,#1F
 875++97EB 90             SUB B
 876++97EC 5F             LD E,A
 877++97ED 06 00          LD B,#00
 878++97EF 79             LD A,C
 879++97F0 B7             OR A
 880++97F1 28 02          JR Z,L9149_61
 881++97F3 ED B8          LDDR
 882++97F5              L9149_61:
 883++97F5 21 00 B2       LD HL,#B200
 884++97F8 11 01 01       LD DE,#0101
 885++97FB 01 20 00       LD BC,#0020
 886++97FE CD 25 7D       CALL L7828_72
 887++9801 3E 71          LD A,#71
 888++9803 CD 39 7D       CALL L7828_73
 889++9806 21 BE 83       LD HL,#83BE
 890++9809 11 0D 02       LD DE,#020D
 891++980C 01 09 00       LD BC,#0009
 892++980F CD 25 7D       CALL L7828_72
 893++9812 CD 4B 74       CALL L7143_48
 894++9815 CD 43 74       CALL L7143_47
 895++9818 CD CE 7A       CALL L7828_38
 896++981B DD E1          POP IX
 897++981D DD E5          PUSH IX
 898++981F DD 21 87 84    LD IX,#8487
 899++9823 CD 19 A2       CALL L9B7C_75
 900++9826 DD E1          POP IX
 901++9828 0E FF          LD C,#FF
 902++982A              L9149_62:
 903++982A 3A C5 B0       LD A,(#B0C5)
 904++982D 21 C6 B0       LD HL,#B0C6
 905++9830 B9             CP C
 906++9831 C8             RET Z
 907++9832 FE 11          CP #11
 908++9834 38 05          JR C,L9149_63
 909++9836 FE 16          CP #16
 910++9838 DC 26 A2       CALL C,L9B7C_76
 911++983B              L9149_63:
 912++983B FE 01          CP #01
 913++983D CC C1 70       CALL Z,L6011_242
 914++9840 C9             RET
 915++9841              ; Найти дубликат 32-байтовой сигнатуры среди 512-байтовых заголовков плагинов.
 916++9841              PDCHECK:
 917++9841              L9149_64:
 918++9841 21 A5 C0       LD HL,#C0A5
 919++9844              L9149_65:
 920++9844 ED 4B 18 7F    LD BC,(#7F18)
 921++9848 B7             OR A
 922++9849 ED 42          SBC HL,BC
 923++984B D0             RET NC
 924++984C 09             ADD HL,BC
 925++984D E5             PUSH HL
 926++984E 11 A5 B0       LD DE,#B0A5
 927++9851 06 20          LD B,#20
 928++9853              L9149_66:
 929++9853 1A             LD A,(DE)
 930++9854 BE             CP (HL)
 931++9855 20 07          JR NZ,L9149_67
 932++9857 23             INC HL
 933++9858 13             INC DE
 934++9859 10 F8          DJNZ L9149_66
 935++985B E1             POP HL
 936++985C 37             SCF
 937++985D C9             RET
 938++985E              L9149_67:
 939++985E E1             POP HL
 940++985F 01 00 02       LD BC,#0200
 941++9862 09             ADD HL,BC
 942++9863 18 DF          JR L9149_65
 943++9865              L9149_68:
 944++9865 3E 60          LD A,#60
 945++9867 CD C1 68       CALL L6011_114
 946++986A 21 00 C0       LD HL,LC000
 947++986D 22 18 7F       LD (#7F18),HL
 948++9870 06 00          LD B,#00
 949++9872 CD 99 69       CALL L6011_129
 950++9875 AF             XOR A
 951++9876 32 15 7F       LD (#7F15),A
 952++9879 32 16 7F       LD (#7F16),A
 953++987C C9             RET
 954++987D              L9149_69:
 955++987D BE             CP (HL)
 956++987E C0             RET NZ
 957++987F 2B             DEC HL
 958++9880 10 FB          DJNZ L9149_69
 959++9882 C9             RET
 960++9883              L9149_70:
 961++9883 21 01 B0       LD HL,#B001
 962++9886 06 0A          LD B,#0A
 963++9888 CD 99 69       CALL L6011_129
 964++988B D9             EXX
 965++988C 21 01 B0       LD HL,#B001
 966++988F D9             EXX
 967++9890 11 04 B1       LD DE,#B104
 968++9893              L9149_71:
 969++9893 21 00 B2       LD HL,#B200
 970++9896 7E             LD A,(HL)
 971++9897 B7             OR A
 972++9898 C8             RET Z
 973++9899 ED 53 00 99    LD (#9900),DE
 974++989D 1A             LD A,(DE)
 975++989E 32 FD 98       LD (#98FD),A
 976++98A1 13             INC DE
 977++98A2 B7             OR A
 978++98A3 C8             RET Z
 979++98A4 FE FC          CP #FC
 980++98A6 D0             RET NC
 981++98A7 1A             LD A,(DE)
 982++98A8 32 F2 98       LD (#98F2),A
 983++98AB 13             INC DE
 984++98AC 21 00 B4       LD HL,#B400
 985++98AF 36 2D          LD (HL),#2D
 986++98B1 23             INC HL
 987++98B2 06 20          LD B,#20
 988++98B4              L9149_72:
 989++98B4 1A             LD A,(DE)
 990++98B5 FE 0B          CP #0B
 991++98B7 38 06          JR C,L9149_73
 992++98B9 77             LD (HL),A
 993++98BA 23             INC HL
 994++98BB 13             INC DE
 995++98BC 10 F6          DJNZ L9149_72
 996++98BE C9             RET
 997++98BF              L9149_73:
 998++98BF B7             OR A
 999++98C0 C8             RET Z
1000++98C1 08             EX AF,AF'
1001++98C2 78             LD A,B
1002++98C3 FE 20          CP #20
1003++98C5 C8             RET Z
1004++98C6 08             EX AF,AF'
1005++98C7 36 FF          LD (HL),#FF
1006++98C9 32 DC 98       LD (#98DC),A
1007++98CC 13             INC DE
1008++98CD D5             PUSH DE
1009++98CE 21 00 B4       LD HL,#B400
1010++98D1 11 00 B2       LD DE,#B200
1011++98D4 CD C9 9D       CALL L9B7C_23
1012++98D7 D1             POP DE
1013++98D8 28 17          JR Z,L9149_75
1014++98DA 01 00 00       LD BC,#0000
1015++98DD 7E             LD A,(HL)
1016++98DE B7             OR A
1017++98DF C8             RET Z
1018++98E0 FE 3D          CP #3D
1019++98E2 20 01          JR NZ,L9149_74
1020++98E4 23             INC HL
1021++98E5              L9149_74:
1022++98E5 C5             PUSH BC
1023++98E6 CD 08 A3       CALL L9B7C_91
1024++98E9 C1             POP BC
1025++98EA 03             INC BC
1026++98EB 28 06          JR Z,L9149_76
1027++98ED 1B             DEC DE
1028++98EE 1B             DEC DE
1029++98EF 10 F4          DJNZ L9149_74
1030++98F1              L9149_75:
1031++98F1 0E 00          LD C,#00
1032++98F3              L9149_76:
1033++98F3 79             LD A,C
1034++98F4 D9             EXX
1035++98F5 77             LD (HL),A
1036++98F6 23             INC HL
1037++98F7 7D             LD A,L
1038++98F8 D9             EXX
1039++98F9 FE 0C          CP #0C
1040++98FB D0             RET NC
1041++98FC 21 00 00       LD HL,#0000
1042++98FF 11 00 00       LD DE,#0000
1043++9902 19             ADD HL,DE
1044++9903 EB             EX DE,HL
1045++9904 18 8D          JR L9149_71
1046++9906              ; Построить меню загруженных плагинов из списка PHED и показать F11WND.
1047++9906              F11MENU:
1048++9906              L9149_77:
1049++9906 DD E5          PUSH IX
1050++9908              L9149_78:
1051++9908 3A 19 7F       LD A,(#7F19)
1052++990B FE C2          CP #C2
1053++990D DA A3 99       JP C,L9149_83
1054++9910 3E 60          LD A,#60
1055++9912 CD C1 68       CALL L6011_114
1056++9915 21 A5 C0       LD HL,#C0A5
1057++9918 11 00 B0       LD DE,#B000
1058++991B              L9149_79:
1059++991B 01 20 00       LD BC,#0020
1060++991E ED B0          LDIR
1061++9920 01 E0 01       LD BC,#01E0
1062++9923 09             ADD HL,BC
1063++9924 3A 19 7F       LD A,(#7F19)
1064++9927 BC             CP H
1065++9928 20 F1          JR NZ,L9149_79
1066++992A EB             EX DE,HL
1067++992B 01 00 50       LD BC,#5000
1068++992E 09             ADD HL,BC
1069++992F CB 3C          SRL H
1070++9931 CB 1D          RR L
1071++9933 CB 3C          SRL H
1072++9935 CB 1D          RR L
1073++9937 CB 3C          SRL H
1074++9939 CB 1D          RR L
1075++993B CB 3C          SRL H
1076++993D CB 1D          RR L
1077++993F CB 3C          SRL H
1078++9941 CB 1D          RR L
1079++9943 7D             LD A,L
1080++9944 DD 21 36 80    LD IX,#8036
1081++9948 F5             PUSH AF
1082++9949 DD 77 0D       LD (IX+#0D),A
1083++994C C6 02          ADD A,#02
1084++994E DD 77 05       LD (IX+#05),A
1085++9951 CD 2C 79       CALL #792C
1086++9954 C1             POP BC
1087++9955 21 00 B0       LD HL,#B000
1088++9958 11 01 01       LD DE,#0101
1089++995B              L9149_80:
1090++995B C5             PUSH BC
1091++995C E5             PUSH HL
1092++995D D5             PUSH DE
1093++995E 01 20 00       LD BC,#0020
1094++9961 CD 25 7D       CALL L7828_72
1095++9964 D1             POP DE
1096++9965 E1             POP HL
1097++9966 01 20 00       LD BC,#0020
1098++9969 09             ADD HL,BC
1099++996A 14             INC D
1100++996B C1             POP BC
1101++996C 10 ED          DJNZ L9149_80
1102++996E              L9149_81:
1103++996E FB             EI
1104++996F 76             HALT
1105++9970 CD D5 7C       CALL L7828_67
1106++9973 CD 53 74       CALL L7143_49
1107++9976 C4 8E 62       CALL NZ,L6011_26
1108++9979 CD 59 74       CALL L7143_50
1109++997C C4 85 62       CALL NZ,L6011_25
1110++997F CD 5F 74       CALL L7143_51
1111++9982 C4 96 62       CALL NZ,L6011_27
1112++9985 CD 65 74       CALL L7143_52
1113++9988 C4 9F 62       CALL NZ,L6011_28
1114++998B CD 90 74       CALL L7143_60
1115++998E C4 F8 99       CALL NZ,L9149_87
1116++9991 C2 08 99       JP NZ,L9149_78
1117++9994 CD 9A 74       CALL L7143_62
1118++9997 20 07          JR NZ,L9149_82
1119++9999 CD 77 74       CALL L7143_55
1120++999C 20 08          JR NZ,L9149_84
1121++999E 18 CE          JR L9149_81
1122++99A0              L9149_82:
1123++99A0 CD CE 7A       CALL L7828_38
1124++99A3              L9149_83:
1125++99A3 DD E1          POP IX
1126++99A5 C9             RET
1127++99A6              ; Выполнить выбранный пункт меню плагинов и перенести его заголовок в LOBU.
1128++99A6              PSEXE:
1129++99A6              L9149_84:
1130++99A6 3E 60          LD A,#60
1131++99A8 CD C1 68       CALL L6011_114
1132++99AB DD 7E 0C       LD A,(IX+#0C)
1133++99AE 3D             DEC A
1134++99AF 26 00          LD H,#00
1135++99B1 6F             LD L,A
1136++99B2 29             ADD HL,HL
1137++99B3 29             ADD HL,HL
1138++99B4 29             ADD HL,HL
1139++99B5 29             ADD HL,HL
1140++99B6 29             ADD HL,HL
1141++99B7 29             ADD HL,HL
1142++99B8 29             ADD HL,HL
1143++99B9 29             ADD HL,HL
1144++99BA 29             ADD HL,HL
1145++99BB 01 00 C0       LD BC,LC000
1146++99BE 09             ADD HL,BC
1147++99BF 11 00 B0       LD DE,#B000
1148++99C2 01 00 02       LD BC,#0200
1149++99C5 ED B0          LDIR
1150++99C7 CD CE 7A       CALL L7828_38
1151++99CA DD E1          POP IX
1152++99CC 3A C5 B0       LD A,(#B0C5)
1153++99CF FE 11          CP #11
1154++99D1 28 14          JR Z,L9149_85
1155++99D3 FE 13          CP #13
1156++99D5 28 10          JR Z,L9149_85
1157++99D7 FE 15          CP #15
1158++99D9 28 0C          JR Z,L9149_85
1159++99DB FE 05          CP #05
1160++99DD 28 08          JR Z,L9149_85
1161++99DF FE 02          CP #02
1162++99E1 28 04          JR Z,L9149_85
1163++99E3 FE 03          CP #03
1164++99E5 20 0B          JR NZ,L9149_86
1165++99E7              L9149_85:
1166++99E7 3E 03          LD A,#03
1167++99E9 CD C3 70       CALL L6011_243
1168++99EC FE 03          CP #03
1169++99EE CC 39 8D       CALL Z,L8531_94
1170++99F1 C9             RET
1171++99F2              L9149_86:
1172++99F2 21 7D 83       LD HL,#837D
1173++99F5 C3 DE 90       JP L8531_149
1174++99F8              L9149_87:
1175++99F8 21 99 81       LD HL,#8199
1176++99FB 11 00 01       LD DE,#0100
1177++99FE CD 2F 90       CALL L8531_138
1178++9A01 C8             RET Z
1179++9A02 CD 1D 9A       CALL L9149_88
1180++9A05 DD 7E 0C       LD A,(IX+#0C)
1181++9A08 67             LD H,A
1182++9A09 2E 00          LD L,#00
1183++9A0B 29             ADD HL,HL
1184++9A0C 01 00 C0       LD BC,LC000
1185++9A0F 09             ADD HL,BC
1186++9A10 CD 2F 9A       CALL L9149_89
1187++9A13 CD CE 7A       CALL L7828_38
1188++9A16 3E 01          LD A,#01
1189++9A18 DD 77 0C       LD (IX+#0C),A
1190++9A1B B7             OR A
1191++9A1C C9             RET
1192++9A1D              ; Инициализировать каталог и список заголовков плагинов.
1193++9A1D              PLGDINI:
1194++9A1D              L9149_88:
1195++9A1D 3E 60          LD A,#60
1196++9A1F CD C1 68       CALL L6011_114
1197++9A22 21 00 00       LD HL,#0000
1198++9A25 11 01 00       LD DE,#0001
1199++9A28 01 FF 01       LD BC,#01FF
1200++9A2B 75             LD (HL),L
1201++9A2C ED B0          LDIR
1202++9A2E C9             RET
1203++9A2F              ; Удалить заголовок плагина и уплотнить оставшийся список.
1204++9A2F              PLGDEL:
1205++9A2F              L9149_89:
1206++9A2F 54             LD D,H
1207++9A30 5D             LD E,L
1208++9A31 15             DEC D
1209++9A32 15             DEC D
1210++9A33 1A             LD A,(DE)
1211++9A34 D5             PUSH DE
1212++9A35 E5             PUSH HL
1213++9A36 21 00 00       LD HL,#0000
1214++9A39 ED 52          SBC HL,DE
1215++9A3B 44             LD B,H
1216++9A3C 4D             LD C,L
1217++9A3D E1             POP HL
1218++9A3E ED B0          LDIR
1219++9A40 2A 18 7F       LD HL,(#7F18)
1220++9A43 01 00 FE       LD BC,#FE00
1221++9A46 09             ADD HL,BC
1222++9A47 22 18 7F       LD (#7F18),HL
1223++9A4A E1             POP HL
1224++9A4B CD 53 9A       CALL L9149_90
1225++9A4E 79             LD A,C
1226++9A4F 32 16 7F       LD (#7F16),A
1227++9A52 C9             RET
1228++9A53              L9149_90:
1229++9A53 4F             LD C,A
1230++9A54              ; Перенумеровать страницы плагина. A — исходная страница, C — новая,
1231++9A54              ; B — количество страниц.
1232++9A54              PSMOVE:
1233++9A54              L9149_91:
1234++9A54 ED 5B 18 7F    LD DE,(#7F18)
1235++9A58 B7             OR A
1236++9A59 ED 52          SBC HL,DE
1237++9A5B D0             RET NC
1238++9A5C 19             ADD HL,DE
1239++9A5D 7E             LD A,(HL)
1240++9A5E 71             LD (HL),C
1241++9A5F E5             PUSH HL
1242++9A60 11 22 00       LD DE,#0022
1243++9A63 19             ADD HL,DE
1244++9A64 46             LD B,(HL)
1245++9A65 CD 6F 9A       CALL L9149_92
1246++9A68 E1             POP HL
1247++9A69 11 00 02       LD DE,#0200
1248++9A6C 19             ADD HL,DE
1249++9A6D 18 E5          JR L9149_91
1250++9A6F              ; Скопировать страницы плагина механизмом DMA.
1251++9A6F              PSMDMA:
1252++9A6F              L9149_92:
1253++9A6F C6 61          ADD A,#61
1254++9A71 5F             LD E,A
1255++9A72 79             LD A,C
1256++9A73 C6 61          ADD A,#61
1257++9A75 57             LD D,A
1258++9A76              L9149_93:
1259++9A76 CD 7C 9A       CALL L9149_94
1260++9A79 10 FB          DJNZ L9149_93
1261++9A7B C9             RET
1262++9A7C              L9149_94:
1263++9A7C C5             PUSH BC
1264++9A7D 21 00 00       LD HL,#0000
1265++9A80 01 AF 27       LD BC,#27AF
1266++9A83              L9149_95:
1267++9A83 ED 70          DB #ED,#70
1268++9A85 FA 83 9A       JP M,L9149_95
1269++9A88 06 1A          LD B,#1A
1270++9A8A ED 69          OUT (C),L
1271++9A8C 06 1B          LD B,#1B
1272++9A8E ED 61          OUT (C),H
1273++9A90 06 1C          LD B,#1C
1274++9A92 ED 59          OUT (C),E
1275++9A94 06 1D          LD B,#1D
1276++9A96 ED 69          OUT (C),L
1277++9A98 06 1E          LD B,#1E
1278++9A9A ED 61          OUT (C),H
1279++9A9C 06 1F          LD B,#1F
1280++9A9E ED 51          OUT (C),D
1281++9AA0 06 28          LD B,#28
1282++9AA2 3E 1F          LD A,#1F
1283++9AA4 ED 79          OUT (C),A
1284++9AA6 06 26          LD B,#26
1285++9AA8 3E FF          LD A,#FF
1286++9AAA ED 79          OUT (C),A
1287++9AAC 06 27          LD B,#27
1288++9AAE 3E 01          LD A,#01
1289++9AB0 ED 79          OUT (C),A
1290++9AB2 06 27          LD B,#27
1291++9AB4              L9149_96:
1292++9AB4 ED 70          DB #ED,#70
1293++9AB6 FA B4 9A       JP M,L9149_96
1294++9AB9 C1             POP BC
1295++9ABA 0C             INC C
1296++9ABB 14             INC D
1297++9ABC 1C             INC E
1298++9ABD C9             RET
1299++9ABE              ; Найти плагин для расширения текущего файла и режима F3/Enter.
1300++9ABE              ; При успехе сохранить активный заголовок в PHEP.
1301++9ABE              GOPLG:
1302++9ABE              L9149_97:
1303++9ABE 3E 60          LD A,#60
1304++9AC0 CD C1 68       CALL L6011_114
1305++9AC3 11 40 BE       LD DE,#BE40
1306++9AC6              L9149_98:
1307++9AC6 2A 18 7F       LD HL,(#7F18)
1308++9AC9 B7             OR A
1309++9ACA ED 52          SBC HL,DE
1310++9ACC 38 65          JR C,L9149_103
1311++9ACE 21 FF 01       LD HL,#01FF
1312++9AD1 19             ADD HL,DE
1313++9AD2 7E             LD A,(HL)
1314++9AD3 23             INC HL
1315++9AD4 EB             EX DE,HL
1316++9AD5 B7             OR A
1317++9AD6 28 0C          JR Z,L9149_99
1318++9AD8 CB 3F          SRL A
1319++9ADA E6 01          AND #01
1320++9ADC 2A 17 60       LD HL,(#6017)
1321++9ADF BD             CP L
1322++9AE0 28 02          JR Z,L9149_99
1323++9AE2 18 E2          JR L9149_98
1324++9AE4              ; Совместимый путь подготовки найденного заголовка и 256-байтового окружения.
1325++9AE4              OLDPLG:
1326++9AE4              L9149_99:
1327++9AE4 21 73 7F       LD HL,#7F73
1328++9AE7 D5             PUSH DE
1329++9AE8 CD A8 92       CALL L9149_19
1330++9AEB EB             EX DE,HL
1331++9AEC D1             POP DE
1332++9AED 28 D7          JR Z,L9149_98
1333++9AEF 37             SCF
1334++9AF0 ED 52          SBC HL,DE
1335++9AF2 7D             LD A,L
1336++9AF3 0E FF          LD C,#FF
1337++9AF5              L9149_100:
1338++9AF5 0C             INC C
1339++9AF6 D6 03          SUB #03
1340++9AF8 20 FB          JR NZ,L9149_100
1341++9AFA 79             LD A,C
1342++9AFB 32 07 71       LD (#7107),A
1343++9AFE 01 C0 FF       LD BC,#FFC0
1344++9B01              L9149_101:
1345++9B01 EB             EX DE,HL
1346++9B02 09             ADD HL,BC
1347++9B03 22 1A 7F       LD (#7F1A),HL
1348++9B06 11 00 B0       LD DE,#B000
1349++9B09 01 00 01       LD BC,#0100
1350++9B0C ED B0          LDIR
1351++9B0E ED 4B 2C 7F    LD BC,(#7F2C)
1352++9B12 ED 5B 2E 7F    LD DE,(#7F2E)
1353++9B16 2A A3 B0       LD HL,(#B0A3)
1354++9B19 B7             OR A
1355++9B1A ED 52          SBC HL,DE
1356++9B1C 38 15          JR C,L9149_103
1357++9B1E 20 08          JR NZ,L9149_102
1358++9B20 2A A1 B0       LD HL,(#B0A1)
1359++9B23 B7             OR A
1360++9B24 ED 42          SBC HL,BC
1361++9B26 38 0B          JR C,L9149_103
1362++9B28              L9149_102:
1363++9B28 CD 9D 70       CALL L6011_240
1364++9B2B FE 03          CP #03
1365++9B2D CC 39 8D       CALL Z,L8531_94
1366++9B30 FB             EI
1367++9B31 76             HALT
1368++9B32 C9             RET
1369++9B33              L9149_103:
1370++9B33 3E 01          LD A,#01
1371++9B35 C9             RET
1372++9B36              L9149_104:
1373++9B36 3E 60          LD A,#60
1374++9B38 CD C1 68       CALL L6011_114
1375++9B3B 21 C5 C0       LD HL,#C0C5
1376++9B3E ED 5B 18 7F    LD DE,(#7F18)
1377++9B42 01 00 02       LD BC,#0200
1378++9B45              L9149_105:
1379++9B45 B7             OR A
1380++9B46 ED 52          SBC HL,DE
1381++9B48 30 16          JR NC,L9149_106
1382++9B4A 19             ADD HL,DE
1383++9B4B 7E             LD A,(HL)
1384++9B4C 09             ADD HL,BC
1385++9B4D FE 02          CP #02
1386++9B4F 20 F4          JR NZ,L9149_105
1387++9B51 01 3B FD       LD BC,#FD3B
1388++9B54 09             ADD HL,BC
1389++9B55 11 00 B0       LD DE,#B000
1390++9B58 01 00 01       LD BC,#0100
1391++9B5B ED B0          LDIR
1392++9B5D CD C3 70       CALL L6011_243
1393++9B60              L9149_106:
1394++9B60 21 00 00       LD HL,#0000
1395++9B63 18 13          JR L9149_108
1396++9B65              ; Таймер бездействия. При отсутствии клавиш увеличивает TABTM; после достижения
1397++9B65              ; AFTM запускает резидентный плагин типа 2 — экранную заставку.
1398++9B65              TMAFK:
1399++9B65              L9149_107:
1400++9B65 CD 43 71       CALL L7143
1401++9B68 20 F6          JR NZ,L9149_106
1402++9B6A 2A 5C 7F       LD HL,(#7F5C)
1403++9B6D 23             INC HL
1404++9B6E ED 5B 5E 7F    LD DE,(#7F5E)
1405++9B72 B7             OR A
1406++9B73 ED 52          SBC HL,DE
1407++9B75 30 BF          JR NC,L9149_104
1408++9B77 19             ADD HL,DE
1409++9B78              L9149_108:
1410++9B78 22 5C 7F       LD (#7F5C),HL
1411++9B7B C9             RET
1412++9B7C
# file closed: WCVW_DISASM.ASM
  41+ 9B7C                      ASSERT $ == #9B7C, нарушена граница WCVW_DISASM.ASM
  42+ 9B7C
  43+ 9B7C                      INCLUDE "WCINI_DISASM.ASM"
# file opened: WCINI_DISASM.ASM
   1++9B7C              ; WCINI — диалог настройки, загрузка, разбор и сохранение wc.ini.
   2++9B7C              ; Exact-диапазон: #9B7C..#AB9E.
   3++9B7C              ; Основные процедуры и таблицы:
   4++9B7C              ;   #9B7C F9STP   — открыть диалог настройки и его кадровый цикл;
   5++9B7C              ;   #9D11 MINI    — сохранить wc.ini; #9D1B GINI — сформировать его текст;
   6++9B7C              ;   #9DE7 PRCONF  — вывести варианты параметра;
   7++9B7C              ;   #9E44 CURVA   — перенести рабочие параметры в диалог;
   8++9B7C              ;   #9EB2 PATH    — восстановить пути и позиции обеих панелей;
   9++9B7C              ;   #A0CE FINI    — главный вход инициализации WC;
  10++9B7C              ;   #A13E VDAC    — подготовить видеорежим, память и DMA;
  11++9B7C              ;   #A1E0 GEDZ    — построить начальный экран;
  12++9B7C              ;   #A243 LINI    — найти каталог wc и файл wc.ini;
  13++9B7C              ;   #A285 INILOAD — проверить заголовок и загрузить текст INI;
  14++9B7C              ;   #A2E3 PARSING — разобрать секции INI;
  15++9B7C              ;   #A329 SUPL    — загрузить плагины из секции [PLUGINS];
  16++9B7C              ;   #A4F4 SORT    — сортировать панель;
  17++9B7C              ;   #AAA2 STARTU  — таблица имён секций и обработчиков;
  18++9B7C              ;   #AB93 PLresCP — установить шлюз резидентного кода.
  19++9B7C              ; Открыть диалог настройки по F9, нарисовать его окна и войти
  20++9B7C              ; в кадровый цикл обработки параметров.
  21++9B7C              F9STP:
  22++9B7C              L9B7C:
  23++9B7C DD E5          PUSH IX
  24++9B7E CD 44 9E       CALL L9B7C_32
  25++9B81 DD 21 40 A7    LD IX,#A740
  26++9B85 CD 2C 79       CALL #792C
  27++9B88 DD E5          PUSH IX
  28++9B8A DD 21 56 A7    LD IX,#A756
  29++9B8E CD 2C 79       CALL #792C
  30++9B91 DD E1          POP IX
  31++9B93 21 6A A8       LD HL,#A86A
  32++9B96 11 00 07       LD DE,#0700
  33++9B99 CD 81 7D       CALL L7828_80
  34++9B9C 21 77 A8       LD HL,#A877
  35++9B9F 11 00 0B       LD DE,#0B00
  36++9BA2 CD 81 7D       CALL L7828_80
  37++9BA5              L9B7C_0:
  38++9BA5 FB             EI
  39++9BA6 76             HALT
  40++9BA7 11 0B A9       LD DE,#A90B
  41++9BAA 3E 00          LD A,#00
  42++9BAC CD E7 9D       CALL L9B7C_26
  43++9BAF 11 7E A9       LD DE,#A97E
  44++9BB2 3E 07          LD A,#07
  45++9BB4 CD E7 9D       CALL L9B7C_26
  46++9BB7 11 AC A9       LD DE,#A9AC
  47++9BBA 3E 0B          LD A,#0B
  48++9BBC CD E7 9D       CALL L9B7C_26
  49++9BBF CD D5 7C       CALL L7828_67
  50++9BC2 CD 9A 74       CALL L7143_62
  51++9BC5 20 14          JR NZ,L9B7C_1
  52++9BC7 CD 53 74       CALL L7143_49
  53++9BCA C4 EC 9B       CALL NZ,L9B7C_2
  54++9BCD CD 59 74       CALL L7143_50
  55++9BD0 C4 0C 9C       CALL NZ,L9B7C_6
  56++9BD3 CD 77 74       CALL L7143_55
  57++9BD6 C4 3C 9C       CALL NZ,L9B7C_12
  58++9BD9 28 CA          JR Z,L9B7C_0
  59++9BDB              L9B7C_1:
  60++9BDB DD 21 56 A7    LD IX,#A756
  61++9BDF CD CE 7A       CALL L7828_38
  62++9BE2 DD 21 40 A7    LD IX,#A740
  63++9BE6 CD CE 7A       CALL L7828_38
  64++9BE9 DD E1          POP IX
  65++9BEB C9             RET
  66++9BEC              L9B7C_2:
  67++9BEC CD F2 7C       CALL L7828_69
  68++9BEF DD 7E 0C       LD A,(IX+#0C)
  69++9BF2 FE 08          CP #08
  70++9BF4 28 11          JR Z,L9B7C_5
  71++9BF6 FE 0C          CP #0C
  72++9BF8 28 0D          JR Z,L9B7C_5
  73++9BFA FE 11          CP #11
  74++9BFC 28 06          JR Z,L9B7C_4
  75++9BFE              L9B7C_3:
  76++9BFE CD D5 7C       CALL L7828_67
  77++9C01 C3 8E 62       JP L6011_26
  78++9C04              L9B7C_4:
  79++9C04 DD 35 0C       DEC (IX+#0C)
  80++9C07              L9B7C_5:
  81++9C07 DD 35 0C       DEC (IX+#0C)
  82++9C0A 18 F2          JR L9B7C_3
  83++9C0C              L9B7C_6:
  84++9C0C CD F2 7C       CALL L7828_69
  85++9C0F DD 7E 0C       LD A,(IX+#0C)
  86++9C12 FE 06          CP #06
  87++9C14 28 11          JR Z,L9B7C_9
  88++9C16 FE 0A          CP #0A
  89++9C18 28 0D          JR Z,L9B7C_9
  90++9C1A FE 0E          CP #0E
  91++9C1C 28 06          JR Z,L9B7C_8
  92++9C1E              L9B7C_7:
  93++9C1E CD D5 7C       CALL L7828_67
  94++9C21 C3 85 62       JP L6011_25
  95++9C24              L9B7C_8:
  96++9C24 DD 34 0C       INC (IX+#0C)
  97++9C27              L9B7C_9:
  98++9C27 DD 34 0C       INC (IX+#0C)
  99++9C2A 18 F2          JR L9B7C_7
 100++9C2C              L9B7C_10:
 101++9C2C 44             LD B,H
 102++9C2D 4D             LD C,L
 103++9C2E 7E             LD A,(HL)
 104++9C2F 23             INC HL
 105++9C30 5E             LD E,(HL)
 106++9C31 23             INC HL
 107++9C32 56             LD D,(HL)
 108++9C33 EB             EX DE,HL
 109++9C34 3C             INC A
 110++9C35 BE             CP (HL)
 111++9C36 38 01          JR C,L9B7C_11
 112++9C38 AF             XOR A
 113++9C39              L9B7C_11:
 114++9C39 02             LD (BC),A
 115++9C3A AF             XOR A
 116++9C3B C9             RET
 117++9C3C              L9B7C_12:
 118++9C3C DD 7E 0C       LD A,(IX+#0C)
 119++9C3F 21 0B A9       LD HL,#A90B
 120++9C42 FE 01          CP #01
 121++9C44 28 E6          JR Z,L9B7C_10
 122++9C46 21 1E A9       LD HL,#A91E
 123++9C49 FE 02          CP #02
 124++9C4B 28 DF          JR Z,L9B7C_10
 125++9C4D 21 31 A9       LD HL,L9B7C_180
 126++9C50 FE 03          CP #03
 127++9C52 28 D8          JR Z,L9B7C_10
 128++9C54 21 44 A9       LD HL,#A944
 129++9C57 FE 04          CP #04
 130++9C59 28 D1          JR Z,L9B7C_10
 131++9C5B 21 57 A9       LD HL,#A957
 132++9C5E FE 05          CP #05
 133++9C60 28 CA          JR Z,L9B7C_10
 134++9C62 21 6A A9       LD HL,L9B7C_183
 135++9C65 FE 06          CP #06
 136++9C67 28 C3          JR Z,L9B7C_10
 137++9C69 21 7E A9       LD HL,#A97E
 138++9C6C FE 08          CP #08
 139++9C6E 28 BC          JR Z,L9B7C_10
 140++9C70 21 8D A9       LD HL,#A98D
 141++9C73 FE 09          CP #09
 142++9C75 28 B5          JR Z,L9B7C_10
 143++9C77 21 9C A9       LD HL,#A99C
 144++9C7A FE 0A          CP #0A
 145++9C7C 28 AE          JR Z,L9B7C_10
 146++9C7E 21 AC A9       LD HL,#A9AC
 147++9C81 FE 0C          CP #0C
 148++9C83 28 A7          JR Z,L9B7C_10
 149++9C85 21 BB A9       LD HL,#A9BB
 150++9C88 FE 0D          CP #0D
 151++9C8A 28 A0          JR Z,L9B7C_10
 152++9C8C 21 CA A9       LD HL,#A9CA
 153++9C8F FE 0E          CP #0E
 154++9C91 28 99          JR Z,L9B7C_10
 155++9C93 3A 00 60       LD A,(#6000)
 156++9C96 32 0B 60       LD (#600B),A
 157++9C99 CD 43 A2       CALL L9B7C_78
 158++9C9C CD 1B 9D       CALL L9B7C_20
 159++9C9F B7             OR A
 160++9CA0 28 6F          JR Z,L9B7C_19
 161++9CA2 3D             DEC A
 162++9CA3 28 09          JR Z,L9B7C_13
 163++9CA5 3D             DEC A
 164++9CA6 28 31          JR Z,L9B7C_16
 165++9CA8 3D             DEC A
 166++9CA9 28 41          JR Z,L9B7C_17
 167++9CAB 3D             DEC A
 168++9CAC 28 63          JR Z,L9B7C_19
 169++9CAE              L9B7C_13:
 170++9CAE 21 97 A8       LD HL,L9B7C_172
 171++9CB1 11 13 01       LD DE,#0113
 172++9CB4 01 1A 00       LD BC,#001A
 173++9CB7 CD DE 90       CALL L8531_149
 174++9CBA 18 14          JR L9B7C_15
 175++9CBC              L9B7C_14:
 176++9CBC DD E5          PUSH IX
 177++9CBE DD 21 68 A7    LD IX,#A768
 178++9CC2 CD 2C 79       CALL #792C
 179++9CC5 CD 4B 74       CALL L7143_48
 180++9CC8 CD 43 74       CALL L7143_47
 181++9CCB CD CE 7A       CALL L7828_38
 182++9CCE DD E1          POP IX
 183++9CD0              L9B7C_15:
 184++9CD0 3A 0B 60       LD A,(#600B)
 185++9CD3 CD 9C 68       CALL L6011_108
 186++9CD6 AF             XOR A
 187++9CD7 3C             INC A
 188++9CD8 C9             RET
 189++9CD9              L9B7C_16:
 190++9CD9 21 AC 7F       LD HL,#7FAC
 191++9CDC CD 7B 6F       CALL L6011_231
 192++9CDF 20 DB          JR NZ,L9B7C_14
 193++9CE1 21 AB 7F       LD HL,#7FAB
 194++9CE4 CD 2C 6F       CALL L6011_226
 195++9CE7 28 D3          JR Z,L9B7C_14
 196++9CE9 CD 58 6F       CALL L6011_229
 197++9CEC              L9B7C_17:
 198++9CEC 21 00 10       LD HL,#1000
 199++9CEF 11 00 B0       LD DE,#B000
 200++9CF2 01 00 10       LD BC,#1000
 201++9CF5 ED B0          LDIR
 202++9CF7 21 B6 A7       LD HL,#A7B6
 203++9CFA CD 5E 6F       CALL L6011_230
 204++9CFD 20 BD          JR NZ,L9B7C_14
 205++9CFF 21 00 B0       LD HL,#B000
 206++9D02 3A B8 A7       LD A,(#A7B8)
 207++9D05 CB 3F          SRL A
 208++9D07 B7             OR A
 209++9D08 20 01          JR NZ,L9B7C_18
 210++9D0A 3C             INC A
 211++9D0B              L9B7C_18:
 212++9D0B 47             LD B,A
 213++9D0C CD 18 40       CALL #4018
 214++9D0F 18 AB          JR L9B7C_14
 215++9D11              ; Сохранить сформированный текст настроек в wc.ini.
 216++9D11              MINI:
 217++9D11              L9B7C_19:
 218++9D11 21 AF 7F       LD HL,#7FAF
 219++9D14 CD 81 6F       CALL L6011_232
 220++9D17 28 A3          JR Z,L9B7C_14
 221++9D19 18 D1          JR L9B7C_17
 222++9D1B              ; Сформировать текст wc.ini из текущих параметров коммандера и панелей.
 223++9D1B              GINI:
 224++9D1B              L9B7C_20:
 225++9D1B F5             PUSH AF
 226++9D1C F5             PUSH AF
 227++9D1D 1E 30          LD E,#30
 228++9D1F 3A 0B A9       LD A,(#A90B)
 229++9D22 83             ADD A,E
 230++9D23 32 D3 A7       LD (#A7D3),A
 231++9D26 3A 1E A9       LD A,(#A91E)
 232++9D29 83             ADD A,E
 233++9D2A 32 DF A7       LD (#A7DF),A
 234++9D2D 3A 31 A9       LD A,(L9B7C_180)
 235++9D30 83             ADD A,E
 236++9D31 32 EE A7       LD (#A7EE),A
 237++9D34 3A 44 A9       LD A,(#A944)
 238++9D37 83             ADD A,E
 239++9D38 32 F9 A7       LD (#A7F9),A
 240++9D3B 3A 57 A9       LD A,(#A957)
 241++9D3E 83             ADD A,E
 242++9D3F 32 07 A8       LD (#A807),A
 243++9D42 3A 6A A9       LD A,(L9B7C_183)
 244++9D45 83             ADD A,E
 245++9D46 32 0E A8       LD (#A80E),A
 246++9D49 3A 7E A9       LD A,(#A97E)
 247++9D4C 83             ADD A,E
 248++9D4D 32 1E A8       LD (#A81E),A
 249++9D50 3A 8D A9       LD A,(#A98D)
 250++9D53 83             ADD A,E
 251++9D54 32 25 A8       LD (#A825),A
 252++9D57 3A 9C A9       LD A,(#A99C)
 253++9D5A 83             ADD A,E
 254++9D5B 32 2D A8       LD (#A82D),A
 255++9D5E 3A AC A9       LD A,(#A9AC)
 256++9D61 83             ADD A,E
 257++9D62 32 3D A8       LD (#A83D),A
 258++9D65 3A BB A9       LD A,(#A9BB)
 259++9D68 83             ADD A,E
 260++9D69 32 44 A8       LD (#A844),A
 261++9D6C 3A CA A9       LD A,(#A9CA)
 262++9D6F 83             ADD A,E
 263++9D70 32 4C A8       LD (#A84C),A
 264++9D73 F1             POP AF
 265++9D74 B7             OR A
 266++9D75 11 00 10       LD DE,#1000
 267++9D78 D5             PUSH DE
 268++9D79 21 40 AB       LD HL,#AB40
 269++9D7C 01 13 00       LD BC,#0013
 270++9D7F ED B0          LDIR
 271++9D81 3E 0D          LD A,#0D
 272++9D83 12             LD (DE),A
 273++9D84 13             INC DE
 274++9D85 12             LD (DE),A
 275++9D86 13             INC DE
 276++9D87 21 C2 A7       LD HL,#A7C2
 277++9D8A 01 4F 00       LD BC,#004F
 278++9D8D ED B0          LDIR
 279++9D8F CC A4 9D       CALL Z,L9B7C_21
 280++9D92 21 11 A8       LD HL,#A811
 281++9D95 01 3E 00       LD BC,#003E
 282++9D98 ED B0          LDIR
 283++9D9A E1             POP HL
 284++9D9B EB             EX DE,HL
 285++9D9C B7             OR A
 286++9D9D ED 52          SBC HL,DE
 287++9D9F 22 B7 A7       LD (#A7B7),HL
 288++9DA2 F1             POP AF
 289++9DA3 C9             RET
 290++9DA4              L9B7C_21:
 291++9DA4 D5             PUSH DE
 292++9DA5 11 00 00       LD DE,#0000
 293++9DA8 21 4F A8       LD HL,#A84F
 294++9DAB CD C9 9D       CALL L9B7C_23
 295++9DAE D1             POP DE
 296++9DAF C8             RET Z
 297++9DB0 E5             PUSH HL
 298++9DB1 21 4F A8       LD HL,#A84F
 299++9DB4 01 09 00       LD BC,#0009
 300++9DB7 ED B0          LDIR
 301++9DB9 E1             POP HL
 302++9DBA              L9B7C_22:
 303++9DBA 7A             LD A,D
 304++9DBB FE 20          CP #20
 305++9DBD D0             RET NC
 306++9DBE 7E             LD A,(HL)
 307++9DBF B7             OR A
 308++9DC0 C8             RET Z
 309++9DC1 FE 5B          CP #5B
 310++9DC3 C8             RET Z
 311++9DC4 12             LD (DE),A
 312++9DC5 23             INC HL
 313++9DC6 13             INC DE
 314++9DC7 18 F1          JR L9B7C_22
 315++9DC9              L9B7C_23:
 316++9DC9 1A             LD A,(DE)
 317++9DCA B7             OR A
 318++9DCB C8             RET Z
 319++9DCC BE             CP (HL)
 320++9DCD 13             INC DE
 321++9DCE 20 F9          JR NZ,L9B7C_23
 322++9DD0 44             LD B,H
 323++9DD1 4D             LD C,L
 324++9DD2              L9B7C_24:
 325++9DD2 23             INC HL
 326++9DD3 7E             LD A,(HL)
 327++9DD4 3C             INC A
 328++9DD5 28 0B          JR Z,L9B7C_25
 329++9DD7 1A             LD A,(DE)
 330++9DD8 B7             OR A
 331++9DD9 C8             RET Z
 332++9DDA BE             CP (HL)
 333++9DDB 13             INC DE
 334++9DDC 28 F4          JR Z,L9B7C_24
 335++9DDE 60             LD H,B
 336++9DDF 69             LD L,C
 337++9DE0 18 E7          JR L9B7C_23
 338++9DE2              L9B7C_25:
 339++9DE2 EB             EX DE,HL
 340++9DE3 3E 01          LD A,#01
 341++9DE5 B7             OR A
 342++9DE6 C9             RET
 343++9DE7              ; Вывести варианты параметра настройки и подсветить выбранное значение.
 344++9DE7              PRCONF:
 345++9DE7              L9B7C_26:
 346++9DE7 32 3F A7       LD (#A73F),A
 347++9DEA              L9B7C_27:
 348++9DEA CD FD 9D       CALL L9B7C_28
 349++9DED C8             RET Z
 350++9DEE D5             PUSH DE
 351++9DEF 57             LD D,A
 352++9DF0 1E 06          LD E,#06
 353++9DF2 CD 25 7D       CALL L7828_72
 354++9DF5 3E 5C          LD A,#5C
 355++9DF7 CD 39 7D       CALL L7828_73
 356++9DFA D1             POP DE
 357++9DFB 18 ED          JR L9B7C_27
 358++9DFD              L9B7C_28:
 359++9DFD 1A             LD A,(DE)
 360++9DFE 3C             INC A
 361++9DFF C8             RET Z
 362++9E00 3D             DEC A
 363++9E01 EB             EX DE,HL
 364++9E02 23             INC HL
 365++9E03 5E             LD E,(HL)
 366++9E04 23             INC HL
 367++9E05 56             LD D,(HL)
 368++9E06 23             INC HL
 369++9E07 F5             PUSH AF
 370++9E08 D5             PUSH DE
 371++9E09 11 A0 5E       LD DE,#5EA0
 372++9E0C CD 3C 9E       CALL L9B7C_31
 373++9E0F 23             INC HL
 374++9E10 C1             POP BC
 375++9E11 F1             POP AF
 376++9E12 E5             PUSH HL
 377++9E13 60             LD H,B
 378++9E14 69             LD L,C
 379++9E15 23             INC HL
 380++9E16 4E             LD C,(HL)
 381++9E17 23             INC HL
 382++9E18 47             LD B,A
 383++9E19 04             INC B
 384++9E1A AF             XOR A
 385++9E1B 91             SUB C
 386++9E1C              L9B7C_29:
 387++9E1C 81             ADD A,C
 388++9E1D 10 FD          DJNZ L9B7C_29
 389++9E1F C5             PUSH BC
 390++9E20 4F             LD C,A
 391++9E21 09             ADD HL,BC
 392++9E22 C1             POP BC
 393++9E23 ED B0          LDIR
 394++9E25 3E 20          LD A,#20
 395++9E27 06 06          LD B,#06
 396++9E29              L9B7C_30:
 397++9E29 12             LD (DE),A
 398++9E2A 13             INC DE
 399++9E2B 10 FC          DJNZ L9B7C_30
 400++9E2D E1             POP HL
 401++9E2E EB             EX DE,HL
 402++9E2F 21 3F A7       LD HL,#A73F
 403++9E32 34             INC (HL)
 404++9E33 7E             LD A,(HL)
 405++9E34 21 A0 5E       LD HL,#5EA0
 406++9E37 01 18 00       LD BC,#0018
 407++9E3A B7             OR A
 408++9E3B C9             RET
 409++9E3C              L9B7C_31:
 410++9E3C 7E             LD A,(HL)
 411++9E3D B7             OR A
 412++9E3E C8             RET Z
 413++9E3F 12             LD (DE),A
 414++9E40 23             INC HL
 415++9E41 13             INC DE
 416++9E42 18 F8          JR L9B7C_31
 417++9E44              ; Перенести текущие параметры панелей, видео и системы в поля диалога F9.
 418++9E44              CURVA:
 419++9E44              L9B7C_32:
 420++9E44 3A 20 7F       LD A,(#7F20)
 421++9E47 FE 03          CP #03
 422++9E49 38 02          JR C,L9B7C_33
 423++9E4B 3E 02          LD A,#02
 424++9E4D              L9B7C_33:
 425++9E4D 32 0B A9       LD (#A90B),A
 426++9E50 3A 1C 7F       LD A,(#7F1C)
 427++9E53 01 00 00       LD BC,#0000
 428++9E56 CB 47          BIT 0,A
 429++9E58 28 01          JR Z,L9B7C_34
 430++9E5A 0C             INC C
 431++9E5B              L9B7C_34:
 432++9E5B CB 4F          BIT 1,A
 433++9E5D 28 01          JR Z,L9B7C_35
 434++9E5F 04             INC B
 435++9E60              L9B7C_35:
 436++9E60 79             LD A,C
 437++9E61 32 1E A9       LD (#A91E),A
 438++9E64 78             LD A,B
 439++9E65 32 31 A9       LD (L9B7C_180),A
 440++9E68 3A A3 7E       LD A,(#7EA3)
 441++9E6B 32 6A A9       LD (L9B7C_183),A
 442++9E6E 3A 0E 60       LD A,(#600E)
 443++9E71 FE 19          CP #19
 444++9E73 06 00          LD B,#00
 445++9E75 28 08          JR Z,L9B7C_36
 446++9E77 FE 1E          CP #1E
 447++9E79 06 01          LD B,#01
 448++9E7B 28 02          JR Z,L9B7C_36
 449++9E7D 06 02          LD B,#02
 450++9E7F              L9B7C_36:
 451++9E7F 78             LD A,B
 452++9E80 32 44 A9       LD (#A944),A
 453++9E83 3A BD 7E       LD A,(#7EBD)
 454++9E86 32 7E A9       LD (#A97E),A
 455++9E89 3A AA 7E       LD A,(#7EAA)
 456++9E8C B7             OR A
 457++9E8D 28 02          JR Z,L9B7C_37
 458++9E8F 3E 01          LD A,#01
 459++9E91              L9B7C_37:
 460++9E91 32 8D A9       LD (#A98D),A
 461++9E94 3A C3 7E       LD A,(#7EC3)
 462++9E97 32 9C A9       LD (#A99C),A
 463++9E9A 3A E1 7E       LD A,(#7EE1)
 464++9E9D 32 AC A9       LD (#A9AC),A
 465++9EA0 3A CE 7E       LD A,(#7ECE)
 466++9EA3 B7             OR A
 467++9EA4 28 02          JR Z,L9B7C_38
 468++9EA6 3E 01          LD A,#01
 469++9EA8              L9B7C_38:
 470++9EA8 32 BB A9       LD (#A9BB),A
 471++9EAB 3A E7 7E       LD A,(#7EE7)
 472++9EAE 32 CA A9       LD (#A9CA),A
 473++9EB1 C9             RET
 474++9EB2              ; Восстановить пути обеих панелей. При LFLT.bit0=0 выполнить обычную
 475++9EB2              ; активацию DRACT/ORIGA; при bit0=1 прочитать сохранённые состояния,
 476++9EB2              ; а LFLT.bit1 дополнительно восстанавливает положение курсора.
 477++9EB2              PATH:
 478++9EB2              L9B7C_39:
 479++9EB2 3A 1C 7F       LD A,(#7F1C)
 480++9EB5 CB 47          BIT 0,A
 481++9EB7 20 15          JR NZ,L9B7C_40
 482++9EB9 DD 21 A0 7E    LD IX,WINDOW
 483++9EBD CD 68 68       CALL L6011_104
 484++9EC0 CD ED 63       CALL L6011_46
 485++9EC3 DD 21 C4 7E    LD IX,#7EC4
 486++9EC7 CD 68 68       CALL L6011_104
 487++9ECA CD ED 63       CALL L6011_46
 488++9ECD C9             RET
 489++9ECE              L9B7C_40:
 490++9ECE DD 21 A0 7E    LD IX,WINDOW
 491++9ED2 21 00 D0       LD HL,#D000
 492++9ED5 CD 62 9F       CALL L9B7C_45
 493++9ED8 DD 21 C4 7E    LD IX,#7EC4
 494++9EDC 21 00 E0       LD HL,#E000
 495++9EDF CD 62 9F       CALL L9B7C_45
 496++9EE2 CD D2 68       CALL L6011_116
 497++9EE5 3A FC DF       LD A,(#DFFC)
 498++9EE8 FE 42          CP #42
 499++9EEA 28 0B          JR Z,L9B7C_41
 500++9EEC FE 41          CP #41
 501++9EEE 20 63          JR NZ,L9B7C_44
 502++9EF0 DD 21 A0 7E    LD IX,WINDOW
 503++9EF4 CD 68 68       CALL L6011_104
 504++9EF7              L9B7C_41:
 505++9EF7 3A 1C 7F       LD A,(#7F1C)
 506++9EFA CB 4F          BIT 1,A
 507++9EFC C8             RET Z
 508++9EFD CD 45 9F       CALL L9B7C_43
 509++9F00 7E             LD A,(HL)
 510++9F01 3C             INC A
 511++9F02 4F             LD C,A
 512++9F03 DD 7E 05       LD A,(IX+#05)
 513++9F06 D6 02          SUB #02
 514++9F08 DD 96 0A       SUB (IX+#0A)
 515++9F0B B9             CP C
 516++9F0C DA BB 65       JP C,L6011_78
 517++9F0F 2B             DEC HL
 518++9F10 5E             LD E,(HL)
 519++9F11 2B             DEC HL
 520++9F12 56             LD D,(HL)
 521++9F13 26 00          LD H,#00
 522++9F15 69             LD L,C
 523++9F16 19             ADD HL,DE
 524++9F17 D5             PUSH DE
 525++9F18 EB             EX DE,HL
 526++9F19 DD 6E 12       LD L,(IX+#12)
 527++9F1C DD 66 13       LD H,(IX+#13)
 528++9F1F B7             OR A
 529++9F20 ED 52          SBC HL,DE
 530++9F22 D1             POP DE
 531++9F23 DA BB 65       JP C,L6011_78
 532++9F26 DD 71 0C       LD (IX+#0C),C
 533++9F29 DD 73 10       LD (IX+#10),E
 534++9F2C DD 72 11       LD (IX+#11),D
 535++9F2F C3 BB 65       JP L6011_78
 536++9F32              L9B7C_42:
 537++9F32 CD 45 9F       CALL L9B7C_43
 538++9F35 DD 7E 0C       LD A,(IX+#0C)
 539++9F38 3D             DEC A
 540++9F39 77             LD (HL),A
 541++9F3A 2B             DEC HL
 542++9F3B DD 7E 10       LD A,(IX+#10)
 543++9F3E 77             LD (HL),A
 544++9F3F 2B             DEC HL
 545++9F40 DD 7E 11       LD A,(IX+#11)
 546++9F43 77             LD (HL),A
 547++9F44 C9             RET
 548++9F45              L9B7C_43:
 549++9F45 CD D2 68       CALL L6011_116
 550++9F48 DD 6E 1E       LD L,(IX+#1E)
 551++9F4B DD 7E 1F       LD A,(IX+#1F)
 552++9F4E C6 C0          ADD A,#C0
 553++9F50 67             LD H,A
 554++9F51 2B             DEC HL
 555++9F52 C9             RET
 556++9F53              L9B7C_44:
 557++9F53 CD 45 9F       CALL L9B7C_43
 558++9F56 AF             XOR A
 559++9F57 77             LD (HL),A
 560++9F58 2B             DEC HL
 561++9F59 77             LD (HL),A
 562++9F5A 2B             DEC HL
 563++9F5B 77             LD (HL),A
 564++9F5C 3E 42          LD A,#42
 565++9F5E 32 FC DF       LD (#DFFC),A
 566++9F61 C9             RET
 567++9F62              L9B7C_45:
 568++9F62 CD D2 68       CALL L6011_116
 569++9F65 4E             LD C,(HL)
 570++9F66 23             INC HL
 571++9F67 7E             LD A,(HL)
 572++9F68 23             INC HL
 573++9F69 FE 3A          CP #3A
 574++9F6B C2 01 A0       JP NZ,L9B7C_51
 575++9F6E 7E             LD A,(HL)
 576++9F6F 23             INC HL
 577++9F70 FE 5C          CP #5C
 578++9F72 C2 01 A0       JP NZ,L9B7C_51
 579++9F75 79             LD A,C
 580++9F76 D6 30          SUB #30
 581++9F78 FE 07          CP #07
 582++9F7A D2 01 A0       JP NC,L9B7C_51
 583++9F7D DD 77 1D       LD (IX+#1D),A
 584++9F80 DD 36 1C 00    LD (IX+#1C),#00
 585++9F84 DD 36 22 01    LD (IX+#22),#01
 586++9F88 F5             PUSH AF
 587++9F89 E5             PUSH HL
 588++9F8A CD 68 68       CALL L6011_104
 589++9F8D CD CD 63       CALL L6011_44
 590++9F90 CD EB 62       CALL L6011_32
 591++9F93 E1             POP HL
 592++9F94 F1             POP AF
 593++9F95 DD 36 22 00    LD (IX+#22),#00
 594++9F99 DD BE 1D       CP (IX+#1D)
 595++9F9C 20 5F          JR NZ,L9B7C_50
 596++9F9E              L9B7C_46:
 597++9F9E CD D2 68       CALL L6011_116
 598++9FA1 7E             LD A,(HL)
 599++9FA2 FE FF          CP #FF
 600++9FA4 28 4A          JR Z,L9B7C_49
 601++9FA6 06 7F          LD B,#7F
 602++9FA8 11 A1 5E       LD DE,#5EA1
 603++9FAB              L9B7C_47:
 604++9FAB 7E             LD A,(HL)
 605++9FAC 23             INC HL
 606++9FAD FE 5C          CP #5C
 607++9FAF 28 06          JR Z,L9B7C_48
 608++9FB1 12             LD (DE),A
 609++9FB2 13             INC DE
 610++9FB3 10 F6          DJNZ L9B7C_47
 611++9FB5 18 46          JR L9B7C_50
 612++9FB7              L9B7C_48:
 613++9FB7 AF             XOR A
 614++9FB8 12             LD (DE),A
 615++9FB9 E5             PUSH HL
 616++9FBA 21 A0 5E       LD HL,#5EA0
 617++9FBD 36 10          LD (HL),#10
 618++9FBF CD 4E 40       CALL #404E
 619++9FC2 22 28 7F       LD (#7F28),HL
 620++9FC5 ED 53 2A 7F    LD (#7F2A),DE
 621++9FC9 E1             POP HL
 622++9FCA 28 31          JR Z,L9B7C_50
 623++9FCC E5             PUSH HL
 624++9FCD 21 28 7F       LD HL,#7F28
 625++9FD0 CD 1E 40       CALL #401E
 626++9FD3 E1             POP HL
 627++9FD4 E5             PUSH HL
 628++9FD5 DD 7E 16       LD A,(IX+#16)
 629++9FD8 CD C1 68       CALL L6011_114
 630++9FDB DD 6E 17       LD L,(IX+#17)
 631++9FDE DD 66 18       LD H,(IX+#18)
 632++9FE1 11 00 C0       LD DE,LC000
 633++9FE4 01 00 00       LD BC,#0000
 634++9FE7 3E 01          LD A,#01
 635++9FE9 CD 72 63       CALL L6011_38
 636++9FEC E1             POP HL
 637++9FED C3 9E 9F       JP L9B7C_46
 638++9FF0              L9B7C_49:
 639++9FF0 11 00 40       LD DE,#4000
 640++9FF3 19             ADD HL,DE
 641++9FF4 DD 75 20       LD (IX+#20),L
 642++9FF7 DD 74 21       LD (IX+#21),H
 643++9FFA C3 F0 63       JP L6011_47
 644++9FFD              L9B7C_50:
 645++9FFD DD 36 1C 00    LD (IX+#1C),#00
 646++A001              L9B7C_51:
 647++A001 CD 53 9F       CALL L9B7C_44
 648++A004 CD 68 68       CALL L6011_104
 649++A007 CD ED 63       CALL L6011_46
 650++A00A C9             RET
 651++A00B              L9B7C_52:
 652++A00B 3E F7          LD A,#F7
 653++A00D CD 9C 68       CALL L6011_108
 654++A010 DD 6E 1E       LD L,(IX+#1E)
 655++A013 DD 66 1F       LD H,(IX+#1F)
 656++A016 2B             DEC HL
 657++A017 AF             XOR A
 658++A018 77             LD (HL),A
 659++A019 2B             DEC HL
 660++A01A 77             LD (HL),A
 661++A01B 2B             DEC HL
 662++A01C 77             LD (HL),A
 663++A01D EB             EX DE,HL
 664++A01E DD 5E 20       LD E,(IX+#20)
 665++A021 DD 56 21       LD D,(IX+#21)
 666++A024 3E 2E          LD A,#2E
 667++A026 BE             CP (HL)
 668++A027 28 1B          JR Z,L9B7C_58
 669++A029              L9B7C_53:
 670++A029 06 FF          LD B,#FF
 671++A02B              L9B7C_54:
 672++A02B 7E             LD A,(HL)
 673++A02C 23             INC HL
 674++A02D B7             OR A
 675++A02E 28 04          JR Z,L9B7C_55
 676++A030 12             LD (DE),A
 677++A031 13             INC DE
 678++A032 10 F7          DJNZ L9B7C_54
 679++A034              L9B7C_55:
 680++A034 3E 5C          LD A,#5C
 681++A036 12             LD (DE),A
 682++A037 13             INC DE
 683++A038              L9B7C_56:
 684++A038 3E FF          LD A,#FF
 685++A03A 12             LD (DE),A
 686++A03B DD 73 20       LD (IX+#20),E
 687++A03E DD 72 21       LD (IX+#21),D
 688++A041              L9B7C_57:
 689++A041 C3 7D 68       JP L6011_105
 690++A044              L9B7C_58:
 691++A044 23             INC HL
 692++A045 BE             CP (HL)
 693++A046 20 18          JR NZ,L9B7C_61
 694++A048 23             INC HL
 695++A049 7E             LD A,(HL)
 696++A04A 2B             DEC HL
 697++A04B B7             OR A
 698++A04C 20 12          JR NZ,L9B7C_61
 699++A04E 06 FF          LD B,#FF
 700++A050 1B             DEC DE
 701++A051              L9B7C_59:
 702++A051 1B             DEC DE
 703++A052 1A             LD A,(DE)
 704++A053 FE 5C          CP #5C
 705++A055 28 06          JR Z,L9B7C_60
 706++A057 FE 3A          CP #3A
 707++A059 28 E6          JR Z,L9B7C_57
 708++A05B 10 F4          DJNZ L9B7C_59
 709++A05D              L9B7C_60:
 710++A05D 13             INC DE
 711++A05E 18 D8          JR L9B7C_56
 712++A060              L9B7C_61:
 713++A060 2B             DEC HL
 714++A061 C3 29 A0       JP L9B7C_53
 715++A064              L9B7C_62:
 716++A064 DD 7E 22       LD A,(IX+#22)
 717++A067 B7             OR A
 718++A068 C0             RET NZ
 719++A069 3E F7          LD A,#F7
 720++A06B CD 9C 68       CALL L6011_108
 721++A06E DD 6E 1E       LD L,(IX+#1E)
 722++A071 DD 66 1F       LD H,(IX+#1F)
 723++A074 DD 7E 1D       LD A,(IX+#1D)
 724++A077 C6 30          ADD A,#30
 725++A079 77             LD (HL),A
 726++A07A 23             INC HL
 727++A07B 36 3A          LD (HL),#3A
 728++A07D 23             INC HL
 729++A07E 36 5C          LD (HL),#5C
 730++A080 23             INC HL
 731++A081 36 FF          LD (HL),#FF
 732++A083 DD 75 20       LD (IX+#20),L
 733++A086 DD 74 21       LD (IX+#21),H
 734++A089 C3 7D 68       JP L6011_105
 735++A08C              L9B7C_63:
 736++A08C 3E F7          LD A,#F7
 737++A08E CD 9C 68       CALL L6011_108
 738++A091 DD 6E 1E       LD L,(IX+#1E)
 739++A094 DD 66 1F       LD H,(IX+#1F)
 740++A097 54             LD D,H
 741++A098 5D             LD E,L
 742++A099 06 28          LD B,#28
 743++A09B              L9B7C_64:
 744++A09B 1A             LD A,(DE)
 745++A09C 13             INC DE
 746++A09D FE FF          CP #FF
 747++A09F 28 02          JR Z,L9B7C_65
 748++A0A1 10 F8          DJNZ L9B7C_64
 749++A0A3              L9B7C_65:
 750++A0A3 3E 28          LD A,#28
 751++A0A5 90             SUB B
 752++A0A6 4F             LD C,A
 753++A0A7 C5             PUSH BC
 754++A0A8 06 00          LD B,#00
 755++A0AA 4F             LD C,A
 756++A0AB 11 00 00       LD DE,#0000
 757++A0AE CD 25 7D       CALL L7828_72
 758++A0B1 C1             POP BC
 759++A0B2 59             LD E,C
 760++A0B3 21 A0 5E       LD HL,#5EA0
 761++A0B6 48             LD C,B
 762++A0B7 78             LD A,B
 763++A0B8 B7             OR A
 764++A0B9 28 10          JR Z,L9B7C_67
 765++A0BB 3E 20          LD A,#20
 766++A0BD              L9B7C_66:
 767++A0BD 77             LD (HL),A
 768++A0BE 23             INC HL
 769++A0BF 10 FC          DJNZ L9B7C_66
 770++A0C1 06 00          LD B,#00
 771++A0C3 21 A0 5E       LD HL,#5EA0
 772++A0C6 16 00          LD D,#00
 773++A0C8 CD 25 7D       CALL L7828_72
 774++A0CB              L9B7C_67:
 775++A0CB C3 7D 68       JP L6011_105
 776++A0CE              ; Главный вход инициализации WC: подготовить память через VDAC, найти и
 777++A0CE              ; загрузить wc.ini через LINI, разобрать его и очистить текущую ENTRY.
 778++A0CE              FINI:
 779++A0CE              L9B7C_68:
 780++A0CE CD 3E A1       CALL L9B7C_71
 781++A0D1 CD 43 A2       CALL L9B7C_78
 782++A0D4 B7             OR A
 783++A0D5 20 13          JR NZ,L9B7C_69
 784++A0D7 3E 01          LD A,#01
 785++A0D9 32 10 60       LD (#6010),A
 786++A0DC CD E3 A2       CALL L9B7C_87
 787++A0DF 21 6B 7F       LD HL,#7F6B
 788++A0E2 06 20          LD B,#20
 789++A0E4 CD 99 69       CALL L6011_129
 790++A0E7 C3 4B 74       JP L7143_48
 791++A0EA              ; Показать одно из четырёх сообщений об ошибке соответствующей стадии LINI.
 792++A0EA              IERR:
 793++A0EA              L9B7C_69:
 794++A0EA F5             PUSH AF
 795++A0EB CD 9F 69       CALL L6011_131
 796++A0EE F1             POP AF
 797++A0EF 21 97 A8       LD HL,L9B7C_172
 798++A0F2 01 1A 00       LD BC,#001A
 799++A0F5 3D             DEC A
 800++A0F6 28 1B          JR Z,L9B7C_70
 801++A0F8 21 C0 A8       LD HL,#A8C0
 802++A0FB 01 14 00       LD BC,#0014
 803++A0FE 3D             DEC A
 804++A0FF 28 12          JR Z,L9B7C_70
 805++A101 21 D4 A8       LD HL,#A8D4
 806++A104 01 11 00       LD BC,#0011
 807++A107 3D             DEC A
 808++A108 28 09          JR Z,L9B7C_70
 809++A10A 21 E5 A8       LD HL,#A8E5
 810++A10D 01 13 00       LD BC,#0013
 811++A110 3D             DEC A
 812++A111 28 00          JR Z,L9B7C_70
 813++A113              L9B7C_70:
 814++A113 E5             PUSH HL
 815++A114 C5             PUSH BC
 816++A115 DD 21 9E A7    LD IX,#A79E
 817++A119 CD 2C 79       CALL #792C
 818++A11C 21 B1 A8       LD HL,#A8B1
 819++A11F 11 0E 00       LD DE,#000E
 820++A122 01 0F 00       LD BC,#000F
 821++A125 CD 25 7D       CALL L7828_72
 822++A128 3E F1          LD A,#F1
 823++A12A CD 39 7D       CALL L7828_73
 824++A12D C1             POP BC
 825++A12E E1             POP HL
 826++A12F 11 0C 01       LD DE,#010C
 827++A132 CD 25 7D       CALL L7828_72
 828++A135 CD 4B 74       CALL L7143_48
 829++A138 CD 43 74       CALL L7143_47
 830++A13B C3 CE 7A       JP L7828_38
 831++A13E              ; Определить видеорежим, инициализировать рабочие страницы, DMA, шрифты
 832++A13E              ; и служебные распаковщики; сохранить конфигурацию в фиксированных переменных.
 833++A13E              VDAC:
 834++A13E              L9B7C_71:
 835++A13E 01 AF 00       LD BC,#00AF
 836++A141 ED 78          IN A,(C)
 837++A143 E6 07          AND #07
 838++A145 32 0D 60       LD (#600D),A
 839++A148 21 00 80       LD HL,F5WND
 840++A14B 22 11 60       LD (L6011),HL
 841++A14E 21 1E 83       LD HL,#831E
 842++A151 22 0E 60       LD (#600E),HL
 843++A154 3E C3          LD A,#C3
 844++A156 32 06 60       LD (#6006),A
 845++A159 21 DD 6F       LD HL,#6FDD
 846++A15C 22 07 60       LD (#6007),HL
 847++A15F 3E 05          LD A,#05
 848++A161 32 01 60       LD (#6001),A
 849++A164 3E 02          LD A,#02
 850++A166 32 02 60       LD (#6002),A
 851++A169 AF             XOR A
 852++A16A CD C1 68       CALL L6011_114
 853++A16D 21 00 00       LD HL,#0000
 854++A170 22 00 C0       LD (LC000),HL
 855++A173 01 AF 27       LD BC,#27AF
 856++A176              L9B7C_72:
 857++A176 ED 70          DB #ED,#70
 858++A178 FA 76 A1       JP M,L9B7C_72
 859++A17B 06 26          LD B,#26
 860++A17D 3E FF          LD A,#FF
 861++A17F ED 79          OUT (C),A
 862++A181 06 28          LD B,#28
 863++A183 3E 11          LD A,#11
 864++A185 ED 79          OUT (C),A
 865++A187 AF             XOR A
 866++A188 06 1A          LD B,#1A
 867++A18A ED 79          OUT (C),A
 868++A18C 04             INC B
 869++A18D ED 79          OUT (C),A
 870++A18F 04             INC B
 871++A190 ED 79          OUT (C),A
 872++A192 06 1F          LD B,#1F
 873++A194 ED 79          OUT (C),A
 874++A196 05             DEC B
 875++A197 ED 79          OUT (C),A
 876++A199 3C             INC A
 877++A19A 3C             INC A
 878++A19B 05             DEC B
 879++A19C ED 79          OUT (C),A
 880++A19E 06 27          LD B,#27
 881++A1A0 3E 04          LD A,#04
 882++A1A2 ED 79          OUT (C),A
 883++A1A4 CD 65 98       CALL L9149_68
 884++A1A7 3E 01          LD A,#01
 885++A1A9 CD C1 68       CALL L6011_114
 886++A1AC 21 9F AB       LD HL,LAB9F
 887++A1AF 11 00 C0       LD DE,LC000
 888++A1B2 01 00 08       LD BC,#0800
 889++A1B5 ED B0          LDIR
 890++A1B7 11 E9 FE       LD DE,#FEE9
 891++A1BA 01 17 01       LD BC,#0117
 892++A1BD ED B0          LDIR
 893++A1BF 11 00 FE       LD DE,#FE00
 894++A1C2 01 E9 00       LD BC,#00E9
 895++A1C5 ED B0          LDIR
 896++A1C7 3E 09          LD A,#09
 897++A1C9 CD C1 68       CALL L6011_114
 898++A1CC 21 9F AB       LD HL,LAB9F
 899++A1CF 11 00 C0       LD DE,LC000
 900++A1D2 01 00 08       LD BC,#0800
 901++A1D5 ED B0          LDIR
 902++A1D7 3E F0          LD A,#F0
 903++A1D9 CD 9C 68       CALL L6011_108
 904++A1DC CD 94 68       CALL L6011_107
 905++A1DF C9             RET
 906++A1E0              ; Построить начальный экран, заголовок, часы и подсказки текущего режима.
 907++A1E0              GEDZ:
 908++A1E0              L9B7C_73:
 909++A1E0 DD 21 87 84    LD IX,#8487
 910++A1E4 3A A3 7E       LD A,(#7EA3)
 911++A1E7 B7             OR A
 912++A1E8 28 2F          JR Z,L9B7C_75
 913++A1EA 11 20 00       LD DE,#0020
 914++A1ED 43             LD B,E
 915++A1EE CD 45 7D       CALL L7828_75
 916++A1F1 AF             XOR A
 917++A1F2 CD 39 7D       CALL L7828_73
 918++A1F5 21 8E 84       LD HL,#848E
 919++A1F8 11 00 00       LD DE,#0000
 920++A1FB CD 81 7D       CALL L7828_80
 921++A1FE 21 63 7F       LD HL,#7F63
 922++A201 11 48 00       LD DE,#0048
 923++A204 3A 0E 60       LD A,(#600E)
 924++A207 FE 24          CP #24
 925++A209 20 03          JR NZ,L9B7C_74
 926++A20B 11 52 00       LD DE,#0052
 927++A20E              L9B7C_74:
 928++A20E 01 08 00       LD BC,#0008
 929++A211 CD 25 7D       CALL L7828_72
 930++A214 3E 1F          LD A,#1F
 931++A216 CD 39 7D       CALL L7828_73
 932++A219              L9B7C_75:
 933++A219 21 A6 84       LD HL,#84A6
 934++A21C 3A 0E 60       LD A,(#600E)
 935++A21F 3D             DEC A
 936++A220 57             LD D,A
 937++A221 1E 00          LD E,#00
 938++A223 C3 81 7D       JP L7828_80
 939++A226              L9B7C_76:
 940++A226 DD E5          PUSH IX
 941++A228 DD 21 87 84    LD IX,#8487
 942++A22C F5             PUSH AF
 943++A22D 11 B8 84       LD DE,#84B8
 944++A230 D6 11          SUB #11
 945++A232 28 06          JR Z,L9B7C_77
 946++A234 3D             DEC A
 947++A235 28 03          JR Z,L9B7C_77
 948++A237 11 D0 84       LD DE,#84D0
 949++A23A              L9B7C_77:
 950++A23A 01 06 00       LD BC,#0006
 951++A23D ED B0          LDIR
 952++A23F F1             POP AF
 953++A240 DD E1          POP IX
 954++A242 C9             RET
 955++A243              ; Найти каталог wc, затем wc.ini, получить его кластер и загрузить содержимое.
 956++A243              ; Возвращает A=1..4 для стадии ошибки, A=0 при успехе.
 957++A243              LINI:
 958++A243              L9B7C_78:
 959++A243 3E F2          LD A,#F2
 960++A245 CD 9C 68       CALL L6011_108
 961++A248 CD 9F 6A       CALL L6011_144
 962++A24B CD 24 6E       CALL L6011_206
 963++A24E 3E 01          LD A,#01
 964++A250 C0             RET NZ
 965++A251 21 AB 7F       LD HL,#7FAB
 966++A254 CD 4E 40       CALL #404E
 967++A257 3E 02          LD A,#02
 968++A259 C8             RET Z
 969++A25A 22 28 7F       LD (#7F28),HL
 970++A25D ED 53 2A 7F    LD (#7F2A),DE
 971++A261 21 28 7F       LD HL,#7F28
 972++A264 CD 1E 40       CALL #401E
 973++A267 21 AF 7F       LD HL,#7FAF
 974++A26A CD 4E 40       CALL #404E
 975++A26D 3E 03          LD A,#03
 976++A26F C8             RET Z
 977++A270 22 28 7F       LD (#7F28),HL
 978++A273 ED 53 2A 7F    LD (#7F2A),DE
 979++A277 21 28 7F       LD HL,#7F28
 980++A27A CD 12 40       CALL #4012
 981++A27D CD 85 A2       CALL L9B7C_79
 982++A280 3E 04          LD A,#04
 983++A282 C0             RET NZ
 984++A283 AF             XOR A
 985++A284 C9             RET
 986++A285              ; Проверить сигнатуру «Wild Commander v1.1» и собрать текст INI
 987++A285              ; в рабочем буфере #0000..#0FFF.
 988++A285              INILOAD:
 989++A285              L9B7C_79:
 990++A285 CD D8 A2       CALL L9B7C_86
 991++A288 11 40 AB       LD DE,#AB40
 992++A28B 06 13          LD B,#13
 993++A28D CD 2B A7       CALL L9B7C_163
 994++A290 C0             RET NZ
 995++A291 23             INC HL
 996++A292 11 00 00       LD DE,#0000
 997++A295 01 00 00       LD BC,#0000
 998++A298              L9B7C_80:
 999++A298 7A             LD A,D
1000++A299 FE 10          CP #10
1001++A29B 30 23          JR NC,L9B7C_82
1002++A29D 7C             LD A,H
1003++A29E E6 01          AND #01
1004++A2A0 B5             OR L
1005++A2A1 CC C9 A2       CALL Z,L9B7C_85
1006++A2A4 28 1A          JR Z,L9B7C_82
1007++A2A6 7E             LD A,(HL)
1008++A2A7 FE 0A          CP #0A
1009++A2A9 38 15          JR C,L9B7C_82
1010++A2AB 28 10          JR Z,L9B7C_81
1011++A2AD FE 0D          CP #0D
1012++A2AF CC C6 A2       CALL Z,L9B7C_84
1013++A2B2 FE 3B          CP #3B
1014++A2B4 CC C3 A2       CALL Z,L9B7C_83
1015++A2B7 0C             INC C
1016++A2B8 0D             DEC C
1017++A2B9 20 02          JR NZ,L9B7C_81
1018++A2BB 12             LD (DE),A
1019++A2BC 13             INC DE
1020++A2BD              L9B7C_81:
1021++A2BD 23             INC HL
1022++A2BE 18 D8          JR L9B7C_80
1023++A2C0              L9B7C_82:
1024++A2C0 AF             XOR A
1025++A2C1 12             LD (DE),A
1026++A2C2 C9             RET
1027++A2C3              L9B7C_83:
1028++A2C3 0E 01          LD C,#01
1029++A2C5 C9             RET
1030++A2C6              L9B7C_84:
1031++A2C6 0E 00          LD C,#00
1032++A2C8 C9             RET
1033++A2C9              L9B7C_85:
1034++A2C9 78             LD A,B
1035++A2CA FE 0F          CP #0F
1036++A2CC C8             RET Z
1037++A2CD C5             PUSH BC
1038++A2CE D5             PUSH DE
1039++A2CF CD D8 A2       CALL L9B7C_86
1040++A2D2 D1             POP DE
1041++A2D3 C1             POP BC
1042++A2D4 47             LD B,A
1043++A2D5 AF             XOR A
1044++A2D6 3C             INC A
1045++A2D7 C9             RET
1046++A2D8              L9B7C_86:
1047++A2D8 21 00 10       LD HL,#1000
1048++A2DB 06 01          LD B,#01
1049++A2DD E5             PUSH HL
1050++A2DE CD 15 40       CALL #4015
1051++A2E1 E1             POP HL
1052++A2E2 C9             RET
1053++A2E3              ; Разобрать секции INI. После символа «[» сопоставить имя с таблицей STARTU
1054++A2E3              ; и вызвать соответствующий обработчик SETUP/PLUGINS/LPANEL/RPANEL.
1055++A2E3              PARSING:
1056++A2E3              L9B7C_87:
1057++A2E3 21 00 00       LD HL,#0000
1058++A2E6              L9B7C_88:
1059++A2E6 7E             LD A,(HL)
1060++A2E7 FE 5B          CP #5B
1061++A2E9 CC FA A2       CALL Z,L9B7C_89
1062++A2EC 28 F8          JR Z,L9B7C_88
1063++A2EE CD FD 92       CALL L9149_24
1064++A2F1 7E             LD A,(HL)
1065++A2F2 B7             OR A
1066++A2F3 C8             RET Z
1067++A2F4 7C             LD A,H
1068++A2F5 FE 10          CP #10
1069++A2F7 D0             RET NC
1070++A2F8 18 EC          JR L9B7C_88
1071++A2FA              L9B7C_89:
1072++A2FA 11 A2 AA       LD DE,#AAA2
1073++A2FD 23             INC HL
1074++A2FE              L9B7C_90:
1075++A2FE 1A             LD A,(DE)
1076++A2FF 3C             INC A
1077++A300 C8             RET Z
1078++A301 CD 08 A3       CALL L9B7C_91
1079++A304 28 15          JR Z,L9B7C_92
1080++A306 18 F6          JR L9B7C_90
1081++A308              L9B7C_91:
1082++A308 E5             PUSH HL
1083++A309 CD 33 A7       CALL L9B7C_164
1084++A30C 13             INC DE
1085++A30D E1             POP HL
1086++A30E C8             RET Z
1087++A30F AF             XOR A
1088++A310 EB             EX DE,HL
1089++A311 01 10 00       LD BC,#0010
1090++A314 ED B1          CPIR
1091++A316 23             INC HL
1092++A317 23             INC HL
1093++A318 EB             EX DE,HL
1094++A319 3C             INC A
1095++A31A C9             RET
1096++A31B              L9B7C_92:
1097++A31B 1A             LD A,(DE)
1098++A31C 32 25 A3       LD (#A325),A
1099++A31F 13             INC DE
1100++A320 1A             LD A,(DE)
1101++A321 32 26 A3       LD (#A326),A
1102++A324 CD 00 00       CALL #0000
1103++A327 AF             XOR A
1104++A328 C9             RET
1105++A329 E5             PUSH HL
1106++A32A DD 21 AA A7    LD IX,#A7AA
1107++A32E CD 2C 79       CALL #792C
1108++A331 CD 9F 69       CALL L6011_131
1109++A334 E1             POP HL
1110++A335 11 00 00       LD DE,#0000
1111++A338 01 F8 A8       LD BC,#A8F8
1112++A33B CD E5 A4       CALL L9B7C_120
1113++A33E              L9B7C_93:
1114++A33E CD FD 92       CALL L9149_24
1115++A341 CD C0 A3       CALL L9B7C_101
1116++A344 C8             RET Z
1117++A345 E5             PUSH HL
1118++A346 D5             PUSH DE
1119++A347 CD 6C A4       CALL L9B7C_109
1120++A34A D1             POP DE
1121++A34B C4 CF A4       CALL NZ,L9B7C_119
1122++A34E E1             POP HL
1123++A34F 18 ED          JR L9B7C_93
1124++A351 3E 00          LD A,#00
1125++A353 08             EX AF,AF'
1126++A354 18 03          JR L9B7C_94
1127++A356 3E 01          LD A,#01
1128++A358 08             EX AF,AF'
1129++A359              L9B7C_94:
1130++A359 CD FD 92       CALL L9149_24
1131++A35C CD C0 A3       CALL L9B7C_101
1132++A35F C8             RET Z
1133++A360 11 C7 AA       LD DE,#AAC7
1134++A363 CD 68 A3       CALL L9B7C_95
1135++A366 18 F1          JR L9B7C_94
1136++A368              L9B7C_95:
1137++A368 1A             LD A,(DE)
1138++A369 3C             INC A
1139++A36A C8             RET Z
1140++A36B CD 08 A3       CALL L9B7C_91
1141++A36E 28 AB          JR Z,L9B7C_92
1142++A370 18 F6          JR L9B7C_95
1143++A372              L9B7C_96:
1144++A372 7E             LD A,(HL)
1145++A373 23             INC HL
1146++A374 FE 20          CP #20
1147++A376 28 0D          JR Z,L9B7C_97
1148++A378 FE 3D          CP #3D
1149++A37A 28 09          JR Z,L9B7C_97
1150++A37C FE 0E          CP #0E
1151++A37E 30 F2          JR NC,L9B7C_96
1152++A380 2B             DEC HL
1153++A381 3E 31          LD A,#31
1154++A383 18 01          JR L9B7C_98
1155++A385              L9B7C_97:
1156++A385 7E             LD A,(HL)
1157++A386              L9B7C_98:
1158++A386 21 A0 7E       LD HL,WINDOW
1159++A389 08             EX AF,AF'
1160++A38A B7             OR A
1161++A38B 28 03          JR Z,L9B7C_99
1162++A38D 21 C4 7E       LD HL,#7EC4
1163++A390              L9B7C_99:
1164++A390 08             EX AF,AF'
1165++A391 D6 30          SUB #30
1166++A393 C9             RET
1167++A394 E5             PUSH HL
1168++A395 CD 72 A3       CALL L9B7C_96
1169++A398 11 1D 00       LD DE,#001D
1170++A39B 19             ADD HL,DE
1171++A39C FE 07          CP #07
1172++A39E 38 02          JR C,L9B7C_100
1173++A3A0 3E 01          LD A,#01
1174++A3A2              L9B7C_100:
1175++A3A2 77             LD (HL),A
1176++A3A3 E1             POP HL
1177++A3A4 C9             RET
1178++A3A5 E5             PUSH HL
1179++A3A6 CD 72 A3       CALL L9B7C_96
1180++A3A9 11 0A 00       LD DE,#000A
1181++A3AC 19             ADD HL,DE
1182++A3AD E6 01          AND #01
1183++A3AF 87             ADD A,A
1184++A3B0 77             LD (HL),A
1185++A3B1 E1             POP HL
1186++A3B2 C9             RET
1187++A3B3 E5             PUSH HL
1188++A3B4 CD 72 A3       CALL L9B7C_96
1189++A3B7 11 23 00       LD DE,#0023
1190++A3BA 19             ADD HL,DE
1191++A3BB E6 03          AND #03
1192++A3BD 77             LD (HL),A
1193++A3BE E1             POP HL
1194++A3BF C9             RET
1195++A3C0              L9B7C_101:
1196++A3C0 7E             LD A,(HL)
1197++A3C1 B7             OR A
1198++A3C2 C8             RET Z
1199++A3C3 FE 0D          CP #0D
1200++A3C5 C8             RET Z
1201++A3C6 FE 5B          CP #5B
1202++A3C8 C9             RET
1203++A3C9              L9B7C_102:
1204++A3C9 CD FD 92       CALL L9149_24
1205++A3CC CD C0 A3       CALL L9B7C_101
1206++A3CF C8             RET Z
1207++A3D0 11 DD AA       LD DE,#AADD
1208++A3D3 CD 68 A3       CALL L9B7C_95
1209++A3D6 18 F1          JR L9B7C_102
1210++A3D8 E5             PUSH HL
1211++A3D9 CD 72 A3       CALL L9B7C_96
1212++A3DC E6 03          AND #03
1213++A3DE 32 20 7F       LD (#7F20),A
1214++A3E1 E1             POP HL
1215++A3E2 C9             RET
1216++A3E3 E5             PUSH HL
1217++A3E4 CD 72 A3       CALL L9B7C_96
1218++A3E7 E6 01          AND #01
1219++A3E9 21 1C 7F       LD HL,#7F1C
1220++A3EC B6             OR (HL)
1221++A3ED 77             LD (HL),A
1222++A3EE E1             POP HL
1223++A3EF C9             RET
1224++A3F0 E5             PUSH HL
1225++A3F1 CD 72 A3       CALL L9B7C_96
1226++A3F4 21 83 1E       LD HL,#1E83
1227++A3F7 20 03          JR NZ,L9B7C_103
1228++A3F9 21 43 19       LD HL,#1943
1229++A3FC              L9B7C_103:
1230++A3FC FE 02          CP #02
1231++A3FE 20 03          JR NZ,L9B7C_104
1232++A400 21 C3 24       LD HL,#24C3
1233++A403              L9B7C_104:
1234++A403 7C             LD A,H
1235++A404 32 0E 60       LD (#600E),A
1236++A407 FE 24          CP #24
1237++A409 7D             LD A,L
1238++A40A 32 0F 60       LD (#600F),A
1239++A40D 20 1B          JR NZ,L9B7C_105
1240++A40F 3E 5A          LD A,#5A
1241++A411 32 1D 7F       LD (#7F1D),A
1242++A414 32 8B 84       LD (#848B),A
1243++A417 3E 2D          LD A,#2D
1244++A419 32 A4 7E       LD (#7EA4),A
1245++A41C 32 C8 7E       LD (#7EC8),A
1246++A41F 32 C6 7E       LD (#7EC6),A
1247++A422 3E 2D          LD A,#2D
1248++A424 32 9A A0       LD (#A09A),A
1249++A427 32 A4 A0       LD (#A0A4),A
1250++A42A              L9B7C_105:
1251++A42A E1             POP HL
1252++A42B C9             RET
1253++A42C E5             PUSH HL
1254++A42D CD 72 A3       CALL L9B7C_96
1255++A430 E6 01          AND #01
1256++A432 87             ADD A,A
1257++A433 21 1C 7F       LD HL,#7F1C
1258++A436 B6             OR (HL)
1259++A437 77             LD (HL),A
1260++A438 E1             POP HL
1261++A439 C9             RET
1262++A43A E5             PUSH HL
1263++A43B CD 72 A3       CALL L9B7C_96
1264++A43E 21 FF FF       LD HL,#FFFF
1265++A441 E6 0F          AND #0F
1266++A443 28 08          JR Z,L9B7C_107
1267++A445 47             LD B,A
1268++A446 23             INC HL
1269++A447 11 7C 0B       LD DE,#0B7C
1270++A44A              L9B7C_106:
1271++A44A 19             ADD HL,DE
1272++A44B 10 FD          DJNZ L9B7C_106
1273++A44D              L9B7C_107:
1274++A44D 22 5E 7F       LD (#7F5E),HL
1275++A450 E1             POP HL
1276++A451 C9             RET
1277++A452 E5             PUSH HL
1278++A453 CD 72 A3       CALL L9B7C_96
1279++A456 28 12          JR Z,L9B7C_108
1280++A458 3E 01          LD A,#01
1281++A45A 32 4D 7F       LD (#7F4D),A
1282++A45D 32 7B 6A       LD (#6A7B),A
1283++A460 32 A3 7E       LD (#7EA3),A
1284++A463 32 C7 7E       LD (#7EC7),A
1285++A466 3C             INC A
1286++A467 32 D1 63       LD (#63D1),A
1287++A46A              L9B7C_108:
1288++A46A E1             POP HL
1289++A46B C9             RET
1290++A46C              ; Загрузить модуль плагина по строке из INI.
1291++A46C              SERNLOD:
1292++A46C              L9B7C_109:
1293++A46C CD 89 A4       CALL L9B7C_110
1294++A46F CD 4E 40       CALL #404E
1295++A472 C8             RET Z
1296++A473 22 28 7F       LD (#7F28),HL
1297++A476 ED 53 2A 7F    LD (#7F2A),DE
1298++A47A 21 28 7F       LD HL,#7F28
1299++A47D CD 12 40       CALL #4012
1300++A480 3E 01          LD A,#01
1301++A482 CD 41 97       CALL L9149_57
1302++A485 3E 01          LD A,#01
1303++A487 B7             OR A
1304++A488 C9             RET
1305++A489              ; Отделить имя файла плагина от параметров запуска.
1306++A489              GENNAM:
1307++A489              L9B7C_110:
1308++A489 11 01 B0       LD DE,#B001
1309++A48C 06 FF          LD B,#FF
1310++A48E              L9B7C_111:
1311++A48E 7E             LD A,(HL)
1312++A48F FE 3B          CP #3B
1313++A491 28 1A          JR Z,L9B7C_114
1314++A493 FE 20          CP #20
1315++A495 38 16          JR C,L9B7C_114
1316++A497 20 0F          JR NZ,L9B7C_113
1317++A499 23             INC HL
1318++A49A 7E             LD A,(HL)
1319++A49B FE 2D          CP #2D
1320++A49D 20 07          JR NZ,L9B7C_112
1321++A49F 23             INC HL
1322++A4A0 7E             LD A,(HL)
1323++A4A1 FE 20          CP #20
1324++A4A3 2B             DEC HL
1325++A4A4 20 0E          JR NZ,L9B7C_115
1326++A4A6              L9B7C_112:
1327++A4A6 2B             DEC HL
1328++A4A7 7E             LD A,(HL)
1329++A4A8              L9B7C_113:
1330++A4A8 12             LD (DE),A
1331++A4A9 23             INC HL
1332++A4AA 13             INC DE
1333++A4AB 10 E1          DJNZ L9B7C_111
1334++A4AD              L9B7C_114:
1335++A4AD AF             XOR A
1336++A4AE 12             LD (DE),A
1337++A4AF 21 00 B0       LD HL,#B000
1338++A4B2 77             LD (HL),A
1339++A4B3 C9             RET
1340++A4B4              L9B7C_115:
1341++A4B4 D5             PUSH DE
1342++A4B5 11 00 B2       LD DE,#B200
1343++A4B8 06 FF          LD B,#FF
1344++A4BA              L9B7C_116:
1345++A4BA 7E             LD A,(HL)
1346++A4BB FE 20          CP #20
1347++A4BD 38 0B          JR C,L9B7C_118
1348++A4BF 28 06          JR Z,L9B7C_117
1349++A4C1 FE 3B          CP #3B
1350++A4C3 28 05          JR Z,L9B7C_118
1351++A4C5 12             LD (DE),A
1352++A4C6 13             INC DE
1353++A4C7              L9B7C_117:
1354++A4C7 23             INC HL
1355++A4C8 10 F0          DJNZ L9B7C_116
1356++A4CA              L9B7C_118:
1357++A4CA AF             XOR A
1358++A4CB 12             LD (DE),A
1359++A4CC D1             POP DE
1360++A4CD 18 DE          JR L9B7C_114
1361++A4CF              L9B7C_119:
1362++A4CF D5             PUSH DE
1363++A4D0 DD 21 AA A7    LD IX,#A7AA
1364++A4D4 21 A5 B0       LD HL,#B0A5
1365++A4D7 01 20 00       LD BC,#0020
1366++A4DA CD 25 7D       CALL L7828_72
1367++A4DD 3E 0F          LD A,#0F
1368++A4DF CD 39 7D       CALL L7828_73
1369++A4E2 D1             POP DE
1370++A4E3 14             INC D
1371++A4E4 C9             RET
1372++A4E5              L9B7C_120:
1373++A4E5 E5             PUSH HL
1374++A4E6 D5             PUSH DE
1375++A4E7 DD 21 AA A7    LD IX,#A7AA
1376++A4EB 60             LD H,B
1377++A4EC 69             LD L,C
1378++A4ED CD 81 7D       CALL L7828_80
1379++A4F0 D1             POP DE
1380++A4F1 E1             POP HL
1381++A4F2 14             INC D
1382++A4F3 C9             RET
1383++A4F4              ; Отсортировать записи панели по критерию IX+35: имени, расширению или размеру.
1384++A4F4              SORT:
1385++A4F4              L9B7C_121:
1386++A4F4 AF             XOR A
1387++A4F5 32 ED A6       LD (#A6ED),A
1388++A4F8 DD 7E 13       LD A,(IX+#13)
1389++A4FB B7             OR A
1390++A4FC 20 06          JR NZ,L9B7C_122
1391++A4FE DD 7E 12       LD A,(IX+#12)
1392++A501 FE 02          CP #02
1393++A503 D8             RET C
1394++A504              L9B7C_122:
1395++A504 DD 7E 23       LD A,(IX+#23)
1396++A507 B7             OR A
1397++A508 C8             RET Z
1398++A509 3D             DEC A
1399++A50A CA 73 A6       JP Z,L9B7C_151
1400++A50D 3D             DEC A
1401++A50E 28 3C          JR Z,L9B7C_127
1402++A510 3D             DEC A
1403++A511 CA F3 A5       JP Z,L9B7C_141
1404++A514 C9             RET
1405++A515              L9B7C_123:
1406++A515 CD D6 68       CALL L6011_117
1407++A518 CD E6 68       CALL L6011_119
1408++A51B 11 00 00       LD DE,#0000
1409++A51E 1C             INC E
1410++A51F 1A             LD A,(DE)
1411++A520 6F             LD L,A
1412++A521 1C             INC E
1413++A522 1A             LD A,(DE)
1414++A523 67             LD H,A
1415++A524 1D             DEC E
1416++A525 1D             DEC E
1417++A526 01 11 00       LD BC,#0011
1418++A529 09             ADD HL,BC
1419++A52A 3E 2E          LD A,#2E
1420++A52C BE             CP (HL)
1421++A52D C0             RET NZ
1422++A52E 23             INC HL
1423++A52F BE             CP (HL)
1424++A530 C0             RET NZ
1425++A531 1E 04          LD E,#04
1426++A533 C9             RET
1427++A534              L9B7C_124:
1428++A534 1C             INC E
1429++A535 1A             LD A,(DE)
1430++A536 4F             LD C,A
1431++A537 1C             INC E
1432++A538 1A             LD A,(DE)
1433++A539 57             LD D,A
1434++A53A 79             LD A,C
1435++A53B C6 10          ADD A,#10
1436++A53D 30 01          JR NC,L9B7C_125
1437++A53F 14             INC D
1438++A540              L9B7C_125:
1439++A540 5F             LD E,A
1440++A541 2C             INC L
1441++A542 7E             LD A,(HL)
1442++A543 2C             INC L
1443++A544 66             LD H,(HL)
1444++A545 C6 10          ADD A,#10
1445++A547 30 01          JR NC,L9B7C_126
1446++A549 24             INC H
1447++A54A              L9B7C_126:
1448++A54A 6F             LD L,A
1449++A54B C9             RET
1450++A54C              L9B7C_127:
1451++A54C CD 15 A5       CALL L9B7C_123
1452++A54F              L9B7C_128:
1453++A54F ED 53 3D A7    LD (#A73D),DE
1454++A553 EB             EX DE,HL
1455++A554 22 89 A6       LD (#A689),HL
1456++A557 01 05 00       LD BC,#0005
1457++A55A 09             ADD HL,BC
1458++A55B 7E             LD A,(HL)
1459++A55C 2C             INC L
1460++A55D B6             OR (HL)
1461++A55E C8             RET Z
1462++A55F 2D             DEC L
1463++A560 2D             DEC L
1464++A561              L9B7C_129:
1465++A561 ED 5B 89 A6    LD DE,(#A689)
1466++A565 22 CA A5       LD (#A5CA),HL
1467++A568 2C             INC L
1468++A569 7E             LD A,(HL)
1469++A56A 2C             INC L
1470++A56B B6             OR (HL)
1471++A56C 2B             DEC HL
1472++A56D 2B             DEC HL
1473++A56E CC EC A6       CALL Z,L9B7C_160
1474++A571 28 DC          JR Z,L9B7C_128
1475++A573 1C             INC E
1476++A574 1A             LD A,(DE)
1477++A575 4F             LD C,A
1478++A576 1C             INC E
1479++A577 1A             LD A,(DE)
1480++A578 57             LD D,A
1481++A579 59             LD E,C
1482++A57A 13             INC DE
1483++A57B 2C             INC L
1484++A57C 7E             LD A,(HL)
1485++A57D 2C             INC L
1486++A57E 66             LD H,(HL)
1487++A57F 6F             LD L,A
1488++A580 23             INC HL
1489++A581 1A             LD A,(DE)
1490++A582 BE             CP (HL)
1491++A583 28 04          JR Z,L9B7C_130
1492++A585 30 5A          JR NC,L9B7C_140
1493++A587 18 40          JR L9B7C_138
1494++A589              L9B7C_130:
1495++A589 23             INC HL
1496++A58A 13             INC DE
1497++A58B 1A             LD A,(DE)
1498++A58C BE             CP (HL)
1499++A58D 28 04          JR Z,L9B7C_131
1500++A58F 30 50          JR NC,L9B7C_140
1501++A591 18 36          JR L9B7C_138
1502++A593              L9B7C_131:
1503++A593 23             INC HL
1504++A594 13             INC DE
1505++A595 1A             LD A,(DE)
1506++A596 BE             CP (HL)
1507++A597 28 04          JR Z,L9B7C_132
1508++A599 30 46          JR NC,L9B7C_140
1509++A59B 18 2C          JR L9B7C_138
1510++A59D              L9B7C_132:
1511++A59D 7B             LD A,E
1512++A59E C6 0E          ADD A,#0E
1513++A5A0 30 01          JR NC,L9B7C_133
1514++A5A2 14             INC D
1515++A5A3              L9B7C_133:
1516++A5A3 5F             LD E,A
1517++A5A4 7D             LD A,L
1518++A5A5 C6 0E          ADD A,#0E
1519++A5A7 30 01          JR NC,L9B7C_134
1520++A5A9 24             INC H
1521++A5AA              L9B7C_134:
1522++A5AA 6F             LD L,A
1523++A5AB 06 FF          LD B,#FF
1524++A5AD              L9B7C_135:
1525++A5AD 7E             LD A,(HL)
1526++A5AE 4F             LD C,A
1527++A5AF FE 5B          CP #5B
1528++A5B1 30 06          JR NC,L9B7C_136
1529++A5B3 FE 41          CP #41
1530++A5B5 38 02          JR C,L9B7C_136
1531++A5B7 CB E9          SET 5,C
1532++A5B9              L9B7C_136:
1533++A5B9 1A             LD A,(DE)
1534++A5BA FE 5B          CP #5B
1535++A5BC 30 06          JR NC,L9B7C_137
1536++A5BE FE 41          CP #41
1537++A5C0 38 02          JR C,L9B7C_137
1538++A5C2 CB EF          SET 5,A
1539++A5C4              L9B7C_137:
1540++A5C4 B9             CP C
1541++A5C5 28 0C          JR Z,L9B7C_139
1542++A5C7 30 18          JR NC,L9B7C_140
1543++A5C9              L9B7C_138:
1544++A5C9 21 00 00       LD HL,#0000
1545++A5CC 2C             INC L
1546++A5CD 2C             INC L
1547++A5CE 2C             INC L
1548++A5CF 23             INC HL
1549++A5D0 C3 61 A5       JP L9B7C_129
1550++A5D3              L9B7C_139:
1551++A5D3 23             INC HL
1552++A5D4 13             INC DE
1553++A5D5 10 D6          DJNZ L9B7C_135
1554++A5D7 2A CA A5       LD HL,(#A5CA)
1555++A5DA 2C             INC L
1556++A5DB 2C             INC L
1557++A5DC 2C             INC L
1558++A5DD 23             INC HL
1559++A5DE C3 61 A5       JP L9B7C_129
1560++A5E1              L9B7C_140:
1561++A5E1 3E 01          LD A,#01
1562++A5E3 32 ED A6       LD (#A6ED),A
1563++A5E6 2A CA A5       LD HL,(#A5CA)
1564++A5E9 22 89 A6       LD (#A689),HL
1565++A5EC 2C             INC L
1566++A5ED 2C             INC L
1567++A5EE 2C             INC L
1568++A5EF 23             INC HL
1569++A5F0 C3 61 A5       JP L9B7C_129
1570++A5F3              L9B7C_141:
1571++A5F3 CD 15 A5       CALL L9B7C_123
1572++A5F6              L9B7C_142:
1573++A5F6 ED 53 3D A7    LD (#A73D),DE
1574++A5FA EB             EX DE,HL
1575++A5FB 22 89 A6       LD (#A689),HL
1576++A5FE 01 05 00       LD BC,#0005
1577++A601 09             ADD HL,BC
1578++A602 7E             LD A,(HL)
1579++A603 2C             INC L
1580++A604 B6             OR (HL)
1581++A605 C8             RET Z
1582++A606 2D             DEC L
1583++A607 2D             DEC L
1584++A608              L9B7C_143:
1585++A608 ED 5B 89 A6    LD DE,(#A689)
1586++A60C 22 4A A6       LD (#A64A),HL
1587++A60F 2C             INC L
1588++A610 7E             LD A,(HL)
1589++A611 2C             INC L
1590++A612 B6             OR (HL)
1591++A613 2B             DEC HL
1592++A614 2B             DEC HL
1593++A615 CC EC A6       CALL Z,L9B7C_160
1594++A618 28 DC          JR Z,L9B7C_142
1595++A61A CD 34 A5       CALL L9B7C_124
1596++A61D 1A             LD A,(DE)
1597++A61E BE             CP (HL)
1598++A61F 28 04          JR Z,L9B7C_144
1599++A621 30 3E          JR NC,L9B7C_150
1600++A623 18 24          JR L9B7C_148
1601++A625              L9B7C_144:
1602++A625 01 F8 FF       LD BC,#FFF8
1603++A628 09             ADD HL,BC
1604++A629 EB             EX DE,HL
1605++A62A 09             ADD HL,BC
1606++A62B EB             EX DE,HL
1607++A62C 06 04          LD B,#04
1608++A62E              L9B7C_145:
1609++A62E 1A             LD A,(DE)
1610++A62F BE             CP (HL)
1611++A630 28 04          JR Z,L9B7C_146
1612++A632 30 2D          JR NC,L9B7C_150
1613++A634 18 13          JR L9B7C_148
1614++A636              L9B7C_146:
1615++A636 2B             DEC HL
1616++A637 1B             DEC DE
1617++A638 10 F4          DJNZ L9B7C_145
1618++A63A 01 0D 00       LD BC,#000D
1619++A63D 09             ADD HL,BC
1620++A63E EB             EX DE,HL
1621++A63F 09             ADD HL,BC
1622++A640 EB             EX DE,HL
1623++A641 06 FF          LD B,#FF
1624++A643              L9B7C_147:
1625++A643 1A             LD A,(DE)
1626++A644 BE             CP (HL)
1627++A645 28 0C          JR Z,L9B7C_149
1628++A647 30 18          JR NC,L9B7C_150
1629++A649              L9B7C_148:
1630++A649 21 00 00       LD HL,#0000
1631++A64C 2C             INC L
1632++A64D 2C             INC L
1633++A64E 2C             INC L
1634++A64F 23             INC HL
1635++A650 C3 08 A6       JP L9B7C_143
1636++A653              L9B7C_149:
1637++A653 23             INC HL
1638++A654 13             INC DE
1639++A655 10 EC          DJNZ L9B7C_147
1640++A657 2A 4A A6       LD HL,(#A64A)
1641++A65A 2C             INC L
1642++A65B 2C             INC L
1643++A65C 2C             INC L
1644++A65D 23             INC HL
1645++A65E C3 08 A6       JP L9B7C_143
1646++A661              L9B7C_150:
1647++A661 3E 01          LD A,#01
1648++A663 32 ED A6       LD (#A6ED),A
1649++A666 2A 4A A6       LD HL,(#A64A)
1650++A669 22 89 A6       LD (#A689),HL
1651++A66C 2C             INC L
1652++A66D 2C             INC L
1653++A66E 2C             INC L
1654++A66F 23             INC HL
1655++A670 C3 08 A6       JP L9B7C_143
1656++A673              L9B7C_151:
1657++A673 CD 15 A5       CALL L9B7C_123
1658++A676              L9B7C_152:
1659++A676 ED 53 3D A7    LD (#A73D),DE
1660++A67A EB             EX DE,HL
1661++A67B 22 89 A6       LD (#A689),HL
1662++A67E 01 05 00       LD BC,#0005
1663++A681 09             ADD HL,BC
1664++A682 7E             LD A,(HL)
1665++A683 2C             INC L
1666++A684 B6             OR (HL)
1667++A685 C8             RET Z
1668++A686 2D             DEC L
1669++A687 2D             DEC L
1670++A688              L9B7C_153:
1671++A688 11 00 00       LD DE,#0000
1672++A68B 22 C3 A6       LD (#A6C3),HL
1673++A68E 2C             INC L
1674++A68F 7E             LD A,(HL)
1675++A690 2C             INC L
1676++A691 B6             OR (HL)
1677++A692 2B             DEC HL
1678++A693 2B             DEC HL
1679++A694 CC EC A6       CALL Z,L9B7C_160
1680++A697 28 DD          JR Z,L9B7C_152
1681++A699 CD 34 A5       CALL L9B7C_124
1682++A69C 06 FF          LD B,#FF
1683++A69E 1A             LD A,(DE)
1684++A69F BE             CP (HL)
1685++A6A0 28 2A          JR Z,L9B7C_158
1686++A6A2 30 36          JR NC,L9B7C_159
1687++A6A4 18 1C          JR L9B7C_157
1688++A6A6              L9B7C_154:
1689++A6A6 7E             LD A,(HL)
1690++A6A7 4F             LD C,A
1691++A6A8 FE 5B          CP #5B
1692++A6AA 30 06          JR NC,L9B7C_155
1693++A6AC FE 41          CP #41
1694++A6AE 38 02          JR C,L9B7C_155
1695++A6B0 CB E9          SET 5,C
1696++A6B2              L9B7C_155:
1697++A6B2 1A             LD A,(DE)
1698++A6B3 FE 5B          CP #5B
1699++A6B5 30 06          JR NC,L9B7C_156
1700++A6B7 FE 41          CP #41
1701++A6B9 38 02          JR C,L9B7C_156
1702++A6BB CB EF          SET 5,A
1703++A6BD              L9B7C_156:
1704++A6BD B9             CP C
1705++A6BE 28 0C          JR Z,L9B7C_158
1706++A6C0 30 18          JR NC,L9B7C_159
1707++A6C2              L9B7C_157:
1708++A6C2 21 00 00       LD HL,#0000
1709++A6C5 2C             INC L
1710++A6C6 2C             INC L
1711++A6C7 2C             INC L
1712++A6C8 23             INC HL
1713++A6C9 C3 88 A6       JP L9B7C_153
1714++A6CC              L9B7C_158:
1715++A6CC 23             INC HL
1716++A6CD 13             INC DE
1717++A6CE 10 D6          DJNZ L9B7C_154
1718++A6D0 2A C3 A6       LD HL,(#A6C3)
1719++A6D3 2C             INC L
1720++A6D4 2C             INC L
1721++A6D5 2C             INC L
1722++A6D6 23             INC HL
1723++A6D7 C3 88 A6       JP L9B7C_153
1724++A6DA              L9B7C_159:
1725++A6DA 3E 01          LD A,#01
1726++A6DC 32 ED A6       LD (#A6ED),A
1727++A6DF 2A C3 A6       LD HL,(#A6C3)
1728++A6E2 22 89 A6       LD (#A689),HL
1729++A6E5 2C             INC L
1730++A6E6 2C             INC L
1731++A6E7 2C             INC L
1732++A6E8 23             INC HL
1733++A6E9 C3 88 A6       JP L9B7C_153
1734++A6EC              L9B7C_160:
1735++A6EC 3E 00          LD A,#00
1736++A6EE B7             OR A
1737++A6EF CA 17 A7       JP Z,L9B7C_161
1738++A6F2 AF             XOR A
1739++A6F3 32 ED A6       LD (#A6ED),A
1740++A6F6 ED 5B 3D A7    LD DE,(#A73D)
1741++A6FA 2A 89 A6       LD HL,(#A689)
1742++A6FD 1A             LD A,(DE)
1743++A6FE 4E             LD C,(HL)
1744++A6FF 77             LD (HL),A
1745++A700 79             LD A,C
1746++A701 12             LD (DE),A
1747++A702 2C             INC L
1748++A703 1C             INC E
1749++A704 1A             LD A,(DE)
1750++A705 4E             LD C,(HL)
1751++A706 77             LD (HL),A
1752++A707 79             LD A,C
1753++A708 12             LD (DE),A
1754++A709 2C             INC L
1755++A70A 1C             INC E
1756++A70B 1A             LD A,(DE)
1757++A70C 4E             LD C,(HL)
1758++A70D 77             LD (HL),A
1759++A70E 79             LD A,C
1760++A70F 12             LD (DE),A
1761++A710 2C             INC L
1762++A711 1C             INC E
1763++A712 1A             LD A,(DE)
1764++A713 4E             LD C,(HL)
1765++A714 77             LD (HL),A
1766++A715 79             LD A,C
1767++A716 12             LD (DE),A
1768++A717              L9B7C_161:
1769++A717 2A 3D A7       LD HL,(#A73D)
1770++A71A 2C             INC L
1771++A71B 2C             INC L
1772++A71C 2C             INC L
1773++A71D 23             INC HL
1774++A71E EB             EX DE,HL
1775++A71F AF             XOR A
1776++A720 C9             RET
1777++A721              ; Дождаться кадра, запретить прерывания и восстановить вектор IM2.
1778++A721              DINT:
1779++A721              L9B7C_162:
1780++A721 FB             EI
1781++A722 76             HALT
1782++A723 F3             DI
1783++A724 21 01 5C       LD HL,#5C01
1784++A727 22 FF 5B       LD (#5BFF),HL
1785++A72A C9             RET
1786++A72B              L9B7C_163:
1787++A72B 1A             LD A,(DE)
1788++A72C BE             CP (HL)
1789++A72D C0             RET NZ
1790++A72E 23             INC HL
1791++A72F 13             INC DE
1792++A730 10 F9          DJNZ L9B7C_163
1793++A732 C9             RET
1794++A733              L9B7C_164:
1795++A733 1A             LD A,(DE)
1796++A734 BE             CP (HL)
1797++A735 C0             RET NZ
1798++A736 23             INC HL
1799++A737 13             INC DE
1800++A738 1A             LD A,(DE)
1801++A739 B7             OR A
1802++A73A C8             RET Z
1803++A73B 18 F6          JR L9B7C_164
1804++A73D 00             NOP
1805++A73E 00             NOP
1806++A73F 00             NOP
1807++A740 D5             PUSH DE
1808++A741 00             NOP
1809++A742 FF             RST #38
1810++A743 06 22          LD B,#22
1811++A745 10 5F          DJNZ L9B7C_165
1812++A747 00             NOP
1813++A748 00             NOP
1814++A749 00             NOP
1815++A74A 04             INC B
1816++A74B 08             EX AF,AF'
1817++A74C 01 11 E4       LD BC,#E411
1818++A74F 58             LD E,B
1819++A750 59             LD E,C
1820++A751 A8             XOR B
1821++A752 00             NOP
1822++A753 00             NOP
1823++A754 00             NOP
1824++A755 00             NOP
1825++A756 84             ADD A,H
1826++A757 00             NOP
1827++A758 FF             RST #38
1828++A759 16 22          LD D,#22
1829++A75B 03             INC BC
1830++A75C 5F             LD E,A
1831++A75D 00             NOP
1832++A75E 00             NOP
1833++A75F 00             NOP
1834++A760 00             NOP
1835++A761 00             NOP
1836++A762 00             NOP
1837++A763 00             NOP
1838++A764 00             NOP
1839++A765 00             NOP
1840++A766 85             ADD A,L
1841++A767 A8             XOR B
1842++A768 84             ADD A,H
1843++A769 00             NOP
1844++A76A FF             RST #38
1845++A76B FF             RST #38
1846++A76C 2C             INC L
1847++A76D 03             INC BC
1848++A76E 4F             LD C,A
1849++A76F 00             NOP
1850++A770 00             NOP
1851++A771 00             NOP
1852++A772 00             NOP
1853++A773 00             NOP
1854++A774 00             NOP
1855++A775 00             NOP
1856++A776 00             NOP
1857++A777 00             NOP
1858++A778 7A             LD A,D
1859++A779 A7             AND A
1860++A77A 0E 49          LD C,#49
1861++A77C 4E             LD C,(HL)
1862++A77D 49             LD C,C
1863++A77E 20 66          JR NZ,L9B7C_168
1864++A780 69             LD L,C
1865++A781 6C             LD L,H
1866++A782 65             LD H,L
1867++A783 20 53          JR NZ,L9B7C_166
1868++A785 41             LD B,C
1869++A786 56             LD D,(HL)
1870++A787 45             LD B,L
1871++A788 44             LD B,H
1872++A789 2F             CPL
1873++A78A 4D             LD C,L
1874++A78B 45             LD B,L
1875++A78C 52             LD D,D
1876++A78D 47             LD B,A
1877++A78E 45             LD B,L
1878++A78F 44             LD B,H
1879++A790 20 53          JR NZ,L9B7C_167
1880++A792 55             LD D,L
1881++A793 43             LD B,E
1882++A794 43             LD B,E
1883++A795 45             LD B,L
1884++A796 53             LD D,E
1885++A797 53             LD D,E
1886++A798 46             LD B,(HL)
1887++A799 55             LD D,L
1888++A79A 4C             LD C,H
1889++A79B 4C             LD C,H
1890++A79C 59             LD E,C
1891++A79D 00             NOP
1892++A79E 13             INC DE
1893++A79F 00             NOP
1894++A7A0 12             LD (DE),A
1895++A7A1 0D             DEC C
1896++A7A2 2C             INC L
1897++A7A3 03             INC BC
1898++A7A4 1F             RRA
1899++A7A5 00             NOP
1900++A7A6              L9B7C_165:
1901++A7A6 00             NOP
1902++A7A7 00             NOP
1903++A7A8 00             NOP
1904++A7A9 00             NOP
1905++A7AA 00             NOP
1906++A7AB 00             NOP
1907++A7AC 00             NOP
1908++A7AD 00             NOP
1909++A7AE 00             NOP
1910++A7AF 00             NOP
1911++A7B0 00             NOP
1912++A7B1 00             NOP
1913++A7B2 FF             RST #38
1914++A7B3 FF             RST #38
1915++A7B4 00             NOP
1916++A7B5 00             NOP
1917++A7B6 00             NOP
1918++A7B7 00             NOP
1919++A7B8 00             NOP
1920++A7B9 00             NOP
1921++A7BA 00             NOP
1922++A7BB 77             LD (HL),A
1923++A7BC 63             LD H,E
1924++A7BD 2E 69          LD L,#69
1925++A7BF 6E             LD L,(HL)
1926++A7C0 69             LD L,C
1927++A7C1 00             NOP
1928++A7C2 5B             LD E,E
1929++A7C3 53             LD D,E
1930++A7C4 45             LD B,L
1931++A7C5 54             LD D,H
1932++A7C6 55             LD D,L
1933++A7C7 50             LD D,B
1934++A7C8 5D             LD E,L
1935++A7C9 0D             DEC C
1936++A7CA 43             LD B,E
1937++A7CB 50             LD D,B
1938++A7CC 55             LD D,L
1939++A7CD 5F             LD E,A
1940++A7CE 46             LD B,(HL)
1941++A7CF 52             LD D,D
1942++A7D0 45             LD B,L
1943++A7D1 51             LD D,C
1944++A7D2 3D             DEC A
1945++A7D3 32 0D 53       LD (#530D),A
1946++A7D6 61             LD H,C
1947++A7D7 76             HALT
1948++A7D8              L9B7C_166:
1949++A7D8 65             LD H,L
1950++A7D9 50             LD D,B
1951++A7DA 61             LD H,C
1952++A7DB 74             LD (HL),H
1953++A7DC 68             LD L,B
1954++A7DD 73             LD (HL),E
1955++A7DE 3D             DEC A
1956++A7DF 31 0D 53       LD SP,#530D
1957++A7E2 61             LD H,C
1958++A7E3 76             HALT
1959++A7E4 65             LD H,L
1960++A7E5              L9B7C_167:
1961++A7E5 50             LD D,B
1962++A7E6              L9B7C_168:
1963++A7E6 6F             LD L,A
1964++A7E7 73             LD (HL),E
1965++A7E8 69             LD L,C
1966++A7E9 74             LD (HL),H
1967++A7EA 69             LD L,C
1968++A7EB 6F             LD L,A
1969++A7EC 6E             LD L,(HL)
1970++A7ED 3D             DEC A
1971++A7EE 30 0D          JR NC,L9B7C_169
1972++A7F0 54             LD D,H
1973++A7F1 65             LD H,L
1974++A7F2 78             LD A,B
1975++A7F3 74             LD (HL),H
1976++A7F4 4D             LD C,L
1977++A7F5 6F             LD L,A
1978++A7F6 64             LD H,H
1979++A7F7 65             LD H,L
1980++A7F8 3D             DEC A
1981++A7F9 31 0D 53       LD SP,#530D
1982++A7FC 63             LD H,E
1983++A7FD              L9B7C_169:
1984++A7FD 72             LD (HL),D
1985++A7FE 65             LD H,L
1986++A7FF 65             LD H,L
1987++A800 6E             LD L,(HL)
1988++A801 53             LD D,E
1989++A802 61             LD H,C
1990++A803 76             HALT
1991++A804 65             LD H,L
1992++A805 72             LD (HL),D
1993++A806 3D             DEC A
1994++A807 30 0D          JR NC,L9B7C_170
1995++A809 4C             LD C,H
1996++A80A 6F             LD L,A
1997++A80B 67             LD H,A
1998++A80C 6F             LD L,A
1999++A80D 3D             DEC A
2000++A80E 30 0D          JR NC,L9B7C_171
2001++A810 0D             DEC C
2002++A811 5B             LD E,E
2003++A812 4C             LD C,H
2004++A813 50             LD D,B
2005++A814 41             LD B,C
2006++A815 4E             LD C,(HL)
2007++A816              L9B7C_170:
2008++A816 45             LD B,L
2009++A817 4C             LD C,H
2010++A818 5D             LD E,L
2011++A819 0D             DEC C
2012++A81A 44             LD B,H
2013++A81B 52             LD D,D
2014++A81C 56             LD D,(HL)
2015++A81D              L9B7C_171:
2016++A81D 3D             DEC A
2017++A81E 31 0D 49       LD SP,#490D
2018++A821 4E             LD C,(HL)
2019++A822 46             LD B,(HL)
2020++A823 4F             LD C,A
2021++A824 3D             DEC A
2022++A825 31 0D 43       LD SP,#430D
2023++A828 53             LD D,E
2024++A829 4F             LD C,A
2025++A82A 52             LD D,D
2026++A82B 54             LD D,H
2027++A82C 3D             DEC A
2028++A82D 31 0D 0D       LD SP,#0D0D
2029++A830 5B             LD E,E
2030++A831 52             LD D,D
2031++A832 50             LD D,B
2032++A833 41             LD B,C
2033++A834 4E             LD C,(HL)
2034++A835 45             LD B,L
2035++A836 4C             LD C,H
2036++A837 5D             LD E,L
2037++A838 0D             DEC C
2038++A839 44             LD B,H
2039++A83A 52             LD D,D
2040++A83B 56             LD D,(HL)
2041++A83C 3D             DEC A
2042++A83D 31 0D 49       LD SP,#490D
2043++A840 4E             LD C,(HL)
2044++A841 46             LD B,(HL)
2045++A842 4F             LD C,A
2046++A843 3D             DEC A
2047++A844 31 0D 43       LD SP,#430D
2048++A847 53             LD D,E
2049++A848 4F             LD C,A
2050++A849 52             LD D,D
2051++A84A 54             LD D,H
2052++A84B 3D             DEC A
2053++A84C 31 0D 00       LD SP,#000D
2054++A84F 5B             LD E,E
2055++A850 50             LD D,B
2056++A851 4C             LD C,H
2057++A852 55             LD D,L
2058++A853 47             LD B,A
2059++A854 49             LD C,C
2060++A855 4E             LD C,(HL)
2061++A856 53             LD D,E
2062++A857 5D             LD E,L
2063++A858 FF             RST #38
2064++A859 0E 09          LD C,#09
2065++A85B 49             LD C,C
2066++A85C 4E             LD C,(HL)
2067++A85D 49             LD C,C
2068++A85E 20 46          JR NZ,#A8A6
2069++A860 69             LD L,C
2070++A861 6C             LD L,H
2071++A862 65             LD H,L
2072++A863 20 53          JR NZ,L9B7C_173
2073++A865 65             LD H,L
2074++A866 74             LD (HL),H
2075++A867 75             LD (HL),L
2076++A868 70             LD (HL),B
2077++A869 00             NOP
2078++A86A 0E 4C          LD C,#4C
2079++A86C 65             LD H,L
2080++A86D 66             LD H,(HL)
2081++A86E 74             LD (HL),H
2082++A86F 20 50          JR NZ,#A8C1
2083++A871 61             LD H,C
2084++A872 6E             LD L,(HL)
2085++A873 65             LD H,L
2086++A874 6C             LD L,H
2087++A875 3A 00 0E       LD A,(#0E00)
2088++A878 52             LD D,D
2089++A879 69             LD L,C
2090++A87A 67             LD H,A
2091++A87B 68             LD L,B
2092++A87C 74             LD (HL),H
2093++A87D 20 50          JR NZ,L9B7C_174
2094++A87F 61             LD H,C
2095++A880 6E             LD L,(HL)
2096++A881 65             LD H,L
2097++A882 6C             LD L,H
2098++A883 3A 00 04       LD A,(#0400)
2099++A886 04             INC B
2100++A887 20 0E          JR NZ,L9B7C_172
2101++A889 53             LD D,E
2102++A88A 61             LD H,C
2103++A88B 76             HALT
2104++A88C 65             LD H,L
2105++A88D 20 49          JR NZ,L9B7C_175
2106++A88F 4E             LD C,(HL)
2107++A890 49             LD C,C
2108++A891 20 66          JR NZ,#A8F9
2109++A893 69             LD L,C
2110++A894 6C             LD L,H
2111++A895 65             LD H,L
2112++A896 00             NOP
2113++A897              L9B7C_172:
2114++A897 44             LD B,H
2115++A898 65             LD H,L
2116++A899 76             HALT
2117++A89A 69             LD L,C
2118++A89B 63             LD H,E
2119++A89C 65             LD H,L
2120++A89D 20 6F          JR NZ,#A90E
2121++A89F 72             LD (HL),D
2122++A8A0 20 46          JR NZ,L9B7C_176
2123++A8A2 41             LD B,C
2124++A8A3 54             LD D,H
2125++A8A4 33             INC SP
2126++A8A5 32 20 4E       LD (#4E20),A
2127++A8A8 4F             LD C,A
2128++A8A9 54             LD D,H
2129++A8AA 20 46          JR NZ,L9B7C_177
2130++A8AC 4F             LD C,A
2131++A8AD 55             LD D,L
2132++A8AE 4E             LD C,(HL)
2133++A8AF 44             LD B,H
2134++A8B0 21 49 4E       LD HL,#4E49
2135++A8B3 49             LD C,C
2136++A8B4 20 46          JR NZ,L9B7C_178
2137++A8B6 69             LD L,C
2138++A8B7 6C             LD L,H
2139++A8B8              L9B7C_173:
2140++A8B8 65             LD H,L
2141++A8B9 20 45          JR NZ,L9B7C_179
2142++A8BB 52             LD D,D
2143++A8BC 52             LD D,D
2144++A8BD 4F             LD C,A
2145++A8BE 52             LD D,D
2146++A8BF 3A 57 43       LD A,(#4357)
2147++A8C2 20 66          JR NZ,#A92A
2148++A8C4 6F             LD L,A
2149++A8C5 6C             LD L,H
2150++A8C6 64             LD H,H
2151++A8C7 65             LD H,L
2152++A8C8 72             LD (HL),D
2153++A8C9 20 6E          JR NZ,L9B7C_181
2154++A8CB 6F             LD L,A
2155++A8CC 74             LD (HL),H
2156++A8CD 20 66          JR NZ,#A935
2157++A8CF              L9B7C_174:
2158++A8CF 6F             LD L,A
2159++A8D0 75             LD (HL),L
2160++A8D1 6E             LD L,(HL)
2161++A8D2 64             LD H,H
2162++A8D3 21 57 43       LD HL,#4357
2163++A8D6 2E 49          LD L,#49
2164++A8D8              L9B7C_175:
2165++A8D8 4E             LD C,(HL)
2166++A8D9 49             LD C,C
2167++A8DA 20 6E          JR NZ,#A94A
2168++A8DC 6F             LD L,A
2169++A8DD 74             LD (HL),H
2170++A8DE 20 66          JR NZ,#A946
2171++A8E0 6F             LD L,A
2172++A8E1 75             LD (HL),L
2173++A8E2 6E             LD L,(HL)
2174++A8E3 64             LD H,H
2175++A8E4 21 49 4E       LD HL,#4E49
2176++A8E7 49             LD C,C
2177++A8E8              L9B7C_176:
2178++A8E8 20 66          JR NZ,#A950
2179++A8EA 69             LD L,C
2180++A8EB 6C             LD L,H
2181++A8EC 65             LD H,L
2182++A8ED 20 63          JR NZ,L9B7C_182
2183++A8EF 6F             LD L,A
2184++A8F0 72             LD (HL),D
2185++A8F1 72             LD (HL),D
2186++A8F2              L9B7C_177:
2187++A8F2 75             LD (HL),L
2188++A8F3 70             LD (HL),B
2189++A8F4 74             LD (HL),H
2190++A8F5 65             LD H,L
2191++A8F6 64             LD H,H
2192++A8F7 21 04 04       LD HL,#0404
2193++A8FA 3E 6C          LD A,#6C
2194++A8FC              L9B7C_178:
2195++A8FC 6F             LD L,A
2196++A8FD 61             LD H,C
2197++A8FE 64             LD H,H
2198++A8FF 69             LD L,C
2199++A900              L9B7C_179:
2200++A900 6E             LD L,(HL)
2201++A901 67             LD H,A
2202++A902 20 70          JR NZ,L9B7C_185
2203++A904 6C             LD L,H
2204++A905 75             LD (HL),L
2205++A906 67             LD H,A
2206++A907 69             LD L,C
2207++A908 6E             LD L,(HL)
2208++A909 73             LD (HL),E
2209++A90A 00             NOP
2210++A90B 02             LD (BC),A
2211++A90C DA A9 20       JP C,#20A9
2212++A90F 20 20          JR NZ,L9B7C_180
2213++A911 20 43          JR NZ,#A956
2214++A913 50             LD D,B
2215++A914 55             LD D,L
2216++A915 20 53          JR NZ,L9B7C_183
2217++A917 70             LD (HL),B
2218++A918 65             LD H,L
2219++A919 65             LD H,L
2220++A91A 64             LD H,H
2221++A91B 3A 20 00       LD A,(#0020)
2222++A91E 01 F1 A9       LD BC,#A9F1
2223++A921 52             LD D,D
2224++A922 65             LD H,L
2225++A923 6D             LD L,L
2226++A924 65             LD H,L
2227++A925 6D             LD L,L
2228++A926 62             LD H,D
2229++A927 65             LD H,L
2230++A928 72             LD (HL),D
2231++A929 20 64          JR NZ,#A98F
2232++A92B 69             LD L,C
2233++A92C 72             LD (HL),D
2234++A92D 73             LD (HL),E
2235++A92E 3A 20 00       LD A,(#0020)
2236++A931              L9B7C_180:
2237++A931 01 F1 A9       LD BC,#A9F1
2238++A934 20 20          JR NZ,#A956
2239++A936 53             LD D,E
2240++A937 61             LD H,C
2241++A938 76             HALT
2242++A939              L9B7C_181:
2243++A939 65             LD H,L
2244++A93A 20 43          JR NZ,#A97F
2245++A93C 75             LD (HL),L
2246++A93D 72             LD (HL),D
2247++A93E 73             LD (HL),E
2248++A93F 6F             LD L,A
2249++A940 72             LD (HL),D
2250++A941 3A 20 00       LD A,(#0020)
2251++A944 01 F9 A9       LD BC,#A9F9
2252++A947 20 20          JR NZ,#A969
2253++A949 20 20          JR NZ,L9B7C_184
2254++A94B 54             LD D,H
2255++A94C 45             LD B,L
2256++A94D 58             LD E,B
2257++A94E 54             LD D,H
2258++A94F 20 4D          JR NZ,#A99E
2259++A951 6F             LD L,A
2260++A952              L9B7C_182:
2261++A952 64             LD H,H
2262++A953 65             LD H,L
2263++A954 3A 20 00       LD A,(#0020)
2264++A957 03             INC BC
2265++A958 0A             LD A,(BC)
2266++A959 AA             XOR D
2267++A95A 20 20          JR NZ,#A97C
2268++A95C 53             LD D,E
2269++A95D 63             LD H,E
2270++A95E 72             LD (HL),D
2271++A95F 65             LD H,L
2272++A960 65             LD H,L
2273++A961 6E             LD L,(HL)
2274++A962 53             LD D,E
2275++A963 61             LD H,C
2276++A964 76             HALT
2277++A965 65             LD H,L
2278++A966 72             LD (HL),D
2279++A967 3A 20 00       LD A,(#0020)
2280++A96A              L9B7C_183:
2281++A96A 00             NOP
2282++A96B              L9B7C_184:
2283++A96B 72             LD (HL),D
2284++A96C AA             XOR D
2285++A96D 20 20          JR NZ,#A98F
2286++A96F 20 54          JR NZ,L9B7C_188
2287++A971 69             LD L,C
2288++A972 74             LD (HL),H
2289++A973 6C             LD L,H
2290++A974              L9B7C_185:
2291++A974 65             LD H,L
2292++A975 20 4C          JR NZ,#A9C3
2293++A977 6F             LD L,A
2294++A978 67             LD H,A
2295++A979 6F             LD L,A
2296++A97A 3A 20 00       LD A,(#0020)
2297++A97D FF             RST #38
2298++A97E 01 2A AA       LD BC,#AA2A
2299++A981 20 20          JR NZ,L9B7C_186
2300++A983 20 44          JR NZ,#A9C9
2301++A985 72             LD (HL),D
2302++A986 69             LD L,C
2303++A987 76             HALT
2304++A988 65             LD H,L
2305++A989 72             LD (HL),D
2306++A98A 3A 20 00       LD A,(#0020)
2307++A98D 01 72 AA       LD BC,#AA72
2308++A990 46             LD B,(HL)
2309++A991 69             LD L,C
2310++A992 6C             LD L,H
2311++A993 65             LD H,L
2312++A994 20 49          JR NZ,L9B7C_190
2313++A996 6E             LD L,(HL)
2314++A997 66             LD H,(HL)
2315++A998 6F             LD L,A
2316++A999 3A 20 00       LD A,(#0020)
2317++A99C 01 84 AA       LD BC,#AA84
2318++A99F 20 20          JR NZ,L9B7C_187
2319++A9A1 53             LD D,E
2320++A9A2 6F             LD L,A
2321++A9A3              L9B7C_186:
2322++A9A3 72             LD (HL),D
2323++A9A4 74             LD (HL),H
2324++A9A5 69             LD L,C
2325++A9A6 6E             LD L,(HL)
2326++A9A7 67             LD H,A
2327++A9A8 3A 20 00       LD A,(#0020)
2328++A9AB FF             RST #38
2329++A9AC 01 2A AA       LD BC,#AA2A
2330++A9AF 20 20          JR NZ,L9B7C_189
2331++A9B1 20 44          JR NZ,L9B7C_193
2332++A9B3 72             LD (HL),D
2333++A9B4 69             LD L,C
2334++A9B5 76             HALT
2335++A9B6 65             LD H,L
2336++A9B7 72             LD (HL),D
2337++A9B8 3A 20 00       LD A,(#0020)
2338++A9BB 01 72 AA       LD BC,#AA72
2339++A9BE 46             LD B,(HL)
2340++A9BF 69             LD L,C
2341++A9C0 6C             LD L,H
2342++A9C1              L9B7C_187:
2343++A9C1 65             LD H,L
2344++A9C2 20 49          JR NZ,L9B7C_194
2345++A9C4 6E             LD L,(HL)
2346++A9C5              L9B7C_188:
2347++A9C5 66             LD H,(HL)
2348++A9C6 6F             LD L,A
2349++A9C7 3A 20 00       LD A,(#0020)
2350++A9CA 01 84 AA       LD BC,#AA84
2351++A9CD 20 20          JR NZ,L9B7C_191
2352++A9CF 53             LD D,E
2353++A9D0 6F             LD L,A
2354++A9D1              L9B7C_189:
2355++A9D1 72             LD (HL),D
2356++A9D2 74             LD (HL),H
2357++A9D3 69             LD L,C
2358++A9D4 6E             LD L,(HL)
2359++A9D5 67             LD H,A
2360++A9D6 3A 20 00       LD A,(#0020)
2361++A9D9 FF             RST #38
2362++A9DA 03             INC BC
2363++A9DB 07             RLCA
2364++A9DC 33             INC SP
2365++A9DD 2E 35          LD L,#35
2366++A9DF              L9B7C_190:
2367++A9DF 20 4D          JR NZ,L9B7C_196
2368++A9E1 48             LD C,B
2369++A9E2 7A             LD A,D
2370++A9E3 37             SCF
2371++A9E4 20 4D          JR NZ,L9B7C_198
2372++A9E6 48             LD C,B
2373++A9E7 7A             LD A,D
2374++A9E8 20 20          JR NZ,#AA0A
2375++A9EA 31 34 20       LD SP,#2034
2376++A9ED 4D             LD C,L
2377++A9EE 48             LD C,B
2378++A9EF              L9B7C_191:
2379++A9EF 7A             LD A,D
2380++A9F0 20 02          JR NZ,L9B7C_192
2381++A9F2 03             INC BC
2382++A9F3 4E             LD C,(HL)
2383++A9F4              L9B7C_192:
2384++A9F4 4F             LD C,A
2385++A9F5 20 59          JR NZ,L9B7C_200
2386++A9F7              L9B7C_193:
2387++A9F7 45             LD B,L
2388++A9F8 53             LD D,E
2389++A9F9 03             INC BC
2390++A9FA 05             DEC B
2391++A9FB 38 30          JR C,L9B7C_195
2392++A9FD 78             LD A,B
2393++A9FE 32 35 38       LD (#3835),A
2394++AA01 30 78          JR NC,L9B7C_204
2395++AA03 33             INC SP
2396++AA04 30 39          JR NC,L9B7C_199
2397++AA06 30 78          JR NC,L9B7C_205
2398++AA08 33             INC SP
2399++AA09 36 06          LD (HL),#06
2400++AA0B 05             DEC B
2401++AA0C 4F             LD C,A
2402++AA0D              L9B7C_194:
2403++AA0D 66             LD H,(HL)
2404++AA0E 66             LD H,(HL)
2405++AA0F 20 20          JR NZ,L9B7C_197
2406++AA11 31 20 6D       LD SP,#6D20
2407++AA14 69             LD L,C
2408++AA15 6E             LD L,(HL)
2409++AA16 32 20 6D       LD (#6D20),A
2410++AA19 69             LD L,C
2411++AA1A 6E             LD L,(HL)
2412++AA1B 33             INC SP
2413++AA1C 20 6D          JR NZ,L9B7C_207
2414++AA1E 69             LD L,C
2415++AA1F 6E             LD L,(HL)
2416++AA20 34             INC (HL)
2417++AA21 20 6D          JR NZ,#AA90
2418++AA23 69             LD L,C
2419++AA24 6E             LD L,(HL)
2420++AA25 35             DEC (HL)
2421++AA26 20 6D          JR NZ,L9B7C_210
2422++AA28 69             LD L,C
2423++AA29 6E             LD L,(HL)
2424++AA2A 07             RLCA
2425++AA2B 0A             LD A,(BC)
2426++AA2C 49             LD C,C
2427++AA2D              L9B7C_195:
2428++AA2D 44             LD B,H
2429++AA2E              L9B7C_196:
2430++AA2E 45             LD B,L
2431++AA2F 6E             LD L,(HL)
2432++AA30 65             LD H,L
2433++AA31              L9B7C_197:
2434++AA31 6D             LD L,L
2435++AA32 6F             LD L,A
2436++AA33              L9B7C_198:
2437++AA33 4D             LD C,L
2438++AA34 61             LD H,C
2439++AA35 73             LD (HL),E
2440++AA36 53             LD D,E
2441++AA37 44             LD B,H
2442++AA38 20 28          JR NZ,L9B7C_202
2443++AA3A 5A             LD E,D
2444++AA3B 43             LD B,E
2445++AA3C 29             ADD HL,HL
2446++AA3D 20 20          JR NZ,L9B7C_201
2447++AA3F              L9B7C_199:
2448++AA3F 20 53          JR NZ,L9B7C_209
2449++AA41 44             LD B,H
2450++AA42 20 28          JR NZ,#AA6C
2451++AA44 4E             LD C,(HL)
2452++AA45 47             LD B,A
2453++AA46 53             LD D,E
2454++AA47 29             ADD HL,HL
2455++AA48 20 20          JR NZ,L9B7C_203
2456++AA4A 49             LD C,C
2457++AA4B 44             LD B,H
2458++AA4C 45             LD B,L
2459++AA4D 73             LD (HL),E
2460++AA4E 6D             LD L,L
2461++AA4F 75             LD (HL),L
2462++AA50              L9B7C_200:
2463++AA50 63             LD H,E
2464++AA51 4D             LD C,L
2465++AA52 61             LD H,C
2466++AA53 73             LD (HL),E
2467++AA54 49             LD C,C
2468++AA55 44             LD B,H
2469++AA56 45             LD B,L
2470++AA57 73             LD (HL),E
2471++AA58 6D             LD L,L
2472++AA59 75             LD (HL),L
2473++AA5A 63             LD H,E
2474++AA5B 53             LD D,E
2475++AA5C 6C             LD L,H
2476++AA5D 61             LD H,C
2477++AA5E 49             LD C,C
2478++AA5F              L9B7C_201:
2479++AA5F 44             LD B,H
2480++AA60 45             LD B,L
2481++AA61 6E             LD L,(HL)
2482++AA62              L9B7C_202:
2483++AA62 65             LD H,L
2484++AA63 6D             LD L,L
2485++AA64 6F             LD L,A
2486++AA65 53             LD D,E
2487++AA66 6C             LD L,H
2488++AA67 61             LD H,C
2489++AA68 53             LD D,E
2490++AA69 44             LD B,H
2491++AA6A              L9B7C_203:
2492++AA6A 32 20 28       LD (#2820),A
2493++AA6D 5A             LD E,D
2494++AA6E 43             LD B,E
2495++AA6F 29             ADD HL,HL
2496++AA70 20 20          JR NZ,L9B7C_208
2497++AA72 02             LD (BC),A
2498++AA73 08             EX AF,AF'
2499++AA74 44             LD B,H
2500++AA75 69             LD L,C
2501++AA76 73             LD (HL),E
2502++AA77 61             LD H,C
2503++AA78 62             LD H,D
2504++AA79 6C             LD L,H
2505++AA7A 65             LD H,L
2506++AA7B              L9B7C_204:
2507++AA7B 64             LD H,H
2508++AA7C 45             LD B,L
2509++AA7D 6E             LD L,(HL)
2510++AA7E 61             LD H,C
2511++AA7F 62             LD H,D
2512++AA80              L9B7C_205:
2513++AA80 6C             LD L,H
2514++AA81 65             LD H,L
2515++AA82 64             LD H,H
2516++AA83 20 04          JR NZ,L9B7C_206
2517++AA85 07             RLCA
2518++AA86 6F             LD L,A
2519++AA87 66             LD H,(HL)
2520++AA88 66             LD H,(HL)
2521++AA89              L9B7C_206:
2522++AA89 20 20          JR NZ,L9B7C_211
2523++AA8B              L9B7C_207:
2524++AA8B 20 20          JR NZ,L9B7C_212
2525++AA8D 62             LD H,D
2526++AA8E 79             LD A,C
2527++AA8F 20 6E          JR NZ,L9B7C_215
2528++AA91 61             LD H,C
2529++AA92              L9B7C_208:
2530++AA92 6D             LD L,L
2531++AA93 65             LD H,L
2532++AA94              L9B7C_209:
2533++AA94 62             LD H,D
2534++AA95              L9B7C_210:
2535++AA95 79             LD A,C
2536++AA96 20 65          JR NZ,L9B7C_213
2537++AA98 78             LD A,B
2538++AA99 74             LD (HL),H
2539++AA9A 20 62          JR NZ,L9B7C_214
2540++AA9C 79             LD A,C
2541++AA9D 20 73          JR NZ,L9B7C_216
2542++AA9F 69             LD L,C
2543++AAA0 7A             LD A,D
2544++AAA1 65             LD H,L
2545++AAA2 53             LD D,E
2546++AAA3 45             LD B,L
2547++AAA4 54             LD D,H
2548++AAA5 55             LD D,L
2549++AAA6 50             LD D,B
2550++AAA7 00             NOP
2551++AAA8 C9             RET
2552++AAA9 A3             AND E
2553++AAAA 50             LD D,B
2554++AAAB              L9B7C_211:
2555++AAAB 4C             LD C,H
2556++AAAC 55             LD D,L
2557++AAAD              L9B7C_212:
2558++AAAD 47             LD B,A
2559++AAAE 49             LD C,C
2560++AAAF 4E             LD C,(HL)
2561++AAB0 53             LD D,E
2562++AAB1 00             NOP
2563++AAB2 29             ADD HL,HL
2564++AAB3 A3             AND E
2565++AAB4 4C             LD C,H
2566++AAB5 50             LD D,B
2567++AAB6 41             LD B,C
2568++AAB7 4E             LD C,(HL)
2569++AAB8 45             LD B,L
2570++AAB9 4C             LD C,H
2571++AABA 00             NOP
2572++AABB 51             LD D,C
2573++AABC A3             AND E
2574++AABD 52             LD D,D
2575++AABE 50             LD D,B
2576++AABF 41             LD B,C
2577++AAC0 4E             LD C,(HL)
2578++AAC1 45             LD B,L
2579++AAC2 4C             LD C,H
2580++AAC3 00             NOP
2581++AAC4 56             LD D,(HL)
2582++AAC5 A3             AND E
2583++AAC6 FF             RST #38
2584++AAC7 44             LD B,H
2585++AAC8 52             LD D,D
2586++AAC9 56             LD D,(HL)
2587++AACA 00             NOP
2588++AACB 94             SUB H
2589++AACC A3             AND E
2590++AACD 49             LD C,C
2591++AACE 4E             LD C,(HL)
2592++AACF 46             LD B,(HL)
2593++AAD0 4F             LD C,A
2594++AAD1 00             NOP
2595++AAD2 A5             AND L
2596++AAD3 A3             AND E
2597++AAD4 43             LD B,E
2598++AAD5 53             LD D,E
2599++AAD6 4F             LD C,A
2600++AAD7 52             LD D,D
2601++AAD8 54             LD D,H
2602++AAD9 00             NOP
2603++AADA B3             OR E
2604++AADB A3             AND E
2605++AADC FF             RST #38
2606++AADD 43             LD B,E
2607++AADE 50             LD D,B
2608++AADF 55             LD D,L
2609++AAE0 5F             LD E,A
2610++AAE1 46             LD B,(HL)
2611++AAE2 52             LD D,D
2612++AAE3 45             LD B,L
2613++AAE4 51             LD D,C
2614++AAE5 00             NOP
2615++AAE6 D8             RET C
2616++AAE7 A3             AND E
2617++AAE8 53             LD D,E
2618++AAE9 61             LD H,C
2619++AAEA 76             HALT
2620++AAEB 65             LD H,L
2621++AAEC 50             LD D,B
2622++AAED 61             LD H,C
2623++AAEE 74             LD (HL),H
2624++AAEF 68             LD L,B
2625++AAF0 73             LD (HL),E
2626++AAF1 00             NOP
2627++AAF2 E3             EX (SP),HL
2628++AAF3 A3             AND E
2629++AAF4 53             LD D,E
2630++AAF5 61             LD H,C
2631++AAF6 76             HALT
2632++AAF7 65             LD H,L
2633++AAF8 50             LD D,B
2634++AAF9 6F             LD L,A
2635++AAFA 73             LD (HL),E
2636++AAFB 69             LD L,C
2637++AAFC 74             LD (HL),H
2638++AAFD              L9B7C_213:
2639++AAFD 69             LD L,C
2640++AAFE              L9B7C_214:
2641++AAFE 6F             LD L,A
2642++AAFF              L9B7C_215:
2643++AAFF 6E             LD L,(HL)
2644++AB00 00             NOP
2645++AB01 2C             INC L
2646++AB02 A4             AND H
2647++AB03 54             LD D,H
2648++AB04 65             LD H,L
2649++AB05 78             LD A,B
2650++AB06 74             LD (HL),H
2651++AB07 4D             LD C,L
2652++AB08 6F             LD L,A
2653++AB09 64             LD H,H
2654++AB0A 65             LD H,L
2655++AB0B 00             NOP
2656++AB0C F0             RET P
2657++AB0D A3             AND E
2658++AB0E 53             LD D,E
2659++AB0F 63             LD H,E
2660++AB10 72             LD (HL),D
2661++AB11 65             LD H,L
2662++AB12              L9B7C_216:
2663++AB12 65             LD H,L
2664++AB13 6E             LD L,(HL)
2665++AB14 53             LD D,E
2666++AB15 61             LD H,C
2667++AB16 76             HALT
2668++AB17 65             LD H,L
2669++AB18 72             LD (HL),D
2670++AB19 00             NOP
2671++AB1A 3A A4 4C       LD A,(#4CA4)
2672++AB1D 6F             LD L,A
2673++AB1E 67             LD H,A
2674++AB1F 6F             LD L,A
2675++AB20 00             NOP
2676++AB21 52             LD D,D
2677++AB22 A4             AND H
2678++AB23 FF             RST #38
2679++AB24 53             LD D,E
2680++AB25 70             LD (HL),B
2681++AB26 65             LD H,L
2682++AB27 63             LD H,E
2683++AB28 74             LD (HL),H
2684++AB29 72             LD (HL),D
2685++AB2A 75             LD (HL),L
2686++AB2B 6D             LD L,L
2687++AB2C 50             LD D,B
2688++AB2D 72             LD (HL),D
2689++AB2E 6F             LD L,A
2690++AB2F 67             LD H,A
2691++AB30 57             LD D,A
2692++AB31 69             LD L,C
2693++AB32 6C             LD L,H
2694++AB33 64             LD H,H
2695++AB34 43             LD B,E
2696++AB35 6F             LD L,A
2697++AB36 6D             LD L,L
2698++AB37 6D             LD L,L
2699++AB38 61             LD H,C
2700++AB39 6E             LD L,(HL)
2701++AB3A 64             LD H,H
2702++AB3B 65             LD H,L
2703++AB3C 72             LD (HL),D
2704++AB3D 4D             LD C,L
2705++AB3E 44             LD B,H
2706++AB3F 4C             LD C,H
2707++AB40 57             LD D,A
2708++AB41 69             LD L,C
2709++AB42 6C             LD L,H
2710++AB43 64             LD H,H
2711++AB44 20 43          JR NZ,#AB89
2712++AB46 6F             LD L,A
2713++AB47 6D             LD L,L
2714++AB48 6D             LD L,L
2715++AB49 61             LD H,C
2716++AB4A 6E             LD L,(HL)
2717++AB4B 64             LD H,H
2718++AB4C 65             LD H,L
2719++AB4D 72             LD (HL),D
2720++AB4E 20 76          JR NZ,#ABC6
2721++AB50 31 2E 31       LD SP,#312E
2722++AB53 49             LD C,C
2723++AB54 44             LD B,H
2724++AB55 45             LD B,L
2725++AB56 20 56          JR NZ,#ABAE
2726++AB58 69             LD L,C
2727++AB59 64             LD H,H
2728++AB5A 65             LD H,L
2729++AB5B 6F             LD L,A
2730++AB5C 44             LD B,H
2731++AB5D 41             LD B,C
2732++AB5E 43             LD B,E
2733++AB5F 3A 20 64       LD A,(#6420)
2734++AB62 65             LD H,L
2735++AB63 74             LD (HL),H
2736++AB64 65             LD H,L
2737++AB65 63             LD H,E
2738++AB66 74             LD (HL),H
2739++AB67 65             LD H,L
2740++AB68 64             LD H,H
2741++AB69 6E             LD L,(HL)
2742++AB6A 6F             LD L,A
2743++AB6B 6E             LD L,(HL)
2744++AB6C 65             LD H,L
2745++AB6D 20 20          JR NZ,#AB8F
2746++AB6F 20 20          JR NZ,L9B7C_217
2747++AB71 C5             PUSH BC
2748++AB72 CD 22 69       CALL L6011_123
2749++AB75 C1             POP BC
2750++AB76 E9             JP (HL)
2751++AB77 00             NOP
2752++AB78 00             NOP
2753++AB79 22 89 AB       LD (#AB89),HL
2754++AB7C 2A 02 60       LD HL,(#6002)
2755++AB7F C5             PUSH BC
2756++AB80 CD 22 69       CALL L6011_123
2757++AB83 C1             POP BC
2758++AB84 7D             LD A,L
2759++AB85 32 8C AB       LD (#AB8C),A
2760++AB88 CD 00 00       CALL #0000
2761++AB8B 3E 00          LD A,#00
2762++AB8D C5             PUSH BC
2763++AB8E CD 22 69       CALL L6011_123
2764++AB91              L9B7C_217:
2765++AB91 C1             POP BC
2766++AB92 C9             RET
2767++AB93              ; Скопировать 40-байтовый шлюз резидентных плагинов из #AB71 в #6020.
2768++AB93              ; Копирование намеренно затирает часть одноразового стартового кода.
2769++AB93              PLresCP:
2770++AB93              L9B7C_218:
2771++AB93 21 71 AB       LD HL,#AB71
2772++AB96 11 20 60       LD DE,#6020
2773++AB99 01 28 00       LD BC,#0028
2774++AB9C ED B0          LDIR
2775++AB9E C9             RET
2776++AB9F
# file closed: WCINI_DISASM.ASM
  44+ AB9F                      ASSERT $ == #AB9F, нарушена граница WCINI_DISASM.ASM
  45+ AB9F
  46+ AB9F              ; Точные двоичные ресурсы, извлечённые из поставляемого образа.
  47+ AB9F              LAB9F:
  48+ AB9F              FONT32L3 EQU LAB9F
  49+ AB9F                      INCBIN "FONT32L3.CDB"
  50+ B39F                      ASSERT $ == #B39F, нарушена граница FONT32L3.CDB
  51+ B39F
  52+ B39F              LB39F:
  53+ B39F              DEHR1M EQU LB39F
  54+ B39F                      INCBIN "DEHR1M.CCB"
  55+ B4B6                      ASSERT $ == #B4B6, нарушена граница DEHR1M.CCB
  56+ B4B6
  57+ B4B6              LB4B6:
  58+ B4B6              MLZ50F EQU LB4B6
  59+ B4B6                      INCBIN "MLZ50F.CCB"
  60+ B59F                      ASSERT $ == #B59F, нарушена граница MLZ50F.CCB
  61+ B59F
  62+ B59F              ; В поставляемом образе эта область заполнена нулями; её назначение пока не доказано.
  63+ B59F              LB59F:
  64+ B59F 00 00 00...          DS #C000-$,0
  65+ C000                      ASSERT $ == #C000, нарушена граница нулевой области
  66+ C000
  67+ C000              ; Осмысленный CORE32 содержит загрузчик, ядро, точные упакованные драйверы
  68+ C000              ; и оригинальный DEHR2. MODULE изолирует исторические имена WildDOS от имён WC.
  69+ C000                      MODULE WDOS
  70+ C000                      INCLUDE "CORE32.ASM"
# file opened: CORE32.ASM
   1++C000              ; CORE32 — осмысленный exact-исходник WildDOSFileCore #35.
   2++C000              ; Физический диапазон в boot.$C: #C000..#DBD2.
   3++C000              ; LC000 копирует #C00C..#DBD2 в рабочий диапазон #4000..#5BC6.
   4++C000              ; Основные процедуры рабочего образа:
   5++C000              ;   START #4000 — 31-элементная таблица API;
   6++C000              ;   NXTETY2 #4067 и NXTETY #4140 — перечисление каталога;
   7++C000              ;   LOAD512 #43BF / SAVE512 #43AD — потоковый обмен;
   8++C000              ;   CURIT #44C5 — загрузка записи FAT;
   9++C000              ;   GIPAG #450F — позиционирование на первом секторе кластера;
  10++C000              ;   MKSG #48A6 — создание FAT-цепочки; DLSG #49E1 — удаление цепочки;
  11++C000              ;   SRHDRN #4A63 — поиск записи; MKFILE #4D52 / MKDIR #4D78 — создание;
  12++C000              ;   DELFL #4CF8 / RENAME #4D31 — удаление и переименование;
  13++C000              ;   HDD #4EA2 — поиск раздела и проверка FAT32;
  14++C000              ;   DOS_SWP #503B — выбор, распаковка и запуск драйвера;
  15++C000              ;   DEHR #5AAA — распаковщик драйверов.
  16++C000              ; ALASM-конструкция .N повторяет всю цепочку команд строки. Здесь она явно
  17++C000              ; выражена DUP/EDUP; это устраняет прежнюю потерю #50 байт и ошибки алгоритмов.
  18++C000              ; Четыре слова итератора каталога находятся по #37F8..#37FE перед драйвером,
  19++C000              ; поэтому загрузка нового драйвера в #3800 их не уничтожает.
  20++C000                      ORG #C000
  21++C000
  22++C000              LC000:
  23++C000 21 0C C0 11          LD HL,CORE32,DE,#4000
  23++C004 00 40
  24++C006 01 C7 1B             LD BC,END-START
  25++C009 ED B0                LDIR
  26++C00B C9                   RET
  27++C00C
  28++C00C                      INCLUDE "KERNEL.ASM"
# file opened: KERNEL.ASM
   1++C00C              ; KERNEL — рабочая карта памяти и таблица API WildDOSFileCore.
   2++C00C              ; Метка CORE32 ставится физически по #C00C до DISP #4000; START и весь код
   3++C00C              ; после неё адресуются так, как исполняются после копирования.
   4++C00C              ; Ключевые области:
   5++C00C              ;   #0000..#1FFF — буфер перечисления каталога;
   6++C00C              ;   #3000..#31FF — сектор FAT; #3200/#3400 — два секторных буфера;
   7++C00C              ;   #37F8..#37FE — состояние итератора каталога;
   8++C00C              ;   #3800 — таблица входов текущего драйвера;
   9++C00C              ;   #3848 — общие переменные; #3868 — 32-байтовая FAT-запись;
  10++C00C              ;   #3889..#38CC — параметры FAT32, потоков и текущего каталога.
  11++C00C              CORE32:
  12++C00C                      DISP #4000
  13++4000              GENBU   EQU #0000
  14++4000              GENBE   EQU #2000
  15++4000              NXTBU   EQU #0000
  16++4000              NXTBM   EQU #1000
  17++4000              NXTBE   EQU #2000
  18++4000              NXTBZ   EQU (high NXTBE-high NXTBU)/2
  19++4000
  20++4000              DRVR    EQU #3800
  21++4000              VALS    EQU DRVR+24*3
  22++4000              ; Буфер управляющих значений драйвера расположен перед таблицей входов #3800.
  23++4000              ; Исторический дамп исходников ошибочно отсчитывал эти четыре слова от VALS.
  24++4000              CGFL    EQU DRVR-2
  25++4000              CGPZ    EQU DRVR-4
  26++4000              CGHL    EQU DRVR-6
  27++4000              CGDE    EQU DRVR-8
  28++4000
  29++4000              SECBU   EQU #3000
  30++4000              SECBE   EQU SECBU+512
  31++4000              LOBU    EQU #3200
  32++4000              LOBE    EQU LOBU+512
  33++4000              LOBU2   EQU LOBE
  34++4000              LOBE2   EQU LOBU2+512
  35++4000              SELDEV  EQU DRVR
  36++4000              DEVINI  EQU DRVR+3
  37++4000              REINI   EQU DRVR+3*2
  38++4000
  39++4000              XPOZI   EQU DRVR+3*3
  40++4000              PROZ    EQU XPOZI+3
  41++4000
  42++4000              RDDSE   EQU PROZ+3
  43++4000              SDDSE   EQU RDDSE+3
  44++4000
  45++4000              RDD256  EQU SDDSE+3
  46++4000              NSDC    EQU VALS
  47++4000              EOC     EQU NSDC+1
  48++4000
  49++4000              ABT     EQU EOC+1
  50++4000
  51++4000              BZN     EQU ABT+1
  52++4000              NR0     EQU BZN+1
  53++4000
  54++4000              CAHL    EQU NR0+2
  55++4000              CADE    EQU CAHL+2
  56++4000
  57++4000              LSTSE   EQU CADE+2
  58++4000
  59++4000              REZDE   EQU LSTSE+4
  60++4000
  61++4000              PR      EQU REZDE+2
  62++4000
  63++4000              CLHL    EQU PR+4
  64++4000              CLDE    EQU CLHL+2
  65++4000
  66++4000              LLHL    EQU CLDE+2
  67++4000
  68++4000              LTHL    EQU LLHL+4
  69++4000              LTDE    EQU LTHL+2
  70++4000              ENTRY   EQU LTDE+2
  71++4000              EFLG    EQU ENTRY+11
  72++4000              CLSDE   EQU ENTRY+20
  73++4000              CLSHL   EQU ENTRY+26
  74++4000              SIZIK   EQU ENTRY+28
  75++4000              BREZS   EQU ENTRY+33
  76++4000              FSINF   EQU BREZS+2
  77++4000
  78++4000              BFATS   EQU FSINF+4
  79++4000              BFTSZ   EQU BFATS+1
  80++4000              BSECPC  EQU BFTSZ+4
  81++4000              BROOTC  EQU BSECPC+2
  82++4000
  83++4000              FSTFRC  EQU BROOTC+4
  84++4000
  85++4000              ADDTOP  EQU FSTFRC+4
  86++4000
  87++4000              SFAT    EQU ADDTOP+4
  88++4000              SDFAT   EQU SFAT+2
  89++4000
  90++4000              CUHL    EQU SDFAT+4
  91++4000              CUDE    EQU CUHL+2
  92++4000
  93++4000              NXDE    EQU CUDE+2
  94++4000              NXHL    EQU NXDE+2
  95++4000
  96++4000              LDHL    EQU NXHL+2
  97++4000
  98++4000              COUNT   EQU LDHL+2
  99++4000              DUHL    EQU COUNT+1
 100++4000              DUDE    EQU DUHL+2
 101++4000
 102++4000              DUBA    EQU DUDE+2
 103++4000              UUHL    EQU DUBA+1
 104++4000              BUHL    EQU UUHL+2
 105++4000              CLCNT   EQU BUHL+2
 106++4000
 107++4000              FCTS    EQU CLCNT+4
 108++4000              BUTS    EQU FCTS+4
 109++4000
 110++4000              LSTCAT  EQU BUTS+4
 111++4000              RECCAT  EQU LSTCAT+4
 112++4000
 113++4000 C3 62 43     START   JP Z0
 114++4003 C3 03 38             JP DEVINI
 115++4006 C3 62 43             JP Z0
 116++4009 C3 A2 4E             JP HDD
 117++400C
 118++400C C3 79 43             JP RDD
 119++400F C3 81 43             JP SDD
 120++4012
 121++4012 C3 0F 45             JP GIPAG
 122++4015 C3 BF 43             JP LOAD512
 123++4018 C3 AD 43             JP SAVE512
 124++401B
 125++401B C3 3B 50             JP DOS_SWP
 126++401E
 127++401E C3 63 43             JP GLSTCAT
 128++4021 C3 70 43             JP TLSTCAT
 129++4024
 130++4024 C3 5C 44             JP SRHFCL
 131++4027 C3 62 43             JP Z0
 132++402A C3 A6 48             JP MKSG
 133++402D C3 62 43             JP Z0
 134++4030 C3 FF 4D             JP RFRH
 135++4033
 136++4033 C3 51 43             JP GENTRY
 137++4036 C3 5A 43             JP TENTRY
 138++4039
 139++4039 C3 52 4D             JP MKFILE
 140++403C C3 78 4D             JP MKDIR
 141++403F
 142++403F C3 F8 4C             JP DELFL
 143++4042 C3 31 4D             JP RENAME
 144++4045
 145++4045 C3 E1 49             JP DLSG
 146++4048 C3 24 4E             JP CHTOSE
 147++404B
 148++404B C3 62 43             JP Z0
 149++404E C3 63 4A             JP SRHDRN
 150++4051
 151++4051 C3 9B 43             JP LOAD256
 152++4054 C3 89 43             JP LOADNON
 153++4057
 154++4057 C3 40 41             JP NXTETY
 155++405A C3 67 40             JP NXTETY2
 156++405D
# file closed: KERNEL.ASM
  29++405D 7D           RMFL2   LD A,L
  29++405E E6 F0         AND #F0
  29++4060 6F            LD L,A
  30++4061 0E 20                LD C,32
  30++4063 09            ADD HL,BC
  31++4064 C3 A6 40             JP NXFL2
  32++4067              NXTETY2
  33++4067
  34++4067 4F                   LD C,A
  35++4068 AF                   XOR A
  35++4069 CB 79         BIT 7,C
  35++406B 28 01         JR Z,$+3
  35++406D 3C            INC A
  36++406E 32 06 41             LD (BT7+1),A
  37++4071 AF                   XOR A
  37++4072 CB 61         BIT 4,C
  37++4074 28 01         JR Z,$+3
  37++4076 3C            INC A
  38++4077 32 F3 40             LD (BT4+1),A
  39++407A AF                   XOR A
  39++407B CB 59         BIT 3,C
  39++407D 28 01         JR Z,$+3
  39++407F 3C            INC A
  40++4080 32 E8 40             LD (BT3+1),A
  41++4083 AF                   XOR A
  41++4084 CB 51         BIT 2,C
  41++4086 28 01         JR Z,$+3
  41++4088 3C            INC A
  42++4089 32 D4 40             LD (BT2+1),A
  43++408C 79                   LD A,C
  43++408D E6 03         AND %00000011
  44++408F 32 BC 40             LD (BT0+1),A
  45++4092
  46++4092 D5                   PUSH DE
  47++4093 3A FE 37             LD A,(CGFL)
  47++4096 B7            OR A
  47++4097 CC 37 43      CALL Z,NXTINI
  48++409A D1                   POP DE
  49++409B
  50++409B 21 A1 40 22          LD HL,NXFF2,(NxMR+1),HL
  50++409F 32 41
  51++40A1 2A FC 37 06  NXFF2   LD HL,(CGPZ),B,0
  51++40A5 00
  52++40A6 7C           NXFL2   LD A,H
  52++40A7 FE 20         CP high NXTBE
  52++40A9 30 67         JR NC,NXMR
  53++40AB 7E                   LD A,(HL)
  54++40AC B7                   OR A
  54++40AD C8            RET Z
  55++40AE FE E5                CP #E5
  55++40B0 28 AB         JR Z,RMFL2
  56++40B2
  57++40B2 0E 0B                LD C,11
  57++40B4 09            ADD HL,BC
  58++40B5 7E                   LD A,(HL)
  58++40B6 CB 5F         BIT 3,A
  58++40B8 20 A3         JR NZ,RMFL2
  59++40BA 08                   EXA
  60++40BB 3E 00        BT0     LD A,0
  61++40BD B7                   OR A
  61++40BE 28 10         JR Z,BT1
  62++40C0 3D                   DEC A
  62++40C1 20 07         JR NZ,BT01
  63++40C3 08                   EXA
  63++40C4 CB 67         BIT 4,A
  63++40C6 20 95 18 05   JR NZ,RMFL2,Bt1
  64++40CA 08           BT01    EXA
  64++40CB CB 67         BIT 4,A
  64++40CD 28 8E         JR Z,RMFL2
  65++40CF
  66++40CF 08           Bt1     EXA
  67++40D0 0E 05        BT1     LD C,16-11
  67++40D2 09            ADD HL,BC
  68++40D3 3E 00        BT2     LD A,0
  68++40D5 B7            OR A
  68++40D6 28 0F         JR Z,BT3
  69++40D8 0E 0C                LD C,28-16
  69++40DA 09            ADD HL,BC
  70++40DB               DUP 4
  71++40DB ED A0       >         LDI
  71++40DD ED A0       >         LDI
  71++40DF ED A0       >         LDI
  71++40E1 ED A0       >         LDI
  72++40E3               EDUP
  73++40E3 0E 10                LD C,16
  73++40E5 ED 42         SBC HL,BC
  74++40E7
  75++40E7 3E 00        BT3     LD A,0
  75++40E9 B7            OR A
  75++40EA 28 06         JR Z,BT4
  76++40EC               DUP 2
  77++40EC ED A0       >         LDI
  77++40EE ED A0       >         LDI
  78++40F0               EDUP
  79++40F0               DUP 2
  80++40F0 2D          >         DEC L
  80++40F1 2D          >         DEC L
  81++40F2               EDUP
  82++40F2
  83++40F2 3E 00        BT4     LD A,0
  83++40F4 B7            OR A
  83++40F5 28 06         JR Z,BT8
  84++40F7               DUP 2
  85++40F7 2D          >         DEC L
  85++40F8 2D          >         DEC L
  86++40F9               EDUP
  87++40F9               DUP 2
  88++40F9 ED A0       >         LDI
  88++40FB ED A0       >         LDI
  89++40FD               EDUP
  90++40FD
  91++40FD CB A5        BT8     RES 4,L
  91++40FF CD 14 43      CALL LNCRC
  92++4102
  93++4102 08                   EXA
  93++4103 12            LD (DE),A
  93++4104 13            INC DE
  94++4105 3E 00        BT7     LD A,0
  94++4107 B7            OR A
  94++4108 CA 9D 41      JP Z,NXTE2
  95++410B 7D                   LD A,L
  95++410C E6 F0         AND #F0
  95++410E 6F            LD L,A
  96++410F C3 44 42             JP Snm
  97++4112
  98++4112 3A 49 38     NXMR    LD A,(EOC)
  98++4115 FE 0F         CP #0F
  98++4117 C8            RET Z
  99++4118
 100++4118 D5                   PUSH DE
 101++4119 21 00 1D             LD HL,NXTBE-#0300
 102++411C 11 00 0D             LD DE,NXTBM-#0300
 103++411F 01 00 03             LD BC,#0300
 103++4122 ED B0         LDIR
 104++4124
 105++4124 62 6B 22 FC          LD HL,DE,(CGPZ),HL
 105++4128 37
 106++4129 06 08                LD B,NXTBZ/2
 106++412B CD BF 43      CALL LOAD512
 107++412E 36 00                LD (HL),0
 108++4130 D1                   POP DE
 109++4131 C3 00 00     NxMR    JP 0
 110++4134
 111++4134 0E 15        RMFL    LD C,32-11
 111++4136 09            ADD HL,BC
 111++4137 C3 54 41      JP NXFL
 112++413A 0E 20        RMFL1   LD C,32
 112++413C 09            ADD HL,BC
 112++413D C3 54 41      JP NXFL
 113++4140              NXTETY
 114++4140
 115++4140 D5                   PUSH DE
 116++4141 3A FE 37             LD A,(CGFL)
 116++4144 B7            OR A
 116++4145 CC 37 43      CALL Z,NXTINI
 117++4148 D1                   POP DE
 118++4149
 119++4149 21 4F 41 22          LD HL,NXFF,(NxMR+1),HL
 119++414D 32 41
 120++414F 2A FC 37 06  NXFF    LD HL,(CGPZ),B,0
 120++4153 00
 121++4154 7C           NXFL    LD A,H
 121++4155 FE 20         CP high NXTBE
 121++4157 30 B9         JR NC,NXMR
 122++4159 7E                   LD A,(HL)
 123++415A B7                   OR A
 123++415B C8            RET Z
 124++415C FE E5                CP #E5
 124++415E 28 DA         JR Z,RMFL1
 125++4160
 126++4160 0E 0B                LD C,11
 126++4162 09            ADD HL,BC
 127++4163 7E                   LD A,(HL)
 127++4164 CB 5F         BIT 3,A
 127++4166 20 CC         JR NZ,RMFL
 128++4168 08                   EXA
 129++4169 0E 0F                LD C,15
 129++416B 09            ADD HL,BC
 130++416C               DUP 2
 131++416C ED A0       >         LDI
 131++416E ED A0       >         LDI
 132++4170               EDUP
 133++4170 0E 08                LD C,8
 133++4172 ED 42         SBC HL,BC
 134++4174               DUP 2
 135++4174 ED A0       >         LDI
 135++4176 ED A0       >         LDI
 136++4178               EDUP
 137++4178 09                   ADD HL,BC
 138++4179               DUP 4
 139++4179 ED A0       >         LDI
 139++417B ED A0       >         LDI
 139++417D ED A0       >         LDI
 139++417F ED A0       >         LDI
 140++4181               EDUP
 141++4181 0E 10                LD C,16
 141++4183 ED 42         SBC HL,BC
 142++4185
 143++4185               DUP 2
 144++4185 ED A0       >         LDI
 144++4187 ED A0       >         LDI
 145++4189               EDUP
 146++4189               DUP 2
 147++4189 2D          >         DEC L
 147++418A 2D          >         DEC L
 148++418B               EDUP
 149++418B
 150++418B               DUP 2
 151++418B 2D          >         DEC L
 151++418C 2D          >         DEC L
 152++418D               EDUP
 153++418D               DUP 2
 154++418D ED A0       >         LDI
 154++418F ED A0       >         LDI
 155++4191               EDUP
 156++4191
 157++4191 CB A5                RES 4,L
 157++4193 CD 14 43      CALL LNCRC
 158++4196
 159++4196 08                   EXA
 160++4197 E6 10                AND #10
 161++4199 EE 10                XOR #10
 161++419B 12            LD (DE),A
 161++419C 13            INC DE
 162++419D
 163++419D B7           NXTE2   OR A
 163++419E 0E 20         LD C,32
 163++41A0 ED 42         SBC HL,BC
 163++41A2 DA 41 42      JP C,SNM
 164++41A5 7E                   LD A,(HL)
 164++41A6 FE 0F         CP #0F
 164++41A8 C2 41 42      JP NZ,SNM
 165++41AB 08                   EXA
 166++41AC
 167++41AC               DUP 2
 168++41AC 2C          >         INC L
 168++41AD 2C          >         INC L
 169++41AE               EDUP
 170++41AE BE                   CP (HL)
 170++41AF C2 39 42      JP NZ,SNM2
 171++41B2
 172++41B2 0E 01                LD C,1
 173++41B4 22 FA 37 ED          LD (CGHL),HL,(CGDE),DE
 173++41B8 53 F8 37
 174++41BB 7D                   LD A,L
 174++41BC E6 F0         AND #F0
 174++41BE 6F            LD L,A
 175++41BF
 176++41BF 7E           LNPARS  LD A,(HL)
 177++41C0 CB 77                BIT 6,A
 177++41C2 28 02         JR Z,$+4
 177++41C4 CB F1         SET 6,C
 178++41C6 B9                   CP C
 178++41C7 20 69         JR NZ,SNM3
 178++41C9 0C            INC C
 179++41CA
 180++41CA 2C                   INC L
 181++41CB               DUP 5
 182++41CB CD A3 42    >         CALL UCH
 182++41CE 30 60       > JR NC,SNMX
 182++41D0 CD A3 42    >         CALL UCH
 182++41D3 30 5B       > JR NC,SNMX
 182++41D5 CD A3 42    >         CALL UCH
 182++41D8 30 56       > JR NC,SNMX
 182++41DA CD A3 42    >         CALL UCH
 182++41DD 30 51       > JR NC,SNMX
 182++41DF CD A3 42    >         CALL UCH
 182++41E2 30 4C       > JR NC,SNMX
 183++41E4               EDUP
 184++41E4               DUP 3
 185++41E4 2C          >         INC L
 185++41E5 2C          >         INC L
 185++41E6 2C          >         INC L
 186++41E7               EDUP
 187++41E7               DUP 6
 188++41E7 CD A3 42    >         CALL UCH
 188++41EA 30 44       > JR NC,SNMX
 188++41EC CD A3 42    >         CALL UCH
 188++41EF 30 3F       > JR NC,SNMX
 188++41F1 CD A3 42    >         CALL UCH
 188++41F4 30 3A       > JR NC,SNMX
 188++41F6 CD A3 42    >         CALL UCH
 188++41F9 30 35       > JR NC,SNMX
 188++41FB CD A3 42    >         CALL UCH
 188++41FE 30 30       > JR NC,SNMX
 188++4200 CD A3 42    >         CALL UCH
 188++4203 30 2B       > JR NC,SNMX
 189++4205               EDUP
 190++4205               DUP 2
 191++4205 2C          >         INC L
 191++4206 2C          >         INC L
 192++4207               EDUP
 193++4207               DUP 2
 194++4207 CD A3 42    >         CALL UCH
 194++420A 30 24       > JR NC,SNMX
 194++420C CD A3 42    >         CALL UCH
 194++420F 30 1F       > JR NC,SNMX
 195++4211               EDUP
 196++4211 2D                   DEC L
 197++4212
 198++4212 79                   LD A,C
 198++4213 FE 40         CP #40
 198++4215 30 0A         JR NC,NXLEXI
 199++4217
 200++4217 B7                   OR A
 200++4218 0E 3F         LD C,64-1
 200++421A ED 42         SBC HL,BC
 201++421C 4F                   LD C,A
 201++421D 38 13         JR C,SNM3
 202++421F 18 9E                JR LNPARS
 203++4221
 204++4221 AF           NXLEXI  XOR A
 204++4222 12            LD (DE),A
 204++4223 13            INC DE
 205++4224 2A FA 37             LD HL,(CGHL)
 206++4227 0E 33                LD C,32+16+3
 206++4229 09            ADD HL,BC
 207++422A 22 FC 37             LD (CGPZ),HL
 208++422D AF           Nhdd    XOR A
 208++422E 3C            INC A
 209++422F C9                   RET
 210++4230
 211++4230 20 EF        SNMX    JR NZ,NXLEXI
 212++4232 2A FA 37 ED  SNM3    LD HL,(CGHL),DE,(CGDE)
 212++4236 5B F8 37
 213++4239 7D           SNM2    LD A,L
 213++423A E6 F0         AND #F0
 213++423C 6F            LD L,A
 214++423D 0E 20                LD C,32
 214++423F 18 02         JR SNM+2
 215++4241 0E 15        SNM     LD C,21
 215++4243 09            ADD HL,BC
 216++4244
 217++4244 06 08        Snm     LD B,8
 218++4246 7E           SNA     LD A,(HL)
 219++4247 CD F2 42             CALL Acs
 219++424A 12            LD (DE),A
 219++424B 13 2C         INC DE,L
 220++424D 10 F7                DJNZ SNA
 221++424F
 222++424F 06 08                LD B,8
 223++4251 1B           SNM_    DEC DE
 223++4252 1A            LD A,(DE)
 224++4253 FE 20                CP " "
 224++4255 20 02         JR NZ,$+4
 224++4257 10 F8         DJNZ SNM_
 225++4259 13                   INC DE
 226++425A
 227++425A 7D                   LD A,L
 227++425B E6 F0         AND #F0
 227++425D F6 08         OR 8
 227++425F 6F            LD L,A
 228++4260 D5                   PUSH DE
 229++4261 3E 2E 12             LD A,".",(DE),A
 229++4264 13            INC DE
 230++4265 7E                   LD A,(HL)
 230++4266 CD F2 42      CALL Acs
 230++4269 12            LD (DE),A
 230++426A 13 2C         INC DE,L
 231++426C 7E                   LD A,(HL)
 231++426D CD F2 42      CALL Acs
 231++4270 12            LD (DE),A
 231++4271 13 2C         INC DE,L
 232++4273 7E                   LD A,(HL)
 232++4274 CD F2 42      CALL Acs
 232++4277 12            LD (DE),A
 232++4278 13 2C         INC DE,L
 233++427A C1                   POP BC
 234++427B CB 66                BIT 4,(HL)
 234++427D 28 17         JR Z,SNMD
 235++427F               DUP 3
 236++427F 1B          >         DEC DE
 236++4280 1A          > LD A,(DE)
 236++4281 FE 20       > CP 32
 236++4283 20 10       > JR NZ,SNm
 236++4285 1B          >         DEC DE
 236++4286 1A          > LD A,(DE)
 236++4287 FE 20       > CP 32
 236++4289 20 0A       > JR NZ,SNm
 236++428B 1B          >         DEC DE
 236++428C 1A          > LD A,(DE)
 236++428D FE 20       > CP 32
 236++428F 20 04       > JR NZ,SNm
 237++4291               EDUP
 238++4291 50 59                LD DE,BC
 239++4293 18 01                JR SNMD
 240++4295 13           SNm     INC DE
 241++4296
 242++4296 AF           SNMD    XOR A
 242++4297 12            LD (DE),A
 242++4298 13            INC DE
 243++4299 01 15 00             LD BC,21
 243++429C 09            ADD HL,BC
 244++429D
 245++429D 22 FC 37             LD (CGPZ),HL
 246++42A0 AF                   XOR A
 246++42A1 3C            INC A
 247++42A2 C9                   RET
 248++42A3 2C           UCH     INC L
 249++42A4 7E                   LD A,(HL)
 249++42A5 B7            OR A
 249++42A6 20 14         JR NZ,UCHX
 250++42A8 2D                   DEC L
 250++42A9 7E            LD A,(HL)
 250++42AA 2C 2C         INC L,L
 251++42AC B7                   OR A
 251++42AD 28 0A         JR Z,UCHE
 252++42AF 12                   LD (DE),A
 252++42B0 13            INC DE
 253++42B1 FE 80                CP #80
 253++42B3 D8            RET C
 254++42B4 AF           UCH_    XOR A
 254++42B5 C9            RET
 255++42B6 2C           UCh_    INC L
 255++42B7 AF            XOR A
 255++42B8 C9            RET
 256++42B9 AF           UCHE    XOR A
 256++42BA 3C            INC A
 256++42BB C9            RET
 257++42BC
 258++42BC FE 04        UCHX    CP 4
 258++42BE 20 F6         JR NZ,UCh_
 259++42C0 2D                   DEC L
 259++42C1 7E            LD A,(HL)
 259++42C2 2C 2C         INC L,L
 260++42C4 FE 01                CP #01
 260++42C6 28 1E         JR Z,HYO
 261++42C8 FE 10                CP #10
 261++42CA 38 E8         JR C,UCH_
 262++42CC FE 40                CP #3F+1
 262++42CE 38 0A         JR C,DGG
 263++42D0 FE 50                CP #4F+1
 263++42D2 38 0C         JR C,DEE
 264++42D4 FE 51                CP #51
 264++42D6 28 14         JR Z,LYO
 265++42D8 AF                   XOR A
 266++42D9 C9                   RET
 267++42DA C6 70        DGG     ADD A,#70
 267++42DC 12            LD (DE),A
 267++42DD 13            INC DE
 268++42DE 37                   SCF
 268++42DF C9            RET
 269++42E0 C6 A0        DEE     ADD A,#A0
 269++42E2 12            LD (DE),A
 269++42E3 13            INC DE
 270++42E4 37                   SCF
 270++42E5 C9            RET
 271++42E6 3E F0 12     HYO     LD A,#F0,(DE),A
 271++42E9 13            INC DE
 271++42EA 37            SCF
 271++42EB C9            RET
 272++42EC 3E F1 12     LYO     LD A,#F1,(DE),A
 272++42EF 13            INC DE
 272++42F0 37            SCF
 272++42F1 C9            RET
 273++42F2 FE 80        Acs     CP #80
 273++42F4 30 09         JR NC,RU3
 274++42F6 FE 41                CP #40+1
 274++42F8 D8            RET C
 275++42F9 FE 5B                CP #5B
 275++42FB D0            RET NC
 276++42FC CB EF                SET 5,A
 277++42FE C9                   RET
 278++42FF FE F0        RU3     CP #F0
 278++4301 20 01         JR NZ,$+3
 278++4303 3C            INC A
 279++4304 FE F1                CP #F1
 279++4306 C8            RET Z
 280++4307 FE A0                CP #A0
 280++4309 D0            RET NC
 281++430A FE 90                CP #90
 281++430C 30 03         JR NC,RU4
 282++430E CB EF                SET 5,A
 282++4310 C9            RET
 283++4311 C6 50        RU4     ADD A,#50
 283++4313 C9            RET
 284++4314 AF           LNCRC   XOR A
 285++4315               DUP 11
 286++4315 0F          >         RRCA
 286++4316 86          > ADD A,(HL)
 286++4317 2C          > INC L
 286++4318 0F          >         RRCA
 286++4319 86          > ADD A,(HL)
 286++431A 2C          > INC L
 286++431B 0F          >         RRCA
 286++431C 86          > ADD A,(HL)
 286++431D 2C          > INC L
 286++431E 0F          >         RRCA
 286++431F 86          > ADD A,(HL)
 286++4320 2C          > INC L
 286++4321 0F          >         RRCA
 286++4322 86          > ADD A,(HL)
 286++4323 2C          > INC L
 286++4324 0F          >         RRCA
 286++4325 86          > ADD A,(HL)
 286++4326 2C          > INC L
 286++4327 0F          >         RRCA
 286++4328 86          > ADD A,(HL)
 286++4329 2C          > INC L
 286++432A 0F          >         RRCA
 286++432B 86          > ADD A,(HL)
 286++432C 2C          > INC L
 286++432D 0F          >         RRCA
 286++432E 86          > ADD A,(HL)
 286++432F 2C          > INC L
 286++4330 0F          >         RRCA
 286++4331 86          > ADD A,(HL)
 286++4332 2C          > INC L
 286++4333 0F          >         RRCA
 286++4334 86          > ADD A,(HL)
 286++4335 2C          > INC L
 287++4336               EDUP
 288++4336 C9                   RET
 289++4337 21 01 00     NXTINI  LD HL,1
 290++433A 22 FE 37             LD (CGFL),HL
 291++433D
 292++433D 21 C8 38             LD HL,LSTCAT
 292++4340 CD 0F 45      CALL GIPAG
 293++4343
 294++4343 21 00 00 22          LD HL,NXTBU,(CGPZ),HL,B,NXTBZ
 294++4347 FC 37 06 10
 295++434B CD BF 43             CALL LOAD512
 296++434E 36 00                LD (HL),0
 297++4350 C9                   RET
 298++4351
 299++4351              GENTRY
 300++4351 11 68 38 01          LD DE,ENTRY,BC,32
 300++4355 20 00
 300++4357 ED B0         LDIR
 301++4359 C9                   RET
 302++435A
 303++435A              TENTRY
 304++435A 21 68 38 01          LD HL,ENTRY,BC,32
 304++435E 20 00
 304++4360 ED B0         LDIR
 305++4362 C9           Z0      RET
 306++4363
 307++4363              GLSTCAT
 308++4363 11 C8 38 01          LD DE,LSTCAT,BC,4
 308++4367 04 00
 308++4369 ED B0         LDIR
 309++436B ED 43 FE 37          LD (CGFL),BC
 310++436F C9                   RET
 311++4370
 312++4370              TLSTCAT
 313++4370 21 C8 38 01          LD HL,LSTCAT,BC,4
 313++4374 04 00
 313++4376 ED B0         LDIR
 314++4378 C9                   RET
 315++4379
 316++4379              RDD
 317++4379 C5                   PUSH BC
 318++437A CD 09 38             CALL XPOZI
 319++437D E1                   POP HL
 320++437E C3 0F 38             JP RDDSE
 321++4381
 322++4381              SDD
 323++4381 C5                   PUSH BC
 324++4382 CD 09 38             CALL XPOZI
 325++4385 E1                   POP HL
 326++4386 C3 12 38             JP SDDSE
 327++4389
 328++4389 11 62 43 ED  LOADNON LD DE,Z0,(NW0+1),DE
 328++438D 53 17 44
 329++4390 CD BF 43             CALL LOAD512
 330++4393 11 0F 38 ED          LD DE,RDDSE,(NW0+1),DE
 330++4397 53 17 44
 331++439A C9                   RET
 332++439B
 333++439B 11 15 38 ED  LOAD256 LD DE,RDD256,(NW0+1),DE
 333++439F 53 17 44
 334++43A2 CD BF 43             CALL LOAD512
 335++43A5 11 0F 38 ED          LD DE,RDDSE,(NW0+1),DE
 335++43A9 53 17 44
 336++43AC C9                   RET
 337++43AD
 338++43AD 11 12 38 ED  SAVE512 LD DE,SDDSE,(NW0+1),DE
 338++43B1 53 17 44
 339++43B4 CD BF 43             CALL LOAD512
 340++43B7 11 0F 38 ED          LD DE,RDDSE,(NW0+1),DE
 340++43BB 53 17 44
 341++43BE C9                   RET
 342++43BF
 343++43BF              LOAD512
 344++43BF
 345++43BF AF                   XOR A
 345++43C0 32 4A 38      LD (ABT),A
 346++43C3 CD D3 43             CALL LPREX
 346++43C6 20 04         JR NZ,RH
 347++43C8
 348++43C8 78                   LD A,B
 348++43C9 CD EC 43      CALL NEWCLA
 349++43CC
 350++43CC 2A B0 38     RH      LD HL,(LDHL)
 351++43CF 3A 49 38             LD A,(EOC)
 352++43D2 C9                   RET
 353++43D3
 354++43D3 22 B0 38     LPREX   LD (LDHL),HL
 355++43D6 3A 49 38             LD A,(EOC)
 355++43D9 B7            OR A
 355++43DA C0            RET NZ
 356++43DB 3A 48 38             LD A,(NSDC)
 356++43DE B7            OR A
 356++43DF 20 09         JR NZ,RX
 357++43E1
 358++43E1 C5                   PUSH BC
 358++43E2 21 A8 38      LD HL,CUHL
 358++43E5 CD 0F 45      CALL GIPAG
 359++43E8 C1                   POP BC
 360++43E9 C9                   RET
 361++43EA AF           RX      XOR A
 362++43EB C9                   RET
 363++43EC 32 4B 38     NEWCLA  LD (BZN),A
 364++43EF
 365++43EF 2A 64 38 ED  NXTC    LD HL,(LTHL),DE,(LTDE)
 365++43F3 5B 66 38
 365++43F6 CD 0C 38      CALL PROZ
 366++43F9
 367++43F9 21 4B 38             LD HL,BZN
 368++43FC 3A 94 38 ED          LD A,(BSECPC),BC,(NSDC)
 368++4400 4B 48 38
 369++4403 91                   SUB C
 369++4404 47            LD B,A
 370++4405 7E                   LD A,(HL)
 370++4406 B7            OR A
 370++4407 C8            RET Z
 371++4408 90                   SUB B
 371++4409 30 03         JR NC,KN
 372++440B 80                   ADD A,B
 372++440C 47            LD B,A
 372++440D AF            XOR A
 373++440E 77           KN      LD (HL),A
 374++440F
 375++440F 78 32 4C 38          LD A,B,(NR0),A
 376++4413 2A B0 38             LD HL,(LDHL)
 377++4416 CD 0F 38     NW0     CALL RDDSE
 378++4419 22 B0 38             LD (LDHL),HL
 379++441C
 380++441C 21 64 38 11          LD HL,LTHL,DE,LLHL,BC,4
 380++4420 60 38 01 04
 380++4424 00
 380++4425 ED B0         LDIR
 381++4427
 382++4427 2A 64 38 ED          LD HL,(LTHL),DE,(LTDE)
 382++442B 5B 66 38
 383++442E ED 4B 4C 38          LD BC,(NR0)
 383++4432 09            ADD HL,BC
 383++4433 30 01         JR NC,$+3
 383++4435 13            INC DE
 384++4436 22 64 38 ED          LD (LTHL),HL,(LTDE),DE
 384++443A 53 66 38
 385++443D
 386++443D 21 48 38 79          LD HL,NSDC,A,C
 386++4441 86            ADD A,(HL)
 387++4442 77                   LD (HL),A
 388++4443
 389++4443 ED 4B 94 38          LD BC,(BSECPC)
 390++4447 B9                   CP C
 390++4448 DA EF 43      JP C,NXTC
 391++444B
 392++444B 2A A8 38 ED          LD HL,(CUHL),DE,(CUDE)
 392++444F 5B AA 38
 393++4452 CD C5 44 CD          CALL CURIT,GIPAG
 393++4456 0F 45
 393++4458 CA EF 43      JP Z,NXTC
 394++445B C9                   RET
 395++445C
 396++445C 21 9A 38 11  SRHFCL  LD HL,FSTFRC,DE,CAHL,BC,4
 396++4460 4E 38 01 04
 396++4464 00
 396++4465 ED B0         LDIR
 397++4467              SRHFC
 398++4467
 399++4467 2A 4E 38 ED          LD HL,(CAHL),DE,(CADE)
 399++446B 5B 50 38
 400++446E CD C5 44             CALL CURIT
 400++4471 D8            RET C
 401++4472
 402++4472 7E           FC      LD A,(HL)
 402++4473 23            INC HL
 403++4474 B6                   OR (HL)
 403++4475 23            INC HL
 404++4476 B6                   OR (HL)
 404++4477 23            INC HL
 405++4478 B6                   OR (HL)
 405++4479 23            INC HL
 405++447A 28 37         JR Z,GETZE
 406++447C
 407++447C EB                   EX DE,HL
 408++447D 21 4E 38             LD HL,CAHL
 409++4480 34                   INC (HL)
 409++4481 C2 8E 44      JP NZ,AGA
 409++4484 23            INC HL
 410++4485 34                   INC (HL)
 410++4486 20 06         JR NZ,AGA
 410++4488 23            INC HL
 411++4489 34                   INC (HL)
 411++448A 20 02         JR NZ,AGA
 411++448C 23            INC HL
 412++448D 34                   INC (HL)
 413++448E EB           AGA     EX DE,HL
 414++448F 7C                   LD A,H
 414++4490 FE 32         CP high SECBE
 414++4492 DA 72 44      JP C,FC
 415++4495
 416++4495 2A 64 38 ED          LD HL,(LTHL),DE,(LTDE)
 416++4499 5B 66 38
 416++449C 23            INC HL
 417++449D 7C                   LD A,H
 417++449E B5            OR L
 417++449F 20 01         JR NZ,$+3
 417++44A1 13            INC DE
 418++44A2 CD 09 38             CALL XPOZI
 419++44A5
 420++44A5 21 00 30 3E          LD HL,SECBU,A,1
 420++44A9 01
 420++44AA CD 0F 38      CALL RDDSE
 421++44AD 21 00 30             LD HL,SECBU
 422++44B0 C3 72 44             JP FC
 423++44B3 D9           GETZE   EXX
 424++44B4 2A 4E 38 ED          LD HL,(CAHL),DE,(CADE)
 424++44B8 5B 50 38
 425++44BB E5                   PUSH HL
 425++44BC 21 4E 38      LD HL,CAHL
 425++44BF CD DC 50      CALL INC4b
 426++44C2 E1                   POP HL
 427++44C3 AF                   XOR A
 428++44C4 C9                   RET
 429++44C5
 430++44C5              CURIT
 431++44C5
 432++44C5 CD 72 50             CALL DEL128
 433++44C8               DUP 2
 434++44C8 CB 21       >         SLA C
 434++44CA CB 10       > RL B
 434++44CC CB 21       >         SLA C
 434++44CE CB 10       > RL B
 435++44D0               EDUP
 436++44D0
 437++44D0 C5                   PUSH BC
 438++44D1 ED 53 54 38          LD (LSTSE+2),DE,(LSTSE),HL
 438++44D5 22 52 38
 439++44D8
 440++44D8 ED 4B 92 38          LD BC,(BFTSZ+2)
 441++44DC 7A                   LD A,D
 441++44DD B8            CP B
 441++44DE 38 10         JR C,JK
 442++44E0 7B                   LD A,E
 442++44E1 B9            CP C
 442++44E2 38 0C         JR C,JK
 443++44E4 ED 4B 90 38          LD BC,(BFTSZ)
 444++44E8 7C                   LD A,H
 444++44E9 B8            CP B
 444++44EA 38 04         JR C,JK
 445++44EC 7D                   LD A,L
 445++44ED B9            CP C
 445++44EE 30 1C         JR NC,FATEND
 446++44F0
 447++44F0 ED 4B A2 38  JK      LD BC,(SFAT)
 448++44F4 CD B4 50             CALL ADD4B
 449++44F7 CD 61 45             CALL XSPOZ
 450++44FA CD 09 38             CALL XPOZI
 451++44FD 21 00 30 3E          LD HL,SECBU,A,1
 451++4501 01
 451++4502 CD 0F 38      CALL RDDSE
 452++4505 C1                   POP BC
 453++4506 21 00 30             LD HL,SECBU
 453++4509 09            ADD HL,BC
 454++450A AF                   XOR A
 455++450B C9                   RET
 456++450C C1           FATEND  POP BC
 457++450D 37                   SCF
 458++450E C9                   RET
 459++450F
 460++450F              GIPAG
 461++450F CD 3D 51             CALL TOS
 462++4512
 463++4512 5E                   LD E,(HL)
 463++4513 23            INC HL
 464++4514 56                   LD D,(HL)
 464++4515 23            INC HL
 465++4516 7E                   LD A,(HL)
 465++4517 23            INC HL
 466++4518 66 6F                LD H,(HL),L,A
 466++451A B4 B3 B2      OR H,E,D
 466++451D 28 34         JR Z,RDIR
 467++451F
 468++451F 7C                   LD A,H
 468++4520 E6 0F         AND #0F
 468++4522 FE 0F         CP #0F
 468++4524 28 36         JR Z,MDC
 469++4526 EB                   EX DE,HL
 470++4527 22 A8 38 ED  POM     LD (CUHL),HL,(CUDE),DE
 470++452B 53 AA 38
 471++452E
 472++452E 01 02 00             LD BC,2
 472++4531 B7            OR A
 472++4532 ED 42         SBC HL,BC
 472++4534 30 01         JR NC,$+3
 472++4536 1B            DEC DE
 473++4537
 474++4537 3A 94 38             LD A,(BSECPC)
 474++453A CD B8 50      CALL UMNOX2
 475++453D ED 4B A4 38          LD BC,(SDFAT)
 475++4541 CD B4 50      CALL ADD4B
 476++4544 EB                   EX DE,HL
 477++4545 ED 4B A6 38          LD BC,(SDFAT+2)
 477++4549 09            ADD HL,BC
 478++454A EB                   EX DE,HL
 479++454B CD 61 45             CALL XSPOZ
 480++454E CD 09 38             CALL XPOZI
 481++4551 AF                   XOR A
 482++4552 C9                   RET
 483++4553
 484++4553 2A 96 38 ED  RDIR    LD HL,(BROOTC),DE,(BROOTC+2)
 484++4557 5B 98 38
 485++455A 18 CB                JR POM
 486++455C
 487++455C 32 49 38     MDC     LD (EOC),A
 488++455F B7                   OR A
 489++4560 C9                   RET
 490++4561
 491++4561 ED 4B 9E 38  XSPOZ   LD BC,(ADDTOP),(CLHL),BC
 491++4565 ED 43 5C 38
 492++4569 ED 4B A0 38          LD BC,(ADDTOP+2),(CLDE),BC
 492++456D ED 43 5E 38
 493++4571 C3 E4 50             JP ADD4BF
 494++4574
 495++4574              SVHDFL
 496++4574
 497++4574 3A 73 38             LD A,(EFLG)
 497++4577 E6 10         AND #10
 498++4579 CD 67 46             CALL ENTREZ
 498++457C C0            RET NZ
 499++457D 22 F8 37             LD (CGDE),HL
 500++4580
 501++4580 2A C8 38 ED          LD HL,(LSTCAT),DE,(LSTCAT+2)
 501++4584 5B CA 38
 502++4587 22 A8 38 ED  SHDFL   LD (CUHL),HL,(CUDE),DE
 502++458B 53 AA 38
 503++458E CD 3D 51             CALL TOS
 504++4591 21 00 32 06  NXDCL   LD HL,LOBU,B,1
 504++4595 01
 504++4596 CD BF 43      CALL LOAD512
 505++4599 21 00 32 11          LD HL,LOBU,DE,32,B,16
 505++459D 20 00 06 10
 506++45A1 AF                   XOR A
 507++45A2 BE           FIEL    CP (HL)
 507++45A3 CA 27 46      JP Z,FELD
 508++45A6 19                   ADD HL,DE
 509++45A7 10 F9                DJNZ FIEL
 510++45A9 3A 49 38     FIIL    LD A,(EOC)
 510++45AC FE 0F         CP #0F
 510++45AE 20 E1         JR NZ,NXDCL
 511++45B0 CD 5C 44             CALL SRHFCL
 511++45B3 38 6E         JR C,IEL
 512++45B5 22 C4 38 ED          LD (BUTS),HL,(BUTS+2),DE
 512++45B9 53 C6 38
 513++45BC D9                   EXX
 514++45BD 3E FF                LD A,#FF
 515++45BF 2B                   DEC HL
 515++45C0 36 0F         LD (HL),#0F
 516++45C2 2B                   DEC HL
 516++45C3 77            LD (HL),A
 517++45C4 2B                   DEC HL
 517++45C5 77            LD (HL),A
 518++45C6 2B                   DEC HL
 518++45C7 77            LD (HL),A
 519++45C8 21 00 30 3E          LD HL,SECBU,A,1
 519++45CC 01
 519++45CD CD 12 38      CALL SDDSE
 520++45D0
 521++45D0 2A A8 38 ED          LD HL,(CUHL),DE,(CUDE)
 521++45D4 5B AA 38
 522++45D7 CD C5 44             CALL CURIT
 522++45DA 38 47         JR C,IEL
 523++45DC EB                   EX DE,HL
 524++45DD 21 C4 38 01          LD HL,BUTS,BC,4
 524++45E1 04 00
 524++45E3 ED B0         LDIR
 525++45E5 21 00 30 3E          LD HL,SECBU,A,1
 525++45E9 01
 525++45EA CD 12 38      CALL SDDSE
 526++45ED
 527++45ED 21 C4 38             LD HL,BUTS
 528++45F0 CD 0F 45             CALL GIPAG
 528++45F3 3E FF         LD A,255
 528++45F5 C0            RET NZ
 529++45F6
 530++45F6 21 00 30 06          LD HL,SECBU,B,0
 530++45FA 00
 531++45FB               DUP 2
 532++45FB CD 67 51    >         CALL NOPING
 532++45FE CD 67 51    >         CALL NOPING
 533++4601               EDUP
 534++4601
 535++4601 2A 64 38 ED          LD HL,(LTHL),DE,(LTDE)
 535++4605 5B 66 38
 536++4608 E5 D5                PUSH HL,DE
 537++460A 21 00 30 3E          LD HL,SECBU,A,1
 537++460E 01
 537++460F CD 12 38      CALL SDDSE
 538++4612
 539++4612 3A 94 38             LD A,(BSECPC)
 540++4615 21 00 30             LD HL,SECBU
 540++4618 CD 45 51      CALL NOPCLA
 541++461B D1 E1                POP DE,HL
 542++461D CD 09 38             CALL XPOZI
 543++4620 C3 91 45             JP NXDCL
 544++4623
 545++4623 3E 10        IEL     LD A,16
 545++4625 B7            OR A
 545++4626 C9            RET
 546++4627
 547++4627 EB           FELD    EX DE,HL
 548++4628 2A F8 37             LD HL,(CGDE)
 549++462B 01 20 00     VYG     LD BC,32
 549++462E ED B0         LDIR
 550++4630 01 C0 FF             LD BC,0-64
 550++4633 09            ADD HL,BC
 551++4634 7C                   LD A,H
 551++4635 FE 10         CP high NXTBM
 551++4637 38 11         JR C,FFLD
 552++4639
 553++4639 7B                   LD A,E
 553++463A B7            OR A
 553++463B 20 EE         JR NZ,VYG
 554++463D CB 42                BIT 0,D
 554++463F 20 EA         JR NZ,VYG
 555++4641 22 F8 37             LD (CGDE),HL
 556++4644 CD 4C 46             CALL FFld
 557++4647 C3 A9 45             JP FIIL
 558++464A
 559++464A AF           FFLD    XOR A
 559++464B 12            LD (DE),A
 560++464C 2A 60 38 ED  FFld    LD HL,(LLHL),DE,(LLHL+2)
 560++4650 5B 62 38
 561++4653 CD 0C 38             CALL PROZ
 562++4656 21 00 32             LD HL,LOBU
 563++4659 3E 01                LD A,1
 563++465B CD 12 38      CALL SDDSE
 564++465E
 565++465E 2A C0 38 ED          LD HL,(FCTS),DE,(FCTS+2)
 565++4662 5B C2 38
 566++4665 AF                   XOR A
 567++4666 C9                   RET
 568++4667
 569++4667              ENTREZ
 570++4667
 571++4667 11 00 00             LD DE,NXTBU
 572++466A 01 00 01             LD BC,255+1
 573++466D D5                   PUSH DE
 574++466E 12 32 73 38          LD (DE),A,(ENTRY+11),A
 574++4672 13            INC DE
 575++4673 ED B0                LDIR
 576++4675 E1                   POP HL
 577++4676 22 F8 37             LD (CGDE),HL
 578++4679 23                   INC HL
 578++467A CD 1C 48      CALL ENVAL
 578++467D 3E 01         LD A,1
 578++467F C0            RET NZ
 579++4680
 580++4680 2A C0 38 22          LD HL,(FCTS),(CLSHL),HL
 580++4684 82 38
 581++4686 2A C2 38 22          LD HL,(FCTS+2),(CLSDE),HL
 581++468A 7C 38
 582++468C
 583++468C 2A F8 37             LD HL,(CGDE)
 583++468F CD D7 4A      CALL LNLNGcs
 584++4692 CA 2A 48             JP Z,ENnvl
 585++4695
 586++4695 06 0B 21 68          LD B,11,HL,ENTRY
 586++4699 38
 587++469A 7E           SNCC    LD A,(HL)
 587++469B B7            OR A
 587++469C 28 29         JR Z,LONG
 588++469E CD 45 48             CALL SNCEN
 588++46A1 28 24         JR Z,LONG
 589++46A3 CD 7C 48             CALL CAPS_SV
 589++46A6 28 1F         JR Z,LONG
 590++46A8 CD 91 4C             CALL ACS
 590++46AB 77            LD (HL),A
 591++46AC 23                   INC HL
 591++46AD 10 EB         DJNZ SNCC
 592++46AF
 593++46AF 21 68 38             LD HL,ENTRY
 594++46B2 11 00 10             LD DE,NXTBM
 595++46B5 D5                   PUSH DE
 595++46B6 01 21 00      LD BC,33
 595++46B9 ED B0         LDIR
 596++46BB 21 00 00             LD HL,NXTBU
 596++46BE CD 63 4A      CALL SRHDRN
 596++46C1 3E 04         LD A,4
 597++46C3 E1                   POP HL
 597++46C4 C0            RET NZ
 598++46C5 AF                   XOR A
 599++46C6 C9                   RET
 600++46C7 11 68 38     LONG    LD DE,ENTRY
 601++46CA
 602++46CA 06 08 21 00          LD B,8,HL,NXTBU
 602++46CE 00
 603++46CF 23           FO      INC HL
 603++46D0 7E            LD A,(HL)
 604++46D1 CD 91 4C     KO      CALL ACS
 605++46D4 CD 5B 48             CALL ENCEN
 605++46D7 28 05         JR Z,KZ
 606++46D9 CD 45 48             CALL SNCEN
 606++46DC 20 06         JR NZ,KC
 607++46DE ED 5F        KZ      LD A,R
 607++46E0 E6 7F         AND %01111111
 607++46E2 18 ED         JR KO
 608++46E4 FE 20        KC      CP " "
 608++46E6 20 02         JR NZ,$+4
 608++46E8 3E 5F         LD A,"_"
 609++46EA 12                   LD (DE),A
 609++46EB 13            INC DE
 609++46EC 10 E1         DJNZ FO
 610++46EE D5                   PUSH DE
 610++46EF 06 03         LD B,3
 610++46F1 CD CE 4A      CALL NOP32
 611++46F4 D1                   POP DE
 612++46F5
 613++46F5 21 00 00             LD HL,NXTBU
 613++46F8 CB 66         BIT 4,(HL)
 613++46FA 20 27         JR NZ,NN
 614++46FC 23                   INC HL
 615++46FD AF                   XOR A
 615++46FE 01 00 01      LD BC,256
 615++4701 ED B1         CPIR
 615++4703 2B            DEC HL
 616++4704
 617++4704 06 04                LD B,4
 618++4706 2B           UR      DEC HL
 618++4707 7E            LD A,(HL)
 619++4708 B7                   OR A
 619++4709 28 18         JR Z,NN
 620++470B FE 2E                CP "."
 620++470D 28 04         JR Z,NB
 621++470F 10 F5                DJNZ UR
 621++4711 18 10         JR NN
 622++4713
 623++4713 06 03        NB      LD B,3
 624++4715 23           Nb      INC HL
 624++4716 7E            LD A,(HL)
 625++4717 CD 91 4C CD          CALL ACS,SNCEN
 625++471B 45 48
 625++471D 28 04         JR Z,NN
 626++471F 12                   LD (DE),A
 626++4720 13            INC DE
 626++4721 10 F2         DJNZ Nb
 627++4723 21 68 38 11  NN      LD HL,ENTRY,DE,NXTBM,BC,32
 627++4727 00 10 01 20
 627++472B 00
 627++472C ED B0         LDIR
 628++472E 11 0B 10 ED          LD DE,NXTBM+11,(CGDE),DE
 628++4732 53 F8 37
 629++4735
 630++4735 21 E0 0F 3E          LD HL,NXTBM-32,A,#30
 630++4739 30
 631++473A 06 05 77             LD B,5,(HL),A
 631++473D 23            INC HL
 631++473E 10 FC         DJNZ $-2
 632++4740
 633++4740 21 E3 0F     BURA    LD HL,NXTBM-32+3
 634++4743 E5                   PUSH HL
 634++4744 CD D1 47      CALL INDEX
 634++4747 3E 02         LD A,2
 635++4749 E1                   POP HL
 635++474A C0            RET NZ
 636++474B
 637++474B 11 07 10             LD DE,NXTBM+7
 638++474E 01 FF 03 3E          LD BC,#03FF,A,#30
 638++4752 30
 639++4753 ED A8        ZZBZ    LDD
 639++4755 BE            CP (HL)
 639++4756 28 02         JR Z,$+4
 639++4758 10 F9         DJNZ ZZBZ
 640++475A 3E 7E 12             LD A,#7E,(DE),A
 641++475D
 642++475D 21 00 10 11          LD HL,NXTBM,DE,ENTRY,BC,12
 642++4761 68 38 01 0C
 642++4765 00
 642++4766 ED B0         LDIR
 643++4768 CD 6A 4A             CALL FNDSN
 643++476B 20 D3         JR NZ,BURA
 644++476D
 645++476D 21 00 10             LD HL,NXTBM
 646++4770 CD 14 43             CALL LNCRC
 646++4773 32 98 47      LD (CRC+1),A
 647++4776
 648++4776 21 20 10             LD HL,NXTBM+32
 649++4779 11 01 00             LD DE,NXTBU+1
 650++477C 01 01 00             LD BC,#0001
 651++477F 71           DNB     LD (HL),C
 651++4780 0C 23         INC C,HL
 652++4782               DUP 5
 653++4782 CD EA 47    >         CALL OEM2UC
 653++4785 CD EA 47    >         CALL OEM2UC
 653++4788 CD EA 47    >         CALL OEM2UC
 653++478B CD EA 47    >         CALL OEM2UC
 653++478E CD EA 47    >         CALL OEM2UC
 654++4791               EDUP
 655++4791 36 0F                LD (HL),#0F
 655++4793 23            INC HL
 656++4794 36 00                LD (HL),#00
 656++4796 23            INC HL
 657++4797 36 00        CRC     LD (HL),0
 657++4799 23            INC HL
 658++479A               DUP 6
 659++479A CD EA 47    >         CALL OEM2UC
 659++479D CD EA 47    >         CALL OEM2UC
 659++47A0 CD EA 47    >         CALL OEM2UC
 659++47A3 CD EA 47    >         CALL OEM2UC
 659++47A6 CD EA 47    >         CALL OEM2UC
 659++47A9 CD EA 47    >         CALL OEM2UC
 660++47AC               EDUP
 661++47AC 36 00                LD (HL),#00
 661++47AE 23            INC HL
 662++47AF 36 00                LD (HL),#00
 662++47B1 23            INC HL
 663++47B2               DUP 2
 664++47B2 CD EA 47    >         CALL OEM2UC
 664++47B5 CD EA 47    >         CALL OEM2UC
 665++47B8               EDUP
 666++47B8 1A                   LD A,(DE)
 666++47B9 B7            OR A
 666++47BA 20 C3         JR NZ,DNB
 667++47BC
 668++47BC 36 00                LD (HL),0
 669++47BE 01 E0 FF             LD BC,0-32
 669++47C1 09            ADD HL,BC
 669++47C2 CB F6         SET 6,(HL)
 670++47C4
 671++47C4 E5                   PUSH HL
 672++47C5 21 00 00             LD HL,NXTBU
 673++47C8 CD 63 4A             CALL SRHDRN
 673++47CB 3E 03         LD A,3
 674++47CD E1                   POP HL
 674++47CE C0            RET NZ
 675++47CF AF                   XOR A
 676++47D0 C9                   RET
 677++47D1 06 03        INDEX   LD B,3
 678++47D3 7E           XED     LD A,(HL)
 678++47D4 FE 39         CP #39
 678++47D6 38 08         JR C,DEX
 679++47D8 36 30                LD (HL),#30
 679++47DA 2B            DEC HL
 679++47DB 10 F6         DJNZ XED
 680++47DD AF                   XOR A
 680++47DE 3C            INC A
 681++47DF C9                   RET
 682++47E0 34           DEX     INC (HL)
 682++47E1 AF            XOR A
 682++47E2 C9            RET
 683++47E3 70           FNLZ    LD (HL),B
 683++47E4 23            INC HL
 684++47E5 70                   LD (HL),B
 684++47E6 23            INC HL
 685++47E7 06 FF                LD B,#FF
 686++47E9 C9                   RET
 687++47EA 1A           OEM2UC  LD A,(DE)
 687++47EB B7            OR A
 687++47EC 28 F5         JR Z,FNLZ
 687++47EE 13            INC DE
 688++47EF C5                   PUSH BC
 689++47F0 4F 06 00             LD C,A,B,0
 689++47F3 FE 80         CP #80
 689++47F5 D4 FE 47      CALL NC,ORU
 690++47F8 71                   LD (HL),C
 690++47F9 23            INC HL
 691++47FA 70                   LD (HL),B
 691++47FB 23            INC HL
 692++47FC C1                   POP BC
 693++47FD C9                   RET
 694++47FE 06 04        ORU     LD B,4
 695++4800 FE F0                CP #F0
 695++4802 0E 01         LD C,#01
 695++4804 C8            RET Z
 696++4805 FE F1                CP #F1
 696++4807 0E 51         LD C,#51
 696++4809 C8            RET Z
 697++480A FE B0                CP #B0
 697++480C 30 04         JR NC,OR2
 698++480E D6 70                SUB #70
 698++4810 4F            LD C,A
 698++4811 C9            RET
 699++4812 FE F0        OR2     CP #F0
 699++4814 D0            RET NC
 700++4815 FE E0                CP #E0
 700++4817 D8            RET C
 701++4818 D6 A0                SUB #A0
 701++481A 4F            LD C,A
 701++481B C9            RET
 702++481C 06 FF        ENVAL   LD B,255
 703++481E 7E           ENval   LD A,(HL)
 703++481F B7            OR A
 703++4820 28 0B         JR Z,ENvld
 704++4822 CD 5B 48             CALL ENCEN
 704++4825 28 03         JR Z,ENnvl
 705++4827 23                   INC HL
 705++4828 10 F4         DJNZ ENval
 706++482A AF           ENnvl   XOR A
 706++482B 3C            INC A
 707++482C C9                   RET
 708++482D              ENvld
 709++482D 04           CHI     INC B
 709++482E 28 FA         JR Z,ENnvl
 710++4830 2B                   DEC HL
 710++4831 7E            LD A,(HL)
 710++4832 FE 20         CP " "
 710++4834 28 F7         JR Z,CHI
 711++4836 05                   DEC B
 712++4837 04           Chi     INC B
 712++4838 28 F0         JR Z,ENnvl
 713++483A 7E                   LD A,(HL)
 713++483B 2B            DEC HL
 713++483C FE 2E         CP "."
 713++483E 28 F7         JR Z,Chi
 714++4840 23 23                INC HL,HL
 715++4842 AF                   XOR A
 715++4843 77            LD (HL),A
 716++4844 C9                   RET
 717++4845 FE 2B        SNCEN   CP #2B
 717++4847 C8            RET Z
 718++4848 FE 2C                CP #2C
 718++484A C8            RET Z
 719++484B FE 2E                CP #2E
 719++484D C8            RET Z
 720++484E FE 3B                CP #3B
 720++4850 C8            RET Z
 721++4851 FE 3D                CP #3D
 721++4853 C8            RET Z
 722++4854 FE 5B                CP #5B
 722++4856 C8            RET Z
 723++4857 FE 5D                CP #5D
 723++4859 C8            RET Z
 724++485A C9                   RET
 725++485B
 726++485B FE 20        ENCEN   CP #20
 726++485D 38 1B         JR C,MU
 727++485F
 728++485F FE 22                CP #22
 728++4861 C8            RET Z
 729++4862 FE 2A                CP #2A
 729++4864 C8            RET Z
 730++4865 FE 2F                CP #2F
 730++4867 C8            RET Z
 731++4868 FE 3A                CP #3A
 731++486A C8            RET Z
 732++486B FE 3C                CP #3C
 732++486D C8            RET Z
 733++486E FE 3E                CP #3E
 733++4870 C8            RET Z
 734++4871 FE 3F                CP #3F
 734++4873 C8            RET Z
 735++4874 FE 5C                CP #5C
 735++4876 C8            RET Z
 736++4877 FE 7C                CP #7C
 737++4879 C9                   RET
 738++487A BF           MU      CP A
 739++487B C9                   RET
 740++487C
 741++487C FE 41        CAPS_SV CP "A"
 741++487E D8            RET C
 742++487F FE 5B                CP "Z"+1
 742++4881 30 02         JR NC,CAPS_sv
 743++4883 AF                   XOR A
 744++4884 C9                   RET
 745++4885 FE 80        CAPS_sv CP #80
 745++4887 D8            RET C
 746++4888 FE A0                CP #9F+1
 746++488A 30 02         JR NC,CAPS_YO
 747++488C AF                   XOR A
 748++488D C9                   RET
 749++488E FE F0        CAPS_YO CP #F0
 749++4890 C9            RET
 750++4891
 751++4891 21 C0 38     ERG2    LD HL,FCTS
 751++4894 CD E1 49      CALL DLSG
 752++4897 21 C0 38 11          LD HL,FCTS,DE,FSTFRC,BC,4
 752++489B 9A 38 01 04
 752++489F 00
 752++48A0 ED B0         LDIR
 753++48A2 3E 10        ERG1    LD A,16
 753++48A4 B7            OR A
 754++48A5 C9                   RET
 755++48A6              MKSG
 756++48A6
 757++48A6 CD 8A 50             CALL DEL512
 758++48A9 3A 94 38             LD A,(BSECPC)
 758++48AC CD 99 50      CALL DELITX2
 759++48AF
 760++48AF ED 53 BE 38          LD (CLCNT+2),DE
 761++48B3 22 BC 38             LD (CLCNT+0),HL
 762++48B6
 763++48B6 CD CB 48             CALL SGENBU
 763++48B9 38 E7         JR C,ERG1
 764++48BB CD FB 48     ROSTIK  CALL PREPFC
 764++48BE 38 D1         JR C,ERG2
 765++48C0 CD 52 49             CALL BUtoFAT
 765++48C3 C8            RET Z
 766++48C4 CD F5 48             CALL SGENB2
 766++48C7 38 C8         JR C,ERG2
 767++48C9 18 F0                JR ROSTIK
 768++48CB 21 00 00 22  SGENBU  LD HL,GENBU,(GARY),HL
 768++48CF 6D 51
 769++48D1
 770++48D1 CD 5C 44             CALL SRHFCL
 770++48D4 D8            RET C
 771++48D5 22 C0 38 ED          LD (FCTS),HL,(FCTS+2),DE
 771++48D9 53 C2 38
 772++48DC 22 9A 38 ED  GENB    LD (FSTFRC),HL,(FSTFRC+2),DE
 772++48E0 53 9C 38
 773++48E3
 774++48E3 7C 4D                LD A,H,C,L
 775++48E5 2A 6D 51             LD HL,(GARY)
 776++48E8 71                   LD (HL),C
 776++48E9 23            INC HL
 777++48EA 77                   LD (HL),A
 777++48EB 23            INC HL
 778++48EC 73                   LD (HL),E
 778++48ED 23            INC HL
 779++48EE 72                   LD (HL),D
 779++48EF 23            INC HL
 780++48F0 22 6D 51             LD (GARY),HL
 781++48F3 AF                   XOR A
 782++48F4 C9                   RET
 783++48F5 CD 67 44     SGENB2  CALL SRHFC
 783++48F8 D8            RET C
 784++48F9 18 E1                JR GENB
 785++48FB 2A BC 38     PREPFC  LD HL,(CLCNT)
 785++48FE 2B            DEC HL
 786++48FF 22 BC 38             LD (CLCNT),HL
 787++4902 7C                   LD A,H
 787++4903 B5            OR L
 787++4904 28 2D         JR Z,EOFG
 788++4906
 789++4906 D9           AMM     EXX
 790++4907 7C                   LD A,H
 790++4908 FE 32         CP high SECBE
 791++490A 38 06                JR C,ARM
 792++490C CD 67 44             CALL SRHFC
 792++490F D8            RET C
 793++4910 18 03                JR AR2
 794++4912 CD 72 44     ARM     CALL FC
 795++4915 22 9A 38 ED  AR2     LD (FSTFRC),HL,(FSTFRC+2),DE
 795++4919 53 9C 38
 796++491C 7C 4D                LD A,H,C,L
 797++491E 2A 6D 51             LD HL,(GARY)
 798++4921 71                   LD (HL),C
 798++4922 23            INC HL
 799++4923 77                   LD (HL),A
 799++4924 23            INC HL
 800++4925 73                   LD (HL),E
 800++4926 23            INC HL
 801++4927 72                   LD (HL),D
 801++4928 23            INC HL
 802++4929 7C                   LD A,H
 802++492A FE 20         CP high GENBE
 802++492C D0            RET NC
 803++492D 22 6D 51             LD (GARY),HL
 804++4930 C3 FB 48             JP PREPFC
 805++4933 2A BE 38     EOFG    LD HL,(CLCNT+2)
 806++4936 7C                   LD A,H
 806++4937 B5            OR L
 806++4938 20 12         JR NZ,AmM
 807++493A
 808++493A 11 FF 0F             LD DE,#0FFF
 809++493D 2A 6D 51             LD HL,(GARY)
 810++4940 73                   LD (HL),E
 810++4941 23            INC HL
 811++4942 73                   LD (HL),E
 811++4943 23            INC HL
 812++4944 73                   LD (HL),E
 812++4945 23            INC HL
 813++4946 72                   LD (HL),D
 813++4947 23            INC HL
 814++4948 22 6D 51             LD (GARY),HL
 815++494B C9                   RET
 816++494C 2B           AmM     DEC HL
 816++494D 22 BE 38      LD (CLCNT+2),HL
 816++4950 18 B4         JR AMM
 817++4952 21 00 00     BUtoFAT LD HL,GENBU
 818++4955 4E           GENFC   LD C,(HL)
 818++4956 23            INC HL
 819++4957 46                   LD B,(HL)
 819++4958 23            INC HL
 820++4959 5E                   LD E,(HL)
 820++495A 23            INC HL
 821++495B 56                   LD D,(HL)
 821++495C 23            INC HL
 822++495D E5                   PUSH HL
 823++495E 60 69                LD HL,BC
 823++4960 CD C5 44      CALL CURIT
 823++4963 EB            EX DE,HL
 824++4964 E1                   POP HL
 825++4965
 826++4965 22 B8 38     GNFC    LD (UUHL),HL
 827++4968 01 04 00             LD BC,4
 827++496B ED B0         LDIR
 828++496D
 829++496D 2B                   DEC HL
 829++496E 7E            LD A,(HL)
 829++496F FE 0F         CP #0F
 829++4971 28 4F         JR Z,LSTSR
 830++4973 23                   INC HL
 830++4974 7C            LD A,H
 830++4975 FE 20         CP high GENBE
 830++4977 30 53         JR NC,LSTsr
 831++4979
 832++4979 2A B8 38             LD HL,(UUHL)
 833++497C 4E                   LD C,(HL)
 833++497D 23            INC HL
 834++497E 46                   LD B,(HL)
 834++497F 23            INC HL
 835++4980 5E                   LD E,(HL)
 835++4981 23            INC HL
 836++4982 56                   LD D,(HL)
 836++4983 23            INC HL
 837++4984 22 BA 38             LD (BUHL),HL
 838++4987
 839++4987 60 69                LD HL,BC
 839++4989 CD 72 50      CALL DEL128
 840++498C ED 4B 52 38          LD BC,(LSTSE)
 841++4990 B7                   OR A
 841++4991 ED 42         SBC HL,BC
 841++4993 20 0A         JR NZ,GGC
 842++4995 EB                   EX DE,HL
 842++4996 ED 4B 54 38   LD BC,(LSTSE+2)
 843++499A B7                   OR A
 843++499B ED 42         SBC HL,BC
 843++499D 28 0E         JR Z,GFC
 844++499F
 845++499F 21 00 30 3E  GGC     LD HL,SECBU,A,1
 845++49A3 01
 845++49A4 CD 12 38      CALL SDDSE
 846++49A7 2A B8 38             LD HL,(UUHL)
 847++49AA C3 55 49             JP GENFC
 848++49AD
 849++49AD 26 00 6F     GFC     LD H,0,L,A
 850++49B0               DUP 2
 851++49B0 CB 25       >         SLA L
 851++49B2 CB 14       > RL H
 851++49B4 CB 25       >         SLA L
 851++49B6 CB 14       > RL H
 852++49B8               EDUP
 853++49B8 01 00 30             LD BC,SECBU
 853++49BB 09            ADD HL,BC
 854++49BC EB                   EX DE,HL
 855++49BD 2A BA 38             LD HL,(BUHL)
 856++49C0 18 A3                JR GNFC
 857++49C2 21 00 30     LSTSR   LD HL,SECBU
 857++49C5 3E 01         LD A,1
 857++49C7 CD 12 38      CALL SDDSE
 858++49CA AF                   XOR A
 859++49CB C9                   RET
 860++49CC CD C2 49     LSTsr   CALL LSTSR
 861++49CF 2A B8 38 11          LD HL,(UUHL),DE,GENBU,BC,4
 861++49D3 00 00 01 04
 861++49D7 00
 861++49D8 ED B0         LDIR
 862++49DA ED 53 6D 51          LD (GARY),DE
 863++49DE
 864++49DE AF                   XOR A
 864++49DF 3C            INC A
 865++49E0 C9                   RET
 866++49E1
 867++49E1              DLSG
 868++49E1
 869++49E1 11 00 32 01          LD DE,LOBU,BC,4
 869++49E5 04 00
 869++49E7 ED B0         LDIR
 870++49E9 21 00 00             LD HL,0
 871++49EC 22 9A 38             LD (FSTFRC),HL
 872++49EF 22 9C 38             LD (FSTFRC+2),HL
 873++49F2 2A 00 32 ED  LWT     LD HL,(LOBU),DE,(LOBU+2)
 873++49F6 5B 02 32
 874++49F9 7A                   LD A,D
 874++49FA FE 0F         CP #0F
 874++49FC C8            RET Z
 875++49FD B3 B4 B5             OR E,H,L
 875++4A00 C8            RET Z
 876++4A01
 877++4A01 CD C5 44             CALL CURIT
 877++4A04 D8            RET C
 878++4A05 11 00 32 0E  GOCE    LD DE,LOBU,C,0
 878++4A09 00
 879++4A0A               DUP 3
 880++4A0A 7E 71 12    >         LD A,(HL),(HL),C,(DE),A
 880++4A0D 2C 1C       > INC L,E
 880++4A0F 7E 71 12    >         LD A,(HL),(HL),C,(DE),A
 880++4A12 2C 1C       > INC L,E
 880++4A14 7E 71 12    >         LD A,(HL),(HL),C,(DE),A
 880++4A17 2C 1C       > INC L,E
 881++4A19               EDUP
 882++4A19 7E 71 12             LD A,(HL),(HL),C,(DE),A
 883++4A1C
 884++4A1C 2A 00 32 ED          LD HL,(LOBU),DE,(LOBU+2)
 884++4A20 5B 02 32
 885++4A23 7A                   LD A,D
 885++4A24 FE 0F         CP #0F
 885++4A26 28 33         JR Z,Ne
 886++4A28 CD 72 50             CALL DEL128
 887++4A2B ED 4B 52 38          LD BC,(LSTSE)
 888++4A2F B7                   OR A
 888++4A30 ED 42         SBC HL,BC
 888++4A32 20 1C         JR NZ,NE
 888++4A34 EB            EX DE,HL
 889++4A35 ED 4B 54 38          LD BC,(LSTSE+2)
 890++4A39 B7                   OR A
 890++4A3A ED 42         SBC HL,BC
 890++4A3C 20 12         JR NZ,NE
 891++4A3E
 892++4A3E 26 00 6F             LD H,0,L,A
 893++4A41               DUP 2
 894++4A41 CB 25       >         SLA L
 894++4A43 CB 14       > RL H
 894++4A45 CB 25       >         SLA L
 894++4A47 CB 14       > RL H
 895++4A49               EDUP
 896++4A49 01 00 30             LD BC,SECBU
 896++4A4C 09            ADD HL,BC
 897++4A4D C3 05 4A             JP GOCE
 898++4A50
 899++4A50 21 00 30 3E  NE      LD HL,SECBU,A,1
 899++4A54 01
 899++4A55 CD 12 38      CALL SDDSE
 900++4A58 C3 F2 49             JP LWT
 901++4A5B 21 00 30 3E  Ne      LD HL,SECBU,A,1
 901++4A5F 01
 901++4A60 C3 12 38      JP SDDSE
 902++4A63
 903++4A63              SRHDRN
 904++4A63
 905++4A63 22 F8 37             LD (CGDE),HL
 905++4A66 CD E6 4A      CALL LNLNG
 905++4A69 C8            RET Z
 906++4A6A
 907++4A6A 21 C8 38 11  FNDSN   LD HL,LSTCAT,DE,CUHL,BC,4
 907++4A6E A8 38 01 04
 907++4A72 00
 907++4A73 ED B0         LDIR
 908++4A75 CD 3D 51             CALL TOS
 909++4A78
 910++4A78 21 00 32 06          LD HL,LOBU,B,1
 910++4A7C 01
 910++4A7D CD BF 43      CALL LOAD512
 911++4A80
 912++4A80 21 00 32             LD HL,LOBU
 913++4A83 CD 86 4B     ANNA    CALL ENTCH
 913++4A86 28 3A         JR Z,FND
 914++4A88 01 20 00             LD BC,32
 914++4A8B 09            ADD HL,BC
 915++4A8C 7C                   LD A,H
 915++4A8D FE 34         CP high LOBU2
 915++4A8F 38 F2         JR C,ANNA
 916++4A91
 917++4A91 3A 49 38     HDR     LD A,(EOC)
 917++4A94 FE 0F         CP #0F
 917++4A96 C8            RET Z
 918++4A97 E5                   PUSH HL
 919++4A98 21 00 34 06          LD HL,LOBU2,B,1
 919++4A9C 01
 919++4A9D CD BF 43      CALL LOAD512
 920++4AA0 E1                   POP HL
 921++4AA1 CD 86 4B     AnnA    CALL ENTCH
 921++4AA4 28 1C         JR Z,FND
 922++4AA6 01 20 00             LD BC,32
 922++4AA9 09            ADD HL,BC
 923++4AAA 7C                   LD A,H
 923++4AAB FE 36         CP high LOBE2
 923++4AAD 38 F2         JR C,AnnA
 924++4AAF
 925++4AAF D9                   EXX
 926++4AB0 21 00 34 11          LD HL,LOBU2,DE,LOBU,BC,512
 926++4AB4 00 32 01 00
 926++4AB8 02
 926++4AB9 ED B0         LDIR
 927++4ABB D9                   EXX
 927++4ABC 01 00 FE      LD BC,0-512
 927++4ABF 09            ADD HL,BC
 928++4AC0 18 CF                JR HDR
 929++4AC2
 930++4AC2 B7           FND     OR A
 930++4AC3 C8            RET Z
 931++4AC4 2A 82 38             LD HL,(CLSHL)
 932++4AC7 ED 5B 7C 38          LD DE,(CLSDE)
 933++4ACB AF                   XOR A
 933++4ACC 3C            INC A
 934++4ACD C9                   RET
 935++4ACE 3E 20 12     NOP32   LD A," ",(DE),A
 935++4AD1 13            INC DE
 935++4AD2 10 FC         DJNZ $-2
 936++4AD4 C9                   RET
 937++4AD5 AF           LNe     XOR A
 937++4AD6 C9            RET
 938++4AD7 3E C9 32 91  LNLNGcs LD A,#C9,(ACS),A
 938++4ADB 4C
 939++4ADC CD E6 4A             CALL LNLNG
 940++4ADF 08                   EXA
 940++4AE0 AF            XOR A
 940++4AE1 32 91 4C      LD (ACS),A
 941++4AE4 08                   EXA
 942++4AE5 C9                   RET
 943++4AE6 7E           LNLNG   LD A,(HL)
 943++4AE7 23            INC HL
 944++4AE8 E6 EF                AND %11101111
 944++4AEA 20 E9         JR NZ,LNe
 945++4AEC
 946++4AEC 01 00 01             LD BC,256
 946++4AEF AF            XOR A
 946++4AF0 ED B1         CPIR
 946++4AF2 20 E1         JR NZ,LNe
 947++4AF4 3E FF                LD A,256-1
 947++4AF6 91            SUB C
 947++4AF7 28 DC         JR Z,LNe
 948++4AF9
 949++4AF9 2A F8 37             LD HL,(CGDE)
 950++4AFC CB 66                BIT 4,(HL)
 950++4AFE 20 51         JR NZ,KAT
 951++4B00
 952++4B00 0E 0D        MURMUR  LD C,12+1
 952++4B02 91            SUB C
 952++4B03 30 7A         JR NC,NESN
 953++4B05 81                   ADD A,C
 954++4B06 4F                   LD C,A
 954++4B07 09            ADD HL,BC
 955++4B08
 956++4B08 08                   EXA
 957++4B09 06 04 11 70          LD B,4,DE,ENTRY+8
 957++4B0D 38
 958++4B0E 7E           FEL     LD A,(HL)
 958++4B0F 0D            DEC C
 958++4B10 28 07         JR Z,FEL4
 959++4B12 FE 2E                CP "."
 959++4B14 28 2B         JR Z,FELE
 960++4B16 2B                   DEC HL
 960++4B17 10 F5         DJNZ FEL
 961++4B19 08           FEL4    EXA
 962++4B1A 4F                   LD C,A
 963++4B1B 06 03                LD B,3
 964++4B1D CD CE 4A     FEL3    CALL NOP32
 965++4B20 11 68 38     FEL2    LD DE,ENTRY
 966++4B23 79                   LD A,C
 966++4B24 FE 09         CP 8+1
 966++4B26 30 57         JR NC,NESN
 967++4B28
 968++4B28 47 3E 08             LD B,A,A,8
 968++4B2B 90            SUB B
 968++4B2C 4F            LD C,A
 969++4B2D 2A F8 37             LD HL,(CGDE)
 970++4B30 23           FEEL    INC HL
 970++4B31 7E            LD A,(HL)
 970++4B32 CD 91 4C      CALL ACS
 971++4B35 12                   LD (DE),A
 971++4B36 13            INC DE
 971++4B37 10 F7         DJNZ FEEL
 972++4B39
 973++4B39 41 78                LD B,C,A,B
 973++4B3B B7            OR A
 973++4B3C C4 CE 4A      CALL NZ,NOP32
 974++4B3F 18 42                JR ENTch
 975++4B41
 976++4B41 06 03        FELE    LD B,3
 977++4B43 23           FEL5    INC HL
 977++4B44 7E            LD A,(HL)
 977++4B45 B7            OR A
 977++4B46 28 D5         JR Z,FEL3
 978++4B48 CD 91 4C             CALL ACS
 979++4B4B 12                   LD (DE),A
 979++4B4C 13            INC DE
 980++4B4D 10 F4                DJNZ FEL5
 981++4B4F 18 CF                JR FEL2
 982++4B51 FE 04        KAT     CP 3+1
 982++4B53 30 AB         JR NC,MURMUR
 983++4B55 4F                   LD C,A
 984++4B56 23                   INC HL
 984++4B57 7E            LD A,(HL)
 984++4B58 FE 2E         CP "."
 985++4B5A 2B                   DEC HL
 985++4B5B 79            LD A,C
 985++4B5C 20 A2         JR NZ,MURMUR
 986++4B5E 23 23                INC HL,HL
 986++4B60 7E            LD A,(HL)
 986++4B61 FE 2E         CP "."
 987++4B63 2B 2B                DEC HL,HL
 987++4B65 79            LD A,C
 987++4B66 20 98         JR NZ,MURMUR
 988++4B68
 989++4B68
 990++4B68 11 68 38             LD DE,ENTRY
 991++4B6B 47 3E 0B             LD B,A,A,11
 991++4B6E 90            SUB B
 991++4B6F 4F            LD C,A
 992++4B70 23           KaT     INC HL
 992++4B71 7E            LD A,(HL)
 992++4B72 CD 91 4C      CALL ACS
 993++4B75 12                   LD (DE),A
 993++4B76 13            INC DE
 993++4B77 10 F7         DJNZ KaT
 994++4B79
 995++4B79 41                   LD B,C
 995++4B7A CD CE 4A      CALL NOP32
 996++4B7D 18 04                JR ENTch
 997++4B7F
 998++4B7F AF           NESN    XOR A
 998++4B80 32 68 38      LD (ENTRY),A
 999++4B83 AF           ENTch   XOR A
 999++4B84 3C            INC A
 999++4B85 C9            RET
1000++4B86 7E           ENTCH   LD A,(HL)
1001++4B87 B7                   OR A
1001++4B88 C8            RET Z
1002++4B89 FE E5                CP #E5
1002++4B8B 28 F6         JR Z,ENTch
1003++4B8D
1004++4B8D 7D                   LD A,L
1004++4B8E C6 0B         ADD A,11
1004++4B90 6F            LD L,A
1005++4B91 CB 5E                BIT 3,(HL)
1005++4B93 C2 50 4C      JP NZ,ENTCHe
1006++4B96
1007++4B96 ED 5B F8 37          LD DE,(CGDE)
1008++4B9A 7E                   LD A,(HL)
1008++4B9B E6 10         AND #10
1008++4B9D 47            LD B,A
1009++4B9E 1A                   LD A,(DE)
1009++4B9F B8            CP B
1009++4BA0 C2 50 4C      JP NZ,ENTCHe
1010++4BA3
1011++4BA3 3A 68 38             LD A,(ENTRY)
1011++4BA6 B7            OR A
1011++4BA7 28 14         JR Z,LNEB
1012++4BA9 7D                   LD A,L
1012++4BAA E6 F0         AND #F0
1012++4BAC 6F            LD L,A
1013++4BAD 06 0B 11 68          LD B,11,DE,ENTRY
1013++4BB1 38
1014++4BB2 1A           SNCH    LD A,(DE)
1014++4BB3 BE            CP (HL)
1014++4BB4 20 07         JR NZ,LNEB
1015++4BB6 13 2C                INC DE,L
1015++4BB8 10 F8         DJNZ SNCH
1016++4BBA C3 5E 4C             JP ENTFND
1017++4BBD
1018++4BBD 7D           LNEB    LD A,L
1018++4BBE E6 F0         AND #F0
1018++4BC0 6F            LD L,A
1019++4BC1 CD 14 43             CALL LNCRC
1020++4BC4 22 FA 37             LD (CGHL),HL
1021++4BC7
1022++4BC7 01 E2 FF             LD BC,0-30
1022++4BCA 09            ADD HL,BC
1023++4BCB BE                   CP (HL)
1023++4BCC 20 7F         JR NZ,ENTCHE
1024++4BCE 7C                   LD A,H
1024++4BCF FE 32         CP high LOBU
1024++4BD1 38 7A         JR C,ENTCHE
1025++4BD3               DUP 2
1026++4BD3 2D          >         DEC L
1026++4BD4 2D          >         DEC L
1027++4BD5               EDUP
1028++4BD5 7E                   LD A,(HL)
1028++4BD6 FE 0F         CP #0F
1028++4BD8 20 73         JR NZ,ENTCHE
1029++4BDA
1030++4BDA ED 5B F8 37          LD DE,(CGDE)
1030++4BDE 13            INC DE
1031++4BDF 7D                   LD A,L
1031++4BE0 E6 F0         AND #F0
1031++4BE2 6F            LD L,A
1032++4BE3
1033++4BE3 06 01                LD B,1
1034++4BE5 7E           LNPARZ  LD A,(HL)
1035++4BE6 CB 77                BIT 6,A
1035++4BE8 28 02         JR Z,$+4
1035++4BEA CB F0         SET 6,B
1036++4BEC B8                   CP B
1036++4BED 20 5E         JR NZ,ENTCHE
1036++4BEF 04            INC B
1037++4BF0
1038++4BF0 2C                   INC L
1039++4BF1               DUP 5
1040++4BF1 CD 70 4C    >         CALL ULNP
1040++4BF4 30 55       > JR NC,ENTST
1040++4BF6 CD 70 4C    >         CALL ULNP
1040++4BF9 30 50       > JR NC,ENTST
1040++4BFB CD 70 4C    >         CALL ULNP
1040++4BFE 30 4B       > JR NC,ENTST
1040++4C00 CD 70 4C    >         CALL ULNP
1040++4C03 30 46       > JR NC,ENTST
1040++4C05 CD 70 4C    >         CALL ULNP
1040++4C08 30 41       > JR NC,ENTST
1041++4C0A               EDUP
1042++4C0A               DUP 3
1043++4C0A 2C          >         INC L
1043++4C0B 2C          >         INC L
1043++4C0C 2C          >         INC L
1044++4C0D               EDUP
1045++4C0D               DUP 6
1046++4C0D CD 70 4C    >         CALL ULNP
1046++4C10 30 39       > JR NC,ENTST
1046++4C12 CD 70 4C    >         CALL ULNP
1046++4C15 30 34       > JR NC,ENTST
1046++4C17 CD 70 4C    >         CALL ULNP
1046++4C1A 30 2F       > JR NC,ENTST
1046++4C1C CD 70 4C    >         CALL ULNP
1046++4C1F 30 2A       > JR NC,ENTST
1046++4C21 CD 70 4C    >         CALL ULNP
1046++4C24 30 25       > JR NC,ENTST
1046++4C26 CD 70 4C    >         CALL ULNP
1046++4C29 30 20       > JR NC,ENTST
1047++4C2B               EDUP
1048++4C2B               DUP 2
1049++4C2B 2C          >         INC L
1049++4C2C 2C          >         INC L
1050++4C2D               EDUP
1051++4C2D               DUP 2
1052++4C2D CD 70 4C    >         CALL ULNP
1052++4C30 30 19       > JR NC,ENTST
1052++4C32 CD 70 4C    >         CALL ULNP
1052++4C35 30 14       > JR NC,ENTST
1053++4C37               EDUP
1054++4C37 2D                   DEC L
1055++4C38
1056++4C38 78                   LD A,B
1056++4C39 FE 40         CP #40
1056++4C3B D2 57 4C      JP NC,ENTFNDx
1057++4C3E
1058++4C3E 01 C1 FF             LD BC,0-(64-1)
1058++4C41 09            ADD HL,BC
1058++4C42 47            LD B,A
1059++4C43 7C                   LD A,H
1059++4C44 FE 32         CP high LOBU
1059++4C46 38 05         JR C,ENTCHE
1060++4C48 C3 E5 4B             JP LNPARZ
1061++4C4B 20 0E        ENTST   JR NZ,ENTFNDL
1062++4C4D 2A FA 37     ENTCHE  LD HL,(CGHL)
1063++4C50 7D           ENTCHe  LD A,L
1063++4C51 E6 F0         AND #F0
1063++4C53 6F            LD L,A
1064++4C54 AF                   XOR A
1064++4C55 3C            INC A
1065++4C56 C9                   RET
1066++4C57
1067++4C57 1A           ENTFNDx LD A,(DE)
1067++4C58 B7            OR A
1067++4C59 20 F2         JR NZ,ENTCHE
1068++4C5B 2A FA 37     ENTFNDL LD HL,(CGHL)
1069++4C5E 7D           ENTFND  LD A,L
1069++4C5F E6 F0         AND #F0
1069++4C61 6F            LD L,A
1070++4C62 E5                   PUSH HL
1070++4C63 11 68 38 01   LD DE,ENTRY,BC,32
1070++4C67 20 00
1070++4C69 ED B0         LDIR
1071++4C6B C1                   POP BC
1072++4C6C AF                   XOR A
1072++4C6D 3E 01         LD A,1
1073++4C6F C9                   RET
1074++4C70 1A           ULNP    LD A,(DE)
1074++4C71 13            INC DE
1074++4C72 B7            OR A
1074++4C73 28 13         JR Z,UlnP
1075++4C75 CD 91 4C             CALL ACS
1075++4C78 4F            LD C,A
1076++4C79 CD BA 4C             CALL UCS
1076++4C7C B7            OR A
1076++4C7D C8            RET Z
1077++4C7E CD 91 4C             CALL ACS
1077++4C81 B9            CP C
1077++4C82 28 02         JR Z,ULNp
1078++4C84 AF           ULNz    XOR A
1078++4C85 C9            RET
1079++4C86 37           ULNp    SCF
1079++4C87 C9            RET
1080++4C88 CD BA 4C     UlnP    CALL UCS
1080++4C8B 3C            INC A
1080++4C8C 20 F6         JR NZ,ULNz
1081++4C8E AF                   XOR A
1081++4C8F 3C            INC A
1082++4C90 C9                   RET
1083++4C91 00           ACS     NOP
1084++4C92 FE 80                CP #80
1084++4C94 30 09         JR NC,RUS
1085++4C96 FE 61                CP #60+1
1085++4C98 D8            RET C
1086++4C99 FE 7B                CP #7B
1086++4C9B D0            RET NC
1087++4C9C CB AF                RES 5,A
1088++4C9E C9                   RET
1089++4C9F FE A0        RUS     CP #A0
1089++4CA1 D8            RET C
1090++4CA2 FE B0                CP #B0
1090++4CA4 30 03         JR NC,RU2
1091++4CA6 CB AF                RES 5,A
1092++4CA8 C9                   RET
1093++4CA9 FE E0        RU2     CP #E0
1093++4CAB D8            RET C
1094++4CAC FE F2                CP #F2
1094++4CAE D0            RET NC
1095++4CAF FE F1                CP #F1
1095++4CB1 20 01         JR NZ,$+3
1095++4CB3 3D            DEC A
1096++4CB4 FE F0                CP #F0
1096++4CB6 C8            RET Z
1097++4CB7 D6 50                SUB #50
1098++4CB9 C9                   RET
1099++4CBA 2C           UCS     INC L
1100++4CBB 7E                   LD A,(HL)
1100++4CBC B7            OR A
1100++4CBD 20 0F         JR NZ,UCSX
1101++4CBF 2D                   DEC L
1101++4CC0 7E            LD A,(HL)
1101++4CC1 2C 2C         INC L,L
1102++4CC3 B7                   OR A
1102++4CC4 28 05         JR Z,UCSE
1103++4CC6 FE 80                CP #80
1103++4CC8 D8            RET C
1104++4CC9 AF           UCS_    XOR A
1104++4CCA C9            RET
1105++4CCB 3E FF        UCSE    LD A,#FF
1105++4CCD C9            RET
1106++4CCE
1107++4CCE FE 04        UCSX    CP 4
1107++4CD0 20 F7         JR NZ,UCS_
1108++4CD2 2D                   DEC L
1108++4CD3 7E            LD A,(HL)
1108++4CD4 2C 2C         INC L,L
1109++4CD6 FE 01                CP #01
1109++4CD8 28 18         JR Z,Hyo
1110++4CDA FE 10                CP #10
1110++4CDC 38 EB         JR C,UCS_
1111++4CDE FE 40                CP #3F+1
1111++4CE0 38 0A         JR C,Dgg
1112++4CE2 FE 50                CP #4F+1
1112++4CE4 38 09         JR C,Dee
1113++4CE6 FE 51                CP #51
1113++4CE8 28 0B         JR Z,Lyo
1114++4CEA 18 DD                JR UCS_
1115++4CEC C6 70        Dgg     ADD A,#70
1115++4CEE C9            RET
1116++4CEF C6 A0        Dee     ADD A,#A0
1116++4CF1 C9            RET
1117++4CF2 3E F0        Hyo     LD A,#F0
1117++4CF4 C9            RET
1118++4CF5 3E F1        Lyo     LD A,#F1
1118++4CF7 C9            RET
1119++4CF8
1120++4CF8              DELFL
1121++4CF8
1122++4CF8 CD 05 4D             CALL DELEN
1122++4CFB C8            RET Z
1123++4CFC F5           DELCHA  PUSH AF
1123++4CFD 21 C0 38      LD HL,FCTS
1123++4D00 CD E1 49      CALL DLSG
1124++4D03 F1                   POP AF
1125++4D04 C9                   RET
1126++4D05
1127++4D05 CD 63 4A     DELEN   CALL SRHDRN
1127++4D08 3E 08         LD A,8
1127++4D0A C8            RET Z
1128++4D0B
1129++4D0B 22 C0 38             LD (FCTS+0),HL
1130++4D0E ED 53 C2 38          LD (FCTS+2),DE
1131++4D12
1132++4D12 3E E5 02             LD A,#E5,(BC),A
1133++4D15 60 2E 00             LD H,B,L,0
1133++4D18 CB 84         RES 0,H
1133++4D1A CD 20 4D      CALL STAMP
1134++4D1D AF                   XOR A
1134++4D1E 3C            INC A
1135++4D1F C9                   RET
1136++4D20 E5           STAMP   PUSH HL
1137++4D21 2A 60 38 ED          LD HL,(LLHL),DE,(LLHL+2)
1137++4D25 5B 62 38
1138++4D28 CD 0C 38             CALL PROZ
1139++4D2B E1                   POP HL
1140++4D2C
1141++4D2C 3E 01                LD A,1
1141++4D2E C3 12 38      JP SDDSE
1142++4D31              RENAME
1143++4D31
1144++4D31 E5 D5                PUSH HL,DE
1145++4D33 CD 63 4A             CALL SRHDRN
1145++4D36 3E 08         LD A,8
1146++4D38 22 C0 38             LD (FCTS+0),HL
1147++4D3B ED 53 C2 38          LD (FCTS+2),DE
1148++4D3F E1 D1                POP HL,DE
1148++4D41 C8            RET Z
1149++4D42
1150++4D42 D5                   PUSH DE
1150++4D43 CD 74 45      CALL SVHDFL
1151++4D46 E1                   POP HL
1151++4D47 20 07         JR NZ,ZIR
1152++4D49
1153++4D49 CD 05 4D             CALL DELEN
1153++4D4C C8            RET Z
1154++4D4D
1155++4D4D AF                   XOR A
1155++4D4E 3C            INC A
1155++4D4F C9            RET
1156++4D50 BF           ZIR     CP A
1156++4D51 C9            RET
1157++4D52              MKFILE
1158++4D52
1159++4D52 7E 32 73 38          LD A,(HL),(EFLG),A
1159++4D56 23            INC HL
1160++4D57 11 84 38 01          LD DE,SIZIK,BC,4
1160++4D5B 04 00
1160++4D5D ED B0         LDIR
1161++4D5F 22 FA 37             LD (CGHL),HL
1162++4D62
1163++4D62 2A 84 38 ED          LD HL,(SIZIK),DE,(SIZIK+2)
1163++4D66 5B 86 38
1164++4D69 CD A6 48             CALL MKSG
1164++4D6C C0            RET NZ
1165++4D6D 2A FA 37             LD HL,(CGHL)
1166++4D70 CD 74 45             CALL SVHDFL
1166++4D73 C2 FC 4C      JP NZ,DELCHA
1167++4D76 AF                   XOR A
1168++4D77 C9                   RET
1169++4D78
1170++4D78              MKDIR
1171++4D78
1172++4D78 22 FA 37             LD (CGHL),HL
1173++4D7B 21 00 00 22          LD HL,0,(SIZIK),HL,(SIZIK+2),HL
1173++4D7F 84 38 22 86
1173++4D83 38
1174++4D84 3E 10 32 73          LD A,#10,(EFLG),A
1174++4D88 38
1175++4D89 11 00 00 21          LD DE,0,HL,512
1175++4D8D 00 02
1176++4D8F CD A6 48             CALL MKSG
1176++4D92 C0            RET NZ
1177++4D93 2A FA 37             LD HL,(CGHL)
1178++4D96 CD 74 45             CALL SVHDFL
1178++4D99 C2 FC 4C      JP NZ,DELCHA
1179++4D9C 21 C0 38             LD HL,FCTS
1180++4D9F CD 0F 45             CALL GIPAG
1181++4DA2
1182++4DA2 21 68 38             LD HL,ENTRY
1183++4DA5 36 2E                LD (HL),"."
1183++4DA7 23            INC HL
1184++4DA8 36 20                LD (HL),#20
1184++4DAA 23            INC HL
1185++4DAB 3E 20 06 09          LD A,32,B,9
1185++4DAF CD 68 51      CALL NOPING+1
1186++4DB2 2A A8 38 22          LD HL,(CUHL),(CLSHL),HL
1186++4DB6 82 38
1187++4DB8 2A AA 38 22          LD HL,(CUDE),(CLSDE),HL
1187++4DBC 7C 38
1188++4DBE 21 68 38 11          LD HL,ENTRY,DE,LOBU,BC,32
1188++4DC2 00 32 01 20
1188++4DC6 00
1188++4DC7 ED B0         LDIR
1189++4DC9
1190++4DC9 21 69 38             LD HL,ENTRY+1
1191++4DCC 36 2E                LD (HL),"."
1192++4DCE 2A C8 38 22          LD HL,(LSTCAT),(CLSHL),HL
1192++4DD2 82 38
1193++4DD4 2A CA 38 22          LD HL,(LSTCAT+2),(CLSDE),HL
1193++4DD8 7C 38
1194++4DDA 21 68 38 01          LD HL,ENTRY,BC,32
1194++4DDE 20 00
1194++4DE0 ED B0         LDIR
1195++4DE2
1196++4DE2 62 6B                LD HL,DE
1196++4DE4 13            INC DE
1197++4DE5 01 00 02             LD BC,512
1198++4DE8 36 00                LD (HL),0
1199++4DEA ED B0                LDIR
1200++4DEC 21 00 32             LD HL,LOBU
1201++4DEF 3E 01                LD A,1
1201++4DF1 CD 12 38      CALL SDDSE
1202++4DF4
1203++4DF4 3A 94 38             LD A,(BSECPC)
1204++4DF7 21 40 32             LD HL,LOBU+64
1205++4DFA CD 45 51             CALL NOPCLA
1206++4DFD AF                   XOR A
1207++4DFE C9                   RET
1208++4DFF
1209++4DFF 2A 8B 38 ED  RFRH    LD HL,(FSINF),DE,(FSINF+2)
1209++4E03 5B 8D 38
1210++4E06 CD 09 38             CALL XPOZI
1211++4E09 21 00 32             LD HL,LOBU
1212++4E0C 3E 01                LD A,1
1212++4E0E CD 0F 38      CALL RDDSE
1213++4E11 21 9A 38 11          LD HL,FSTFRC,DE,LOBU+492,BC,4
1213++4E15 EC 33 01 04
1213++4E19 00
1214++4E1A ED B0                LDIR
1215++4E1C 21 00 32             LD HL,LOBU
1216++4E1F 3E 01                LD A,1
1216++4E21 C3 12 38      JP SDDSE
1217++4E24              CHTOSE
1218++4E24
1219++4E24 ED 43 6F 51          LD (DABC),BC
1220++4E28 ED 53 73 51          LD (DADE),DE
1221++4E2C 22 71 51     CKAGO   LD (DAHL),HL
1222++4E2F
1223++4E2F CD 6E 4E             CALL GIPP
1223++4E32 C8            RET Z
1224++4E33 CD 4F 4E             CALL CLUSSEC
1225++4E36 ED 5B 6F 51          LD DE,(DABC)
1226++4E3A B7                   OR A
1226++4E3B ED 52         SBC HL,DE
1226++4E3D D0            RET NC
1227++4E3E
1228++4E3E 2A 71 51             LD HL,(DAHL)
1229++4E41 5E                   LD E,(HL)
1229++4E42 23            INC HL
1230++4E43 56                   LD D,(HL)
1230++4E44 23            INC HL
1231++4E45 7E                   LD A,(HL)
1231++4E46 23            INC HL
1232++4E47 66 6F                LD H,(HL),L,A
1232++4E49 EB            EX DE,HL
1233++4E4A
1234++4E4A CD C5 44             CALL CURIT
1235++4E4D 18 DD                JR CKAGO
1236++4E4F
1237++4E4F              CLUSSEC
1238++4E4F
1239++4E4F 44 4D                LD BC,HL
1240++4E51 3A 94 38             LD A,(BSECPC)
1241++4E54 2A 73 51             LD HL,(DADE)
1242++4E57 71           USS     LD (HL),C
1242++4E58 23            INC HL
1243++4E59 70                   LD (HL),B
1243++4E5A 23            INC HL
1244++4E5B 73                   LD (HL),E
1244++4E5C 23            INC HL
1245++4E5D 72                   LD (HL),D
1245++4E5E 23            INC HL
1246++4E5F 22 73 51             LD (DADE),HL
1246++4E62 3D            DEC A
1246++4E63 C8            RET Z
1247++4E64
1248++4E64 03                   INC BC
1249++4E65 08                   EXA
1249++4E66 78            LD A,B
1249++4E67 B1            OR C
1249++4E68 20 01         JR NZ,$+3
1249++4E6A 13            INC DE
1250++4E6B 08                   EXA
1251++4E6C 18 E9                JR USS
1252++4E6E
1253++4E6E              GIPP
1254++4E6E
1255++4E6E 5E                   LD E,(HL)
1255++4E6F 23            INC HL
1256++4E70 56                   LD D,(HL)
1256++4E71 23            INC HL
1257++4E72 7E                   LD A,(HL)
1257++4E73 23            INC HL
1258++4E74 66 6F                LD H,(HL),L,A
1258++4E76 B4 B3 B2      OR H,E,D
1258++4E79 C8            RET Z
1259++4E7A 7C                   LD A,H
1259++4E7B FE 0F         CP #0F
1259++4E7D C8            RET Z
1260++4E7E EB                   EX DE,HL
1261++4E7F
1262++4E7F 01 02 00             LD BC,2
1262++4E82 B7            OR A
1262++4E83 ED 42         SBC HL,BC
1262++4E85 30 01         JR NC,$+3
1262++4E87 1B            DEC DE
1263++4E88
1264++4E88 3A 94 38             LD A,(BSECPC)
1264++4E8B CD B8 50      CALL UMNOX2
1265++4E8E ED 4B A4 38          LD BC,(SDFAT)
1265++4E92 CD B4 50      CALL ADD4B
1266++4E95 EB                   EX DE,HL
1267++4E96 ED 4B A6 38          LD BC,(SDFAT+2)
1267++4E9A 09            ADD HL,BC
1268++4E9B EB                   EX DE,HL
1269++4E9C CD 61 45             CALL XSPOZ
1270++4E9F
1271++4E9F AF                   XOR A
1271++4EA0 3C            INC A
1272++4EA1 C9                   RET
1273++4EA2
1274++4EA2              HDD
1275++4EA2
1276++4EA2 21 00 00 54          LD HL,0,DE,HL
1276++4EA6 5D
1277++4EA7 22 A8 38 22          LD (CUHL),HL,(CUDE),HL
1277++4EAB AA 38
1278++4EAD 22 71 51 22          LD (DAHL),HL,(DADE),HL
1278++4EB1 73 51
1279++4EB3 22 B3 38 22          LD (DUHL),HL,(DUDE),HL
1279++4EB7 B5 38
1280++4EB9 CD 09 38             CALL XPOZI
1281++4EBC 21 00 32 3E          LD HL,LOBU,A,1
1281++4EC0 01
1281++4EC1 CD 0F 38      CALL RDDSE
1282++4EC4
1283++4EC4 3E 03 32 B2          LD A,3,(COUNT),A,(ZES),A
1283++4EC8 38 32 75 51
1284++4ECC
1285++4ECC 21 C2 33 11          LD HL,LOBU+446+4,DE,16,B,4
1285++4ED0 10 00 06 04
1286++4ED4 7E           KKO     LD A,(HL)
1287++4ED5 FE 05                CP #05
1287++4ED7 28 72         JR Z,OKK
1288++4ED9 FE 0B                CP #0B
1288++4EDB 28 6E         JR Z,OKK
1289++4EDD FE 0C                CP #0C
1289++4EDF 28 6A         JR Z,OKK
1290++4EE1 FE 0F                CP #0F
1290++4EE3 28 66         JR Z,OKK
1291++4EE5 19                   ADD HL,DE
1292++4EE6 10 EC                DJNZ KKO
1293++4EE8
1294++4EE8 3A 75 51     FHDD    LD A,(ZES)
1294++4EEB B7            OR A
1294++4EEC CA 2D 42      JP Z,Nhdd
1295++4EEF
1296++4EEF ED 5B 73 51          LD DE,(DADE),HL,(DAHL)
1296++4EF3 2A 71 51
1297++4EF6 CD 09 38             CALL XPOZI
1298++4EF9
1299++4EF9 21 00 32             LD HL,LOBU
1299++4EFC 3E 01         LD A,1
1299++4EFE CD 0F 38      CALL RDDSE
1300++4F01
1301++4F01 21 B2 38             LD HL,COUNT
1301++4F04 35            DEC (HL)
1301++4F05 CA 2D 50      JP Z,NHDD
1302++4F08
1303++4F08 21 CE 33 06          LD HL,LOBU+446+16,B,16
1303++4F0C 10
1304++4F0D AF                   XOR A
1304++4F0E B6            OR (HL)
1304++4F0F 23            INC HL
1304++4F10 10 FC         DJNZ $-2
1305++4F12 C2 2D 50             JP NZ,NHDD
1306++4F15
1307++4F15 2A D6 33             LD HL,(LOBU+446+16+8)
1308++4F18 ED 5B D8 33          LD DE,(LOBU+446+16+8+2)
1309++4F1C 22 5C 38 ED          LD (CLHL),HL,(CLDE),DE
1309++4F20 53 5E 38
1310++4F23 2A 71 51 ED          LD HL,(DAHL),DE,(DADE)
1310++4F27 5B 73 51
1311++4F2A CD E4 50             CALL ADD4BF
1312++4F2D ED 53 73 51          LD (DADE),DE,(DAHL),HL
1312++4F31 22 71 51
1313++4F34 CD 09 38             CALL XPOZI
1314++4F37
1315++4F37 21 00 32 3E          LD HL,LOBU,A,1
1315++4F3B 01
1315++4F3C CD 0F 38      CALL RDDSE
1316++4F3F
1317++4F3F 2A C6 33             LD HL,(LOBU+446+8)
1318++4F42 ED 5B C8 33          LD DE,(LOBU+446+8+2)
1319++4F46 CD E4 50             CALL ADD4BF
1320++4F49 18 0D                JR LDBPB
1321++4F4B
1322++4F4B 23 23 23 23  OKK     INC HL,HL,HL,HL
1323++4F4F 5E                   LD E,(HL)
1323++4F50 23            INC HL
1324++4F51 56                   LD D,(HL)
1324++4F52 23            INC HL
1325++4F53 7E                   LD A,(HL)
1325++4F54 23            INC HL
1326++4F55 66 6F                LD H,(HL),L,A
1327++4F57 EB                   EX DE,HL
1328++4F58
1329++4F58 22 9E 38 ED  LDBPB   LD (ADDTOP),HL,(ADDTOP+2),DE
1329++4F5C 53 A0 38
1330++4F5F CD 09 38             CALL XPOZI
1331++4F62
1332++4F62 21 00 32             LD HL,LOBU
1333++4F65 3E 01                LD A,1
1333++4F67 CD 0F 38      CALL RDDSE
1334++4F6A
1335++4F6A 2A 0B 32             LD HL,(LOBU+11)
1336++4F6D 7C                   LD A,H
1336++4F6E 3D 3D         DEC A,A
1336++4F70 B5            OR L
1336++4F71 C2 E8 4E      JP NZ,FHDD
1337++4F74 3A 0D 32             LD A,(LOBU+13)
1337++4F77 B7            OR A
1337++4F78 CA E8 4E      JP Z,FHDD
1338++4F7B 3A 0E 32             LD A,(LOBU+14)
1338++4F7E B7            OR A
1338++4F7F CA E8 4E      JP Z,FHDD
1339++4F82 3A 10 32             LD A,(LOBU+16)
1339++4F85 B7            OR A
1339++4F86 CA E8 4E      JP Z,FHDD
1340++4F89
1341++4F89 2A 11 32 7C          LD HL,(LOBU+17),A,H
1341++4F8D B5            OR L
1342++4F8E 2A 16 32             LD HL,(LOBU+22)
1342++4F91 B4 B5         OR H,L
1343++4F93 C2 E8 4E             JP NZ,FHDD
1344++4F96 2A 24 32             LD HL,(LOBU+36)
1344++4F99 B4 B5         OR H,L
1345++4F9B 2A 26 32             LD HL,(LOBU+36+2)
1345++4F9E B4 B5         OR H,L
1346++4FA0 CA E8 4E             JP Z,FHDD
1347++4FA3
1348++4FA3 3A 0D 32 32          LD A,(LOBU+13),(BSECPC),A
1348++4FA7 94 38
1349++4FA9 06 08                LD B,8
1349++4FAB CB 3F         SRL A
1349++4FAD 38 04         JR C,NER
1349++4FAF 10 FA         DJNZ $-4
1349++4FB1 3E 01         LD A,1
1350++4FB3 B7           NER     OR A
1350++4FB4 C2 E8 4E      JP NZ,FHDD
1351++4FB7 2A 0E 32 22          LD HL,(LOBU+14),(BREZS),HL
1351++4FBB 89 38
1352++4FBD 2A 30 32 11          LD HL,(LOBU+48),DE,0
1352++4FC1 00 00
1353++4FC3 CD 61 45             CALL XSPOZ
1354++4FC6 22 8B 38 ED          LD (FSINF),HL,(FSINF+2),DE
1354++4FCA 53 8D 38
1355++4FCD
1356++4FCD 3A 10 32 32          LD A,(LOBU+16),(BFATS),A
1356++4FD1 8F 38
1357++4FD3 2A 24 32 22          LD HL,(LOBU+36),(BFTSZ),HL
1357++4FD7 90 38
1358++4FD9 2A 26 32 22          LD HL,(LOBU+36+2),(BFTSZ+2),HL
1358++4FDD 92 38
1359++4FDF 2A 2C 32 22          LD HL,(LOBU+44),(BROOTC),HL
1359++4FE3 96 38
1360++4FE5 2A 2E 32 22          LD HL,(LOBU+44+2),(BROOTC+2),HL
1360++4FE9 98 38
1361++4FEB
1362++4FEB 2A 90 38 ED          LD HL,(BFTSZ),DE,(BFTSZ+2)
1362++4FEF 5B 92 38
1363++4FF2 ED 4B 8F 38          LD BC,(BFATS),B,0
1363++4FF6 06 00
1364++4FF8 CD FB 50             CALL UMN4B
1365++4FFB E5 D5                PUSH HL,DE
1366++4FFD 2A 89 38             LD HL,(BREZS)
1367++5000 22 A2 38             LD (SFAT),HL
1368++5003 D1 C1                POP DE,BC
1369++5005 CD B4 50             CALL ADD4B
1370++5008 22 A4 38 ED          LD (SDFAT),HL,(SDFAT+2),DE
1370++500C 53 A6 38
1371++500F
1372++500F 21 00 00             LD HL,0
1373++5012 22 A8 38             LD (CUHL),HL
1374++5015 22 AA 38             LD (CUDE),HL
1375++5018 22 C8 38             LD (LSTCAT),HL
1376++501B 22 CA 38             LD (LSTCAT+2),HL
1377++501E 22 FE 37             LD (CGFL),HL
1378++5021
1379++5021 21 9A 38 06          LD HL,FSTFRC,B,4
1379++5025 04
1379++5026 CD 67 51      CALL NOPING
1380++5029
1381++5029 CD 3D 51             CALL TOS
1382++502C C9                   RET
1383++502D
1384++502D 2A B3 38 ED  NHDD    LD HL,(DUHL),DE,(DUDE)
1384++5031 5B B5 38
1385++5034 AF                   XOR A
1385++5035 32 75 51      LD (ZES),A
1386++5038 C3 58 4F             JP LDBPB
1387++503B
1388++503B              DOS_SWP
1389++503B
1390++503B 06 00                LD B,0
1391++503D 21 76 51             LD HL,DR1
1391++5040 B7            OR A
1391++5041 28 1F         JR Z,DRR
1392++5043 21 5D 53             LD HL,DR2
1392++5046 3D            DEC A
1392++5047 28 19         JR Z,DRR
1393++5049 21 01 56             LD HL,DR3
1393++504C 3D            DEC A
1393++504D 28 13         JR Z,DRR
1394++504F 21 33 59             LD HL,DR4
1394++5052 3D            DEC A
1394++5053 28 0D         JR Z,DRR
1395++5055 04                   INC B
1395++5056 3D            DEC A
1395++5057 28 09         JR Z,DRR
1396++5059 21 76 51             LD HL,DR1
1396++505C 3D            DEC A
1396++505D 28 03         JR Z,DRR
1397++505F 21 5D 53             LD HL,DR2
1398++5062
1399++5062 DD E5        DRR     PUSH IX
1400++5064 11 00 38             LD DE,DRVR
1401++5067 C5                   PUSH BC
1401++5068 CD AA 5A      CALL DEHR
1402++506B F1                   POP AF
1402++506C CD 00 38      CALL SELDEV
1403++506F DD E1                POP IX
1404++5071 C9                   RET
1405++5072
1406++5072              DEL128
1407++5072
1408++5072 7D                   LD A,L
1408++5073 08            EXA
1409++5074 7D 6C 63 5A          LD A,L,L,H,H,E,E,D,D,0
1409++5078 16 00
1410++507A 17                   RLA
1411++507B CB 15 CB 14          RL L,H,E,D
1411++507F CB 13 CB 12
1412++5083 08                   EXA
1413++5084 E6 7F                AND 127
1414++5086 06 00 4F             LD B,0,C,A
1415++5089 C9                   RET
1416++508A
1417++508A              DEL512
1418++508A 7D 6C 63 5A          LD A,L,L,H,H,E,E,D,D,0
1418++508E 16 00
1419++5090 01 01 00             LD BC,1
1419++5093 B7            OR A
1419++5094 C4 B4 50      CALL NZ,ADD4B
1420++5097 3E 02                LD A,2
1421++5099
1422++5099              DELITX2
1423++5099
1424++5099 FE 02                CP 2
1424++509B D8            RET C
1425++509C 0E 00                LD C,0
1426++509E CB 3F                SRL A
1427++50A0 CB 3A        L33T    SRL D
1427++50A2 CB 1B CB 1C   RR E,H,L,C
1427++50A6 CB 1D CB 19
1428++50AA CB 3F                SRL A
1428++50AC 30 F2         JR NC,L33T
1429++50AE
1430++50AE 79                   LD A,C
1430++50AF B7            OR A
1430++50B0 C8            RET Z
1431++50B1 01 01 00             LD BC,1
1432++50B4
1433++50B4 09           ADD4B   ADD HL,BC
1433++50B5 D0            RET NC
1433++50B6 13            INC DE
1434++50B7 C9                   RET
1435++50B8
1436++50B8              UMNOX2
1437++50B8
1438++50B8 FE 02                CP 2
1438++50BA D8            RET C
1439++50BB CB 3F                SRL A
1440++50BD CB 25        L33t    SLA L
1440++50BF CB 14 CB 13   RL H,E,D
1440++50C3 CB 12
1441++50C5 CB 3F                SRL A
1441++50C7 30 F4         JR NC,L33t
1442++50C9 C9                   RET
1443++50CA
1444++50CA              UMNOG
1445++50CA 54 5D                LD DE,HL
1446++50CC 78 41 4F             LD A,B,B,C,C,A
1446++50CF 0C            INC C
1447++50D0 AF                   XOR A
1447++50D1 05            DEC B
1447++50D2 28 03         JR Z,ODN
1448++50D4 19           BSR     ADD HL,DE
1449++50D5 10 FD                DJNZ BSR
1450++50D7 47           ODN     LD B,A
1451++50D8 0D                   DEC C
1452++50D9 20 F9                JR NZ,BSR
1453++50DB C9                   RET
1454++50DC
1455++50DC 06 04        INC4b   LD B,4
1456++50DE 34           EkE     INC (HL)
1456++50DF C0            RET NZ
1456++50E0 23            INC HL
1456++50E1 10 FB         DJNZ EkE
1457++50E3 C9                   RET
1458++50E4
1459++50E4              ADD4BF
1460++50E4 EB                   EX DE,HL
1461++50E5 ED 4B 5E 38          LD BC,(CLDE)
1462++50E9 09                   ADD HL,BC
1463++50EA EB                   EX DE,HL
1464++50EB ED 4B 5C 38          LD BC,(CLHL)
1465++50EF 09                   ADD HL,BC
1465++50F0 30 01         JR NC,KNH
1466++50F2 13                   INC DE
1467++50F3 22 5C 38     KNH     LD (CLHL),HL
1468++50F6 ED 53 5E 38          LD (CLDE),DE
1469++50FA C9                   RET
1470++50FB
1471++50FB              UMN4B
1472++50FB 78 41 4F             LD A,B,B,C,C,A
1472++50FE 0C            INC C
1473++50FF B7                   OR A
1473++5100 20 04         JR NZ,TEKNO
1474++5102 05                   DEC B
1474++5103 28 2C         JR Z,UMN1
1475++5105 04                   INC B
1476++5106 AF           TEKNO   XOR A
1477++5107 B8                   CP B
1477++5108 20 01         JR NZ,TYS
1478++510A 0D                   DEC C
1479++510B 05           TYS     DEC B
1480++510C E5 C5                PUSH HL,BC
1481++510E 62 6B                LD HL,DE
1482++5110 B8                   CP B
1482++5111 28 04         JR Z,NEGRY
1483++5113 19           EFRO    ADD HL,DE
1484++5114 10 FD                DJNZ EFRO
1485++5116 47                   LD B,A
1486++5117 0D           NEGRY   DEC C
1486++5118 20 F9         JR NZ,EFRO
1487++511A 22 56 38             LD (REZDE),HL
1488++511D C1 E1                POP BC,HL
1489++511F 54 5D                LD DE,HL
1490++5121 B8                   CP B
1490++5122 28 06         JR Z,NEGRA
1491++5124 19           OFER    ADD HL,DE
1492++5125 38 0B                JR C,INCDE
1493++5127 10 FB        ENJO    DJNZ OFER
1494++5129 47                   LD B,A
1495++512A 0D           NEGRA   DEC C
1495++512B 20 F7         JR NZ,OFER
1496++512D ED 5B 56 38          LD DE,(REZDE)
1497++5131 C9           UMN1    RET
1498++5132 D9           INCDE   EXX
1499++5133 2A 56 38             LD HL,(REZDE)
1500++5136 23                   INC HL
1501++5137 22 56 38             LD (REZDE),HL
1502++513A D9                   EXX
1503++513B 18 EA                JR ENJO
1504++513D AF           TOS     XOR A
1504++513E 32 48 38 32   LD (NSDC),A,(EOC),A
1504++5142 49 38
1505++5144 C9                   RET
1506++5145
1507++5145 22 5D 51     NOPCLA  LD (NOPCA+1),HL
1508++5148 3D           NOPC    DEC A
1508++5149 C8            RET Z
1509++514A F5                   PUSH AF
1510++514B 2A 64 38 ED          LD HL,(LTHL),DE,(LTDE)
1510++514F 5B 66 38
1511++5152 01 01 00             LD BC,1
1511++5155 09            ADD HL,BC
1512++5156 30 01                JR NC,$+3
1512++5158 13            INC DE
1513++5159 CD 09 38             CALL XPOZI
1514++515C
1515++515C 21 00 00 3E  NOPCA   LD HL,0,A,1
1515++5160 01
1515++5161 CD 12 38      CALL SDDSE
1516++5164 F1                   POP AF
1517++5165 18 E1                JR NOPC
1518++5167
1519++5167 AF           NOPING  XOR A
1519++5168 77            LD (HL),A
1519++5169 23            INC HL
1519++516A 10 FC         DJNZ $-2
1520++516C C9                   RET
1521++516D 00 00        GARY    DS 2
1522++516F
1523++516F 00 00        DABC    DS 2
1524++5171 00 00        DAHL    DS 2
1525++5173 00 00        DADE    DS 2
1526++5175 00           ZES     NOP
1527++5176
1528++5176              DR1     INCBIN "WDOSFC35.CCB",#1182,#01E7
1529++535D              DR2     INCBIN "WDOSFC35.CCB",#1369,#02A4
1530++5601              DR3     INCBIN "WDOSFC35.CCB",#160D,#0332
1531++5933              DR4     INCBIN "WDOSFC35.CCB",#193F,#0177
1532++5AAA              DEHR    INCLUDE "DEHR2.ASM"
# file opened: DEHR2.ASM
   1++5AAA              ; DEHR2 — распаковщик драйверов WildDOS из Hrust-подобного контейнера.
   2++5AAA              ; Физический адрес в boot.$C: #DAB6; рабочий адрес после копирования: #5AAA.
   3++5AAA              ;
   4++5AAA              ; Основные этапы:
   5++5AAA              ;   DEHR_UNPACK_DRIVER          — прочитать размеры и подготовить размещение;
   6++5AAA              ;   DEHR_MOVE_OVERLAPPED_STREAM — безопасно перенести перекрывающийся поток;
   7++5AAA              ;   DEHR_SAVE_LAST_6_BYTES      — сохранить хвост результата из заголовка;
   8++5AAA              ;   DEHR_TOKEN_LOOP             — основной цикл литералов и LZ-совпадений;
   9++5AAA              ;   DEHR_DECODE_MATCH_LENGTH    — декодировать длину совпадения;
  10++5AAA              ;   DEHR_DECODE_MATCH_OFFSET    — декодировать отрицательное смещение;
  11++5AAA              ;   DEHR_COPY_MATCH             — скопировать ранее распакованные байты;
  12++5AAA              ;   DEHR_EXTENDED_COMMAND       — длинные команды и терминатор;
  13++5AAA              ;   DEHR_APPEND_LAST_6_BYTES    — дописать сохранённый хвост;
  14++5AAA              ;   DEHR_REFILL_16_BITS         — пополнить 16-битный битовый резервуар.
  15++5AAA              ;
  16++5AAA              ; Вход:
  17++5AAA              ;   HL — начало упакованного блока с сигнатурой "HR";
  18++5AAA              ;   DE — начало области результата (DOS_SWP передаёт #3800).
  19++5AAA              ; Выход:
  20++5AAA              ;   распакованный драйвер записан начиная с исходного DE;
  21++5AAA              ;   отдельного кода состояния нет.
  22++5AAA              ; Разрушаются:
  23++5AAA              ;   AF, BC, DE, HL, альтернативный набор регистров и IX.
  24++5AAA              ;
  25++5AAA              ; Формат блока, доказанный кодом ниже и четырьмя встроенными драйверами:
  26++5AAA              ;   +0..+1  48 52, сигнатура "HR";
  27++5AAA              ;   +2..+3  размер результата, little-endian;
  28++5AAA              ;   +4..+5  полный размер упакованного блока, little-endian;
  29++5AAA              ;   +6..+11 последние шесть байт результата;
  30++5AAA              ;   +12..   поток команд и литералов.
  31++5AAA              ; Сигнатура "HR" самой процедурой не проверяется: первые два байта просто
  32++5AAA              ; пропускаются. Контрольной суммы, проверки границ и кода ошибки нет;
  33++5AAA              ; вызывающая сторона обязана передать корректные размеры и поток с терминатором.
  34++5AAA              ;
  35++5AAA              ; Физически процедура лежит в boot.$C по #DAB6, но после установки WildDOS
  36++5AAA              ; исполняется по #5AAA. Поэтому BOOT_DISASM.ASM включает этот исходник внутри
  37++5AAA              ; DISP #5AAA: абсолютные CALL должны вычисляться относительно рабочего адреса.
  38++5AAA              DEHR_UNPACK_DRIVER:
  39++5AAA D5           DEHRUST PUSH DE            ; Сохранить адрес начала результата.
  40++5AAB E5                   PUSH HL
  41++5AAC 23                   INC HL
  42++5AAD 23                   INC HL
  43++5AAE 4E                   LD C,(HL)          ; BC = размер распакованного результата (+2).
  44++5AAF 23                   INC HL
  45++5AB0 46                   LD B,(HL)
  46++5AB1 23                   INC HL
  47++5AB2 0B                   DEC BC
  48++5AB3 EB                   EX DE,HL
  49++5AB4 09                   ADD HL,BC          ; DE = адрес последнего байта результата.
  50++5AB5 EB                   EX DE,HL
  51++5AB6 4E                   LD C,(HL)          ; BC = полный размер упакованного блока (+4).
  52++5AB7 23                   INC HL
  53++5AB8 46                   LD B,(HL)
  54++5AB9 0B                   DEC BC
  55++5ABA E1                   POP HL
  56++5ABB 09                   ADD HL,BC          ; HL = последний байт упакованного блока.
  57++5ABC ED 52                SBC HL,DE
  58++5ABE 19                   ADD HL,DE
  59++5ABF 38 02                JR C,LL4019
  60++5AC1 54                   LD D,H
  61++5AC2 5D                   LD E,L
  62++5AC3              ; Если вход пересекается с будущим результатом, поток переносится с конца.
  63++5AC3              ; Направление LDDR не позволяет ещё не прочитанным байтам быть затёртыми.
  64++5AC3              DEHR_MOVE_OVERLAPPED_STREAM:
  65++5AC3 ED B8        LL4019  LDDR
  66++5AC5 EB                   EX DE,HL
  67++5AC6 D1                   POP DE
  68++5AC7 0E 0C                LD C,#0C           ; Пропустить 12-байтовую служебную часть.
  69++5AC9 09                   ADD HL,BC
  70++5ACA E5                   PUSH HL
  71++5ACB DD E1                POP IX             ; IX указывает на первый байт потока.
  72++5ACD 3E 03                LD A,#03
  73++5ACF              ; Три слова из +6..+11 временно сохраняются на стеке. При завершении они
  74++5ACF              ; дописываются как последние шесть байт результата.
  75++5ACF              DEHR_SAVE_LAST_6_BYTES:
  76++5ACF 2B           LL4025  DEC HL
  77++5AD0 46                   LD B,(HL)
  78++5AD1 2B                   DEC HL
  79++5AD2 4E                   LD C,(HL)
  80++5AD3 C5                   PUSH BC
  81++5AD4 3D                   DEC A
  82++5AD5 20 F8                JR NZ,LL4025
  83++5AD7 47                   LD B,A
  84++5AD8 D9                   EXX
  85++5AD9 16 BF                LD D,#BF           ; Адаптивное состояние кодирования смещения.
  86++5ADB 0E 10                LD C,#10           ; Пополнение битового резервуара идёт по 16 бит.
  87++5ADD CD BB 5B             CALL LL4115
  88++5AE0              ; Литеральный токен: один байт копируется из потока непосредственно в DE.
  89++5AE0              DEHR_OUTPUT_LITERAL:
  90++5AE0 DD 7E 00     LL4036  LD A,(IX+#00)
  91++5AE3 DD 23                INC IX
  92++5AE5 D9                   EXX
  93++5AE6 12           LL403C  LD (DE),A
  94++5AE7 13                   INC DE
  95++5AE8              ; Основной цикл токенов. HL' — битовый резервуар, B' — число доступных битов.
  96++5AE8              DEHR_TOKEN_LOOP:
  97++5AE8 D9           LL403E  EXX
  98++5AE9              DEHR_READ_TOKEN_BIT:
  99++5AE9 29           LL403F  ADD HL,HL
 100++5AEA 10 03                DJNZ LL4045
 101++5AEC CD BB 5B             CALL LL4115
 102++5AEF 38 EF        LL4045  JR C,LL4036
 103++5AF1 1E 01                LD E,#01
 104++5AF3              ; Декодирование длины совпадения переменным префиксным кодом.
 105++5AF3              DEHR_DECODE_MATCH_LENGTH:
 106++5AF3 3E 80        LL4049  LD A,#80
 107++5AF5 29           LL404B  ADD HL,HL
 108++5AF6 10 03                DJNZ LL4051
 109++5AF8 CD BB 5B             CALL LL4115
 110++5AFB 17           LL4051  RLA
 111++5AFC 38 F7                JR C,LL404B
 112++5AFE FE 03                CP #03
 113++5B00 38 05                JR C,LL405D
 114++5B02 83                   ADD A,E
 115++5B03 5F                   LD E,A
 116++5B04 A9                   XOR C
 117++5B05 20 EC                JR NZ,LL4049
 118++5B07 83           LL405D  ADD A,E
 119++5B08 FE 04                CP #04
 120++5B0A 28 62                JR Z,LL40C4
 121++5B0C CE FF                ADC A,#FF
 122++5B0E FE 02                CP #02
 123++5B10 D9                   EXX
 124++5B11              DEHR_STORE_MATCH_LENGTH:
 125++5B11 4F           LL4067  LD C,A
 126++5B12 D9           LL4068  EXX
 127++5B13 3E BF                LD A,#BF
 128++5B15 38 15                JR C,LL4082
 129++5B17              ; Декодирование отрицательного смещения до уже выведенных данных.
 130++5B17              DEHR_DECODE_MATCH_OFFSET:
 131++5B17 29           LL406D  ADD HL,HL
 132++5B18 10 03                DJNZ LL4073
 133++5B1A CD BB 5B             CALL LL4115
 134++5B1D 17           LL4073  RLA
 135++5B1E 38 F7                JR C,LL406D
 136++5B20 28 05                JR Z,LL407D
 137++5B22 3C                   INC A
 138++5B23 82                   ADD A,D
 139++5B24 30 08                JR NC,LL4084
 140++5B26 92                   SUB D
 141++5B27 3C           LL407D  INC A
 142++5B28 20 0D                JR NZ,LL408D
 143++5B2A 3E EF                LD A,#EF
 144++5B2C 0F           LL4082  RRCA
 145++5B2D BF                   CP A
 146++5B2E 29           LL4084  ADD HL,HL
 147++5B2F 10 03                DJNZ LL408A
 148++5B31 CD BB 5B             CALL LL4115
 149++5B34 17           LL408A  RLA
 150++5B35 38 F7                JR C,LL4084
 151++5B37              DEHR_BUILD_MATCH_OFFSET:
 152++5B37 D9           LL408D  EXX
 153++5B38 26 FF                LD H,#FF
 154++5B3A 28 09                JR Z,LL409B
 155++5B3C 67                   LD H,A
 156++5B3D 3C                   INC A
 157++5B3E DD 7E 00             LD A,(IX+#00)
 158++5B41 DD 23                INC IX
 159++5B43 28 0B                JR Z,LL40A6
 160++5B45              ; HL = DE + отрицательное смещение; BC содержит длину совпадения.
 161++5B45              DEHR_COPY_MATCH:
 162++5B45 6F           LL409B  LD L,A
 163++5B46 19                   ADD HL,DE
 164++5B47 ED B0                LDIR
 165++5B49 18 9D        LL409F  JR LL403E
 166++5B4B              DEHR_CHANGE_OFFSET_CONTEXT:
 167++5B4B D9           LL40A1  EXX
 168++5B4C CB 0A                RRC D
 169++5B4E 18 99                JR LL403F
 170++5B50              ; Специальные коды коротких и контекстных смещений.
 171++5B50              DEHR_SPECIAL_OFFSET_CODE:
 172++5B50 FE E0        LL40A6  CP #E0
 173++5B52 38 F1                JR C,LL409B
 174++5B54 07                   RLCA
 175++5B55 A9                   XOR C
 176++5B56 3C                   INC A
 177++5B57 28 F2                JR Z,LL40A1
 178++5B59 D6 10                SUB #10
 179++5B5B              ; Короткое совпадение с последующим литералом.
 180++5B5B              DEHR_SHORT_MATCH_WITH_LITERAL:
 181++5B5B 6F           LL40B1  LD L,A
 182++5B5C 4F                   LD C,A
 183++5B5D 26 FF                LD H,#FF
 184++5B5F 19                   ADD HL,DE
 185++5B60 ED A0                LDI
 186++5B62 DD 7E 00             LD A,(IX+#00)
 187++5B65 DD 23                INC IX
 188++5B67 12                   LD (DE),A
 189++5B68 23                   INC HL
 190++5B69 13                   INC DE
 191++5B6A 7E                   LD A,(HL)
 192++5B6B C3 E6 5A             JP LL403C
 193++5B6E              ; Расширенная команда: длинное совпадение, блок литералов либо конец потока.
 194++5B6E              DEHR_EXTENDED_COMMAND:
 195++5B6E 3E 80        LL40C4  LD A,#80
 196++5B70 29           LL40C6  ADD HL,HL
 197++5B71 10 03                DJNZ LL40CC
 198++5B73 CD BB 5B             CALL LL4115
 199++5B76 8F           LL40CC  ADC A,A
 200++5B77 20 20                JR NZ,LL40F3
 201++5B79 38 F5                JR C,LL40C6
 202++5B7B 3E FC                LD A,#FC
 203++5B7D 18 1D                JR LL40F6
 204++5B7F              DEHR_LENGTH_FROM_STREAM_BYTE:
 205++5B7F 47           LL40D5  LD B,A
 206++5B80 DD 4E 00             LD C,(IX+#00)
 207++5B83 DD 23                INC IX
 208++5B85 3F                   CCF
 209++5B86 18 8A                JR LL4068
 210++5B88              DEHR_CHECK_END_MARKER:
 211++5B88 FE 0F        LL40DE  CP #0F
 212++5B8A 38 F3                JR C,LL40D5
 213++5B8C 20 83                JR NZ,LL4067
 214++5B8E 06 03                LD B,#03
 215++5B90 EB                   EX DE,HL
 216++5B91              ; Терминатор #0F: восстановить три сохранённых слова и дописать хвост.
 217++5B91              DEHR_APPEND_LAST_6_BYTES:
 218++5B91 D1           LL40E7  POP DE
 219++5B92 73                   LD (HL),E
 220++5B93 23                   INC HL
 221++5B94 72                   LD (HL),D
 222++5B95 23                   INC HL
 223++5B96 10 F9                DJNZ LL40E7
 224++5B98 C9                   RET
 225++5B99              ;-------
 226++5B99              DEHR_EXTENDED_PREFIX:
 227++5B99 9F           LL40F3  SBC A,A
 228++5B9A 3E EF                LD A,#EF
 229++5B9C 29           LL40F6  ADD HL,HL
 230++5B9D 10 03                DJNZ LL40FC
 231++5B9F CD BB 5B             CALL LL4115
 232++5BA2 17           LL40FC  RLA
 233++5BA3 38 F7                JR C,LL40F6
 234++5BA5 D9                   EXX
 235++5BA6 20 B3                JR NZ,LL40B1
 236++5BA8 CB 7F                BIT 7,A
 237++5BAA 28 DC                JR Z,LL40DE
 238++5BAC D6 EA                SUB #EA
 239++5BAE 87                   ADD A,A
 240++5BAF 47                   LD B,A
 241++5BB0              ; Блок несжатых литералов; B задаёт число копируемых байтов.
 242++5BB0              DEHR_COPY_LITERAL_RUN:
 243++5BB0 DD 7E 00     LL410A  LD A,(IX+#00)
 244++5BB3 DD 23                INC IX
 245++5BB5 12                   LD (DE),A
 246++5BB6 13                   INC DE
 247++5BB7 10 F7                DJNZ LL410A
 248++5BB9 18 8E                JR LL409F
 249++5BBB              ; Пополнить битовый резервуар следующим 16-битным словом потока.
 250++5BBB              DEHR_REFILL_16_BITS:
 251++5BBB 41           LL4115  LD B,C
 252++5BBC DD 6E 00             LD L,(IX+#00)
 253++5BBF DD 23                INC IX
 254++5BC1 DD 66 00             LD H,(IX+#00)
 255++5BC4 DD 23                INC IX
 256++5BC6 C9                   RET
 257++5BC7              LCODE   EQU $-DEHRUST      ; Размер процедуры: #011D (285 байт).
 258++5BC7
# file closed: DEHR2.ASM
1533++5BC7                      ASSERT DR1 == #5176
1534++5BC7                      ASSERT DR2 == #535D
1535++5BC7                      ASSERT DR3 == #5601
1536++5BC7                      ASSERT DR4 == #5933
1537++5BC7                      ASSERT DEHR == #5AAA
1538++5BC7                      ASSERT $ == #5BC7
1539++5BC7              END
1540++5BC7                      ASSERT END == #5BC7, нарушена рабочая длина WildDOS
1541++5BC7                      ENT
1542++DBD3                      ASSERT $ == #DBD3, нарушена физическая граница WildDOS
1543++DBD3
# file closed: CORE32.ASM
  71+ DBD3                      ENDMODULE
  72+ DBD3                      ASSERT $ == #DBD3, нарушена конечная граница CORE32.ASM
  73+ DBD3
  74+ DBD3              ; Точные байты после логического конца HoBeta сохранены для совпадения полного сектора.
  75+ DBD3              LDBD3:
  76+ DBD3                      INCBIN "BOOT_SECTOR_TAIL.BIN"
  77+ DC11                      ASSERT $ == #DC11, нарушена граница BOOT_SECTOR_TAIL.BIN
  78+ DC11
# file closed: BOOT_DISASM.ASM
   6  DC11
# file closed: exact_current_wrapper.ASM
