# file opened: MD20.ASM
   1  0000              ;Wild Commander
   2  0000              ;(C) KOSHI/MGN 2025
   3  0000              ;---------------------------------------
   4  0000                      IFNDEF __ALASM_CORG_ACTIVE
   5  0000                      ORG #6011
   6  6011                      DISP #6011
   7  6011                      DEFINE __ALASM_CORG_ACTIVE 1
   8  6011              __ALASM_CORG_CODE DEFL #6011
   9  6011              __ALASM_CORG_LOGICAL DEFL #6011
  10  6011              __ALASM_CORG_DISP DEFL 1
  11  6011                      ELSE
  12  6011 ~            __ALASM_CORG_END DEFL __ALASM_CORG_CODE + ($ - __ALASM_CORG_LOGICAL)
  13  6011 ~            __ALASM_CORG_NEW DEFL #6011
  14  6011 ~                    IF __ALASM_CORG_NEW > __ALASM_CORG_END
  15  6011 ~                    DS __ALASM_CORG_NEW - __ALASM_CORG_END,0
  16  6011 ~                    ENDIF
  17  6011 ~                    IF __ALASM_CORG_DISP
  18  6011 ~                    ENT
  19  6011 ~                    ENDIF
  20  6011 ~                    DISP #6011
  21  6011 ~            __ALASM_CORG_CODE DEFL __ALASM_CORG_NEW
  22  6011 ~            __ALASM_CORG_LOGICAL DEFL #6011
  23  6011 ~            __ALASM_CORG_DISP DEFL 1
  24  6011                      ENDIF
  25  6011              ;-------
  26  6011              PLGOV   EQU #02;Plugin SYS unsupported
  27  6011              PLGCV   EQU #10;Plugin SYS current ver
  28  6011
  29  6011              WID1    EQU 80
  30  6011              WID2    EQU 90
  31  6011              HEIMIN  EQU 25;80x25
  32  6011              HEIMID  EQU 30;80x30
  33  6011              HEIMAX  EQU 36;90x36
  34  6011              PPATHLN EQU 40;Path len in panel head
  35  6011              PPATHL2 EQU 45;for 90x36 screen mode
  36  6011
  37  6011              MAXOP   EQU 8;  green menu max items
  38  6011              DRVRS   EQU 6+1;DRIVES (0-6)
  39  6011
  40  6011              DEFRQ   EQU %00000001;AY+Z80
  41  6011              CACHE   EQU %00000010
  42  6011              CACH2   EQU %00000110
  43  6011              INTM    EQU #5BFF;4 bytes!
  44  6011              ;-------
  45  6011              BASIC48 EQU %00000011
  46  6011              ;-------
  47  6011              STS     EQU #27AF
  48  6011
  49  6011              BORDER  EQU #0FAF
  50  6011
  51  6011              Vmod    EQU #00AF
  52  6011              Vpag    EQU #01AF
  53  6011              Vpal    EQU #07AF
  54  6011              Vfm     EQU #15AF
  55  6011              Vtm     EQU #16AF
  56  6011              Vtl0    EQU #17AF
  57  6011              Vtl1    EQU #18AF
  58  6011              Vsgp    EQU #19AF
  59  6011
  60  6011              VsinL   EQU #23AF
  61  6011              VsinH   EQU #24AF
  62  6011
  63  6011              TILESof EQU #40
  64  6011
  65  6011              PW0     EQU #10AF
  66  6011              PW1     EQU #11AF
  67  6011              PW2     EQU #12AF
  68  6011              PW4     EQU #13AF
  69  6011
  70  6011              SYC     EQU #20AF
  71  6011              CYC     EQU #2BAF
  72  6011              PE0     EQU #21AF
  73  6011
  74  6011              YoffL   EQU #04AF
  75  6011              YoffH   EQU #05AF
  76  6011              XoffL   EQU #02AF
  77  6011              XoffH   EQU #03AF
  78  6011              ;-------
  79  6011              DMASL   EQU #1AAF
  80  6011              DMASH   EQU #1BAF
  81  6011              DMASX   EQU #1CAF
  82  6011              DMADL   EQU #1DAF
  83  6011              DMADH   EQU #1EAF
  84  6011              DMADX   EQU #1FAF
  85  6011
  86  6011              DMA_T   EQU #28AF;0=1, 255=256
  87  6011              DMA_N   EQU #26AF;255=512
  88  6011              DMA_C   EQU #27AF;RW 1 - - - 0 0 1
  89  6011              ;-------
  90  6011              RSQB    EQU #8000
  91  6011
  92  6011              CURclr  EQU %01011000;\CUR COLOR in PANz
  93  6011              CURmsk  EQU %00000111;/MASK
  94  6011              TBG     EQU %00010111;TEXT COLOR
  95  6011              MARKclr EQU %00010011;MARK COLOR
  96  6011              WNDCLR  EQU %00011111
  97  6011
  98  6011              GSTP    EQU 4;Step (GFX Viewer)
  99  6011
 100  6011              PLHPG   EQU 96;      HEADERS
 101  6011              PLGPG   EQU PLHPG+1; PLUGINS
 102  6011              PLEPG   EQU PLGPG+63;/
 103  6011
 104  6011              MTXPG   EQU 0;       Main TXT Page
 105  6011              BUFPG   EQU 8;       BUFFER Page
 106  6011              TVBPG   EQU 32;      TXTbuf Start (Page)
 107  6011              TVEPG   EQU TVBPG+63;TXTbuf End (1024Kb)
 108  6011              TVvPG   EQU 8;       TXT/HEX video page
 109  6011              RESB    EQU 29;     WOW save buffer page
 110  6011              GVvPG   EQU 32;      GFX video page1
 111  6011              GV2PG   EQU GVvPG+16;GFX video page2
 112  6011              GV3PG   EQU GV2PG+16;GFX video page3
 113  6011              GV4PG   EQU GV3PG+16;GFX video page4
 114  6011
 115  6011              CATMX   EQU 9;CAT MAX page
 116  6011              CTZPG   EQU 11;CATZ BUFFER (CATMXperCAT)
 117  6011              PNLPG   EQU #F0;Drivers
 118  6011              INIPG   EQU PNLPG+2
 119  6011              STRPG   EQU PNLPG+3;Streams
 120  6011              CPPG1   EQU 30;\
 121  6011              CPPG2   EQU 31;/ positions
 122  6011              D2PG    EQU #F6
 123  6011              D5PG    EQU #F5
 124  6011              DBPG    EQU #F4
 125  6011              RPPG    EQU #F7
 126  6011              ;-------
 127  6011              RLPNL   EQU #1000
 128  6011              RRPNL   EQU #2000
 129  6011              RAPNL   EQU #2000-4
 130  6011
 131  6011              BUX     EQU #5E00;(256)
 132  6011              WINDC   EQU #5E80;(32)
 133  6011              TXTBU   EQU #5EA0;(64)
 134  6011
 135  6011              ;fixed vars:
 136  6011              PG0     EQU #6000
 137  6011              PG4     EQU PG0+1
 138  6011              PG8     EQU PG0+2
 139  6011              PGC     EQU PG0+3
 140  6011              ABT     EQU PG0+4
 141  6011              ENT     EQU PG0+5
 142  6011              Fun     EQU PG0+6
 143  6011              TMN     EQU PG0+9
 144  6011              FEP     EQU PG0+11;\
 145  6011              XPP     EQU PG0+12;/
 146  6011              CNFv    EQU PG0+13
 147  6011              HEI     EQU PG0+14;\
 148  6011              TXTmdCO EQU PG0+15;/
 149  6011              INIflg  EQU PG0+16
 150  6011              RSQBC   EQU PG0+17
 151  6011              RSQB2   EQU PG0+19
 152  6011              SDBSF   EQU PG0+21;SD1driver
 153  6011              SDBSF2  EQU PG0+22;SD2driver
 154  6011              F3ENTFL EQU PG0+23;F3/ENTER EXT exe flag
 155  6011              FEP2    EQU PG0+24;2b
 156  6011              PLresAD EQU PG0+32;residents
 157  6011              PLresLN EQU 8+32
 158  6011
 159  6011              LOBU    EQU #B000;Main Buffer
 160  6011              LOBULO  EQU LOBU+#0200;LaunchOptionsBuff
 161  6011              LOBUL2  EQU LOBULO+#0200;TXToptBuffer
 162  6011              ETY     EQU #8000;CATZ hdrs
 163  6011              DNT     EQU #C000;CATZ
 164  6011              CURO    EQU #C000;POZs in browsing
 165  6011
 166  6011              GIG_PAL EQU 0;MTXPG
 167  6011
 168  6011              FLG     EQU 16;flag offset (BDSL, GETen)
 169  6011              ELN     EQU FLG+1;entry header lenght
 170  6011              ;---------------------------------------
 171  6011 F3                   DI
 172  6012 00                   NOP
 172  6013 31 FE 5F      LD SP,#6000-2
 173  6016 00                   NOP
 174  6017
 175  6017 CD 39 6A CD          CALL INIT,#C000
 175  601B 00 C0
 176  601D
 177  601D F3                   DI
 178  601E 21 12 67 22  INTA    LD HL,I_N_T,(INTM+0),HL
 178  6022 FF 5B
 179  6024 21 FB C9 22          LD HL,#C9FB,(INTM+2),HL
 179  6028 01 5C
 180  602A F3                   DI
 181  602B 3E 5B ED 47          LD A,high INTM,I,A
 181  602F ED 5E         IM 2
 182  6031
 183  6031 CD 06 A1 CD          CALL FINI,GEDZ,DEF
 183  6035 18 A2 CD E2
 183  6039 6B
 184  603A
 185  603A CD EA 9E             CALL PATH
 186  603D              ;-------
 187  603D CD 49 61 CD          CALL Xpan,STATUS
 187  6041 8D 87
 188  6043 CD 49 61             CALL Xpan
 189  6046              ;-------
 190  6046 CD CB AB             CALL PLresCP
 191  6049              ;-------
 192  6049 FB           MAIN    EI
 192  604A 76            HALT
 192  604B CD 3B 7D      CALL CURSOR
 193  604E CD CD 74 C4          CALL ALT,NZ,F12
 193  6052 49 88
 193  6054 20 F3         JR NZ,MAIN
 194  6056 CD D9 74 C4          CALL CTRL,NZ,F36
 194  605A 95 85
 194  605C 20 EB         JR NZ,MAIN
 195  605E CD 49 74 C4          CALL UPPP,NZ,CRUP
 195  6062 61 62
 196  6064 CD 4F 74 C4          CALL DWWW,NZ,CRDN
 196  6068 1C 62
 197  606A CD 61 74 C4          CALL PGU,NZ,PGSUP
 197  606E FA 61
 198  6070 CD 67 74 C4          CALL PGD,NZ,PGSDN
 198  6074 C9 61
 199  6076 CD 7C 74 C4          CALL HOME,NZ,PGSHM
 199  607A 10 62
 200  607C CD 81 74 C4          CALL END,NZ,PGSED
 200  6080 95 61
 201  6082 CD 55 74 C4          CALL LFFF,NZ,PGSHM
 201  6086 10 62
 202  6088 CD 5B 74 C4          CALL RGGG,NZ,PGSED
 202  608C 95 61
 203  608E CD 86 74 C4          CALL DELE,NZ,DelFl
 203  6092 80 8E
 204  6094 CD 8B 74 C4          CALL INS,NZ,Mark
 204  6098 18 86
 205  609A
 206  609A CD 77 74 C4          CALL BSPC,NZ,BENT
 206  609E 1C 61
 207  60A0 CD 8D 87             CALL STATUS
 208  60A3
 209  60A3 CD D3 74 C4          CALL SHIFT,NZ,R2B2
 209  60A7 39 88
 209  60A9 20 9E         JR NZ,MAIN
 210  60AB
 211  60AB CD 95 74 C4          CALL F1,NZ,HELP
 211  60AF EB 88
 212  60B1 CD 9F 74 C4          CALL F3,NZ,VIEW
 212  60B5 FA 92
 213  60B7 CD C2 74 C4          CALL F10,NZ,F11MENU
 213  60BB 46 99
 214  60BD
 215  60BD CD DF 74 C4          CALL TABK,NZ,XPAN
 215  60C1 60 61
 216  60C3
 217  60C3 CD 9A 74 C4          CALL F2,NZ,F2MENU
 217  60C7 3B 91
 218  60C9 CD A4 74 C4          CALL F4,NZ,EDIT
 218  60CD 40 91
 219  60CF CD A9 74 C4          CALL F5,NZ,COPY
 219  60D3 C3 89
 220  60D5 CD AE 74 C4          CALL F6,NZ,Move
 220  60D9 8D 8D
 221  60DB CD B3 74 C4          CALL F7,NZ,MkDir
 221  60DF 0B 8D
 222  60E1 CD B8 74 C4          CALL F8,NZ,DelFl
 222  60E5 80 8E
 223  60E7 CD BD 74 C4          CALL F9,NZ,F9STP
 223  60EB B4 9B
 224  60ED
 225  60ED CD 72 74 C4          CALL SPKE,NZ,Mark
 225  60F1 18 86
 226  60F3
 227  60F3 CD 9D 9B             CALL TMAFK
 228  60F6
 229  60F6 CD 6D 74 C4          CALL ENKE,NZ,ENTR
 229  60FA 07 61
 230  60FC
 231  60FC CD 21 74             CALL CLAVA
 232  60FF FE 2A                CP "*"
 232  6101 CC D9 85      CALL Z,MarkMUL
 233  6104 C3 49 60             JP MAIN
 234  6107              ;---------------------------------------
 235  6107 CD FE 62     ENTR    CALL GETEN
 236  610A 08                   EXA
 236  610B 7C            LD A,H
 236  610C B5            OR L
 236  610D C8            RET Z
 237  610E 08                   EXA
 237  610F C2 09 93      JP NZ,VIE
 238  6112 13                   INC DE
 239  6113
 240  6113 CD 43 A0             CALL MPATH
 241  6116 CD 57 7D             CALL CURSER
 242  6119 C3 FE 63             JP FOLDER
 243  611C
 244  611C 21 00 00     BENT    LD HL,0
 244  611F CD 0B 63      CALL GETen
 244  6122 C0            RET NZ
 245  6123 7C                   LD A,H
 245  6124 B5            OR L
 245  6125 C8            RET Z
 246  6126
 247  6126 06 02                LD B,2
 248  6128 13           Bent    INC DE
 248  6129 1A            LD A,(DE)
 248  612A FE 2E         CP "."
 248  612C C0            RET NZ
 249  612D 10 F9                DJNZ Bent
 250  612F 13                   INC DE
 250  6130 1A            LD A,(DE)
 250  6131 B7            OR A
 250  6132 C0            RET NZ
 251  6133 1B          > DEC DE
 251  6134 1B          > DEC DE
 252  6135
 253  6135 CD 43 A0             CALL MPATH
 254  6138 CD 57 7D             CALL CURSER
 255  613B
 256  613B AF                   XOR A
 257  613C DD 36 0C 01          LD (IX+12),1
 258  6140 DD 77 10             LD (IX+16),A
 259  6143 DD 77 11             LD (IX+17),A
 260  6146 C3 FE 63             JP FOLDER
 261  6149              ;---------------------------------------
 262  6149 3E 01 32 A7  Xpan    LD A,1,(STUS),A
 262  614D 7F
 263  614E DD E5                PUSH IX
 264  6150 E1                   POP HL
 265  6151 11 28 7F             LD DE,WINDO2
 265  6154 B7            OR A
 265  6155 ED 52         SBC HL,DE
 266  6157 DD 21 04 7F          LD IX,WINDOW
 266  615B C8            RET Z
 267  615C D5                   PUSH DE
 268  615D DD E1                POP IX
 269  615F C9                   RET
 270  6160              ;-------
 271  6160 DD E5        XPAN    PUSH IX
 272  6162 E1                   POP HL
 273  6163 11 28 7F             LD DE,WINDO2
 273  6166 B7            OR A
 273  6167 ED 52         SBC HL,DE
 274  6169 28 15                JR Z,LPAN
 275  616B              ;-------
 276  616B CD 57 7D     RPAN    CALL CURSER
 277  616E CD C7 68             CALL MNGP
 278  6171 3E 42 32 FC          LD A,#42,(RAPNL+#C000),A
 278  6175 DF
 279  6176 DD 21 28 7F          LD IX,WINDO2
 279  617A CD 5D 68      CALL DRACT
 280  617D C3 6E 62             JP STT
 281  6180
 282  6180 CD 57 7D     LPAN    CALL CURSER
 283  6183 CD C7 68             CALL MNGP
 284  6186 3E 41 32 FC          LD A,#41,(RAPNL+#C000),A
 284  618A DF
 285  618B DD 21 04 7F          LD IX,WINDOW
 285  618F CD 5D 68      CALL DRACT
 286  6192 C3 6E 62             JP STT
 287  6195              ;---------------------------------------
 288  6195 CD 57 7D     PGSED   CALL CURSER
 289  6198 DD 7E 14             LD A,(IX+20)
 289  619B B7            OR A
 289  619C 20 4F         JR NZ,CR4
 290  619E DD 6E 10 DD          LD L,(IX+16),H,(IX+17)
 290  61A2 66 11
 291  61A4 E5           EDD     PUSH HL
 292  61A5 CD 4F 63             CALL Gwe
 293  61A8 E1                   POP HL
 293  61A9 23            INC HL
 293  61AA 20 F8         JR NZ,EDD
 294  61AC
 295  61AC DD 7E 05             LD A,(IX+5)
 295  61AF D6 01 DD 96   SUB 1,(IX+10)
 295  61B3 0A
 296  61B4 06 00 4F             LD B,0,C,A
 297  61B7 B7                   OR A
 297  61B8 ED 42         SBC HL,BC
 298  61BA 7C                   LD A,H
 298  61BB FE FF         CP #FF
 298  61BD D0            RET NC
 299  61BE DD 75 10 DD          LD (IX+16),L,(IX+17),H
 299  61C2 74 11
 300  61C4 CD B8 65             CALL WLIT
 301  61C7 18 24                JR CR4
 302  61C9
 303  61C9 CD 57 7D     PGSDN   CALL CURSER
 304  61CC DD 7E 14             LD A,(IX+20)
 304  61CF B7            OR A
 304  61D0 20 1B         JR NZ,CR4
 305  61D2 DD 7E 05             LD A,(IX+5)
 305  61D5 D6 02 DD 96   SUB 2,(IX+10)
 305  61D9 0A
 306  61DA 4F 06 00             LD C,A,B,0
 307  61DD DD 6E 10 DD          LD L,(IX+16),H,(IX+17)
 307  61E1 66 11
 307  61E3 09            ADD HL,BC
 308  61E4 DD 75 10 DD          LD (IX+16),L,(IX+17),H
 308  61E8 74 11
 309  61EA CD B8 65             CALL WLIT
 310  61ED CD 44 62     CR4     CALL CR4EG
 311  61F0 C3 6E 62             JP STT
 312  61F3
 313  61F3 E5           SM      PUSH HL
 313  61F4 CD 57 7D      CALL CURSER
 313  61F7 E1            POP HL
 314  61F8 18 3E                JR SL
 315  61FA
 316  61FA              PGSUP   ;LD A,(IX+21):OR A:RET NZ
 317  61FA DD 7E 05             LD A,(IX+5)
 317  61FD D6 02 DD 96   SUB 2,(IX+10)
 317  6201 0A
 318  6202 4F 06 00             LD C,A,B,0
 319  6205 DD 6E 10 DD          LD L,(IX+16),H,(IX+17)
 319  6209 66 11
 320  620B B7                   OR A
 320  620C ED 42         SBC HL,BC
 320  620E 30 E3         JR NC,SM
 321  6210 CD 57 7D     PGSHM   CALL CURSER
 322  6213 21 00 00 DD          LD HL,0,(IX+12),1
 322  6217 36 0C 01
 323  621A 18 1C                JR SL
 324  621C              ;-------
 325  621C DD 7E 0C     CRDN    LD A,(IX+12)
 326  621F DD BE 0D             CP (IX+13)
 326  6222 30 08         JR NC,SRLDN
 327  6224 CD 57 7D     RDN     CALL CURSER
 328  6227 DD 34 0C             INC (IX+12)
 329  622A 18 42                JR STT
 330  622C DD 7E 14     SRLDN   LD A,(IX+20)
 330  622F B7            OR A
 330  6230 C0            RET NZ
 331  6231 DD 6E 10 DD          LD L,(IX+16),H,(IX+17)
 331  6235 66 11
 331  6237 23            INC HL
 332  6238 DD 75 10 DD  SL      LD (IX+16),L,(IX+17),H
 332  623C 74 11
 333  623E CD B8 65             CALL WLIT
 334  6241 C3 3B 7D             JP CURSOR
 335  6244
 336  6244 DD 7E 14     CR4EG   LD A,(IX+20)
 336  6247 B7            OR A
 336  6248 C8            RET Z
 337  6249 DD 7E 0D             LD A,(IX+13)
 337  624C B7            OR A
 337  624D C8            RET Z
 338  624E DD 77 0C             LD (IX+12),A
 339  6251 C9                   RET
 340  6252 DD 7E 0D     CR4eg   LD A,(IX+13)
 341  6255 B7                   OR A
 341  6256 20 01         JR NZ,$+3
 341  6258 3C            INC A
 342  6259 DD BE 0C             CP (IX+12)
 342  625C D0            RET NC
 343  625D DD 77 0C             LD (IX+12),A
 344  6260 C9                   RET
 345  6261              ;-------
 346  6261 DD 7E 0C     CRUP    LD A,(IX+12)
 347  6264 FE 01                CP 1
 347  6266 28 0F         JR Z,SRLUP
 348  6268 CD 57 7D     RUP     CALL CURSER
 349  626B DD 35 0C             DEC (IX+12)
 350  626E CD 3B 7D     STT     CALL CURSOR
 351  6271 3E 01 32 A7          LD A,1,(STUS),A
 351  6275 7F
 352  6276 C9                   RET
 353  6277 DD 7E 15     SRLUP   LD A,(IX+21)
 353  627A B7            OR A
 353  627B C0            RET NZ
 354  627C DD 6E 10 DD          LD L,(IX+16),H,(IX+17)
 354  6280 66 11
 354  6282 2B            DEC HL
 355  6283 18 B3                JR SL
 356  6285              ;-------
 357  6285 DD 7E 0C     CrDN    LD A,(IX+12)
 358  6288 DD BE 0D             CP (IX+13)
 358  628B D0            RET NC
 359  628C 18 96                JR RDN
 360  628E DD 7E 0C     CrUP    LD A,(IX+12)
 361  6291 FE 01                CP 1
 361  6293 C8            RET Z
 362  6294 18 D2                JR RUP
 363  6296              ;-------
 364  6296 CD 57 7D     CrPU    CALL CURSER
 364  6299 DD 36 0C 01   LD (IX+12),1
 364  629D 18 CF         JR STT
 365  629F CD 57 7D     CrPD    CALL CURSER
 366  62A2 DD 7E 0D DD          LD A,(IX+13),(IX+12),A
 366  62A6 77 0C
 366  62A8 18 C4         JR STT
 367  62AA              ;-------
 368  62AA DD 6E 12     PANK    LD L,(IX+18)
 369  62AD DD 66 13             LD H,(IX+19)
 370  62B0 DD 7E 11             LD A,(IX+17)
 370  62B3 BC            CP H
 370  62B4 D8            RET C
 371  62B5 DD 7E 10             LD A,(IX+16)
 371  62B8 BD            CP L
 371  62B9 D8            RET C
 372  62BA
 373  62BA DD 7E 05             LD A,(IX+5)
 373  62BD D6 02 DD 96   SUB 2,(IX+10)
 373  62C1 0A
 374  62C2 06 00 4F             LD B,0,C,A
 375  62C5 B7                   OR A
 375  62C6 ED 42         SBC HL,BC
 375  62C8 30 03         JR NC,$+5
 375  62CA 21 00 00      LD HL,0
 376  62CD
 377  62CD DD 75 10             LD (IX+16),L
 378  62D0 DD 74 11             LD (IX+17),H
 379  62D3 C9                   RET
 380  62D4              ;---------------------------------------
 381  62D4 CD EB 62     PANE    CALL PANELI
 382  62D7 DD 77 17 DD          LD (IX+23),A,(IX+24),A
 382  62DB 77 18
 383  62DD DD 36 0C 01          LD (IX+12),1
 384  62E1 DD 77 10 DD          LD (IX+16),A,(IX+17),A,(IX+26),A
 384  62E5 77 11 DD 77
 384  62E9 1A
 385  62EA C9                   RET
 386  62EB
 387  62EB              PANELI  ;i:IX - SOW
 388  62EB 3E 01                LD A,1
 389  62ED 32 A7 7F             LD (STUS),A
 390  62F0 AF                   XOR A
 391  62F1 DD 77 0D             LD (IX+13),A
 392  62F4 DD 77 0F             LD (IX+15),A
 393  62F7 DD 77 14             LD (IX+20),A
 394  62FA DD 77 15             LD (IX+21),A
 395  62FD C9                   RET
 396  62FE
 397  62FE              GETEN   ;i:IX - SOW
 398  62FE              ;        o:DE - flag addres
 399  62FE              ;          HL - ENTRY addres
 400  62FE              ;          ENTRY(14+NAME+1), BRRR(8)
 401  62FE
 402  62FE 06 00 DD 4E          LD B,0,C,(IX+12)
 402  6302 0C
 402  6303 0D            DEC C
 403  6304 DD 6E 10 DD          LD L,(IX+16),H,(IX+17)
 403  6308 66 11
 404  630A 09                   ADD HL,BC
 405  630B
 406  630B CD 36 63     GETen   CALL GWE
 407  630E E5                   PUSH HL
 408  630F 23                   INC HL
 409  6310 23          > INC HL;skip srt EXT
 409  6311 23          > INC HL
 409  6312 23          > INC HL
 410  6313 11 8C 7F 01          LD DE,BRRR,BC,8
 410  6317 08 00
 410  6319 ED B0         LDIR
 411  631B 0E 04                LD C,FLG-9-3
 411  631D 09            ADD HL,BC;-3=srtEXT
 412  631E 11 CF 7F             LD DE,ENTRY
 412  6321 CD 06 65      CALL LNGSNM
 413  6324 AF                   XOR A
 413  6325 12            LD (DE),A
 414  6326 E1                   POP HL
 415  6327
 416  6327 E5                   PUSH HL
 417  6328 0E 10                LD C,FLG
 417  632A 09            ADD HL,BC
 417  632B EB            EX DE,HL
 418  632C E1                   POP HL
 419  632D
 420  632D 1A                   LD A,(DE)
 420  632E B7            OR A
 421  632F C9                   RET
 422  6330              ;-------
 423  6330 DD 6E 10 DD  GETWE   LD L,(IX+16),H,(IX+17)
 423  6334 66 11
 424  6336 29 29        GWE     ADD HL,HL,HL,HL
 425  6338 01 00 C0             LD BC,DNT
 426  633B 09                   ADD HL,BC
 427  633C CD D3 68             CALL CAT2
 428  633F 7E                   LD A,(HL)
 428  6340 2C            INC L
 428  6341 DD 77 1A      LD (IX+26),A
 429  6344 4E                   LD C,(HL)
 429  6345 2C            INC L
 430  6346 46                   LD B,(HL)
 430  6347 2C            INC L
 431  6348 7E 60 69             LD A,(HL),H,B,L,C
 432  634B 4F                   LD C,A
 433  634C C3 DB 68             JP CAT1
 434  634F
 435  634F CD 36 63     Gwe     CALL GWE
 435  6352 7C            LD A,H
 435  6353 B5            OR L
 435  6354 C9            RET
 436  6355              ;-------
 437  6355 DD 7E 16     CURPOZ  LD A,(IX+22)
 437  6358 B7            OR A
 437  6359 C8            RET Z
 438  635A CD B6 68             CALL MNGC
 439  635D
 440  635D 11 00 C0             LD DE,CURO
 441  6360 DD 4E 10 DD          LD C,(IX+16),B,(IX+17)
 441  6364 46 11
 442  6366 DD 6E 17 DD          LD L,(IX+23),H,(IX+24)
 442  636A 66 18
 443  636C DD 7E 0C             LD A,(IX+12)
 444  636F 3D                   DEC A
 444  6370 28 23         JR Z,LUP
 445  6372
 446  6372 DD 7E 0C     Lup     LD A,(IX+12)
 447  6375 19                   ADD HL,DE
 448  6376 71                   LD (HL),C
 448  6377 23            INC HL
 449  6378 70                   LD (HL),B
 449  6379 23            INC HL
 450  637A 77                   LD (HL),A
 450  637B 23            INC HL
 451  637C 36 00                LD (HL),0
 451  637E 23            INC HL
 452  637F
 453  637F DD 36 0C 01          LD (IX+12),1
 454  6383 DD 36 10 00          LD (IX+16),0
 455  6387 DD 36 11 00          LD (IX+17),0
 456  638B
 457  638B B7           NEKO    OR A
 457  638C ED 52         SBC HL,DE
 458  638E DD 75 17 DD          LD (IX+23),L,(IX+24),H
 458  6392 74 18
 459  6394 C9                   RET
 460  6395              ;-------
 461  6395 78           LUP     LD A,B
 461  6396 B1            OR C
 461  6397 20 D9         JR NZ,Lup
 462  6399 7D                   LD A,L
 462  639A B4            OR H
 462  639B 28 D5         JR Z,Lup
 463  639D 19                   ADD HL,DE
 464  639E
 465  639E 2B                   DEC HL
 466  639F 2B                   DEC HL
 466  63A0 7E DD 77 0C   LD A,(HL),(IX+12),A
 467  63A4 2B                   DEC HL
 467  63A5 7E DD 77 11   LD A,(HL),(IX+17),A
 468  63A9 2B                   DEC HL
 468  63AA 7E DD 77 10   LD A,(HL),(IX+16),A
 469  63AE 18 DB                JR NEKO
 470  63B0              ;---------------------------------------
 471  63B0 21 37 82     ER0     LD HL,TER0
 472  63B3 CD 1E 91     ERX     CALL ERR0
 473  63B6 DD E5                PUSH IX
 474  63B8 E1                   POP HL
 475  63B9 CD 7F 88             CALL SXM
 476  63BC DD 77 1D DD          LD (IX+29),A,(IX+28),0
 476  63C0 36 1C 00
 477  63C3 CD 5D 68             CALL DRACT
 478  63C6 18 10                JR ORIG
 479  63C8 21 4A 82     ER1     LD HL,TER1
 480  63CB 18 E6                JR ERX
 481  63CD              ;-------
 482  63CD 3A 0E 60     ORIGA2  LD A,(HEI)
 482  63D0 D6 01         SUB 1
 483  63D2              ORI     EQU $-1
 484  63D2 DD 77 05             LD (IX+5),A
 485  63D5 CD 92 79             CALL PRWOW
 486  63D8 CD 03 40     ORIG    CALL DEV_INI
 486  63DB 20 D3         JR NZ,ER0
 487  63DD CD 09 40             CALL HDD
 487  63E0 20 E6         JR NZ,ER1
 488  63E2
 489  63E2 21 8C 7F 06          LD HL,BRRR,B,4
 489  63E6 04
 489  63E7 CD 8E 69      CALL NOPING
 490  63EA
 491  63EA C3 D4 62             JP PANE
 492  63ED
 493  63ED CD CD 63     ORIGA   CALL ORIGA2
 494  63F0 CD 07 64     FOLD    CALL NEWDIR
 495  63F3 CD AA 62             CALL PANK
 496  63F6 CD B8 65 CD          CALL WLIT,CR4eg
 496  63FA 52 62
 497  63FC AF                   XOR A
 498  63FD C9                   RET
 499  63FE
 500  63FE CD EB 62 CD  FOLDER  CALL PANELI,CURPOZ
 500  6402 55 63
 501  6404 C3 F0 63             JP FOLD
 502  6407
 503  6407              ;---------------------------------------
 504  6407              ;GENERATING DIRECTORY IN RAM:
 505  6407              NEWDIR  ;i:BRRR(4) - fstCLUS of NEW DIR
 506  6407
 507  6407 CD C4 A0             CALL PPATH
 508  640A
 509  640A 21 8C 7F             LD HL,BRRR
 509  640D CD 1E 40      CALL GLSTCAT
 510  6410
 511  6410 AF                   XOR A
 512  6411 DD 77 12 DD          LD (IX+18),A,(IX+19),A
 512  6415 77 13
 513  6417 3C                   INC A
 513  6418 DD 77 1A      LD (IX+26),A
 513  641B CD DB 68      CALL CAT1
 514  641E CD E6 68             CALL CAT0
 515  6421
 516  6421 AF                   XOR A
 516  6422 32 11 C0      LD (DNT+ELN),A
 517  6425 11 00 C0             LD DE,DNT
 518  6428 D5                   PUSH DE
 519  6429 CD 5F 65 CD          CALL BDSL,NXTETY,BDSH
 519  642D 57 40 CD 6A
 519  6431 65
 520  6432 42 4B 21 FF          LD BC,DE,HL,ETY-1
 520  6436 7F
 521  6437 D1                   POP DE
 521  6438 CA BF 64      JP Z,BEX
 522  643B 21 10 00             LD HL,FLG
 522  643E 19            ADD HL,DE
 523  643F 7E                   LD A,(HL)
 523  6440 B7            OR A
 523  6441 20 09         JR NZ,XX
 524  6443 23                   INC HL
 524  6444 7E            LD A,(HL)
 524  6445 FE 2E         CP "."
 524  6447 20 03         JR NZ,XX
 525  6449 23                   INC HL
 525  644A 7E            LD A,(HL)
 525  644B B7            OR A
 526  644C
 527  644C 21 00 80 11  XX      LD HL,ETY,DE,DNT
 527  6450 00 C0
 527  6452 28 13         JR Z,BUMM
 528  6454 DD 7E 1A             LD A,(IX+26)
 529  6457 77                   LD (HL),A
 529  6458 2C            INC L
 530  6459 73                   LD (HL),E
 530  645A 2C            INC L
 531  645B 72                   LD (HL),D
 531  645C 2C            INC L
 532  645D 3A B3 7F             LD A,(TTHL)
 533  6460 77                   LD (HL),A
 533  6461 23            INC HL
 534  6462 50 59                LD DE,BC
 534  6464 DD 34 12      INC (IX+18)
 535  6467
 536  6467 2B           BUMM    DEC HL
 537  6468 7A           BUM     LD A,D
 537  6469 FE FE         CP #FE
 537  646B 38 09         JR C,DOOM
 538  646D DD 34 1A             INC (IX+26)
 538  6470 CD DB 68      CALL CAT1
 539  6473 11 00 C0             LD DE,DNT
 540  6476
 541  6476 DD 7E 1A     DOOM    LD A,(IX+26)
 541  6479 FE 09         CP CATMX
 541  647B 30 42         JR NC,BEX
 542  647D 4F                   LD C,A
 543  647E 7C                   LD A,H
 543  647F FE 80         CP high ETY
 543  6481 38 04         JR C,DuuM+1
 544  6483 3A B3 7F             LD A,(TTHL)
 545  6486 77           DuuM    LD (HL),A
 545  6487 23            INC HL
 546  6488 7C                   LD A,H
 546  6489 FE BF         CP #C0-1
 546  648B C2 93 64      JP NZ,WRUUM
 547  648E 7D                   LD A,L
 547  648F FE FC         CP 0-4
 547  6491 28 2C         JR Z,BEX
 548  6493 71           WRUUM   LD (HL),C
 548  6494 2C            INC L
 549  6495 73                   LD (HL),E
 549  6496 2C            INC L
 550  6497 72                   LD (HL),D
 550  6498 2C            INC L
 551  6499 DD 34 12             INC (IX+18)
 551  649C C2 A2 64      JP NZ,AXA
 552  649F DD 34 13             INC (IX+19)
 553  64A2
 554  64A2 E5           AXA     PUSH HL
 554  64A3 CD 5F 65 CD   CALL BDSL,NXTETY,BDSH
 554  64A7 57 40 CD 6A
 554  64AB 65
 555  64AC E1                   POP HL
 555  64AD 20 B9         JR NZ,BUM
 556  64AF
 557  64AF 2B          > DEC HL
 557  64B0 2B          > DEC HL
 557  64B1 2B          > DEC HL
 557  64B2 2B          > DEC HL
 558  64B3 DD 35 12             DEC (IX+18)
 559  64B6 DD 7E 12             LD A,(IX+18)
 559  64B9 3C            INC A
 559  64BA 20 03         JR NZ,BEX
 560  64BC DD 35 13             DEC (IX+19)
 561  64BF
 562  64BF AF           BEX     XOR A
 563  64C0 23                   INC HL
 564  64C1 77                   LD (HL),A
 564  64C2 2C            INC L
 565  64C3 77                   LD (HL),A
 565  64C4 2C            INC L
 566  64C5 77                   LD (HL),A
 567  64C6
 568  64C6 3E 02                LD A,2
 568  64C8 CD A6 68      CALL MNG8
 569  64CB
 570  64CB DD 7E 1A             LD A,(IX+26)
 570  64CE FE 01         CP 1
 570  64D0 C0            RET NZ
 571  64D1 DD 7E 13             LD A,(IX+19)
 571  64D4 B7            OR A
 571  64D5 20 07         JR NZ,SPM
 572  64D7 DD 7E 12             LD A,(IX+18)
 572  64DA FE C8         CP 200
 572  64DC 38 1A         JR C,SORTZ
 573  64DE DD E5        SPM     PUSH IX
 573  64E0 DD 21 D4 80   LD IX,SMWND
 573  64E4 CD 92 79      CALL PRWOW
 574  64E7 DD E1                POP IX
 575  64E9 CD F8 64             CALL SORTZ
 576  64EC DD E5                PUSH IX
 576  64EE DD 21 D4 80   LD IX,SMWND
 576  64F2 CD 34 7B      CALL RRESB
 577  64F5 DD E1                POP IX
 578  64F7 C9                   RET
 579  64F8
 580  64F8 3E 06        SORTZ   LD A,CACH2
 580  64FA CD 8E 6A      CALL CaC
 581  64FD CD 2C A5             CALL SORT
 582  6500 CD 72 68             CALL FRST
 583  6503 C3 8C 6A             JP CAC
 584  6506
 585  6506 4E           LNGSNM  LD C,(HL)
 585  6507 23            INC HL
 586  6508
 587  6508 06 08                LD B,8
 588  650A 7E           LNG_    LD A,(HL)
 589  650B B7                   OR A
 589  650C 28 2C         JR Z,LNGSF
 590  650E FE 2E                CP "."
 590  6510 28 48         JR Z,LNGSE
 591  6512 12                   LD (DE),A
 591  6513 23 13         INC HL,DE
 592  6515 10 F3                DJNZ LNG_
 593  6517 7E                   LD A,(HL)
 593  6518 B7            OR A
 593  6519 28 1F         JR Z,LNGSF
 594  651B 79                   LD A,C
 594  651C B7            OR A
 594  651D 28 1B         JR Z,LNGSF
 595  651F AF           SE      XOR A
 595  6520 01 00 01      LD BC,256
 595  6523 ED B1         CPIR
 595  6525 2B            DEC HL
 596  6526
 597  6526 3E FF                LD A,256-1
 597  6528 91            SUB C
 597  6529 28 0F         JR Z,LNGSF
 598  652B FE 04                CP 4
 598  652D 47            LD B,A
 598  652E 38 02         JR C,Se
 599  6530 06 04                LD B,4
 600  6532 2B           Se      DEC HL
 600  6533 7E            LD A,(HL)
 600  6534 FE 2E         CP "."
 600  6536 28 0C         JR Z,SFE
 601  6538 10 F8                DJNZ Se
 602  653A
 603  653A 04 04 04     LNGSF   INC B,B,B
 604  653D 3E 20 12     SF      LD A," ",(DE),A
 604  6540 13            INC DE
 604  6541 10 FC         DJNZ $-2
 605  6543 C9                   RET
 606  6544 06 03        SFE     LD B,3
 607  6546 23           Sf      INC HL
 607  6547 7E            LD A,(HL)
 607  6548 B7            OR A
 607  6549 28 F2         JR Z,SF
 608  654B FE 40                CP #40
 608  654D 38 06         JR C,EXTR
 609  654F FE 80                CP #80
 609  6551 30 02         JR NC,$+4
 609  6553 CB AF         RES 5,A
 610  6555 12           EXTR    LD (DE),A
 610  6556 13            INC DE
 611  6557 10 ED                DJNZ Sf
 612  6559 C9                   RET
 613  655A CD 3D 65     LNGSE   CALL SF
 613  655D 18 C0         JR SE
 614  655F
 615  655F ED 53 B5 7F  BDSL    LD (TTDE),DE
 616  6563 AF                   XOR A
 617  6564 12          > LD (DE),A
 617  6565 12          > LD (DE),A
 617  6566 12          > LD (DE),A
 617  6567 12          > LD (DE),A
 617  6568 13            INC DE;ELN(MRK+srtEXT)
 618  6569 C9                   RET
 619  656A
 620  656A 08           BDSH    EXA
 621  656B D5                   PUSH DE
 622  656C 2A B5 7F 01          LD HL,(TTDE),BC,FLG
 622  6570 10 00
 622  6572 09            ADD HL,BC
 623  6573 7E                   LD A,(HL)
 623  6574 B7            OR A
 623  6575 28 2D         JR Z,EXTCEND
 624  6577 62 6B                LD HL,DE
 625  6579 ED 5B B5 7F          LD DE,(TTDE)
 625  657D 13            INC DE
 626  657E 2B          > DEC HL
 626  657F 2B          > DEC HL
 627  6580 FE 2E                CP "."
 627  6582 28 20         JR Z,EXTCEND
 628  6584 06 04 3E 2E          LD B,4,A,"."
 629  6588 2B           EXTFIND DEC HL
 629  6589 BE            CP (HL)
 629  658A 28 02         JR Z,EXTcopy
 630  658C 10 FA                DJNZ EXTFIND
 631  658E 23           EXTcopy INC HL
 632  658F 06 03                LD B,3
 633  6591 7E           EXTCOPY LD A,(HL)
 633  6592 B7            OR A
 633  6593 28 0F         JR Z,EXTCEND
 634  6595 FE 5B                CP #5B
 634  6597 30 06         JR NC,NOREGCH
 635  6599 FE 41                CP #41
 635  659B 38 02         JR C,NOREGCH
 636  659D CB EF                SET 5,A
 637  659F 12           NOREGCH LD (DE),A
 637  65A0 23 13         INC HL,DE
 638  65A2 10 ED                DJNZ EXTCOPY
 639  65A4 D1           EXTCEND POP DE
 640  65A5 62 6B                LD HL,DE
 641  65A7 ED 4B B5 7F          LD BC,(TTDE)
 641  65AB B7            OR A
 641  65AC ED 42         SBC HL,BC
 642  65AE 01 13 00             LD BC,ELN+2
 642  65B1 ED 42         SBC HL,BC
 643  65B3 22 B3 7F             LD (TTHL),HL
 644  65B6 08                   EXA
 645  65B7 C9                   RET
 646  65B8              ;---------------------------------------
 647  65B8              WLIT    ;Print current panel content
 648  65B8
 649  65B8 AF                   XOR A
 650  65B9 DD 77 0D             LD (IX+13),A
 651  65BC DD 77 14             LD (IX+20),A
 652  65BF DD 77 15             LD (IX+21),A
 653  65C2 3C                   INC A
 654  65C3 32 A7 7F             LD (STUS),A
 655  65C6
 656  65C6 DD 66 11 DD          LD H,(IX+17),L,(IX+16)
 656  65CA 6E 10
 657  65CC 11 01 01             LD DE,#0101
 658  65CF 7C                   LD A,H
 658  65D0 B5            OR L
 658  65D1 20 04         JR NZ,A123
 659  65D3 DD 36 15 01          LD (IX+21),1
 660  65D7 E5 D5        A123    PUSH HL,DE
 661  65D9
 662  65D9 CD 36 63             CALL GWE
 663  65DC
 664  65DC 7C                   LD A,H
 664  65DD B5            OR L
 664  65DE 28 63         JR Z,EPG
 665  65E0 7E                   LD A,(HL)
 665  65E1 CB 47         BIT 0,A
 665  65E3 0E 13         LD C,MARKclr
 666  65E5 20 02                JR NZ,$+4
 666  65E7 0E 17         LD C,TBG
 667  65E9
 668  65E9 11 10 00             LD DE,FLG
 668  65EC 19            ADD HL,DE
 669  65ED 7E                   LD A,(HL)
 669  65EE B7            OR A
 669  65EF 79            LD A,C
 670  65F0 20 02                JR NZ,$+4
 670  65F2 F6 08         OR %00001000
 671  65F4 32 A6 7F             LD (RSTA),A
 672  65F7 23                   INC HL
 673  65F8
 674  65F8 11 A0 5E             LD DE,TXTBU
 675  65FB DD 7E 04             LD A,(IX+4)
 675  65FE D6 02         SUB 2
 676  6600 47 4F                LD B,A,C,A
 677  6602 AF                   XOR A
 678  6603 BE           CG1     CP (HL)
 678  6604 28 06         JR Z,CG2
 679  6606 ED A0                LDI
 679  6608 10 F9         DJNZ CG1
 680  660A 18 04                JR CG3
 681  660C 12           CG2     LD (DE),A
 681  660D 13            INC DE
 681  660E 10 FC         DJNZ $-2
 682  6610 D1 E1        CG3     POP DE,HL
 682  6612 23            INC HL
 683  6613 DD 34 0D             INC (IX+13)
 684  6616
 685  6616 E5                   PUSH HL
 686  6617 21 A0 5E             LD HL,TXTBU
 687  661A DD 7E 04             LD A,(IX+4)
 687  661D D6 02         SUB 2
 688  661F 06 00 4F             LD B,0,C,A
 688  6622 CD 89 7D      CALL PRSRW
 688  6625 14            INC D
 689  6626 3A A6 7F             LD A,(RSTA)
 689  6629 CD 9D 7D      CALL PRIAT
 690  662C DD 7E 05             LD A,(IX+5)
 690  662F D6 02 DD 96   SUB 2,(IX+10)
 690  6633 0A
 691  6634 E1                   POP HL
 691  6635 BA            CP D
 691  6636 30 9F         JR NC,A123
 692  6638
 693  6638 CD 36 63             CALL GWE
 693  663B 7C            LD A,H
 693  663C B5            OR L
 693  663D C0            RET NZ
 694  663E DD 36 14 01          LD (IX+20),1
 695  6642 C9                   RET
 696  6643
 697  6643 D1 E1        EPG     POP DE,HL
 698  6645 DD 36 14 01          LD (IX+20),1
 699  6649 21 A0 5E     E_G     LD HL,TXTBU
 700  664C E5                   PUSH HL
 700  664D 06 2B         LD B,43
 700  664F CD 8E 69      CALL NOPING
 701  6652 E1                   POP HL
 702  6653 DD 7E 04             LD A,(IX+4)
 702  6656 D6 02         SUB 2
 703  6658 06 00 4F             LD B,0,C,A
 703  665B CD 89 7D      CALL PRSRW
 703  665E 14            INC D
 704  665F 3E 17                LD A,TBG
 705  6661 CD 9D 7D             CALL PRIAT
 706  6664 DD 7E 05             LD A,(IX+5)
 706  6667 D6 02 DD 96   SUB 2,(IX+10)
 706  666B 0A
 707  666C BA                   CP D
 707  666D 30 DA         JR NC,E_G
 708  666F C9                   RET
 709  6670
 710  6670              ;---------------------------------------
 711  6670 FE 01        YN      CP 1
 711  6672 28 40         JR Z,IOC
 712  6674 FE 02                CP 2
 712  6676 28 44         JR Z,IYN
 713  6678 FE FF                CP #FF
 713  667A 28 30         JR Z,EYN
 714  667C CD 55 74 C4          CALL LFFF,NZ,AYES
 714  6680 F8 66
 715  6682 CD 5B 74 C4          CALL RGGG,NZ,ANOP
 715  6686 05 67
 716  6688
 717  6688 ED 5B AC 7F          LD DE,(AAHL)
 718  668C 21 EF 7F 01  YNYES   LD HL,TXT00,BC,8
 718  6690 08 00
 718  6692 CD 89 7D      CALL PRSRW
 719  6695 3E F7        YNmc    LD A,%11110111
 719  6697 CD 9D 7D      CALL PRIAT
 720  669A
 721  669A ED 5B AE 7F          LD DE,(AADE)
 722  669E 21 F7 7F 01  YNNOP   LD HL,TXT01,BC,8
 722  66A2 08 00
 722  66A4 CD 89 7D      CALL PRSRW
 723  66A7 3E 07        YNm2    LD A,%00000111
 723  66A9 C3 9D 7D      JP PRIAT
 724  66AC
 725  66AC 3A 96 66 21  EYN     LD A,(YNmc+1),HL,CSEL
 725  66B0 76 7F
 725  66B2 BE            CP (HL)
 726  66B3 C9                   RET
 727  66B4
 728  66B4 21 EF 7F     IOC     LD HL,TXT00
 729  66B7 11 F7 7F             LD DE,TXT01
 730  66BA 18 06                JR INITYN
 731  66BC 21 FF 7F     IYN     LD HL,TXT00y
 732  66BF 11 07 80             LD DE,TXT01n
 733  66C2 22 8D 66     INITYN  LD (YNYES+1),HL
 734  66C5 ED 53 9F 66          LD (YNNOP+1),DE
 735  66C9 DD 7E 06             LD A,(IX+6)
 736  66CC 07          > RLCA
 736  66CD 07          > RLCA
 736  66CE 07          > RLCA
 736  66CF 07          > RLCA
 737  66D0 32 76 7F             LD (CSEL),A
 738  66D3 DD 7E 06             LD A,(IX+6)
 738  66D6 E6 F0         AND %11110000
 739  66D8 07          > RLCA
 739  66D9 07          > RLCA
 739  66DA 07          > RLCA
 739  66DB 07          > RLCA
 740  66DC 32 77 7F             LD (CNSL),A
 741  66DF
 742  66DF DD 7E 05             LD A,(IX+5)
 742  66E2 D6 02         SUB 2
 743  66E4 57 67                LD D,A,H,A
 744  66E6 DD 7E 04             LD A,(IX+4)
 744  66E9 CB 3F         SRL A
 744  66EB D6 09         SUB 9
 745  66ED 6F                   LD L,A
 745  66EE C6 0A         ADD A,10
 745  66F0 5F            LD E,A
 746  66F1
 747  66F1 22 AC 7F             LD (AAHL),HL
 748  66F4 ED 53 AE 7F          LD (AADE),DE
 749  66F8              ;-------
 750  66F8 3A 76 7F 32  AYES    LD A,(CSEL),(YNmc+1),A
 750  66FC 96 66
 751  66FE 3A 77 7F 32          LD A,(CNSL),(YNm2+1),A
 751  6702 A8 66
 752  6704 C9                   RET
 753  6705 3A 77 7F 32  ANOP    LD A,(CNSL),(YNmc+1),A
 753  6709 96 66
 754  670B 3A 76 7F 32          LD A,(CSEL),(YNm2+1),A
 754  670F A8 66
 755  6711 C9                   RET
 756  6712              ;---------------------------------------
 757  6712
 758  6712
 759  6712              ;-  -  -  -  -  -  -  -  -  -  -  -  -
 760  6712 F5 C5 D5 E5  I_N_T   PUSH AF,BC,DE,HL,IX
 760  6716 DD E5
 761  6718 D9                   EXX
 761  6719 08            EXA
 762  671A F5 C5 D5 E5          PUSH AF,BC,DE,HL
 763  671E
 764  671E 2A 09 60             LD HL,(TMN)
 764  6721 23            INC HL
 764  6722 22 09 60      LD (TMN),HL
 765  6725
 766  6725 3A B0 7F             LD A,(INTPL)
 766  6728 B7            OR A
 766  6729 C4 7B 6F      CALL NZ,INTP
 767  672C CD 57 67             CALL VPRT
 768  672F 3A B2 7F             LD A,(INTPS)
 768  6732 B7            OR A
 768  6733 C4 C0 75      CALL NZ,PSD2
 769  6736 3A B1 7F             LD A,(INTTM)
 769  6739 B7            OR A
 769  673A C4 80 67      CALL NZ,TIME
 770  673D
 771  673D CD EC 74 C4          CALL ESC2,NZ,ABTF
 771  6741 7A 67
 772  6743 CD E5 74 C4          CALL ENK2,NZ,ENTF
 772  6747 74 67
 773  6749
 774  6749 E1 D1 C1 F1          POP HL,DE,BC,AF
 775  674D D9                   EXX
 775  674E 08            EXA
 776  674F DD E1 E1 D1          POP IX,HL,DE,BC,AF
 776  6753 C1 F1
 777  6755 FB                   EI
 778  6756 C9                   RET
 779  6757              ;-  -  -  -  -  -  -  -  -  -  -  -  -
 780  6757
 781  6757 21 BA 7F     VPRT    LD HL,VVpag
 782  675A
 783  675A 01 AF 02             LD BC,Vpag+256
 783  675D ED A3         OUTI
 784  675F 06 01                LD B,high Vmod+#01
 784  6761 ED A3         OUTI
 785  6763
 786  6763 06 05                LD B,high YoffL+1
 786  6765 ED A3         OUTI
 787  6767 06 06                LD B,high YoffH+1
 787  6769 ED A3         OUTI
 788  676B 06 03                LD B,high XoffL+1
 788  676D ED A3         OUTI
 789  676F 06 04                LD B,high XoffH+1
 789  6771 ED A3         OUTI
 790  6773 C9                   RET
 791  6774
 792  6774 3E 01 32 05  ENTF    LD A,1,(ENT),A
 792  6778 60
 792  6779 C9            RET
 793  677A 3E 01 32 04  ABTF    LD A,1,(ABT),A
 793  677E 60
 793  677F C9            RET
 794  6780
 795  6780 21 C4 7F     TIME    LD HL,TMR
 796  6783 7E                   LD A,(HL)
 796  6784 B7            OR A
 796  6785 28 1C         JR Z,IME
 796  6787 35            DEC (HL)
 797  6788 7E                   LD A,(HL)
 798  6789 86          > ADD A,(HL)
 798  678A 86          > ADD A,(HL)
 799  678B 06 00 4F             LD B,0,C,A
 800  678E 96                   SUB (HL)
 801  678F 21 CD 7F             LD HL,TTM+6
 802  6792 B7                   OR A
 802  6793 ED 42         SBC HL,BC
 803  6795
 804  6795 01 F7 DF             LD BC,#DFF7
 804  6798 ED 79         OUT (C),A
 805  679A 06 BF                LD B,#BF
 805  679C ED 78         IN A,(C)
 806  679E CD 1B 6A             CALL NORK
 807  67A1 18 0D                JR HIME
 808  67A3
 809  67A3 23           IME     INC HL
 810  67A4 7E                   LD A,(HL)
 810  67A5 3D            DEC A
 810  67A6 77            LD (HL),A
 810  67A7 C0            RET NZ
 811  67A8
 812  67A8 23                   INC HL
 813  67A9 7E                   LD A,(HL)
 813  67AA 2B            DEC HL
 814  67AB 77                   LD (HL),A
 814  67AC 2B            DEC HL
 815  67AD 36 03                LD (HL),3
 816  67AF C9                   RET
 817  67B0
 818  67B0 AF           HIME    XOR A
 818  67B1 CD C1 68      CALL MNgC
 819  67B4 11 C7 7F             LD DE,TTM
 820  67B7 21 F8 BF ED          LD HL,#C000-8,BC,(WID)
 820  67BB 4B 81 7F
 820  67BE 09            ADD HL,BC
 821  67BF EB                   EX DE,HL
 822  67C0 01 08 00             LD BC,8
 822  67C3 ED B0         LDIR
 823  67C5 C3 B3 68             JP MNGCR
 824  67C8              ;-------
 825  67C8 16 00        TMTOEN  LD D,0
 826  67CA 3E 02                LD A,2
 826  67CC CD 27 68      CALL SEDT
 827  67CF 5F                   LD E,A
 828  67D0 CB 23       > SLA E
 828  67D2 CB 23       > SLA E
 828  67D4 CB 23       > SLA E
 828  67D6 CB 23       > SLA E
 828  67D8 CB 23       > SLA E
 828  67DA CB 12         RL D
 829  67DC AF                   XOR A
 829  67DD CD 27 68      CALL SEDT
 829  67E0 CB 3F         SRL A
 830  67E2 B3                   OR E
 830  67E3 5F            LD E,A
 831  67E4 3E 04                LD A,4
 831  67E6 CD 27 68      CALL SEDT
 832  67E9 CB 27       > SLA A
 832  67EB CB 27       > SLA A
 832  67ED CB 27       > SLA A
 833  67EF B2                   OR D
 833  67F0 57            LD D,A
 834  67F1 ED 53 DD 7F          LD (ENTRY+14),DE
 835  67F5 ED 53 E5 7F          LD (ENTRY+22),DE
 836  67F9
 837  67F9 3E 09                LD A,9
 837  67FB CD 27 68      CALL SEDT
 837  67FE C6 14         ADD A,20
 838  6800 57                   LD D,A
 839  6801 3E 08                LD A,8
 839  6803 CD 27 68      CALL SEDT
 840  6806 CB 27       > SLA A
 840  6808 CB 27       > SLA A
 840  680A CB 27       > SLA A
 840  680C CB 27       > SLA A
 840  680E CB 27       > SLA A
 841  6810 CB 12                RL D
 841  6812 5F            LD E,A
 842  6813 3E 07                LD A,7
 842  6815 CD 27 68      CALL SEDT
 843  6818 B3                   OR E
 843  6819 5F            LD E,A
 844  681A ED 53 DF 7F          LD (ENTRY+16),DE
 845  681E ED 53 E1 7F          LD (ENTRY+18),DE
 846  6822 ED 53 E7 7F          LD (ENTRY+24),DE
 847  6826 C9                   RET
 848  6827
 849  6827 01 F7 DF     SEDT    LD BC,#DFF7
 849  682A ED 79         OUT (C),A
 850  682C 06 BF                LD B,#BF
 850  682E ED 78         IN A,(C)
 851  6830
 852  6830 4F                   LD C,A
 852  6831 E6 0F         AND %00001111
 852  6833 47            LD B,A
 853  6834 CB 39       > SRL C
 853  6836 CB 39       > SRL C
 853  6838 CB 39       > SRL C
 853  683A CB 39       > SRL C
 854  683C 79                   LD A,C
 855  683D 81          > ADD A,C
 855  683E 81          > ADD A,C
 855  683F 81          > ADD A,C
 855  6840 81          > ADD A,C
 855  6841 81          > ADD A,C
 855  6842 81          > ADD A,C
 855  6843 81          > ADD A,C
 855  6844 81          > ADD A,C
 855  6845 81          > ADD A,C
 856  6846 80                   ADD A,B
 857  6847 C9                   RET
 858  6848              ;---------------------------------------
 859  6848 DD E5        SWPPAN  PUSH IX
 860  684A E1                   POP HL
 861  684B 11 04 7F             LD DE,WINDOW
 862  684E B7                   OR A
 862  684F ED 52         SBC HL,DE
 862  6851 20 05         JR NZ,PPA
 863  6853 DD 21 28 7F          LD IX,WINDO2
 864  6857 C9                   RET
 865  6858 DD 21 04 7F  PPA     LD IX,WINDOW
 866  685C C9                   RET
 867  685D
 868  685D CD 72 68     DRACT   CALL FRST
 869  6860 DD 7E 1C             LD A,(IX+28)
 869  6863 B7            OR A
 869  6864 C0            RET NZ
 870  6865
 871  6865 CD 9C A0             CALL RPATH
 872  6868 DD 36 1C 01          LD (IX+28),1
 873  686C DD 7E 1D             LD A,(IX+29)
 874  686F C3 1B 40             JP DOS_SWP
 875  6872 3E F0        FRST    LD A,PNLPG
 875  6874 DD 86 1B      ADD A,(IX+27)
 875  6877 C3 91 68      JP MNG0
 876  687A              ;---------------------------------------
 877  687A 01 AF 21 3E  MNG0D   LD BC,PE0,A,%00000001
 877  687E 01
 877  687F ED 79         OUT (C),A
 878  6881 01 AF 10 3E          LD BC,PW0,A,%00000000
 878  6885 00
 878  6886 ED 79         OUT (C),A
 879  6888 C9                   RET
 880  6889 01 AF 21 3E  MNG0I   LD BC,PE0,A,%00001110
 880  688D 0E
 880  688E ED 79         OUT (C),A
 881  6890 C9                   RET
 882  6891 32 00 60 01  MNG0    LD (PG0),A,BC,PW0
 882  6895 AF 10
 882  6897 ED 79         OUT (C),A;NeedInit
 883  6899 C9                   RET
 884  689A
 885  689A 32 01 60 01  MNG4    LD (PG4),A,BC,PW1
 885  689E AF 11
 885  68A0 ED 79         OUT (C),A
 885  68A2 C9            RET
 886  68A3 3A 02 60     MNG8R   LD A,(PG8)
 887  68A6 32 02 60     MNG8    LD (PG8),A
 888  68A9 01 AF 12     MNg8    LD BC,PW2
 888  68AC ED 79         OUT (C),A
 888  68AE C9            RET
 889  68AF
 890  68AF AF           MNGCM   XOR A
 890  68B0 C3 B6 68      JP MNGC
 891  68B3 3A 03 60     MNGCR   LD A,(PGC)
 892  68B6 C5           MNGC    PUSH BC
 892  68B7 32 03 60 01   LD (PGC),A,BC,PW4
 892  68BB AF 13
 892  68BD ED 79         OUT (C),A
 893  68BF C1                   POP BC
 894  68C0 C9                   RET
 895  68C1 01 AF 13     MNgC    LD BC,PW4
 895  68C4 ED 79         OUT (C),A
 895  68C6 C9            RET
 896  68C7 3E F7        MNGP    LD A,RPPG
 896  68C9 18 EB         JR MNGC
 897  68CB              ;-------
 898  68CB 3E 0B        CAT3    LD A,CTZPG
 899  68CD DD 86 19             ADD A,(IX+25)
 900  68D0 C3 91 68             JP MNG0
 901  68D3 3E 0B        CAT2    LD A,CTZPG
 902  68D5 DD 86 19             ADD A,(IX+25)
 903  68D8 C3 B6 68             JP MNGC
 904  68DB 3E 0B        CAT1    LD A,CTZPG
 905  68DD DD 86 1A             ADD A,(IX+26)
 906  68E0 DD 86 19             ADD A,(IX+25)
 907  68E3 C3 B6 68             JP MNGC
 908  68E6 3E 0B        CAT0    LD A,CTZPG
 909  68E8 DD 86 19             ADD A,(IX+25)
 910  68EB C3 A6 68             JP MNG8
 911  68EE              ;-------
 912  68EE FE FE        MNGC_PL CP #FE
 912  68F0 28 BD         JR Z,MNGCM
 913  68F2 FE FF                CP #FF
 913  68F4 28 0E         JR Z,MNGCFNT
 914  68F6 FE 40                CP 64
 914  68F8 D0            RET NC
 915  68F9 C6 61                ADD A,PLGPG
 916  68FB E5                   PUSH HL
 916  68FC 21 79 7F      LD HL,PPGP
 916  68FF 86            ADD A,(HL)
 917  6900 E1                   POP HL
 918  6901 C3 B6 68             JP MNGC
 919  6904 3E 01        MNGCFNT LD A,1
 919  6906 C3 B6 68      JP MNGC
 920  6909
 921  6909 FE 40        MNG0_PL CP 64
 921  690B D0            RET NC
 922  690C C6 61                ADD A,PLGPG
 923  690E E5                   PUSH HL
 923  690F 21 79 7F      LD HL,PPGP
 923  6912 86            ADD A,(HL)
 924  6913 E1                   POP HL
 925  6914 C3 91 68             JP MNG0
 926  6917
 927  6917 FE 40        MNG8_PL CP 64
 927  6919 D0            RET NC
 928  691A C6 61                ADD A,PLGPG
 929  691C E5                   PUSH HL
 929  691D 21 79 7F      LD HL,PPGP
 929  6920 86            ADD A,(HL)
 930  6921 E1                   POP HL
 931  6922 C3 A6 68             JP MNG8
 932  6925
 933  6925 FE 40        MNGCVPL CP 16*4
 933  6927 D0            RET NC
 934  6928 C6 20                ADD A,GVvPG
 935  692A C3 B6 68             JP MNGC
 936  692D FE 40        MNG0VPL CP 16*4
 936  692F D0            RET NC
 937  6930 C6 20                ADD A,GVvPG
 938  6932 C3 91 68             JP MNG0
 939  6935 FE 40        MNG8VPL CP 16*4
 939  6937 D0            RET NC
 940  6938 C6 20                ADD A,GVvPG
 941  693A C3 A6 68             JP MNG8
 942  693D
 943  693D FE 01        MNGV_PL CP 1
 943  693F 28 19         JR Z,VB1
 944  6941 FE 02                CP 2
 944  6943 28 11         JR Z,VB2
 945  6945 FE 03                CP 3
 945  6947 28 09         JR Z,VB3
 946  6949 FE 04                CP 4
 946  694B C2 94 69      JP NZ,GED
 947  694E 3E 50        VB4     LD A,GV4PG
 947  6950 18 0A         JR VB1+2
 948  6952 3E 40        VB3     LD A,GV3PG
 948  6954 18 06         JR VB1+2
 949  6956 3E 30        VB2     LD A,GV2PG
 949  6958 18 02         JR VB1+2
 950  695A 3E 20 32 BA  VB1     LD A,GVvPG,(VVpag),A
 950  695E 7F
 951  695F C9                   RET
 952  6960
 953  6960 79           GVtm    LD A,C
 953  6961 FE 40         CP 16*4
 953  6963 D0            RET NC
 954  6964 C6 20                ADD A,GVvPG
 954  6966 01 AF 16      LD BC,Vtm
 954  6969 ED 79         OUT (C),A
 955  696B C9                   RET
 956  696C 79           GVtl    LD A,C
 956  696D FE 40         CP 16*4
 956  696F D0            RET NC
 957  6970 C6 20                ADD A,GVvPG
 958  6972 CB 40                BIT 0,B
 958  6974 20 06         JR NZ,Stl1
 959  6976 01 AF 17             LD BC,Vtl0
 959  6979 ED 79         OUT (C),A
 959  697B C9            RET
 960  697C 01 AF 18     Stl1    LD BC,Vtl1
 960  697F ED 79         OUT (C),A
 960  6981 C9            RET
 961  6982 79           GVsgp   LD A,C
 961  6983 FE 40         CP 16*4
 961  6985 D0            RET NC
 962  6986 C6 20                ADD A,GVvPG
 962  6988 01 AF 19      LD BC,Vsgp
 962  698B ED 79         OUT (C),A
 963  698D C9                   RET
 964  698E              ;-------
 965  698E AF           NOPING  XOR A
 965  698F 77            LD (HL),A
 965  6990 23            INC HL
 965  6991 10 FC         DJNZ $-2
 966  6993 C9                   RET
 967  6994
 968  6994              GEDPL
 969  6994 F3           GED     DI
 970  6995 AF                   XOR A
 971  6996 32 BA 7F 32          LD (VVpag),A,(INIflg),A
 971  699A 10 60
 972  699C
 973  699C 3A 0F 60 32  DED     LD A,(TXTmdCO),(VVmod),A
 973  69A0 BB 7F
 974  69A2
 975  69A2 AF           DDD     XOR A
 976  69A3 47 4F                LD B,A,C,A
 977  69A5 ED 43 BC 7F          LD (VYofL),BC
 978  69A9 ED 43 BE 7F          LD (VXofL),BC
 979  69AD
 980  69AD FB                   EI
 980  69AE 76            HALT
 981  69AF 01 AF 0F             LD BC,BORDER
 981  69B2 ED 79         OUT (C),A
 982  69B4
 983  69B4 3E 20                LD A,GVvPG
 983  69B6 CD B6 68      CALL MNGC
 984  69B9 CD F3 69             CALL PABE
 985  69BC 21 4C 7F 11          LD HL,PALLIT,DE,#1000,BC,32
 985  69C0 00 10 01 20
 985  69C4 00
 985  69C5 ED B0         LDIR
 986  69C7 21 4C 7F 11          LD HL,PALLIT,DE,#11E0,C,32
 986  69CB E0 11 0E 20
 986  69CF ED B0         LDIR
 987  69D1
 988  69D1 EB                   EX DE,HL
 988  69D2 CD E5 69      CALL OLDDEM
 989  69D5 2E 40 06 04          LD L,TILESof,B,4
 989  69D9 CD E5 69      CALL OLDDEM
 990  69DC CD EC 69             CALL PAED
 991  69DF 01 AF 07             LD BC,Vpal
 991  69E2 ED 79         OUT (C),A
 992  69E4 C9                   RET
 993  69E5 71           OLDDEM  LD (HL),C
 993  69E6 2C            INC L
 994  69E7 71                   LD (HL),C
 994  69E8 23            INC HL
 994  69E9 10 FA         DJNZ OLDDEM
 995  69EB C9                   RET
 996  69EC AF           PAED    XOR A
 996  69ED 01 AF 15      LD BC,Vfm
 996  69F0 ED 79         OUT (C),A
 996  69F2 C9            RET
 997  69F3 3E 11        PABE    LD A,%00010001
 998  69F5 01 AF 15     PAbe    LD BC,Vfm
 998  69F8 ED 79         OUT (C),A
 998  69FA C9            RET
 999  69FB
1000  69FB AF           Vv      XOR A
1001  69FC 47 4F                LD B,A,C,A
1002  69FE ED 43 BC 7F          LD (VYofL),BC
1003  6A02 ED 43 BE 7F          LD (VXofL),BC
1004  6A06 32 BA 7F             LD (VVpag),A
1005  6A09 01 AF 0F             LD BC,BORDER
1005  6A0C ED 79         OUT (C),A
1006  6A0E C9                   RET
1007  6A0F
1008  6A0F 32 BB 7F     GVmod   LD (VVmod),A
1008  6A12 C9            RET
1009  6A13 22 BC 7F     GYoff   LD (VYofL),HL
1009  6A16 C9            RET
1010  6A17 22 BE 7F     GXoff   LD (VXofL),HL
1010  6A1A C9            RET
1011  6A1B              ;---------------------------------------
1012  6A1B              NORK    ;i:HL,Addr A,val
1013  6A1B 23                   INC HL
1014  6A1C 4F                   LD C,A
1015  6A1D E6 0F                AND %00001111
1016  6A1F FE 0A                CP 10
1016  6A21 38 02         JR C,$+4
1016  6A23 C6 07         ADD A,7
1017  6A25 C6 30                ADD A,#30
1018  6A27 77                   LD (HL),A
1018  6A28 2B            DEC HL
1019  6A29 71                   LD (HL),C
1020  6A2A AF                   XOR A
1021  6A2B ED 6F                RLD
1022  6A2D FE 0A                CP 10
1022  6A2F 38 02         JR C,$+4
1022  6A31 C6 07         ADD A,7
1023  6A33 C6 30                ADD A,#30
1024  6A35 77                   LD (HL),A
1025  6A36 23 23                INC HL,HL
1026  6A38 C9                   RET
1027  6A39
1028  6A39 01 AF 00 3E  INIT    LD BC,Vmod,A,%00110000
1028  6A3D 30
1028  6A3E ED 79         OUT (C),A
1029  6A40
1030  6A40 01 F7 EF 3E          LD BC,#EFF7,A,#80
1030  6A44 80
1030  6A45 ED 79         OUT (C),A;CMOS ON
1031  6A47 06 DF 3E 0B          LD B,#DF,A,#0B
1031  6A4B ED 79         OUT (C),A
1032  6A4D 06 BF                LD B,#BF
1032  6A4F AF            XOR A
1032  6A50 ED 79         OUT (C),A;set dataMD
1033  6A52 06 DF 3E 0C          LD B,#DF,A,#0C
1033  6A56 ED 79         OUT (C),A
1034  6A58 06 BF 3E 01          LD B,#BF,A,#01
1034  6A5C ED 79         OUT (C),A;res PS2 buf
1035  6A5E 06 DF 3E F0          LD B,#DF,A,#F0
1035  6A62 ED 79         OUT (C),A
1036  6A64 06 BF 3E 02          LD B,#BF,A,#02
1036  6A68 ED 79         OUT (C),A;PS2 ON
1037  6A6A
1038  6A6A 3E 01                LD A,DEFRQ
1038  6A6C CD 85 6A      CALL TURBO
1039  6A6F
1040  6A6F 3E 00        INTPLD  LD A,0
1041  6A71              INTTMPL EQU $-1
1042  6A71 32 B1 7F             LD (INTTM),A
1043  6A74
1044  6A74 AF                   XOR A
1045  6A75 32 B0 7F             LD (INTPL),A
1046  6A78 3C                   INC A
1047  6A79 32 B2 7F             LD (INTPS),A
1048  6A7C C9                   RET
1049  6A7D
1050  6A7D 01 F7 EF     TURBOof LD BC,#EFF7
1050  6A80 AF            XOR A
1050  6A81 ED 79         OUT (C),A
1051  6A83              BOF     EQU $+1
1052  6A83 3E 00                LD A,0
1053  6A85 E6 03        TURBO   AND %00000011
1054  6A87 01 AF 20             LD BC,SYC
1054  6A8A ED 79         OUT (C),A
1055  6A8C 3E 02        CAC     LD A,CACHE
1056  6A8E 01 AF 2B     CaC     LD BC,CYC
1056  6A91 ED 79         OUT (C),A
1057  6A93 C9                   RET
1058  6A94
1059  6A94 01 F7 DF 3E  GBD     LD BC,#DFF7,A,#B2
1059  6A98 B2
1059  6A99 ED 79         OUT (C),A
1060  6A9B 06 BF                LD B,#BF
1060  6A9D ED 78         IN A,(C)
1061  6A9F C9                   RET
1062  6AA0              ;---------------------------------------
1063  6AA0 CD 6F 6B CD  XLD512  CALL XPO,XPo
1063  6AA4 8B 6B
1064  6AA6 D5                   PUSH DE
1064  6AA7 CD B3 68 CD   CALL MNGCR,LOAD512
1064  6AAB 15 40
1065  6AAD D1                   POP DE
1066  6AAE CD A6 6B             CALL XPc
1066  6AB1 C3 80 6B      JP XPC
1067  6AB4 CD 6F 6B CD  XSV512  CALL XPO,XPo
1067  6AB8 8B 6B
1068  6ABA D5                   PUSH DE
1068  6ABB CD 18 40      CALL SAVE512
1069  6ABE D1                   POP DE
1070  6ABF CD A6 6B             CALL XPc
1070  6AC2 C3 80 6B      JP XPC
1071  6AC5 CD 6F 6B CD  XGIPGPL CALL XPO,GIPAGPL
1071  6AC9 E9 6B
1071  6ACB C3 80 6B      JP XPC
1072  6ACE CD 6F 6B CD  XTNTRY2 CALL XPO,TENTRY2
1072  6AD2 EF 6B
1072  6AD4 C3 80 6B      JP XPC
1073  6AD7 CD 6F 6B CD  XCHTS   CALL XPO,CHTOSEP
1073  6ADB F8 6B
1073  6ADD C3 80 6B      JP XPC
1074  6AE0 CD 6F 6B CD  XTNTRYN CALL XPO,TENTRYN
1074  6AE4 3F 6D
1074  6AE6 C3 80 6B      JP XPC
1075  6AE9 CD 6F 6B CD  XTMRKFL CALL XPO,TMRKDFL
1075  6AED 40 6D
1075  6AEF C3 80 6B      JP XPC
1076  6AF2 CD 6F 6B CD  XTMRKNX CALL XPO,TMRKNXT
1076  6AF6 D6 6D
1076  6AF8 C3 80 6B      JP XPC
1077  6AFB CD 6F 6B CD  XADIR   CALL XPO,ADIR
1077  6AFF 3B 6F
1077  6B01 C3 80 6B      JP XPC
1078  6B04 CD 6F 6B CD  XSTREAM CALL XPO,STREAM
1078  6B08 FD 6D
1079  6B0A 08                   EXA
1079  6B0B 3A 00 60 32   LD A,(PG0),(FEP),A
1079  6B0F 0B 60
1080  6B11 08                   EXA
1081  6B12 C3 80 6B             JP XPC
1082  6B15 CD 6F 6B CD  XXTETY2 CALL XPO,NXTETY2
1082  6B19 5A 40
1082  6B1B C3 80 6B      JP XPC
1083  6B1E CD 6F 6B CD  XFENTRY CALL XPO,FENTRY2
1083  6B22 C0 6E
1083  6B24 C3 80 6B      JP XPC
1084  6B27 CD 6F 6B CD  XLD256  CALL XPO,LOAD256
1084  6B2B 51 40
1084  6B2D C3 80 6B      JP XPC
1085  6B30 CD 6F 6B CD  XLDNON  CALL XPO,LOADNON
1085  6B34 54 40
1085  6B36 C3 80 6B      JP XPC
1086  6B39 CD 6F 6B CD  XGFILE  CALL XPO,GFILE
1086  6B3D 47 6F
1086  6B3F C3 80 6B      JP XPC
1087  6B42 CD 6F 6B CD  XGDIR   CALL XPO,GDIR
1087  6B46 4D 6F
1087  6B48 C3 80 6B      JP XPC
1088  6B4B CD 6F 6B CD  XMKfile CALL XPO,MKfile
1088  6B4F 53 6F
1088  6B51 C3 80 6B      JP XPC
1089  6B54 CD 6F 6B CD  XMKdir  CALL XPO,MKdir
1089  6B58 70 6F
1089  6B5A C3 80 6B      JP XPC
1090  6B5D CD 6F 6B CD  XREname CALL XPO,RENAM
1090  6B61 42 40
1090  6B63 C3 80 6B      JP XPC
1091  6B66 CD 6F 6B CD  XDelFl  CALL XPO,FNDELFL
1091  6B6A 76 6F
1091  6B6C C3 80 6B      JP XPC
1092  6B6F
1093  6B6F F5 C5        XPO     PUSH AF,BC
1094  6B71 3A 00 60 32          LD A,(PG0),(XPP),A
1094  6B75 0C 60
1095  6B77 3A 0B 60             LD A,(FEP)
1095  6B7A CD 91 68      CALL MNG0
1096  6B7D C1 F1                POP BC,AF
1097  6B7F C9                   RET
1098  6B80 F5 C5        XPC     PUSH AF,BC
1099  6B82 3A 0C 60             LD A,(XPP)
1099  6B85 CD 91 68      CALL MNG0
1100  6B88 C1 F1                POP BC,AF
1101  6B8A C9                   RET
1102  6B8B
1103  6B8B F5 C5        XPo     PUSH AF,BC
1104  6B8D 16 01                LD D,1
1105  6B8F 7C                   LD A,H
1105  6B90 FE 40         CP #40
1105  6B92 30 0F         JR NC,Xpo
1105  6B94 15            DEC D
1106  6B95 3A 03 60 5F          LD A,(PGC),E,A
1107  6B99 3A 0C 60             LD A,(XPP)
1107  6B9C CD B6 68      CALL MNGC
1108  6B9F 01 00 C0             LD BC,#C000
1108  6BA2 09            ADD HL,BC
1109  6BA3 C1 F1        Xpo     POP BC,AF
1110  6BA5 C9                   RET
1111  6BA6
1112  6BA6 F5 C5        XPc     PUSH AF,BC
1113  6BA8 15                   DEC D
1113  6BA9 28 08         JR Z,Xpc
1114  6BAB 7B                   LD A,E
1114  6BAC CD B6 68      CALL MNGC
1115  6BAF 01 00 40             LD BC,0-#C000
1115  6BB2 09            ADD HL,BC
1116  6BB3 C1 F1        Xpc     POP BC,AF
1117  6BB5 C9                   RET
1118  6BB6
1119  6BB6 04           TURBOPL INC B
1119  6BB7 28 29         JR Z,DEF
1120  6BB9 05                   DEC B
1120  6BBA 20 18         JR NZ,TAY
1121  6BBC 79                   LD A,C
1121  6BBD E6 03         AND %00000011
1122  6BBF 4F 06 38             LD C,A,B,%00111000
1123  6BC2 3A 83 7F     Tay     LD A,(AYZ80)
1123  6BC5 A0            AND B
1123  6BC6 B1            OR C
1124  6BC7 01 AF 20     Ta      LD BC,SYC
1124  6BCA ED 79         OUT (C),A
1125  6BCC 3E 02                LD A,CACHE
1126  6BCE 01 AF 2B             LD BC,CYC
1126  6BD1 ED 79         OUT (C),A
1127  6BD3 C9                   RET
1128  6BD4 79           TAY     LD A,C
1128  6BD5 E6 07         AND %00000111
1129  6BD7 CB 27       > SLA A
1129  6BD9 CB 27       > SLA A
1129  6BDB CB 27       > SLA A
1130  6BDD 4F 06 03             LD C,A,B,%00000011
1131  6BE0 18 E0                JR Tay
1132  6BE2 3A 84 7F     DEF     LD A,(DFRQ)
1132  6BE5 E6 3B         AND %00111011
1132  6BE7 18 DE         JR Ta
1133  6BE9 21 8C 7F     GIPAGPL LD HL,BRRR
1133  6BEC C3 12 40      JP GIPAG
1134  6BEF 21 CF 7F 01  TENTRY2 LD HL,ENTRY,BC,32
1134  6BF3 20 00
1134  6BF5 ED B0         LDIR
1134  6BF7 C9            RET
1135  6BF8 21 8C 7F     CHTOSEP LD HL,BRRR
1135  6BFB C3 48 40      JP CHTOSE
1136  6BFE              ;-------
1137  6BFE 3E 01        PDST3   LD A,%00000001;RAM2RAM
1138  6C00 18 0E                JR PUDZ
1139  6C02 3E 81        PDST4   LD A,%10000001;BLT2RAM
1140  6C04 18 0A                JR PUDZ
1141  6C06 3E 04        PDST5   LD A,%00000100;FILL
1142  6C08 18 06                JR PUDZ
1143  6C0A 3E 84        PDST6   LD A,%10000100;RAM2CRAM
1144  6C0C 18 02                JR PUDZ
1145  6C0E 3E 85        PDST7   LD A,%10000101;RAM2SFILE
1146  6C10 21 85 7F     PUDZ    LD HL,DSA
1147  6C13 B6                   OR (HL)
1147  6C14 23            INC HL
1148  6C15 B6                   OR (HL)
1148  6C16 23            INC HL
1149  6C17 B6                   OR (HL)
1150  6C18 08                   EXA
1150  6C19 CD 79 6C      CALL PDSTS
1150  6C1C C0            RET NZ
1151  6C1D 08                   EXA
1152  6C1E 01 AF 27             LD BC,DMA_C
1152  6C21 ED 79         OUT (C),A
1153  6C23 18 4A                JR DSTS
1154  6C25
1155  6C25 FE FC        DMAPL   CP #FC
1155  6C27 28 D5         JR Z,PDST3
1156  6C29 FE FB                CP #FB
1156  6C2B 28 D5         JR Z,PDST4
1157  6C2D FE FA                CP #FA
1157  6C2F 28 D5         JR Z,PDST5
1158  6C31 FE F9                CP #F9
1158  6C33 28 D5         JR Z,PDST6
1159  6C35 FE F8                CP #F8
1159  6C37 28 D5         JR Z,PDST7
1160  6C39
1161  6C39 FE FF                CP #FF
1161  6C3B 28 32         JR Z,DSTS
1162  6C3D FE FE                CP #FE
1162  6C3F 28 45         JR Z,PDST1
1163  6C41 FE FD                CP #FD
1163  6C43 28 47         JR Z,PDST2
1164  6C45
1165  6C45 B7                   OR A
1165  6C46 28 51         JR Z,PDISD
1166  6C48 3D                   DEC A
1166  6C49 28 55         JR Z,PDIS
1167  6C4B 3D                   DEC A
1167  6C4C 28 64         JR Z,PDID
1168  6C4E 3D                   DEC A
1168  6C4F 28 73         JR Z,PDISP
1169  6C51 3D                   DEC A
1169  6C52 28 75         JR Z,PDIDP
1170  6C54 3D                   DEC A
1170  6C55 28 77         JR Z,PDIT
1171  6C57 3D                   DEC A
1171  6C58 28 7B         JR Z,PDIN;6
1172  6C5A
1173  6C5A 3D                   DEC A
1173  6C5B CA DC 6C      JP Z,PDITN
1174  6C5E 3D                   DEC A
1174  6C5F CA EF 6C      JP Z,PDISSA
1175  6C62 3D                   DEC A
1175  6C63 CA FC 6C      JP Z,PDISDA
1176  6C66 3D                   DEC A
1176  6C67 CA 0B 6D      JP Z,PDISAS
1177  6C6A 3D                   DEC A
1177  6C6B CA E4 6C      JP Z,PDISDS;11
1178  6C6E C9                   RET
1179  6C6F 01 AF 27     DSTS    LD BC,STS
1179  6C72 ED 70         INF
1179  6C74 FA 72 6C      JP M,$-2
1179  6C77 AF            XOR A
1179  6C78 C9            RET
1180  6C79 01 AF 27     PDSTS   LD BC,STS
1180  6C7C ED 70         INF
1180  6C7E FA 83 6C      JP M,$+5
1180  6C81 AF            XOR A
1180  6C82 C9            RET
1181  6C83 AF                   XOR A
1181  6C84 3C            INC A
1182  6C85 C9                   RET
1183  6C86 CD 8C 6C     PDST1   CALL PDST2
1183  6C89 C0            RET NZ
1183  6C8A 18 E3         JR DSTS
1184  6C8C CD 79 6C     PDST2   CALL PDSTS
1184  6C8F C0            RET NZ
1185  6C90 01 AF 27 3E          LD BC,DMA_C,A,%00000001
1185  6C94 01
1185  6C95 ED 79         OUT (C),A
1186  6C97 AF                   XOR A
1187  6C98 C9                   RET
1188  6C99 C5           PDISD   PUSH BC
1188  6C9A CD A0 6C      CALL PDIS
1189  6C9D C1                   POP BC
1190  6C9E 18 12                JR PDID
1191  6CA0 78           PDIS    LD A,B
1191  6CA1 CD 18 6D      CALL PDBIT
1192  6CA4 01 AF 1A     PDis    LD BC,DMASL
1192  6CA7 ED 69         OUT (C),L
1193  6CA9 06 1B                LD B,high DMASH
1193  6CAB ED 61         OUT (C),H
1194  6CAD 06 1C                LD B,high DMASX
1194  6CAF ED 79         OUT (C),A
1194  6CB1 C9            RET
1195  6CB2 79           PDID    LD A,C
1195  6CB3 CD 18 6D      CALL PDBIT
1196  6CB6 01 AF 1D     PDid    LD BC,DMADL
1196  6CB9 ED 59         OUT (C),E
1197  6CBB 06 1E                LD B,high DMADH
1197  6CBD ED 51         OUT (C),D
1198  6CBF 06 1F                LD B,high DMADX
1198  6CC1 ED 79         OUT (C),A
1198  6CC3 C9            RET
1199  6CC4 CD 2C 6D     PDISP   CALL PDPG
1199  6CC7 18 DB         JR PDis
1200  6CC9 CD 2C 6D     PDIDP   CALL PDPG
1200  6CCC 18 E8         JR PDid
1201  6CCE 78 01 AF 28  PDIT    LD A,B,BC,DMA_T
1201  6CD2 ED 79         OUT (C),A
1201  6CD4 C9            RET
1202  6CD5 78 01 AF 26  PDIN    LD A,B,BC,DMA_N
1202  6CD9 ED 79         OUT (C),A
1202  6CDB C9            RET
1203  6CDC C5           PDITN   PUSH BC
1203  6CDD CD CE 6C      CALL PDIT
1204  6CE0 C1                   POP BC
1204  6CE1 41            LD B,C
1204  6CE2 18 F1         JR PDIN
1205  6CE4
1206  6CE4 4B           PDISDS  LD C,E
1206  6CE5 CD 0B 6D      CALL PDISAS
1207  6CE8 4C                   LD C,H
1207  6CE9 CD EF 6C      CALL PDISSA
1208  6CEC 4D                   LD C,L
1208  6CED 18 0D         JR PDISDA
1209  6CEF 79           PDISSA  LD A,C
1209  6CF0 CB 0F CB 0F   RRC A,A,A
1209  6CF4 CB 0F
1209  6CF6 E6 20         AND %00100000
1210  6CF8 32 85 7F             LD (DSA),A
1211  6CFB C9                   RET
1212  6CFC 79           PDISDA  LD A,C
1212  6CFD CB 0F CB 0F   RRC A,A,A,A
1212  6D01 CB 0F CB 0F
1212  6D05 E6 10         AND %00010000
1213  6D07 32 86 7F             LD (DDA),A
1214  6D0A C9                   RET
1215  6D0B 79           PDISAS  LD A,C
1215  6D0C CB 27 CB 27   SLA A,A,A
1215  6D10 CB 27
1215  6D12 E6 08         AND %00001000
1216  6D14 32 87 7F             LD (DAS),A
1217  6D17 C9                   RET
1218  6D18              ;-------
1219  6D18 CB 7F        PDBIT   BIT 7,A
1219  6D1A 20 05         JR NZ,PDBI
1220  6D1C E6 3F                AND 63
1220  6D1E C6 20         ADD A,GVvPG
1221  6D20 C9                   RET
1222  6D21 E6 0F        PDBI    AND 15
1222  6D23 C6 61         ADD A,PLGPG
1223  6D25 D9                   EXX
1223  6D26 21 79 7F      LD HL,PPGP
1223  6D29 86            ADD A,(HL)
1224  6D2A D9                   EXX
1225  6D2B C9                   RET
1226  6D2C 78           PDPG    LD A,B
1226  6D2D E6 03         AND 3
1227  6D2F D9                   EXX
1227  6D30 26 60 6F 7E   LD H,high PG0,L,A,A,(HL)
1228  6D34 D9                   EXX
1229  6D35 C9                   RET
1230  6D36
1231  6D36 B7           KBSCN   OR A
1231  6D37 CA B0 73      JP Z,CLAvA
1232  6D3A 3D                   DEC A
1232  6D3B CA 21 74      JP Z,CLAVA
1233  6D3E C9                   RET
1234  6D3F
1235  6D3F C9           TENTRYN RET
1236  6D40
1237  6D40 7C           TMRKDFL LD A,H
1237  6D41 B5            OR L
1237  6D42 CA A0 6D      JP Z,MRKSRHP
1238  6D45
1239  6D45 CB 7C                BIT 7,H
1240  6D47 F5                   PUSH AF
1241  6D48 CB BC                RES 7,H
1242  6D4A D5                   PUSH DE
1243  6D4B E5                   PUSH HL
1243  6D4C 21 00 00      LD HL,0
1244  6D4F D9                   EXX
1245  6D50 D1                   POP DE
1245  6D51 21 00 00      LD HL,0
1246  6D54 D9           RKsrh   EXX
1247  6D55 22 AA 7F     RKsr1   LD (MRRN),HL
1247  6D58 CD 4F 63      CALL Gwe
1247  6D5B 28 3E         JR Z,ERk
1248  6D5D 01 10 00             LD BC,FLG
1249  6D60 09                   ADD HL,BC
1249  6D61 7E            LD A,(HL)
1249  6D62 B7            OR A
1249  6D63 28 05         JR Z,S
1250  6D65 ED 42                SBC HL,BC
1250  6D67 7E            LD A,(HL)
1250  6D68 CB 47         BIT 0,A
1251  6D6A 2A AA 7F     S       LD HL,(MRRN)
1251  6D6D 23            INC HL
1251  6D6E 28 E5         JR Z,RKsr1
1252  6D70 D9                   EXX
1253  6D71 23                   INC HL
1253  6D72 B7            OR A
1253  6D73 ED 52         SBC HL,DE
1253  6D75 28 04         JR Z,EGE
1254  6D77 19                   ADD HL,DE
1255  6D78 C3 54 6D             JP RKsrh
1256  6D7B D9           EGE     EXX
1256  6D7C 2B            DEC HL
1257  6D7D CD 0B 63             CALL GETen
1258  6D80 EB                   EX DE,HL
1258  6D81 23            INC HL
1259  6D82 D1                   POP DE
1260  6D83
1261  6D83 01 FF FF             LD BC,#FFFF
1262  6D86 7E           FEED    LD A,(HL)
1262  6D87 B7            OR A
1262  6D88 28 09         JR Z,EzE
1263  6D8A 7A                   LD A,D
1264  6D8B FE C0                CP #C0
1264  6D8D 30 06         JR NC,E_E
1265  6D8F ED A0                LDI
1265  6D91 10 F3         DJNZ FEED
1266  6D93
1267  6D93 AF           EzE     XOR A
1267  6D94 12            LD (DE),A
1268  6D95 F1           E_E     POP AF
1268  6D96 CC E9 6B      CALL Z,GIPAGPL
1269  6D99
1270  6D99 AF                   XOR A
1271  6D9A C9                   RET
1272  6D9B D1 F1        ERk     POP DE,AF
1273  6D9D AF                   XOR A
1273  6D9E 3C            INC A
1274  6D9F C9                   RET
1275  6DA0
1276  6DA0 21 00 00     MRKSRHP LD HL,0
1277  6DA3 D9                   EXX
1277  6DA4 01 00 00      LD BC,0
1278  6DA7 D9           RKSRHP  EXX
1279  6DA8 22 AA 7F     RKSRH1  LD (MRRN),HL
1279  6DAB CD 4F 63      CALL Gwe
1279  6DAE 28 18         JR Z,ERKP
1280  6DB0 01 10 00             LD BC,FLG
1281  6DB3 09                   ADD HL,BC
1281  6DB4 7E            LD A,(HL)
1281  6DB5 B7            OR A
1281  6DB6 28 05         JR Z,O
1282  6DB8 ED 42                SBC HL,BC
1282  6DBA 7E            LD A,(HL)
1282  6DBB CB 47         BIT 0,A
1283  6DBD 2A AA 7F     O       LD HL,(MRRN)
1283  6DC0 23            INC HL
1283  6DC1 28 E5         JR Z,RKSRH1
1284  6DC3 D9                   EXX
1285  6DC4 03                   INC BC
1286  6DC5 C3 A7 6D             JP RKSRHP
1287  6DC8 D9           ERKP    EXX
1288  6DC9 21 00 00             LD HL,0
1289  6DCC 22 AA 7F             LD (MRRN),HL
1290  6DCF ED 43 A8 7F          LD (MRCT),BC
1291  6DD3 78                   LD A,B
1291  6DD4 B1            OR C
1292  6DD5 C9                   RET
1293  6DD6
1294  6DD6 C9           TMRKNXT RET
1295  6DD7
1296  6DD7 3E F2        INIS    LD A,INIPG
1296  6DD9 CD 91 68      CALL MNG0
1297  6DDC CD 94 6A CD          CALL GBD,TSBC
1297  6DE0 19 6E
1297  6DE2 3E 01         LD A,1
1297  6DE4 C0            RET NZ
1298  6DE5 21 0F 80             LD HL,WCDIR
1298  6DE8 CD 4E 40      CALL SRHDRN
1298  6DEB 3E 02         LD A,2
1298  6DED 28 0C         JR Z,IES
1299  6DEF 22 94 7F ED          LD (CRRR),HL,(CRRR+2),DE
1299  6DF3 53 96 7F
1300  6DF6 CD 4D 6F             CALL GDIR
1301  6DF9 AF                   XOR A
1302  6DFA C9                   RET
1303  6DFB B7           IES     OR A
1303  6DFC C9            RET
1304  6DFD
1305  6DFD 7A           STREAM  LD A,D
1306  6DFE FE FF                CP #FF
1306  6E00 28 46         JR Z,ACRD
1307  6E02 FE FE                CP #FE
1307  6E04 28 4E         JR Z,CSTR
1308  6E06 FE FD                CP #FD
1308  6E08 28 CD         JR Z,INIS
1309  6E0A C5                   PUSH BC
1310  6E0B E6 01                AND 1
1310  6E0D C6 F3         ADD A,STRPG
1310  6E0F CD 91 68      CALL MNG0
1311  6E12 C1                   POP BC
1312  6E13
1313  6E13 58                   LD E,B
1314  6E14 03                   INC BC
1315  6E15 78                   LD A,B
1315  6E16 B1            OR C
1315  6E17 C8            RET Z
1316  6E18 7B                   LD A,E
1317  6E19
1318  6E19 B7           TSBC    OR A
1318  6E1A 28 1C         JR Z,BDSD
1319  6E1C 3D                   DEC A
1319  6E1D 0E 00         LD C,#00
1319  6E1F 28 19         JR Z,BDIS
1320  6E21 3D                   DEC A
1320  6E22 0E 05         LD C,#05
1320  6E24 28 14         JR Z,BDIS
1321  6E26 3D                   DEC A
1321  6E27 28 0F         JR Z,BDSD
1322  6E29 3D                   DEC A
1322  6E2A 0E 03         LD C,#03
1322  6E2C 28 0C         JR Z,BDIS
1323  6E2E 3D                   DEC A
1323  6E2F 0E 04         LD C,#04
1323  6E31 28 07         JR Z,BDIS
1324  6E33 3D                   DEC A
1324  6E34 0E 06         LD C,#06
1324  6E36 28 02         JR Z,BDIS
1325  6E38 0E 01        BDSD    LD C,#01
1326  6E3A 79           BDIS    LD A,C
1327  6E3B CD 1B 40             CALL DOS_SWP
1328  6E3E CD 03 40             CALL DEV_INI
1328  6E41 C0            RET NZ
1329  6E42 CD 09 40             CALL HDD
1329  6E45 C0            RET NZ
1330  6E46 AF                   XOR A
1331  6E47 C9                   RET
1332  6E48
1333  6E48 21 00 00     ACRD    LD HL,0
1334  6E4B 22 94 7F             LD (CRRR),HL
1335  6E4E 22 96 7F             LD (CRRR+2),HL
1336  6E51 C3 4D 6F             JP GDIR
1337  6E54
1338  6E54 21 00 00     CSTR    LD HL,0
1339  6E57 54 5D                LD DE,HL
1340  6E59 3A 18 60             LD A,(FEP2)
1340  6E5C CD A4 6C      CALL PDis
1341  6E5F 3E F4                LD A,STRPG+1
1341  6E61 CD B6 6C      CALL PDid
1342  6E64 06 1F                LD B,31
1342  6E66 CD CE 6C      CALL PDIT
1343  6E69 06 FF                LD B,255
1343  6E6B CD D5 6C      CALL PDIN
1344  6E6E 01 AF 27 3E          LD BC,DMA_C,A,%00000001
1344  6E72 01
1344  6E73 ED 79         OUT (C),A
1345  6E75 CD 6F 6C             CALL DSTS
1346  6E78
1347  6E78 3A 18 60     CLONE   LD A,(FEP2)
1347  6E7B CD A4 6C      CALL PDis
1348  6E7E 3E F3                LD A,STRPG
1348  6E80 CD B6 6C      CALL PDid
1349  6E83 01 AF 27 3E          LD BC,DMA_C,A,%00000001
1349  6E87 01
1349  6E88 ED 79         OUT (C),A
1350  6E8A CD 6F 6C             CALL DSTS
1351  6E8D
1352  6E8D 3E F3        CLPG    LD A,STRPG
1353  6E8F C3 91 68             JP MNG0
1354  6E92
1355  6E92 06 FF        FYJ     LD B,255
1355  6E94 23            INC HL
1356  6E95 7E           FYI     LD A,(HL)
1357  6E96 B7                   OR A
1357  6E97 C8            RET Z
1358  6E98 FE 5C                CP "\\"
1358  6E9A 37            SCF
1358  6E9B C8            RET Z
1359  6E9C FE 2F                CP "/"
1359  6E9E 37            SCF
1359  6E9F C8            RET Z
1360  6EA0 23                   INC HL
1360  6EA1 10 F2         DJNZ FYI
1361  6EA3 AF                   XOR A
1361  6EA4 3D            DEC A
1362  6EA5 C9                   RET
1363  6EA6 11 00 5E 12  FIJ     LD DE,BUX,(DE),A
1363  6EAA 13 23         INC DE,HL
1364  6EAC 08                   EXA
1365  6EAD 3E FF                LD A,255
1365  6EAF 90            SUB B
1365  6EB0 C8            RET Z
1366  6EB1 0E FF 47             LD C,#FF,B,A
1366  6EB4 ED A0         LDI
1366  6EB6 10 FC         DJNZ $-2
1367  6EB8 22 B3 7F             LD (TTHL),HL
1368  6EBB AF                   XOR A
1368  6EBC 12            LD (DE),A
1369  6EBD 08                   EXA
1370  6EBE 3C                   INC A
1371  6EBF C9                   RET
1372  6EC0
1373  6EC0 E5           FENTRY2 PUSH HL
1373  6EC1 CD 92 6E      CALL FYJ
1374  6EC4 E1                   POP HL
1374  6EC5 38 02 28 58   JR C,$+4,Z,FENTRY
1375  6EC9 3C                   INC A
1375  6ECA C8            RET Z
1376  6ECB
1377  6ECB 3E 10                LD A,#10
1377  6ECD CD A6 6E      CALL FIJ
1377  6ED0 C8            RET Z
1378  6ED1
1379  6ED1 CD 15 6F             CALL SAVECD
1380  6ED4 21 00 5E     FYD     LD HL,BUX
1380  6ED7 CD 4E 40      CALL SRHDRN
1380  6EDA 28 14         JR Z,FYA
1381  6EDC 22 94 7F             LD (CRRR),HL
1382  6EDF ED 53 96 7F          LD (CRRR+2),DE
1383  6EE3 CD 4D 6F             CALL GDIR
1384  6EE6
1385  6EE6 2A B3 7F             LD HL,(TTHL)
1386  6EE9 CD 92 6E             CALL FYJ
1386  6EEC 38 07 28 07   JR C,FIA,Z,FIG
1387  6EF0 CD 0B 6F     FYA     CALL FIN
1388  6EF3 AF                   XOR A
1389  6EF4 C9                   RET
1390  6EF5 3E 10        FIA     LD A,#10
1391  6EF7 2A B3 7F     FIG     LD HL,(TTHL)
1391  6EFA CD A6 6E      CALL FIJ
1391  6EFD 28 F1         JR Z,FYA
1392  6EFF FE 11                CP #10+1
1392  6F01 28 D1         JR Z,FYD
1393  6F03
1394  6F03 21 00 5E             LD HL,BUX
1394  6F06 CD 21 6F      CALL FENTRY
1394  6F09 28 E5         JR Z,FYA
1395  6F0B E5 D5        FIN     PUSH HL,DE
1396  6F0D CD 1B 6F             CALL LOADCD
1397  6F10 D1 E1                POP DE,HL
1398  6F12 AF                   XOR A
1398  6F13 3C            INC A
1399  6F14 C9                   RET
1400  6F15
1401  6F15 11 98 7F     SAVECD  LD DE,DRRR
1401  6F18 C3 21 40      JP TLSTCAT
1402  6F1B 21 98 7F     LOADCD  LD HL,DRRR
1402  6F1E C3 1E 40      JP GLSTCAT
1403  6F21
1404  6F21 CD 4E 40     FENTRY  CALL SRHDRN
1404  6F24 C8            RET Z
1405  6F25 22 94 7F             LD (CRRR),HL
1406  6F28 ED 53 96 7F          LD (CRRR+2),DE
1407  6F2C D9                   EXX
1408  6F2D 11 CF 7F             LD DE,ENTRY
1408  6F30 CD 36 40      CALL TENTRY
1409  6F33 2A EB 7F             LD HL,(ENTRY+28)
1410  6F36 ED 5B ED 7F          LD DE,(ENTRY+30)
1411  6F3A C9                   RET
1412  6F3B 11 94 7F     ADIR    LD DE,CRRR
1412  6F3E CD 21 40      CALL TLSTCAT
1413  6F41 FE 01                CP 1
1413  6F43 28 08         JR Z,GDIR
1414  6F45 B7                   OR A
1414  6F46 C0            RET NZ
1415  6F47 21 94 7F     GFILE   LD HL,CRRR
1415  6F4A C3 12 40      JP GIPAG
1416  6F4D 21 94 7F     GDIR    LD HL,CRRR
1416  6F50 C3 1E 40      JP GLSTCAT
1417  6F53
1418  6F53 CD AC 6F     MKfile  CALL CRTM
1419  6F56 CD 39 40             CALL MKFILE
1419  6F59 C0            RET NZ
1420  6F5A
1421  6F5A 22 8C 7F ED          LD (BRRR),HL,(BRRR+2),DE
1421  6F5E 53 8E 7F
1422  6F61
1423  6F61 E5 D5                PUSH HL,DE
1424  6F63 11 CF 7F             LD DE,ENTRY
1424  6F66 CD 36 40      CALL TENTRY
1425  6F69 CD E9 6B             CALL GIPAGPL
1426  6F6C D1 E1                POP DE,HL
1427  6F6E
1428  6F6E AF                   XOR A
1429  6F6F C9                   RET
1430  6F70
1431  6F70 CD AC 6F     MKdir   CALL CRTM
1432  6F73 C3 3C 40             JP MKDIR
1433  6F76
1434  6F76              FNDELFL ;i:HL - Flag(1),Name(1-12),0
1435  6F76
1436  6F76 CD 3F 40             CALL DELFL
1436  6F79 C8            RET Z
1437  6F7A C9                   RET
1438  6F7B              ;-------
1439  6F7B 01 AF 12     INTP    LD BC,PW2
1439  6F7E ED 78         IN A,(C)
1440  6F80 ED 4B 02 60          LD BC,(PG8)
1440  6F84 B9            CP C
1440  6F85 C0            RET NZ
1441  6F86 C3 00 00             JP 0
1442  6F89 22 87 6F 32  INTPI   LD (INTPI-2),HL,(INTPL),A
1442  6F8D B0 7F
1442  6F8F C9            RET
1443  6F90 FE FF        INT_PL  CP #FF
1443  6F92 28 F5         JR Z,INTPI
1444  6F94
1445  6F94 B7                   OR A
1445  6F95 28 07         JR Z,DISALL
1446  6F97 3D                   DEC A
1446  6F98 28 0A         JR Z,DISTM
1447  6F9A 3D                   DEC A
1447  6F9B 28 0B         JR Z,DISPS
1448  6F9D C9                   RET
1449  6F9E
1450  6F9E CD A8 6F     DISALL  CALL DISPS
1451  6FA1 32 B0 7F             LD (INTPL),A
1452  6FA4 32 B1 7F     DISTM   LD (INTTM),A
1452  6FA7 C9            RET
1453  6FA8 32 B2 7F     DISPS   LD (INTPS),A
1453  6FAB C9            RET
1454  6FAC              ;-------
1455  6FAC E5           CRTM    PUSH HL
1456  6FAD CD C8 67             CALL TMTOEN
1457  6FB0 21 CF 7F             LD HL,ENTRY
1457  6FB3 CD 33 40      CALL GENTRY
1458  6FB6 E1                   POP HL
1459  6FB7 C9                   RET
1460  6FB8              ;-------
1461  6FB8 B7           PRM_PL  OR A
1461  6FB9 C8            RET Z
1462  6FBA FE 09                CP 9
1462  6FBC D0            RET NC
1463  6FBD F3                   DI
1464  6FBE 5F 16 00             LD E,A,D,0
1465  6FC1 3E 60                LD A,PLHPG
1465  6FC3 CD C1 68      CALL MNgC
1466  6FC6 2A 7E 7F             LD HL,(PHEP)
1466  6FC9 19            ADD HL,DE
1467  6FCA 4E                   LD C,(HL)
1468  6FCB CD B3 68             CALL MNGCR
1469  6FCE 79                   LD A,C
1469  6FCF B7            OR A
1470  6FD0 FB                   EI
1471  6FD1 C9                   RET
1472  6FD2              ;-------
1473  6FD2 D9           FUN     EXX
1474  6FD3 E5                   PUSH HL
1475  6FD4 21 E4 6F 06          LD HL,FUX,B,0,C,A
1475  6FD8 00 4F
1476  6FDA 09          > ADD HL,BC
1476  6FDB 09          > ADD HL,BC
1477  6FDC 4E                   LD C,(HL)
1477  6FDD 23            INC HL
1478  6FDE 46                   LD B,(HL)
1479  6FDF E1                   POP HL
1480  6FE0 C5                   PUSH BC
1481  6FE1 D9                   EXX
1481  6FE2 08            EXA
1482  6FE3 C9           FEX     RET
1483  6FE4              ;-------
1484  6FE4 EE 68        FUX     DW MNGC_PL;0
1485  6FE6 92 79                DW PRWOW
1486  6FE8 34 7B                DW RRESB
1487  6FEA 89 7D                DW PRSRW
1488  6FEC 9D 7D                DW PRIAT
1489  6FEE A9 7D                DW GADRW
1490  6FF0 3B 7D                DW CURSOR
1491  6FF2 57 7D                DW CURSER
1492  6FF4 70 66                DW YN
1493  6FF6 6B 71                DW ISTR
1494  6FF8 1B 6A                DW NORK
1495  6FFA E5 7D                DW TXTPR
1496  6FFC D1 7D                DW MEZZ
1497  6FFE 25 6C                DW DMAPL
1498  7000 B6 6B                DW TURBOPL
1499  7002 94 69                DW GEDPL
1500  7004              ;-------
1501  7004 72 74                DW SPKE;16
1502  7006 49 74                DW UPPP
1503  7008 4F 74                DW DWWW
1504  700A 55 74                DW LFFF
1505  700C 5B 74                DW RGGG
1506  700E DF 74                DW TABK
1507  7010 6D 74                DW ENKE
1508  7012 90 74                DW ESC
1509  7014 77 74                DW BSPC
1510  7016 61 74                DW PGU
1511  7018 67 74                DW PGD
1512  701A 7C 74                DW HOME
1513  701C 81 74                DW END;28
1514  701E              ;-------
1515  701E 95 74                DW F1
1516  7020 9A 74                DW F2
1517  7022 9F 74                DW F3
1518  7024 A4 74                DW F4
1519  7026 A9 74                DW F5
1520  7028 AE 74                DW F6
1521  702A B3 74                DW F7
1522  702C B8 74                DW F8
1523  702E BD 74                DW F9
1524  7030 C2 74                DW F10
1525  7032              ;-------
1526  7032 CD 74                DW ALT;39
1527  7034 D3 74                DW SHIFT
1528  7036 D9 74                DW CTRL
1529  7038              ;-------
1530  7038 36 6D                DW KBSCN;42
1531  703A              ;-------
1532  703A 86 74                DW DELE
1533  703C C7 74                DW CAPS
1534  703E              ;-------
1535  703E 60 75                DW ANYK;45
1536  7040 41 74                DW USPO;46
1537  7042 39 74                DW NUSP
1538  7044              ;-------
1539  7044 A0 6A                DW XLD512; 48
1540  7046 B4 6A                DW XSV512; 49
1541  7048 C5 6A                DW XGIPGPL;50
1542  704A CE 6A                DW XTNTRY2;51
1543  704C D7 6A                DW XCHTS;  52
1544  704E E0 6A                DW XTNTRYN;53
1545  7050 E9 6A                DW XTMRKFL;54
1546  7052 F2 6A                DW XTMRKNX;55
1547  7054 FB 6A                DW XADIR;  56
1548  7056 04 6B                DW XSTREAM;57
1549  7058 15 6B                DW XXTETY2;58
1550  705A 1E 6B                DW XFENTRY;59
1551  705C 27 6B                DW XLD256; 60
1552  705E 30 6B                DW XLDNON; 61
1553  7060
1554  7060 39 6B                DW XGFILE; 62
1555  7062 42 6B                DW XGDIR;  63
1556  7064              ;-------
1557  7064 3D 69                DW MNGV_PL;64
1558  7066 25 69                DW MNGCVPL;65
1559  7068 0F 6A                DW GVmod;  66
1560  706A 13 6A                DW GYoff;  67
1561  706C 17 6A                DW GXoff;  68
1562  706E 60 69                DW GVtm;   69
1563  7070 6C 69                DW GVtl;   70
1564  7072 82 69                DW GVsgp;  71
1565  7074              ;-------
1566  7074 4B 6B                DW XMKfile;72
1567  7076 54 6B                DW XMKdir; 73
1568  7078 5D 6B                DW XREname;74
1569  707A 66 6B                DW XDelFl; 75
1570  707C E3 6F       > DW FEX
1570  707E E3 6F       > DW FEX
1571  7080              ;-------
1572  7080 09 69                DW MNG0_PL;78
1573  7082 17 69                DW MNG8_PL;79
1574  7084 2D 69                DW MNG0VPL;80
1575  7086 35 69                DW MNG8VPL;81
1576  7088 E3 6F                DW FEX
1577  708A B8 6F                DW PRM_PL; 83
1578  708C              ;-------
1579  708C 4C 7C                DW SCRLWOW;84
1580  708E 8B 74                DW INS;    85
1581  7090 90 6F                DW INT_PL; 86
1582  7092              ;-------
1583  7092 C5           NYAU    PUSH BC
1583  7093 CD A7 70      CALL MYAU
1584  7096 E1                   POP HL
1585  7097              NYAA    EQU $+1
1586  7097 3E 00                LD A,0
1586  7099 CD C8 70      CALL P8000
1587  709C F5                   PUSH AF
1588  709D 3E 02                LD A,2
1588  709F CD A6 68      CALL MNG8
1589  70A2 CD E9 6B             CALL GIPAGPL
1590  70A5 F1                   POP AF
1591  70A6 C9                   RET
1592  70A7
1593  70A7 3A 00 B0 32  MYAU    LD A,(LOBU),(PPGP),A,HL,LOBU+35
1593  70AB 79 7F 21 23
1593  70AF B0
1594  70B0 86                   ADD A,(HL)
1595  70B1 C6 61                ADD A,PLGPG
1596  70B3 C3 A6 68             JP MNG8
1597  70B6              ;-------
1598  70B6 3E 01        RAJT    LD A,1
1599  70B8 F5           AJT     PUSH AF
1599  70B9 CD A7 70      CALL MYAU
1600  70BC F1                   POP AF
1601  70BD CD C8 70             CALL P8000
1602  70C0 F5                   PUSH AF
1602  70C1 3E 02         LD A,2
1602  70C3 CD A6 68      CALL MNG8
1603  70C6 F1                   POP AF
1604  70C7 C9                   RET
1605  70C8              ;-------
1606  70C8 F5           P8000   PUSH AF
1607  70C9 AF                   XOR A
1608  70CA 32 85 7F             LD (DSA),A
1609  70CD 32 86 7F             LD (DDA),A
1610  70D0 32 87 7F             LD (DAS),A
1611  70D3 CD B6 68             CALL MNGC
1612  70D6 F1                   POP AF
1613  70D7
1614  70D7 ED 4B 00 60          LD BC,(PG0),(FEP),BC,(FEP2),BC
1614  70DB ED 43 0B 60
1614  70DF ED 43 18 60
1615  70E3 C5                   PUSH BC
1615  70E4 ED 4B 8E 7F   LD BC,(BRRR+2)
1616  70E8 C5                   PUSH BC
1616  70E9 ED 4B 8C 7F   LD BC,(BRRR)
1617  70ED C5                   PUSH BC
1618  70EE
1619  70EE ED 4B 11 60          LD BC,(RSQBC),(RSQB2),BC
1619  70F2 ED 43 13 60
1620  70F6 DD 22 88 7F          LD (IXBU),IX
1621  70FA 08                   EXA
1622  70FB 3E 00        ENV     LD A,0
1623  70FD 08                   EXA
1624  70FE D9                   EXX
1625  70FF DD 6E 10             LD L,(IX+16)
1626  7102 DD 66 11 DD          LD H,(IX+17),E,(IX+12),D,0
1626  7106 5E 0C 16 00
1627  710A 19                   ADD HL,DE
1628  710B DD 5E 12             LD E,(IX+18)
1629  710E DD 56 13             LD D,(IX+19)
1630  7111 D9                   EXX
1631  7112 01 00 5E             LD BC,BUX
1631  7115 CD 00 80      CALL #8000
1632  7118 DD 2A 88 7F          LD IX,(IXBU)
1633  711C 2A 13 60 22          LD HL,(RSQB2),(RSQBC),HL
1633  7120 11 60
1634  7122
1635  7122 E1                   POP HL
1635  7123 22 8C 7F      LD (BRRR),HL
1636  7126 E1                   POP HL
1636  7127 22 8E 7F      LD (BRRR+2),HL
1637  712A E1                   POP HL
1638  712B F5                   PUSH AF
1639  712C 7D                   LD A,L
1639  712D CD 91 68 CD   CALL MNG0,DEF
1639  7131 E2 6B
1640  7133 CD 6F 6A             CALL INTPLD
1641  7136 F1                   POP AF
1642  7137 C9                   RET
1643  7138              ;---------------------------------------
1644  7138                      INCLUDE "PS2P.ASM"
# file opened: PS2P.ASM
   1+ 7138              ;---------------------------------------
   2+ 7138              ;PS/2 HANDLER (STAND-ALONE)
   3+ 7138              ;(C) KOSHI/MGN/2018
   4+ 7138              ;---------------------------------------
   5+ 7138              RPT     EQU 25;AUTO REPEAT
   6+ 7138              SCANS   EQU 51;SCANCODES
   7+ 7138              ;-------
   8+ 7138 2A BC 76     TAB4E   LD HL,(TAB+#00)
   8+ 713B 7C            LD A,H
   8+ 713C B5            OR L
   9+ 713D 2A BE 76             LD HL,(TAB+#02)
   9+ 7140 B4 B5         OR H,L
  10+ 7142 2A C0 76             LD HL,(TAB+#04)
  10+ 7145 B4 B5         OR H,L
  11+ 7147 2A C2 76             LD HL,(TAB+#06)
  11+ 714A B4 B5         OR H,L
  12+ 714C 2A C4 76             LD HL,(TAB+#08)
  12+ 714F B4 B5         OR H,L
  13+ 7151 2A C6 76             LD HL,(TAB+#0A)
  13+ 7154 B4 B5         OR H,L
  14+ 7156 2A C8 76             LD HL,(TAB+#0C)
  14+ 7159 B4 B5         OR H,L
  15+ 715B 2A CA 76             LD HL,(TAB+#0E)
  15+ 715E B4 B5         OR H,L
  16+ 7160 2A CC 76             LD HL,(TAB+#10)
  16+ 7163 B4 B5         OR H,L
  17+ 7165 2A CE 76             LD HL,(TAB+#12)
  17+ 7168 B4 B5         OR H,L
  18+ 716A C9                   RET
  19+ 716B              ;-------
  20+ 716B              ISTR    ;i:A=#FF init0:
  21+ 716B              ;             i: HL - Address of string
  22+ 716B              ;                            (on screen)
  23+ 716B              ;                 D - CURMAX
  24+ 716B              ;                 E - CURNOW
  25+ 716B              ;          A=#01 terminate:
  26+ 716B              ;             o: HL - Address of string
  27+ 716B              ;          A=#00 input(CALL every frame)
  28+ 716B              ;
  29+ 716B              ;          A=#FD init2:
  30+ 716B              ;             i: HL - Address of string
  31+ 716B              ;                 D - Y (in window)
  32+ 716B              ;                 E - X (in window)
  33+ 716B              ;                 B - CURMAX
  34+ 716B              ;                 C - CURNOW
  35+ 716B              ;                HL'- buffer size
  36+ 716B              ;          A=#02 window REFRESH (on SCR)
  37+ 716B              ;
  38+ 716B              ;          A=#FE init info position:
  39+ 716B              ;                 H - 0=top, 1=bottom
  40+ 716B              ;                 L - reserved
  41+ 716B              ;          A=#03 info refresh
  42+ 716B              ;
  43+ 716B              ;          A=#FC CAPS, INS, CTRL+SHIFT
  44+ 716B              ;             i:none
  45+ 716B              ;             o: A - state:
  46+ 716B              ;                     [7]: %0 - INS
  47+ 716B              ;                          %1 - OVR
  48+ 716B              ;                     [6]: %0 - CAPS off
  49+ 716B              ;                          %1 - CAPS on
  50+ 716B              ;                   [5-2]:reserved
  51+ 716B              ;                   [1-0]:%00 - ENG
  52+ 716B              ;                         %01 - RUS
  53+ 716B              ;                         %10 - reserved
  54+ 716B              ;                         %11 - reserved
  55+ 716B
  56+ 716B 3C                   INC A
  56+ 716C CA 4E 72      JP Z,IINIT
  57+ 716F 3C                   INC A
  57+ 7170 CA 23 73      JP Z,IINIF
  58+ 7173 3C                   INC A
  58+ 7174 CA 6D 72      JP Z,IINI2
  59+ 7177 3C                   INC A
  59+ 7178 CA 8C 73      JP Z,FCREF
  60+ 717B
  61+ 717B FE 05                CP #01+4
  61+ 717D CA 66 72      JP Z,IEXIT
  62+ 7180 FE 06                CP #02+4
  62+ 7182 CA 76 73      JP Z,IWRFR
  63+ 7185 FE 07                CP #03+4
  63+ 7187 CA 30 73      JP Z,IREFR
  64+ 718A
  65+ 718A CD 77 74 C4          CALL BSPC,NZ,IBS; Backspace
  65+ 718E 19 72
  66+ 7190 CD 86 74 C4          CALL DELE,NZ,IDL; Delete
  66+ 7194 35 72
  67+ 7196
  68+ 7196 CD 5B 74 C4          CALL RGGG,NZ,IRG; Right Arrow
  68+ 719A CD 71
  69+ 719C CD 55 74 C4          CALL LFFF,NZ,ILF; Left Arrow
  69+ 71A0 FC 71
  70+ 71A2
  71+ 71A2 CD 8B 74 C4          CALL INS,NZ,INSOVR
  71+ 71A6 1A 73
  72+ 71A8 CD ED 72             CALL LNGCHE
  73+ 71AB CD 00 73             CALL CAPSCHE
  74+ 71AE
  75+ 71AE CD B0 73             CALL CLAvA
  75+ 71B1 C8            RET Z
  76+ 71B2              ;-------
  77+ 71B2 CD C4 72     SMBADD  CALL ICPO
  78+ 71B5 4F                   LD C,A
  79+ 71B6 3A 60 78             LD A,(INOV)
  79+ 71B9 B7            OR A
  79+ 71BA 20 10         JR NZ,IZIMOD
  80+ 71BC
  81+ 71BC E5 C5                PUSH HL,BC
  82+ 71BE CD D4 72             CALL ILNG
  82+ 71C1 28 07         JR Z,LSIS
  83+ 71C3 09                   ADD HL,BC
  83+ 71C4 2B            DEC HL
  84+ 71C5 54 5D                LD DE,HL
  84+ 71C7 13            INC DE
  84+ 71C8 ED B8         LDDR
  85+ 71CA C1 E1        LSIS    POP BC,HL
  86+ 71CC
  87+ 71CC 71           IZIMOD  LD (HL),C
  88+ 71CD              ;-------
  89+ 71CD ED 4B 69 78  IRG     LD BC,(ICUP)
  90+ 71D1 79                   LD A,C
  90+ 71D2 3C            INC A
  91+ 71D3 B8                   CP B
  91+ 71D4 30 09         JR NC,IRGW
  92+ 71D6 CD 92 72             CALL IRCU
  93+ 71D9 32 69 78             LD (ICUP),A
  94+ 71DC C3 92 72             JP ICUR
  95+ 71DF 2A 65 78     IRGW    LD HL,(IBSZ)
  96+ 71E2 ED 5B 69 78          LD DE,(ICUP),E,D,D,0
  96+ 71E6 5A 16 00
  97+ 71E9 B7                   OR A
  97+ 71EA ED 52         SBC HL,DE
  97+ 71EC C8            RET Z
  97+ 71ED D8            RET C
  98+ 71EE EB                   EX DE,HL
  99+ 71EF 2A 63 78             LD HL,(IWOF)
 100+ 71F2 ED 52                SBC HL,DE
 100+ 71F4 D0            RET NC
 101+ 71F5 19                   ADD HL,DE
 101+ 71F6 23            INC HL
 102+ 71F7 22 63 78             LD (IWOF),HL
 103+ 71FA AF                   XOR A
 104+ 71FB C9                   RET
 105+ 71FC
 106+ 71FC ED 4B 69 78  ILF     LD BC,(ICUP)
 107+ 7200 79                   LD A,C
 107+ 7201 3D            DEC A
 108+ 7202 B8                   CP B
 108+ 7203 30 09         JR NC,ILFW
 109+ 7205 CD 92 72             CALL IRCU
 110+ 7208 32 69 78             LD (ICUP),A
 111+ 720B C3 92 72             JP ICUR
 112+ 720E 2A 63 78     ILFW    LD HL,(IWOF)
 112+ 7211 7C            LD A,H
 112+ 7212 B5            OR L
 112+ 7213 C8            RET Z
 113+ 7214 2B                   DEC HL
 113+ 7215 22 63 78      LD (IWOF),HL
 114+ 7218 C9                   RET
 115+ 7219              ;-------
 116+ 7219 CD FC 71     IBS     CALL ILF
 116+ 721C C8            RET Z
 117+ 721D CD C4 72             CALL ICPO
 118+ 7220 3A 60 78             LD A,(INOV)
 118+ 7223 B7            OR A
 118+ 7224 28 03         JR Z,BSINS
 119+ 7226 36 20        BSYO    LD (HL),32
 120+ 7228 C9                   RET
 121+ 7229 EB           BSINS   EX DE,HL
 122+ 722A 62 6B                LD HL,DE
 122+ 722C 23            INC HL
 123+ 722D CD D4 72             CALL ILNG
 123+ 7230 ED B0         LDIR
 124+ 7232 EB                   EX DE,HL
 125+ 7233 18 F1                JR BSYO
 126+ 7235              ;-------
 127+ 7235 CD C4 72     IDL     CALL ICPO
 128+ 7238 EB                   EX DE,HL
 129+ 7239 2A 65 78 ED          LD HL,(IBSZ),BC,(ISAD)
 129+ 723D 4B 67 78
 129+ 7240 09            ADD HL,BC
 130+ 7241 EB                   EX DE,HL
 130+ 7242 23            INC HL
 131+ 7243 B7                   OR A
 131+ 7244 ED 52         SBC HL,DE
 132+ 7246 08                   EXA
 132+ 7247 19            ADD HL,DE
 132+ 7248 2B            DEC HL
 133+ 7249 08                   EXA
 133+ 724A 30 DA         JR NC,BSYO
 134+ 724C 18 DB                JR BSINS
 135+ 724E              ;-------
 136+ 724E 22 67 78     IINIT   LD (ISAD),HL
 137+ 7251 ED 53 69 78          LD (ICUP),DE
 138+ 7255 21 00 00             LD HL,0
 139+ 7258 22 63 78             LD (IWOF),HL
 140+ 725B 6A                   LD L,D
 141+ 725C 22 65 78             LD (IBSZ),HL
 142+ 725F
 143+ 725F AF                   XOR A
 143+ 7260 32 94 72      LD (ICRF+1),A
 144+ 7263 C3 92 72             JP ICUR
 145+ 7266              IEXIT   ;XOR A:LD (LANG),A
 146+ 7266 CD 92 72             CALL IRCU
 147+ 7269 2A 67 78             LD HL,(ISAD)
 148+ 726C C9                   RET
 149+ 726D              ;-------
 150+ 726D 22 67 78     IINI2   LD (ISAD),HL
 151+ 7270 ED 43 69 78          LD (ICUP),BC
 152+ 7274 ED 53 61 78          LD (IWAD),DE
 153+ 7278 D9                   EXX
 154+ 7279 7C                   LD A,H
 154+ 727A B7            OR A
 154+ 727B 20 07         JR NZ,UPSZ
 155+ 727D 3A 6A 78             LD A,(ICUP+1)
 155+ 7280 BD            CP L
 155+ 7281 38 01         JR C,UPSZ
 156+ 7283 6F                   LD L,A
 157+ 7284 22 65 78     UPSZ    LD (IBSZ),HL
 158+ 7287
 159+ 7287 21 00 00             LD HL,0
 160+ 728A 22 63 78             LD (IWOF),HL
 161+ 728D
 162+ 728D 3E 01 32 94          LD A,1,(ICRF+1),A
 162+ 7291 72
 163+ 7292              ;-------
 164+ 7292              ICUR
 165+ 7292 F5           IRCU    PUSH AF
 166+ 7293 3E 00        ICRF    LD A,0
 166+ 7295 B7            OR A
 167+ 7296 CC B8 72 C4          CALL Z,ICPC,NZ,ICCC
 167+ 729A A3 72
 168+ 729C CB FD                SET 7,L
 168+ 729E 7E            LD A,(HL)
 168+ 729F ED 67         RRD
 169+ 72A1 F1                   POP AF
 170+ 72A2 C9                   RET
 171+ 72A3 CD 96 7B     ICCC    CALL GPOZA
 172+ 72A6 ED 4B 61 78          LD BC,(IWAD)
 173+ 72AA 7C                   LD A,H
 173+ 72AB 80            ADD A,B
 173+ 72AC 67            LD H,A
 174+ 72AD 7D                   LD A,L
 174+ 72AE 81            ADD A,C
 174+ 72AF 6F            LD L,A
 175+ 72B0 ED 4B 69 78          LD BC,(ICUP),B,0
 175+ 72B4 06 00
 175+ 72B6 09            ADD HL,BC
 176+ 72B7 C9                   RET
 177+ 72B8 2A 67 78     ICPC    LD HL,(ISAD)
 178+ 72BB ED 4B 69 78          LD BC,(ICUP),B,0
 178+ 72BF 06 00
 178+ 72C1 09            ADD HL,BC
 179+ 72C2 BF                   CP A
 180+ 72C3 C9                   RET
 181+ 72C4              ;-------
 182+ 72C4 2A 67 78     ICPO    LD HL,(ISAD)
 183+ 72C7 ED 4B 69 78          LD BC,(ICUP),B,0
 183+ 72CB 06 00
 183+ 72CD 09            ADD HL,BC
 184+ 72CE ED 4B 63 78          LD BC,(IWOF)
 184+ 72D2 09            ADD HL,BC
 185+ 72D3 C9                   RET
 186+ 72D4 E5           ILNG    PUSH HL
 187+ 72D5 2A 65 78             LD HL,(IBSZ)
 188+ 72D8 ED 4B 69 78          LD BC,(ICUP),B,0
 188+ 72DC 06 00
 188+ 72DE 0C            INC C
 189+ 72DF B7                   OR A
 189+ 72E0 ED 42         SBC HL,BC
 190+ 72E2 ED 4B 63 78          LD BC,(IWOF)
 191+ 72E6 B7                   OR A
 191+ 72E7 ED 42         SBC HL,BC
 192+ 72E9 44 4D                LD BC,HL
 193+ 72EB E1                   POP HL
 194+ 72EC C9                   RET
 195+ 72ED              ;-------
 196+ 72ED CD D9 74     LNGCHE  CALL CTRL
 196+ 72F0 C8            RET Z
 197+ 72F1 CD D3 74             CALL SHIFT
 197+ 72F4 C8            RET Z
 198+ 72F5 3A 5F 78             LD A,(LANG)
 198+ 72F8 EE 01         XOR 1
 199+ 72FA 32 5F 78             LD (LANG),A
 200+ 72FD C3 41 74             JP USPO
 201+ 7300              ;-------
 202+ 7300 CD C7 74     CAPSCHE CALL CAPS
 202+ 7303 C8            RET Z
 203+ 7304 01 F7 DF 3E          LD BC,#DFF7,A,#0C
 203+ 7308 0C
 203+ 7309 ED 79         OUT (C),A
 204+ 730B 06 BF                LD B,#BF
 205+ 730D 3A 5E 78             LD A,(CLST)
 205+ 7310 EE 01         XOR 1
 206+ 7312 32 5E 78             LD (CLST),A
 207+ 7315 CB 27                SLA A
 207+ 7317 ED 79         OUT (C),A
 208+ 7319 C9                   RET
 209+ 731A              ;-------
 210+ 731A 3A 60 78     INSOVR  LD A,(INOV)
 210+ 731D EE 01         XOR 1
 211+ 731F 32 60 78             LD (INOV),A
 212+ 7322 C9                   RET
 213+ 7323              ;-------
 214+ 7323 AF           IINIF   XOR A
 214+ 7324 25            DEC H
 214+ 7325 20 04         JR NZ,IINIf
 215+ 7327 DD 7E 05             LD A,(IX+5)
 215+ 732A 3D            DEC A
 216+ 732B 67 22 6B 78  IINIf   LD H,A,(IISP),HL
 217+ 732F C9                   RET
 218+ 7330
 219+ 7330 3A 5F 78     IREFR   LD A,(LANG)
 219+ 7333 B7            OR A
 220+ 7334 21 4B 78             LD HL,ISI1
 220+ 7337 28 03         JR Z,$+5
 220+ 7339 21 4E 78      LD HL,ISI2
 221+ 733C 11 39 78 01          LD DE,ISIL,BC,3
 221+ 7340 03 00
 221+ 7342 ED B0         LDIR
 222+ 7344
 223+ 7344 3A 60 78             LD A,(INOV)
 223+ 7347 B7            OR A
 224+ 7348 21 51 78             LD HL,ISI3
 224+ 734B 28 03         JR Z,$+5
 224+ 734D 21 54 78      LD HL,ISI4
 225+ 7350 11 3D 78 01          LD DE,ISII,BC,3
 225+ 7354 03 00
 225+ 7356 ED B0         LDIR
 226+ 7358
 227+ 7358 3A 5E 78             LD A,(CLST)
 227+ 735B B7            OR A
 228+ 735C 21 57 78             LD HL,ISI5
 228+ 735F 28 03         JR Z,$+5
 228+ 7361 21 5A 78      LD HL,ISI6
 229+ 7364 11 47 78 01          LD DE,ISIC,BC,3
 229+ 7368 03 00
 229+ 736A ED B0         LDIR
 230+ 736C
 231+ 736C 21 37 78 ED          LD HL,ISINF,DE,(IISP)
 231+ 7370 5B 6B 78
 231+ 7373 C3 E5 7D      JP TXTPR
 232+ 7376              ;-------
 233+ 7376 2A 67 78     IWRFR   LD HL,(ISAD)
 234+ 7379 ED 4B 63 78          LD BC,(IWOF)
 234+ 737D 09            ADD HL,BC
 235+ 737E ED 5B 61 78          LD DE,(IWAD)
 236+ 7382 3A 6A 78 06          LD A,(ICUP+1),B,0,C,A
 236+ 7386 00 4F
 236+ 7388 CD 89 7D      CALL PRSRW
 237+ 738B C9                   RET
 238+ 738C              ;-------
 239+ 738C CD 8B 74 C4  FCREF   CALL INS,NZ,INSOVR
 239+ 7390 1A 73
 240+ 7392 CD ED 72             CALL LNGCHE
 241+ 7395 CD 00 73             CALL CAPSCHE
 242+ 7398
 243+ 7398 3A 5F 78             LD A,(LANG)
 243+ 739B E6 03         AND %00000011
 244+ 739D 4F                   LD C,A
 245+ 739E 3A 60 78             LD A,(INOV)
 246+ 73A1 B7                   OR A
 246+ 73A2 28 02         JR Z,$+4
 246+ 73A4 CB F9         SET 7,C
 247+ 73A6 3A 5E 78             LD A,(CLST)
 248+ 73A9 B7                   OR A
 248+ 73AA 28 02         JR Z,$+4
 248+ 73AC CB F1         SET 6,C
 249+ 73AE 79                   LD A,C
 250+ 73AF C9                   RET
 251+ 73B0              ;---------------------------------------
 252+ 73B0              CLAvA   ;i:none
 253+ 73B0              ;        o: Z - no chars
 254+ 73B0              ;           A - char [a-z/A-Z;0-9]
 255+ 73B0              ;                    [а-я/А-Я;0-9]
 256+ 73B0              ;               also see TAIE1,TAIE2
 257+ 73B0              ;                        TAIR1,TAIR2
 258+ 73B0
 259+ 73B0 21 C9 76             LD HL,TAB+13
 260+ 73B3 7E                   LD A,(HL)
 260+ 73B4 23            INC HL
 260+ 73B5 B7            OR A
 260+ 73B6 28 FB         JR Z,$-3
 261+ 73B8 FE FF                CP #FF
 261+ 73BA C8            RET Z
 262+ 73BB
 263+ 73BB CD 32 75             CALL ARL
 263+ 73BE C8            RET Z
 263+ 73BF 7E            LD A,(HL)
 264+ 73C0
 265+ 73C0 21 D6 76 06          LD HL,TAI0,B,SCANS
 265+ 73C4 33
 266+ 73C5 BE           AvA     CP (HL)
 266+ 73C6 28 05         JR Z,CLA
 266+ 73C8 23            INC HL
 267+ 73C9 10 FA                DJNZ AvA
 268+ 73CB AF                   XOR A
 269+ 73CC C9                   RET
 270+ 73CD 01 2A 89     CLA     LD BC,0-TAI0
 270+ 73D0 09            ADD HL,BC
 271+ 73D1
 272+ 73D1 AF                   XOR A
 272+ 73D2 32 5D 78      LD (CLTT),A
 273+ 73D5 3A 5E 78             LD A,(CLST)
 273+ 73D8 B7            OR A
 273+ 73D9 20 24         JR NZ,SHIT
 274+ 73DB 3A 5F 78     NOSHI   LD A,(LANG)
 275+ 73DE 01 41 77             LD BC,TAIE1
 276+ 73E1 B7                   OR A
 276+ 73E2 28 03         JR Z,$+5
 276+ 73E4 01 CC 77      LD BC,TAIR1
 277+ 73E7 09                   ADD HL,BC
 278+ 73E8 E5                   PUSH HL
 278+ 73E9 CD D3 74      CALL SHIFT
 279+ 73EC E1                   POP HL
 279+ 73ED 0E 00         LD C,0
 279+ 73EF 28 01         JR Z,$+3
 279+ 73F1 0C            INC C
 280+ 73F2 3A 5D 78             LD A,(CLTT)
 280+ 73F5 A9            XOR C
 280+ 73F6 28 04         JR Z,NOSH
 281+ 73F8 01 33 00             LD BC,SCANS
 281+ 73FB 09            ADD HL,BC
 282+ 73FC 7E           NOSH    LD A,(HL)
 283+ 73FD B7                   OR A
 284+ 73FE C9                   RET
 285+ 73FF              ;-------
 286+ 73FF 3A 5F 78     SHIT    LD A,(LANG)
 287+ 7402 01 A7 77             LD BC,TAIE0
 288+ 7405 B7                   OR A
 288+ 7406 28 03         JR Z,$+5
 288+ 7408 01 BD 77      LD BC,TAIR0
 289+ 740B CD 17 74             CALL TAIZ
 289+ 740E 20 CB         JR NZ,NOSHI
 290+ 7410 3E 01 32 5D          LD A,1,(CLTT),A
 290+ 7414 78
 291+ 7415 18 C4                JR NOSHI
 292+ 7417              ;-------
 293+ 7417 0A           TAIZ    LD A,(BC)
 293+ 7418 03            INC BC
 294+ 7419 FE FF                CP #FF
 294+ 741B C8            RET Z
 295+ 741C BD                   CP L
 295+ 741D 20 F8         JR NZ,TAIZ
 296+ 741F 3C                   INC A
 297+ 7420 C9                   RET
 298+ 7421
 299+ 7421              ;---------------------------------------
 300+ 7421              CLAVA   ;i:none
 301+ 7421              ;        o: Z - no chars
 302+ 7421              ;           A - char [a-z;0-9]
 303+ 7421              ;               also see TAIE1 table
 304+ 7421
 305+ 7421 CD FE 74             CALL ART
 305+ 7424 C8            RET Z
 306+ 7425
 307+ 7425 21 D6 76 06          LD HL,TAI0,B,SCANS
 307+ 7429 33
 308+ 742A BE           AVA     CP (HL)
 308+ 742B 28 05         JR Z,ClA
 308+ 742D 23            INC HL
 309+ 742E 10 FA                DJNZ AVA
 310+ 7430 AF                   XOR A
 311+ 7431 C9                   RET
 312+ 7432 01 33 00     ClA     LD BC,SCANS
 312+ 7435 09            ADD HL,BC
 313+ 7436 7E                   LD A,(HL)
 313+ 7437 B7            OR A
 314+ 7438 C9                   RET
 315+ 7439              ;---------------------------------------
 316+ 7439 FB           NUSP    EI
 316+ 743A 76            HALT
 317+ 743B CD 60 75             CALL ANYK
 317+ 743E C0            RET NZ
 318+ 743F 18 F8                JR NUSP
 319+ 7441 FB           USPO    EI
 319+ 7442 76            HALT
 320+ 7443 CD 60 75             CALL ANYK
 320+ 7446 C8            RET Z
 321+ 7447 18 F8                JR USPO
 322+ 7449              ;---------------------------------------
 323+ 7449 21 C1 76     UPPP    LD HL,BUP
 323+ 744C C3 3D 75      JP ARC;UP
 324+ 744F 21 C3 76     DWWW    LD HL,BDN
 324+ 7452 C3 3D 75      JP ARC;DOWN
 325+ 7455 21 C2 76     LFFF    LD HL,BLF
 325+ 7458 C3 3D 75      JP ARC;LEFT
 326+ 745B 21 C4 76     RGGG    LD HL,BRG
 326+ 745E C3 3D 75      JP ARC;RIGHT
 327+ 7461 21 C6 76     PGU     LD HL,BPU
 327+ 7464 C3 3D 75      JP ARC;pgUP
 328+ 7467 21 C8 76     PGD     LD HL,BPD
 328+ 746A C3 3D 75      JP ARC;pgDN
 329+ 746D
 330+ 746D 3E 5A        ENKE    LD A,#5A
 330+ 746F C3 32 75      JP ARL; ENTER
 331+ 7472 3E 29        SPKE    LD A,#29
 331+ 7474 C3 32 75      JP ARL; SPACE
 332+ 7477 3E 66        BSPC    LD A,#66
 332+ 7479 C3 32 75      JP ARL; BACKSPACE
 333+ 747C 3E 6C        HOME    LD A,#6C
 333+ 747E C3 32 75      JP ARL; HOME
 334+ 7481 3E 69        END     LD A,#69
 334+ 7483 C3 32 75      JP ARL; END
 335+ 7486 3E 71        DELE    LD A,#71
 335+ 7488 C3 32 75      JP ARL; DELETE
 336+ 748B 3E 70        INS     LD A,#70
 336+ 748D C3 32 75      JP ARL; INSERT
 337+ 7490
 338+ 7490 3E 76        ESC     LD A,#76
 338+ 7492 C3 F6 74      JP AR2
 339+ 7495 3E 05        F1      LD A,#05
 339+ 7497 C3 F6 74      JP AR2
 340+ 749A 3E 06        F2      LD A,#06
 340+ 749C C3 F6 74      JP AR2
 341+ 749F 3E 04        F3      LD A,#04
 341+ 74A1 C3 F6 74      JP AR2
 342+ 74A4 3E 0C        F4      LD A,#0C
 342+ 74A6 C3 F6 74      JP AR2
 343+ 74A9 3E 03        F5      LD A,#03
 343+ 74AB C3 F6 74      JP AR2
 344+ 74AE 3E 0B        F6      LD A,#0B
 344+ 74B0 C3 F6 74      JP AR2
 345+ 74B3 3E 83        F7      LD A,#83
 345+ 74B5 C3 F6 74      JP AR2
 346+ 74B8 3E 0A        F8      LD A,#0A
 346+ 74BA C3 F6 74      JP AR2
 347+ 74BD 3E 01        F9      LD A,#01
 347+ 74BF C3 F6 74      JP AR2
 348+ 74C2 3E 09        F10     LD A,#09
 348+ 74C4 C3 F6 74      JP AR2
 349+ 74C7
 350+ 74C7 21 BD 76     CAPS    LD HL,BCA
 350+ 74CA C3 3D 75      JP ARC;CAPS LOCK
 351+ 74CD 21 C5 76     ALT     LD HL,BHM
 351+ 74D0 C3 5B 75      JP ARG
 352+ 74D3 21 BE 76     SHIFT   LD HL,BCS
 352+ 74D6 C3 5B 75      JP ARG
 353+ 74D9 21 BF 76     CTRL    LD HL,BSS
 353+ 74DC C3 5B 75      JP ARG
 354+ 74DF 21 BC 76     TABK    LD HL,TAB
 354+ 74E2 C3 3D 75      JP ARC
 355+ 74E5
 356+ 74E5 3E 5A 21 C9  ENK2    LD A,#5A,HL,TAB+13
 356+ 74E9 76
 356+ 74EA 18 05         JR II
 357+ 74EC 3E 76 21 C0  ESC2    LD A,#76,HL,TAB+4
 357+ 74F0 76
 358+ 74F1 BE           II      CP (HL)
 358+ 74F2 20 08         JR NZ,ArL
 359+ 74F4 18 5F                JR AC
 360+ 74F6              ;-------
 361+ 74F6 21 C0 76     AR2     LD HL,TAB+4
 362+ 74F9 BE                   CP (HL)
 362+ 74FA 28 41         JR Z,ARC
 363+ 74FC AF           ArL     XOR A
 364+ 74FD C9                   RET
 365+ 74FE              ;-------
 366+ 74FE 21 C9 76     ART     LD HL,TAB+13
 367+ 7501 7E                   LD A,(HL)
 367+ 7502 23            INC HL
 367+ 7503 B7            OR A
 367+ 7504 28 FB         JR Z,$-3
 368+ 7506 22 FF 74             LD (ART+1),HL
 369+ 7509 2B                   DEC HL
 369+ 750A FE FF         CP #FF
 369+ 750C 28 1D         JR Z,BKZ
 370+ 750E
 371+ 750E 7E           ARc     LD A,(HL)
 371+ 750F B7            OR A
 371+ 7510 C8            RET Z
 372+ 7511
 373+ 7511 3A D4 76             LD A,(ARK)
 373+ 7514 BE            CP (HL)
 373+ 7515 20 0F         JR NZ,ACZ
 374+ 7517 3A D3 76             LD A,(ARR)
 375+ 751A B7                   OR A
 375+ 751B 28 09         JR Z,ACZ
 376+ 751D FE FF                CP #FF
 376+ 751F 20 08         JR NZ,ArCZ
 377+ 7521 3E 19 32 D3          LD A,RPT,(ARR),A
 377+ 7525 76
 378+ 7526 7E           ACZ     LD A,(HL)
 379+ 7527 B7                   OR A
 380+ 7528 C9                   RET
 381+ 7529 AF           ArCZ    XOR A
 382+ 752A C9                   RET
 383+ 752B 21 C9 76 22  BKZ     LD HL,TAB+13,(ART+1),HL
 383+ 752F FF 74
 383+ 7531 C9            RET
 384+ 7532              ;-------
 385+ 7532 21 C9 76 01  ARL     LD HL,TAB+13,BC,7
 385+ 7536 07 00
 386+ 7538 ED B1                CPIR
 386+ 753A 20 C0         JR NZ,ArL
 386+ 753C 2B            DEC HL
 387+ 753D              ;-------
 388+ 753D 7E           ARC     LD A,(HL)
 388+ 753E B7            OR A
 388+ 753F C8            RET Z
 389+ 7540 3A D4 76             LD A,(ARK)
 389+ 7543 BE            CP (HL)
 389+ 7544 20 13         JR NZ,ArC
 390+ 7546 3A D3 76             LD A,(ARR)
 391+ 7549 B7                   OR A
 391+ 754A 28 09         JR Z,AC
 392+ 754C FE FF                CP #FF
 392+ 754E 20 09         JR NZ,ArC
 393+ 7550 3E 19 32 D3          LD A,RPT,(ARR),A
 393+ 7554 76
 394+ 7555 3E 01        AC      LD A,1
 394+ 7557 B7            OR A
 395+ 7558 C9                   RET
 396+ 7559 AF           ArC     XOR A
 397+ 755A C9                   RET
 398+ 755B              ;-------
 399+ 755B 7E           ARG     LD A,(HL)
 399+ 755C B7            OR A
 399+ 755D C8            RET Z
 400+ 755E 18 F5                JR AC
 401+ 7560              ;-------
 402+ 7560 21 BC 76 06  ANYK    LD HL,TAB,B,20
 402+ 7564 14
 403+ 7565 AF                   XOR A
 403+ 7566 BE            CP (HL)
 403+ 7567 20 04         JR NZ,NYK
 403+ 7569 23            INC HL
 403+ 756A 10 FA         DJNZ $-4
 404+ 756C C9                   RET
 405+ 756D 3E 19 32 D3  NYK     LD A,RPT,(ARR),A
 405+ 7571 76
 406+ 7572 C9                   RET
 407+ 7573              ;---------------------------------------
 408+ 7573 21 C9 76 01  ALM     LD HL,TAB+13,BC,7
 408+ 7577 07 00
 409+ 7579 ED B1                CPIR
 409+ 757B C8            RET Z
 410+ 757C
 411+ 757C 5F                   LD E,A
 412+ 757D AF                   XOR A
 413+ 757E 21 C9 76 01          LD HL,TAB+13,BC,7
 413+ 7582 07 00
 414+ 7584 ED B1                CPIR
 414+ 7586 C0            RET NZ
 414+ 7587 2B            DEC HL
 415+ 7588
 416+ 7588 73                   LD (HL),E
 417+ 7589 DD 73 18             LD (IX+24),E
 418+ 758C DD 36 17 FF          LD (IX+23),#FF
 419+ 7590 C9                   RET
 420+ 7591              ;---------------------------------------
 421+ 7591 01 F7 DF 3E  OVER    LD BC,#DFF7,A,#0C
 421+ 7595 0C
 421+ 7596 ED 79         OUT (C),A
 422+ 7598 01 F7 BF 3E          LD BC,#BFF7,A,#01
 422+ 759C 01
 422+ 759D ED 79         OUT (C),A
 423+ 759F 01 F7 DF 3E          LD BC,#DFF7,A,#F0
 423+ 75A3 F0
 423+ 75A4 ED 79         OUT (C),A
 424+ 75A6
 425+ 75A6 AF                   XOR A
 426+ 75A7 32 D5 76             LD (E0F),A
 427+ 75AA 21 BC 76             LD HL,TAB
 428+ 75AD 06 14 77             LD B,20,(HL),A
 428+ 75B0 23            INC HL
 428+ 75B1 10 FC         DJNZ $-2
 429+ 75B3 3E 01                LD A,1
 429+ 75B5 B7            OR A
 430+ 75B6 C9                   RET
 431+ 75B7 32 C5 76     K9      LD (BHM),A
 432+ 75BA C9                   RET
 433+ 75BB              ;---------------------------------------
 434+ 75BB 32 D5 76     E0Psd   LD (E0F),A
 434+ 75BE 18 1B         JR Psd
 435+ 75C0
 436+ 75C0              ;GET SCAN CODE:
 437+ 75C0 DD 21 BC 76  PSD2    LD IX,TAB
 438+ 75C4
 439+ 75C4 DD 7E 17             LD A,(IX+23)
 440+ 75C7 B7                   OR A
 440+ 75C8 28 07         JR Z,PSD
 441+ 75CA FE FF                CP #FF
 441+ 75CC 28 03         JR Z,PSD
 442+ 75CE DD 35 17             DEC (IX+23)
 443+ 75D1
 444+ 75D1 01 F7 DF 3E  PSD     LD BC,#DFF7,A,#F0
 444+ 75D5 F0
 444+ 75D6 ED 79         OUT (C),A
 445+ 75D8
 446+ 75D8 01 F7 BF             LD BC,#BFF7
 447+ 75DB ED 78        Psd     IN A,(C)
 448+ 75DD B7                   OR A
 448+ 75DE C8            RET Z
 449+ 75DF FE E0                CP #E0
 449+ 75E1 28 D8         JR Z,E0Psd
 450+ 75E3 FE F0                CP #F0
 450+ 75E5 CA 8D 76      JP Z,KOF
 451+ 75E8 FE FF                CP #FF
 451+ 75EA 28 A5         JR Z,OVER
 452+ 75EC
 453+ 75EC CA 92 76     BAT     JP Z,KoF;JP/JP Z,
 454+ 75EF              ;-------
 455+ 75EF 4F                   LD C,A
 456+ 75F0 3A D5 76             LD A,(E0F)
 456+ 75F3 B7            OR A
 456+ 75F4 DD 36 19 00   LD (IX+25),0
 457+ 75F8 79                   LD A,C
 457+ 75F9 28 06         JR Z,NOe0
 458+ 75FB FE 12                CP #12
 458+ 75FD C8            RET Z
 459+ 75FE FE 59                CP #59
 459+ 7600 C8            RET Z
 460+ 7601 FE 12        NOe0    CP #12
 460+ 7603 28 4D         JR Z,K2;LSHIFT
 461+ 7605 FE 59                CP #59
 461+ 7607 28 49         JR Z,K2;RSHIFT
 462+ 7609
 463+ 7609 FE 11                CP #11
 463+ 760B 28 AA         JR Z,K9;ALT
 464+ 760D FE 0D                CP #0D
 464+ 760F 28 37         JR Z,K0;TAB
 465+ 7611 FE 58                CP #58
 465+ 7613 28 38         JR Z,K1;CAPS
 466+ 7615 FE 14                CP #14
 466+ 7617 28 3E         JR Z,K3;CTRL
 467+ 7619
 468+ 7619 FE 0D                CP #0D
 468+ 761B 38 3F         JR C,K4
 469+ 761D FE 76                CP #76
 469+ 761F 28 3B         JR Z,K4;ESC
 470+ 7621 FE 78                CP #78
 470+ 7623 28 37         JR Z,K4;F11
 471+ 7625 FE 83                CP #83
 471+ 7627 28 33         JR Z,K4;F7
 472+ 7629
 473+ 7629 FE 75                CP #75
 473+ 762B 28 34         JR Z,K5;U
 474+ 762D FE 6B                CP #6B
 474+ 762F 28 35         JR Z,K6;L
 475+ 7631 FE 72                CP #72
 475+ 7633 28 36         JR Z,K7;D
 476+ 7635 FE 74                CP #74
 476+ 7637 28 37         JR Z,K8;R
 477+ 7639
 478+ 7639 FE 7D                CP #7D
 478+ 763B 28 38         JR Z,KA;PGup
 479+ 763D FE 7A                CP #7A
 479+ 763F 28 3E         JR Z,KC;PGdn
 480+ 7641
 481+ 7641 FE 77                CP #77
 481+ 7643 28 35         JR Z,KB;NUML
 482+ 7645 C3 73 75             JP ALM
 483+ 7648              ;-------
 484+ 7648 21 BC 76     K0      LD HL,TAB+0
 484+ 764B 18 35         JR KFF
 485+ 764D 21 BD 76     K1      LD HL,TAB+1
 485+ 7650 18 30         JR KFF
 486+ 7652 21 BE 76     K2      LD HL,TAB+2
 486+ 7655 18 2B         JR KFF
 487+ 7657 21 BF 76     K3      LD HL,TAB+3
 487+ 765A 18 26         JR KFF
 488+ 765C 21 C0 76     K4      LD HL,TAB+4
 488+ 765F 18 21         JR KFF
 489+ 7661 21 C1 76     K5      LD HL,TAB+5
 489+ 7664 18 1C         JR KFF
 490+ 7666 21 C2 76     K6      LD HL,TAB+6
 490+ 7669 18 17         JR KFF
 491+ 766B 21 C3 76     K7      LD HL,TAB+7
 491+ 766E 18 12         JR KFF
 492+ 7670 21 C4 76     K8      LD HL,TAB+8
 492+ 7673 18 0D         JR KFF
 493+ 7675 21 C6 76     KA      LD HL,TAB+10
 493+ 7678 18 08         JR KFF
 494+ 767A 21 C7 76     KB      LD HL,TAB+11
 494+ 767D 18 03         JR KFF
 495+ 767F 21 C8 76     KC      LD HL,TAB+12
 496+ 7682              ;-------
 497+ 7682 BE           KFF     CP (HL)
 497+ 7683 C8            RET Z
 498+ 7684 77                   LD (HL),A
 499+ 7685 32 D4 76             LD (ARK),A
 500+ 7688 DD 36 17 FF          LD (IX+23),#FF
 501+ 768C C9                   RET
 502+ 768D              ;-------
 503+ 768D ED 78        KOF     IN A,(C);                   BC=#BFF7
 504+ 768F B7                   OR A
 504+ 7690 28 24         JR Z,EBU
 505+ 7692 4F           KoF     LD C,A
 506+ 7693 3E CA 32 EC          LD A,#CA,(BAT),A
 506+ 7697 75
 507+ 7698
 508+ 7698 3A D5 76             LD A,(E0F)
 508+ 769B B7            OR A
 508+ 769C DD 36 19 00   LD (IX+25),0
 509+ 76A0 79                   LD A,C
 509+ 76A1 28 06         JR Z,NOE0
 510+ 76A3 FE 12                CP #12
 510+ 76A5 C8            RET Z
 511+ 76A6 FE 59                CP #59
 511+ 76A8 C8            RET Z
 512+ 76A9
 513+ 76A9 21 BC 76 01  NOE0    LD HL,TAB,BC,20
 513+ 76AD 14 00
 514+ 76AF ED B1                CPIR
 514+ 76B1 C0            RET NZ
 514+ 76B2 2B            DEC HL
 515+ 76B3 36 00                LD (HL),0
 516+ 76B5 C9                   RET
 517+ 76B6
 518+ 76B6 3E C3 32 EC  EBU     LD A,#C3,(BAT),A
 518+ 76BA 75
 518+ 76BB C9            RET
 519+ 76BC              ;-------
 520+ 76BC 00           TAB     DS 1;  +0  TAB
 521+ 76BD 00                   DS 1;  +1  CASP LOCK
 522+ 76BE 00                   DS 1;  +2  SHIFT
 523+ 76BF 00                   DS 1;  +3  CTRL
 524+ 76C0 00                   DS 1;  +4  F1-F12,ESC
 525+ 76C1 00 00 00 00          DS 4;  +5  CURSOR KEYZ
 526+ 76C5 00 00 00 00          DS 4;  +9  ALT,pgUP,NUML,pgDN
 527+ 76C9 00 00 00...          DS 7;  +13 oth KEYZ
 528+ 76D0 FF                   DB #FF
 529+ 76D1 00                   NOP ;+21 NXF
 530+ 76D2 00                   NOP ;+22 WIN
 531+ 76D3 00           ARR     NOP ;+23 AR
 532+ 76D4 00           ARK     NOP ;+24 LST KEY
 533+ 76D5 00           E0F     NOP ;+25 E0 Prefx
 534+ 76D6              ;-------
 535+ 76D6 40 30 45 31  TAI0    DB "@0E161E26252E363D3E46454E55"
 535+ 76DA 36 31 45 32
 535+ 76DE 36 32 35 32
 535+ 76E2 45 33 36 33
 535+ 76E6 44 33 45 34
 535+ 76EA 36 34 35 34
 535+ 76EE 45 35 35
 536+ 76F1 40 31 35 31          DB "@151D242D2C353C43444D545B5D"
 536+ 76F5 44 32 34 32
 536+ 76F9 44 32 43 33
 536+ 76FD 35 33 43 34
 536+ 7701 33 34 34 34
 536+ 7705 44 35 34 35
 536+ 7709 42 35 44
 537+ 770C 40 31 43 31          DB "@1C1B232B34333B424B4C52"
 537+ 7710 42 32 33 32
 537+ 7714 42 33 34 33
 537+ 7718 33 33 42 34
 537+ 771C 32 34 42 34
 537+ 7720 43 35 32
 538+ 7723 40 31 41 32          DB "@1A22212A32313A41494A29"
 538+ 7727 32 32 31 32
 538+ 772B 41 33 32 33
 538+ 772F 31 33 41 34
 538+ 7733 31 34 39 34
 538+ 7737 41 32 39
 539+ 773A 40 37 39 37          DB "@797B7C"
 539+ 773E 42 37 43
 540+ 7741              ;-------
 541+ 7741 27 31 32 33  TAIE1   DB #27,"1234567890-="
 541+ 7745 34 35 36 37
 541+ 7749 38 39 30 2D
 541+ 774D 3D
 542+ 774E 71 77 65 72          DB "qwertyuiop[]\\"
 542+ 7752 74 79 75 69
 542+ 7756 6F 70 5B 5D
 542+ 775A 5C
 543+ 775B 61 73 64 66          DB "asdfghjkl;'"
 543+ 775F 67 68 6A 6B
 543+ 7763 6C 3B 27
 544+ 7766 7A 78 63 76          DB "zxcvbnm,./ +-*"
 544+ 776A 62 6E 6D 2C
 544+ 776E 2E 2F 20 2B
 544+ 7772 2D 2A
 545+ 7774 7E 21 40 23  TAIE2   DB #7E,"!@#$%^&*()_+"
 545+ 7778 24 25 5E 26
 545+ 777C 2A 28 29 5F
 545+ 7780 2B
 546+ 7781 51 57 45 52          DB "QWERTYUIOP{}|"
 546+ 7785 54 59 55 49
 546+ 7789 4F 50 7B 7D
 546+ 778D 7C
 547+ 778E 41 53 44 46          DB "ASDFGHJKL:",#22
 547+ 7792 47 48 4A 4B
 547+ 7796 4C 3A 22
 548+ 7799 5A 58 43 56          DB "ZXCVBNM<>? +-*"
 548+ 779D 42 4E 4D 3C
 548+ 77A1 3E 3F 20 2B
 548+ 77A5 2D 2A
 549+ 77A7
 550+ 77A7 00 01 02 03  TAIE0   DB 0,1,2,3,4,5,6,7,8,9,10,11,12
 550+ 77AB 04 05 06 07
 550+ 77AF 08 09 0A 0B
 550+ 77B3 0C
 551+ 77B4 17 18 19 23          DB 23,24,25,35,36,44,45,46,#FF
 551+ 77B8 24 2C 2D 2E
 551+ 77BC FF
 552+ 77BD 01 02 03 04  TAIR0   DB 1,2,3,4,5,6,7,8,9,10,11,12
 552+ 77C1 05 06 07 08
 552+ 77C5 09 0A 0B 0C
 553+ 77C9 19 2E FF             DB 25,46,#FF
 554+ 77CC
 555+ 77CC F1 31 32 33  TAIR1   DB #F1,"1234567890-="
 555+ 77D0 34 35 36 37
 555+ 77D4 38 39 30 2D
 555+ 77D8 3D
 556+ 77D9 A9 E6 E3 AA          DB #A9,#E6,#E3,#AA,#A5,#AD,#A3,#E8,#E9,#A7,#E5,#EA,"\\"
 556+ 77DD A5 AD A3 E8
 556+ 77E1 E9 A7 E5 EA
 556+ 77E5 5C
 557+ 77E6 E4 EB A2 A0          DB #E4,#EB,#A2,#A0,#AF,#E0,#AE,#AB,#A4,#A6,#ED
 557+ 77EA AF E0 AE AB
 557+ 77EE A4 A6 ED
 558+ 77F1 EF E7 E1 AC          DB #EF,#E7,#E1,#AC,#A8,#E2,#EC,#A1,#EE,". +-*"
 558+ 77F5 A8 E2 EC A1
 558+ 77F9 EE 2E 20 2B
 558+ 77FD 2D 2A
 559+ 77FF F0 40 32 31  TAIR2   DB #F0,"@2122FB3B","%:?*()_+"
 559+ 7803 32 32 46 42
 559+ 7807 33 42 25 3A
 559+ 780B 3F 2A 28 29
 559+ 780F 5F 2B
 560+ 7811 89 96 93 8A          DB #89,#96,#93,#8A,#85,#8D,#83,#98,#99,#87,#95,#9A,"/"
 560+ 7815 85 8D 83 98
 560+ 7819 99 87 95 9A
 560+ 781D 2F
 561+ 781E 94 9B 82 80          DB #94,#9B,#82,#80,#8F,#90,#8E,#8B,#84,#86,#9D
 561+ 7822 8F 90 8E 8B
 561+ 7826 84 86 9D
 562+ 7829 9F 97 91 8C          DB #9F,#97,#91,#8C,#88,#92,#9C,#81,#9E,", +-*"
 562+ 782D 88 92 9C 81
 562+ 7831 9E 2C 20 2B
 562+ 7835 2D 2A
 563+ 7837              ;-------
 564+ 7837 09 0E        ISINF   DB #09,#0E
 565+ 7839 45 4E 47     ISIL    DB "ENG"
 566+ 783C 2F                   DB #2F
 567+ 783D 49 4E 53     ISII    DB "INS"
 568+ 7840 0B 01 43 41          DB #0B,1,"CAPS:"
 568+ 7844 50 53 3A
 569+ 7847 4F 46 46     ISIC    DB "OFF"
 570+ 784A 00                   DB 0
 571+ 784B
 572+ 784B 45 4E 47     ISI1    DB "ENG"
 573+ 784E 52 55 53     ISI2    DB "RUS"
 574+ 7851 49 4E 53     ISI3    DB "INS"
 575+ 7854 4F 56 52     ISI4    DB "OVR"
 576+ 7857 4F 46 46     ISI5    DB "OFF"
 577+ 785A 4F 4E 20     ISI6    DB "ON "
 578+ 785D              ;-------
 579+ 785D 00           CLTT    NOP ;TEMP
 580+ 785E 00           CLST    NOP ;0-LOW, 1-HI
 581+ 785F 00           LANG    NOP ;0-ENG, 1-RUS
 582+ 7860 00           INOV    NOP ;0-INSERT, 1-OVER
 583+ 7861
 584+ 7861 00 00        IWAD    DS 2
 585+ 7863 00 00        IWOF    DS 2
 586+ 7865 00 00        IBSZ    DS 2
 587+ 7867 00 00        ISAD    DS 2
 588+ 7869 00           ICUP    NOP ;\
 589+ 786A 00                   NOP ;/
 590+ 786B 00 00        IISP    DS 2
 591+ 786D              ;-------
 592+ 786D              BCA     EQU TAB+1
 593+ 786D              BCS     EQU TAB+2
 594+ 786D              BSS     EQU TAB+3
 595+ 786D              BFS     EQU TAB+4
 596+ 786D
 597+ 786D              BUP     EQU TAB+5
 598+ 786D              BLF     EQU TAB+6
 599+ 786D              BDN     EQU TAB+7
 600+ 786D              BRG     EQU TAB+8
 601+ 786D
 602+ 786D              BHM     EQU TAB+9
 603+ 786D              BPU     EQU TAB+10
 604+ 786D              BED     EQU TAB+11
 605+ 786D              BPD     EQU TAB+12
 606+ 786D              BAL     EQU TAB+13
 607+ 786D              ;---------------------------------------
 608+ 786D
# file closed: PS2P.ASM
1645  786D                      INCLUDE "WCIF.ASM"
# file opened: WCIF.ASM
   1+ 786D              ;---------------------------------------
   2+ 786D              PBY     EQU 1
   3+ 786D              PBUP    EQU #DC;DC
   4+ 786D              PBDN    EQU #F6;DF
   5+ 786D              PBDN2   EQU #DF;#F6;#F5;DB
   6+ 786D              ;-------
   7+ 786D              PBINIT  ;i: IX - SOW
   8+ 786D              ;           DE - Count
   9+ 786D
  10+ 786D ED 53 B2 78          LD (PBCNT),DE
  11+ 7871 7A                   LD A,D
  11+ 7872 B3            OR E
  11+ 7873 C8            RET Z
  12+ 7874
  13+ 7874 DD 7E 0A             LD A,(IX+10)
  14+ 7877 B7                   OR A
  14+ 7878 3E F6         LD A,PBDN
  15+ 787A 20 02                JR NZ,$+4
  15+ 787C 3E DF         LD A,PBDN2
  16+ 787E 32 E1 78             LD (PBDNX),A
  17+ 7881 DD 7E 05             LD A,(IX+5);Height
  18+ 7884 DD 96 0A             SUB (IX+10);Line1
  19+ 7887 D6 03                SUB PBY+1+2-1
  20+ 7889
  21+ 7889 32 C2 78             LD (PBH),A;PB Height (full)
  22+ 788C 06 00                LD B,0
  23+ 788E 26 00 6F             LD H,0,L,A
  24+ 7891 04           DPD     INC B
  24+ 7892 B7            OR A
  24+ 7893 ED 52         SBC HL,DE
  25+ 7895 28 02 30 F8          JR Z,PDP,NC,DPD
  26+ 7899 32 A9 78     PDP     LD (PBHX),A;PB Height2
  27+ 789C 78 32 E4 78          LD A,B,(PBBH),A;BAR Height
  28+ 78A0 C9                   RET
  29+ 78A1
  30+ 78A1              PBPRINT ;i: IX - SOW
  31+ 78A1              ;           HL - globY
  32+ 78A1
  33+ 78A1 DD 5E 0C 16          LD E,(IX+12),D,0
  33+ 78A5 00
  33+ 78A6 1D            DEC E
  34+ 78A7 19                   ADD HL,DE;globY+Y
  35+ 78A8
  36+ 78A8 06 00                LD B,0
  37+ 78AA              PBHX    EQU $-1; PB Height2
  38+ 78AA EB                   EX DE,HL
  39+ 78AB              ;POZ*100%:
  40+ 78AB 21 00 00             LD HL,0
  40+ 78AE 19            ADD HL,DE
  40+ 78AF 10 FD         DJNZ $-1
  41+ 78B1              ;/count:
  42+ 78B1 11 00 00             LD DE,0;total objects (count)
  43+ 78B4              PBCNT   EQU $-2
  44+ 78B4 7A                   LD A,D
  44+ 78B5 B3            OR E
  44+ 78B6 C8            RET Z
  45+ 78B7 AF                   XOR A
  46+ 78B8 3C           PBCNTG  INC A
  46+ 78B9 ED 52         SBC HL,DE
  46+ 78BB 28 03         JR Z,PBCNTE
  47+ 78BD 30 F9                JR NC,PBCNTG
  48+ 78BF 3D                   DEC A
  49+ 78C0 4F           PBCNTE  LD C,A
  50+ 78C1
  51+ 78C1 06 00                LD B,0
  52+ 78C3              PBH     EQU $-1; PB Height
  53+ 78C3
  54+ 78C3 78                   LD A,B
  54+ 78C4 91            SUB C
  55+ 78C5 4F                   LD C,A
  56+ 78C6
  57+ 78C6 16 01                LD D,PBY;Y
  58+ 78C8 DD 5E 04             LD E,(IX+4)
  58+ 78CB 1D            DEC E;X=winW-1
  59+ 78CC CD A9 7D             CALL GADRW
  60+ 78CF
  61+ 78CF 36 DC                LD (HL),PBUP
  61+ 78D1 24            INC H
  62+ 78D2 11 DB B0             LD DE,#B0DB
  63+ 78D5 79                   LD A,C
  64+ 78D6 B8           PBHPR   CP B
  64+ 78D7 CC E3 78      CALL Z,PBBHGO
  64+ 78DA 28 04         JR Z,PBBHE
  65+ 78DC 72                   LD (HL),D
  65+ 78DD 24            INC H
  66+ 78DE 10 F6                DJNZ PBHPR
  67+ 78E0 36 F6        PBBHE   LD (HL),PBDN
  68+ 78E2              PBDNX   EQU $-1
  69+ 78E2 C9                   RET
  70+ 78E3
  71+ 78E3 3E 00        PBBHGO  LD A,0
  72+ 78E5              PBBH    EQU $-1; BAR Height
  73+ 78E5 73           PBBHG   LD (HL),E
  73+ 78E6 24            INC H
  74+ 78E7 05                   DEC B
  74+ 78E8 C8            RET Z
  75+ 78E9 3D                   DEC A
  75+ 78EA 20 F9         JR NZ,PBBHG
  76+ 78EC 78                   LD A,B
  76+ 78ED B7            OR A
  77+ 78EE 3E FF                LD A,#FF
  78+ 78F0 C9                   RET
  79+ 78F1              ;---------------------------------------
  80+ 78F1 DD CB 00 7E  WOWSHAD BIT 7,(IX+0)
  80+ 78F5 C8            RET Z
  81+ 78F6 CD 96 7B             CALL GPOZA
  82+ 78F9
  83+ 78F9 3A 81 7F 47          LD A,(WID),B,A
  84+ 78FD DD 7E 04             LD A,(IX+4)
  84+ 7900 FE 02         CP 2
  84+ 7902 D8            RET C
  85+ 7903 85                   ADD A,L
  85+ 7904 6F            LD L,A
  86+ 7905 B8                   CP B
  86+ 7906 D0            RET NC
  87+ 7907
  88+ 7907 CB FD                SET 7,L
  89+ 7909 DD 7E 05             LD A,(IX+5)
  89+ 790C FE 02         CP 2
  89+ 790E D8            RET C
  90+ 790F 47                   LD B,A
  91+ 7910 24           SHADOW1 INC H
  92+ 7911 7E                   LD A,(HL)
  93+ 7912 E6 00                AND %00000000
  94+ 7914              ;OR %00000001
  95+ 7914 77                   LD (HL),A
  95+ 7915 10 F9         DJNZ SHADOW1
  96+ 7917
  97+ 7917 DD 46 04             LD B,(IX+4)
  97+ 791A 05            DEC B
  98+ 791B 2D           SHADOW2 DEC L
  99+ 791C 7E                   LD A,(HL)
 100+ 791D E6 00                AND %00000000
 101+ 791F              ;OR %00000001
 102+ 791F 77                   LD (HL),A
 102+ 7920 10 F9         DJNZ SHADOW2
 103+ 7922 C9                   RET
 104+ 7923              ;---------------------------------------
 105+ 7923 DD CB 00 66  WOWHEAD BIT 4,(IX+0)
 105+ 7927 28 1B         JR Z,WOWhead
 106+ 7929 F5                   PUSH AF
 107+ 792A 07          > RLCA
 107+ 792B 07          > RLCA
 107+ 792C 07          > RLCA
 107+ 792D 07          > RLCA
 108+ 792E 32 94 7A 32          LD (AA0+1),A,(AA1+1),A
 108+ 7932 9C 7A
 109+ 7934 11 20 20 0E          LD DE,#2020,C,#20
 109+ 7938 20
 109+ 7939 CD 8D 7A      CALL FLL
 110+ 793C F1                   POP AF
 111+ 793D 32 94 7A 32          LD (AA0+1),A,(AA1+1),A
 111+ 7941 9C 7A
 112+ 7943 C9                   RET
 113+ 7944
 114+ 7944 32 94 7A 32  WOWhead LD (AA0+1),A,(AA1+1),A
 114+ 7948 9C 7A
 115+ 794A 11 BF DA 0E  WOWST1  LD DE,#DABF,C,#C4
 115+ 794E C4
 115+ 794F CD 8D 7A      CALL FLL
 116+ 7952 C9                   RET
 117+ 7953              ;---------------------------------------
 118+ 7953              WOWTPS  EQU 3
 119+ 7953 40 42 42 43  WOWST   DB "@BBC9CDBABAB6C7BCC8CD"
 119+ 7957 39 43 44 42
 119+ 795B 41 42 41 42
 119+ 795F 36 43 37 42
 119+ 7963 43 43 38 43
 119+ 7967 44
 120+ 7968 40 46 39 46          DB "@F9F8F7FFFEFBFAFDFC5F"
 120+ 796C 38 46 37 46
 120+ 7970 46 46 45 46
 120+ 7974 42 46 41 46
 120+ 7978 44 46 43 35
 120+ 797C 46
 121+ 797D 40 42 46 44          DB "@BFDAC4B3B3B4C3D9C0C4"
 121+ 7981 41 43 34 42
 121+ 7985 33 42 33 42
 121+ 7989 34 43 33 44
 121+ 798D 39 43 30 43
 121+ 7991 34
 122+ 7992
 123+ 7992              PRWOW   ;i:IX - Structure Of Window
 124+ 7992 06 03                LD B,WOWTPS
 125+ 7994 DD 7E 00             LD A,(IX+0)
 125+ 7997 E6 0F         AND %00001111
 126+ 7999 21 53 79 11          LD HL,WOWST,DE,10
 126+ 799D 0A 00
 127+ 799F 28 75        PRwow   JR Z,WOW
 128+ 79A1 3D                   DEC A
 128+ 79A2 28 3D         JR Z,WOW1
 129+ 79A4 3D                   DEC A
 129+ 79A5 28 05         JR Z,WOW2
 130+ 79A7 19                   ADD HL,DE
 131+ 79A8 3D                   DEC A
 131+ 79A9 10 F4         DJNZ PRwow
 132+ 79AB C9                   RET
 133+ 79AC
 134+ 79AC CD 16 7A     WOW2    CALL WOW
 135+ 79AF DD 7E 11             LD A,(IX+17)
 135+ 79B2 B7            OR A
 135+ 79B3 28 0A         JR Z,Hk1
 136+ 79B5 DD 6E 10             LD L,(IX+16)
 137+ 79B8 67                   LD H,A
 138+ 79B9 11 00 00             LD DE,0
 138+ 79BC CD E5 7D      CALL TXTPR
 139+ 79BF
 140+ 79BF DD 7E 13     Hk1     LD A,(IX+19)
 140+ 79C2 B7            OR A
 140+ 79C3 28 0D         JR Z,Hk2
 141+ 79C5 DD 6E 12             LD L,(IX+18)
 142+ 79C8 67                   LD H,A
 143+ 79C9 DD 56 05             LD D,(IX+5)
 143+ 79CC 15            DEC D
 144+ 79CD 1E 00                LD E,0
 144+ 79CF CD E5 7D      CALL TXTPR
 145+ 79D2
 146+ 79D2 DD 7E 15     Hk2     LD A,(IX+21)
 146+ 79D5 B7            OR A
 146+ 79D6 C8            RET Z
 147+ 79D7 DD 6E 14 67          LD L,(IX+20),H,A
 148+ 79DB 11 01 01             LD DE,#0101
 148+ 79DE C3 E5 7D      JP TXTPR
 149+ 79E1              ;-------
 150+ 79E1 CD 16 7A     WOW1    CALL WOW
 151+ 79E4 DD 7E 0D             LD A,(IX+13)
 151+ 79E7 B7            OR A
 151+ 79E8 28 0A         JR Z,HK1
 152+ 79EA DD 6E 0C 67          LD L,(IX+12),H,A
 153+ 79EE 11 00 00             LD DE,0
 153+ 79F1 CD E5 7D      CALL TXTPR
 154+ 79F4
 155+ 79F4 DD 7E 0F     HK1     LD A,(IX+15)
 155+ 79F7 B7            OR A
 155+ 79F8 28 0D         JR Z,HK2
 156+ 79FA DD 6E 0E 67          LD L,(IX+14),H,A
 157+ 79FE DD 56 05             LD D,(IX+5)
 157+ 7A01 15            DEC D
 158+ 7A02 1E 00                LD E,0
 158+ 7A04 CD E5 7D      CALL TXTPR
 159+ 7A07
 160+ 7A07 DD 7E 11     HK2     LD A,(IX+17)
 160+ 7A0A B7            OR A
 160+ 7A0B C8            RET Z
 161+ 7A0C DD 6E 10 67          LD L,(IX+16),H,A
 162+ 7A10 11 01 01             LD DE,#0101
 162+ 7A13 C3 E5 7D      JP TXTPR
 163+ 7A16              ;-------
 164+ 7A16 7E           WOW     LD A,(HL)
 164+ 7A17 23            INC HL
 164+ 7A18 32 4B 79      LD (WOWST1+1),A
 165+ 7A1B 7E                   LD A,(HL)
 165+ 7A1C 23            INC HL
 165+ 7A1D 32 4C 79      LD (WOWST1+2),A
 166+ 7A20 7E                   LD A,(HL)
 166+ 7A21 23            INC HL
 166+ 7A22 32 4E 79      LD (WOWST1+4),A
 167+ 7A25 7E                   LD A,(HL)
 167+ 7A26 23            INC HL
 167+ 7A27 32 60 7A      LD (WOWST2+1),A
 168+ 7A2A 7E                   LD A,(HL)
 168+ 7A2B 23            INC HL
 168+ 7A2C 32 61 7A      LD (WOWST2+2),A
 169+ 7A2F 7E                   LD A,(HL)
 169+ 7A30 23            INC HL
 169+ 7A31 32 82 7A      LD (WOWST3+1),A
 170+ 7A34 7E                   LD A,(HL)
 170+ 7A35 23            INC HL
 170+ 7A36 32 83 7A      LD (WOWST3+2),A
 171+ 7A39 7E                   LD A,(HL)
 171+ 7A3A 23            INC HL
 171+ 7A3B 32 75 7A      LD (OMS+1),A
 172+ 7A3E 7E                   LD A,(HL)
 172+ 7A3F 23            INC HL
 172+ 7A40 32 76 7A      LD (OMS+2),A
 173+ 7A43 7E                   LD A,(HL)
 173+ 7A44 23            INC HL
 173+ 7A45 32 78 7A      LD (OMS+4),A
 174+ 7A48
 175+ 7A48 CD A5 7A             CALL GRESB
 176+ 7A4B
 177+ 7A4B DD 7E 04             LD A,(IX+4)
 177+ 7A4E 3D            DEC A
 177+ 7A4F 32 8E 7A      LD (FLL+1),A
 178+ 7A52 DD 7E 06             LD A,(IX+6)
 179+ 7A55 CD 23 79             CALL WOWHEAD
 180+ 7A58
 181+ 7A58 DD 7E 05             LD A,(IX+5)
 181+ 7A5B D6 02         SUB 2
 181+ 7A5D 28 15         JR Z,OMS
 182+ 7A5F 11 B3 B3 0E  WOWST2  LD DE,#B3B3,C,#20
 182+ 7A63 20
 183+ 7A64 DD BE 0A     HE1     CP (IX+10)
 183+ 7A67 28 16         JR Z,HET
 184+ 7A69 DD BE 0B             CP (IX+11)
 184+ 7A6C 28 11         JR Z,HET
 185+ 7A6E CD 8D 7A             CALL FLL
 186+ 7A71 3D           LET     DEC A
 186+ 7A72 20 F0         JR NZ,HE1
 187+ 7A74
 188+ 7A74 11 D9 C0 0E  OMS     LD DE,#C0D9,C,#C4
 188+ 7A78 C4
 188+ 7A79 CD 8D 7A      CALL FLL
 189+ 7A7C C3 F1 78             JP WOWSHAD
 190+ 7A7F              ;-------
 191+ 7A7F D5 C5        HET     PUSH DE,BC
 192+ 7A81 11 B4 C3 0E  WOWST3  LD DE,#C3B4,C,#C4
 192+ 7A85 C4
 192+ 7A86 CD 8D 7A      CALL FLL
 193+ 7A89 C1 D1                POP BC,DE
 194+ 7A8B 18 E4                JR LET
 195+ 7A8D              ;---------------------------------------
 196+ 7A8D 06 00        FLL     LD B,0
 197+ 7A8F E5                   PUSH HL
 198+ 7A90 72                   LD (HL),D
 199+ 7A91 CB FD                SET 7,L
 200+ 7A93 36 00        AA0     LD (HL),0
 201+ 7A95 CB BD                RES 7,L
 202+ 7A97
 203+ 7A97 23           WE      INC HL
 203+ 7A98 71            LD (HL),C
 204+ 7A99 CB FD                SET 7,L
 205+ 7A9B 36 00        AA1     LD (HL),0
 206+ 7A9D CB BD                RES 7,L
 207+ 7A9F 10 F6                DJNZ WE
 208+ 7AA1
 209+ 7AA1 73                   LD (HL),E
 210+ 7AA2 E1                   POP HL
 211+ 7AA3 24                   INC H
 212+ 7AA4 C9                   RET
 213+ 7AA5              ;-------
 214+ 7AA5 DD 7E 04     GRESB   LD A,(IX+4)
 214+ 7AA8 B7            OR A
 214+ 7AA9 20 06         JR NZ,GRB_
 215+ 7AAB 3A 81 7F DD          LD A,(WID),(IX+4),A
 215+ 7AAF 77 04
 216+ 7AB1 DD 7E 05     GRB_    LD A,(IX+5)
 216+ 7AB4 B7            OR A
 216+ 7AB5 20 06         JR NZ,GRB
 217+ 7AB7 3A 0E 60 DD          LD A,(HEI),(IX+5),A
 217+ 7ABB 77 05
 218+ 7ABD
 219+ 7ABD DD 7E 02     GRB     LD A,(IX+2)
 219+ 7AC0 FE FF         CP 255
 219+ 7AC2 20 0B         JR NZ,NAC_
 220+ 7AC4 3A 81 7F             LD A,(WID)
 220+ 7AC7 DD 96 04      SUB (IX+4)
 220+ 7ACA CB 3F         SRL A
 221+ 7ACC DD 77 02             LD (IX+2),A
 222+ 7ACF DD 7E 03     NAC_    LD A,(IX+3)
 222+ 7AD2 FE FF         CP 255
 222+ 7AD4 20 0B         JR NZ,NAC
 223+ 7AD6 3A 0E 60             LD A,(HEI)
 223+ 7AD9 DD 96 05      SUB (IX+5)
 223+ 7ADC CB 3F         SRL A
 224+ 7ADE DD 77 03             LD (IX+3),A
 225+ 7AE1
 226+ 7AE1 CD 96 7B     NAC     CALL GPOZA
 227+ 7AE4 DD 7E 08             LD A,(IX+8)
 227+ 7AE7 DD B6 09      OR (IX+9)
 227+ 7AEA C0            RET NZ
 228+ 7AEB
 229+ 7AEB E5                   PUSH HL
 230+ 7AEC ED 5B 11 60          LD DE,(RSQBC)
 231+ 7AF0 DD 73 08             LD (IX+8),E
 232+ 7AF3 DD 72 09             LD (IX+9),D
 233+ 7AF6
 234+ 7AF6 DD 7E 04             LD A,(IX+4)
 235+ 7AF9 DD CB 00 7E          BIT 7,(IX+0)
 235+ 7AFD 28 01         JR Z,$+3
 235+ 7AFF 3C            INC A
 236+ 7B00 32 1C 7B 32          LD (He2a),A,(He2b),A
 236+ 7B04 23 7B
 237+ 7B06
 238+ 7B06 DD 7E 05             LD A,(IX+5)
 239+ 7B09 DD CB 00 7E          BIT 7,(IX+0)
 239+ 7B0D 28 01         JR Z,$+3
 239+ 7B0F 3C            INC A
 240+ 7B10
 241+ 7B10 08                   EXA
 242+ 7B11 3E 1D                LD A,RESB
 242+ 7B13 CD A9 68      CALL MNg8
 243+ 7B16 7D                   LD A,L
 244+ 7B17 08                   EXA
 245+ 7B18 06 00                LD B,0
 246+ 7B1A 08           HE2     EXA
 247+ 7B1B              He2a    EQU $+1
 247+ 7B1B 0E 00         LD C,0
 247+ 7B1D ED B0         LDIR
 247+ 7B1F 6F            LD L,A
 248+ 7B20 CB FD                SET 7,L
 249+ 7B22              He2b    EQU $+1
 249+ 7B22 0E 00         LD C,0
 249+ 7B24 ED B0         LDIR
 249+ 7B26 6F            LD L,A
 250+ 7B27 24                   INC H
 251+ 7B28 08                   EXA
 251+ 7B29 3D            DEC A
 251+ 7B2A 20 EE         JR NZ,HE2
 252+ 7B2C ED 53 11 60          LD (RSQBC),DE
 253+ 7B30 E1                   POP HL
 254+ 7B31 C3 A3 68             JP MNG8R
 255+ 7B34              ;-------
 256+ 7B34 CD 96 7B     RRESB   CALL GPOZA
 257+ 7B37 EB                   EX DE,HL
 258+ 7B38 DD 6E 08             LD L,(IX+8)
 259+ 7B3B DD 66 09             LD H,(IX+9)
 260+ 7B3E 7C                   LD A,H
 260+ 7B3F FE BF         CP high RSQB+#3F
 260+ 7B41 D0            RET NC
 260+ 7B42 B5            OR L
 260+ 7B43 C8            RET Z
 261+ 7B44
 262+ 7B44 E5                   PUSH HL
 263+ 7B45 DD 7E 04             LD A,(IX+4)
 264+ 7B48 DD CB 00 7E          BIT 7,(IX+0)
 264+ 7B4C 28 01         JR Z,$+3
 264+ 7B4E 3C            INC A
 265+ 7B4F 32 6B 7B 32          LD (He3a),A,(He3b),A
 265+ 7B53 72 7B
 266+ 7B55
 267+ 7B55 DD 7E 05             LD A,(IX+5)
 268+ 7B58 DD CB 00 7E          BIT 7,(IX+0)
 268+ 7B5C 28 01         JR Z,$+3
 268+ 7B5E 3C            INC A
 269+ 7B5F
 270+ 7B5F 08                   EXA
 271+ 7B60 3E 1D                LD A,RESB
 271+ 7B62 CD A9 68      CALL MNg8
 272+ 7B65 7B                   LD A,E
 273+ 7B66 08                   EXA
 274+ 7B67
 275+ 7B67 06 00                LD B,0
 276+ 7B69 08           HE3     EXA
 277+ 7B6A              He3a    EQU $+1
 277+ 7B6A 0E 00         LD C,0
 277+ 7B6C ED B0         LDIR
 277+ 7B6E 5F            LD E,A
 278+ 7B6F CB FB                SET 7,E
 279+ 7B71              He3b    EQU $+1
 279+ 7B71 0E 00         LD C,0
 279+ 7B73 ED B0         LDIR
 279+ 7B75 5F            LD E,A
 280+ 7B76 14                   INC D
 281+ 7B77 08                   EXA
 281+ 7B78 3D            DEC A
 281+ 7B79 20 EE         JR NZ,HE3
 282+ 7B7B C1                   POP BC
 283+ 7B7C
 284+ 7B7C EB                   EX DE,HL
 285+ 7B7D 2A 11 60             LD HL,(RSQBC)
 286+ 7B80 B7                   OR A
 286+ 7B81 ED 52         SBC HL,DE
 286+ 7B83 28 02         JR Z,XeT
 287+ 7B85              ;LD A,B,B,H,H,A
 288+ 7B85              ;LD A,C,C,L,L,A
 289+ 7B85              ;EX DE,HL
 290+ 7B85              ;LDIR
 291+ 7B85              ;LD BC,DE
 292+ 7B85 18 04                JR XET
 293+ 7B87
 294+ 7B87 ED 43 11 60  XeT     LD (RSQBC),BC
 295+ 7B8B CD A3 68     XET     CALL MNG8R
 296+ 7B8E AF                   XOR A
 297+ 7B8F DD 77 08             LD (IX+8),A
 298+ 7B92 DD 77 09             LD (IX+9),A
 299+ 7B95 C9                   RET
 300+ 7B96              ;-------
 301+ 7B96 AF           GPOZA   XOR A
 301+ 7B97 CD B6 68      CALL MNGC
 302+ 7B9A 21 00 C0             LD HL,#C000
 303+ 7B9D DD 7E 02             LD A,(IX+2)
 303+ 7BA0 85            ADD A,L
 303+ 7BA1 6F            LD L,A
 304+ 7BA2 DD 7E 03             LD A,(IX+3)
 304+ 7BA5 84            ADD A,H
 304+ 7BA6 67            LD H,A
 305+ 7BA7 C9                   RET
 306+ 7BA8              ;---------------------------------------
 307+ 7BA8 7C           SWDMA   LD A,H
 308+ 7BA9 B7                   OR A
 308+ 7BAA 28 4D         JR Z,WSDDN
 309+ 7BAC 3D                   DEC A
 309+ 7BAD 28 01         JR Z,WSDUP
 310+ 7BAF C9                   RET
 311+ 7BB0
 312+ 7BB0 CD 0C 7D     WSDUP   CALL DMAMTCH
 312+ 7BB3 DA 52 7C      JP C,NWSD
 313+ 7BB6
 314+ 7BB6 21 00 00             LD HL,#0000
 315+ 7BB9 DD 7E 02             LD A,(IX+2)
 315+ 7BBC 85 83         ADD A,L,A,E
 315+ 7BBE 6F            LD L,A
 316+ 7BBF DD 7E 03             LD A,(IX+3)
 316+ 7BC2 84 82         ADD A,H,A,D
 316+ 7BC4 67            LD H,A
 317+ 7BC5
 318+ 7BC5 50 59                LD DE,BC
 318+ 7BC7 15 15 1D      DEC D,D,E
 319+ 7BCA
 320+ 7BCA AF                   XOR A
 321+ 7BCB 01 AF 1D             LD BC,DMADL
 321+ 7BCE ED 69         OUT (C),L
 322+ 7BD0 06 1E                LD B,high DMADH
 322+ 7BD2 ED 61         OUT (C),H
 323+ 7BD4 06 1F                LD B,high DMADX
 323+ 7BD6 ED 79         OUT (C),A
 324+ 7BD8 06 1C                LD B,high DMASX
 324+ 7BDA ED 79         OUT (C),A
 324+ 7BDC 24            INC H
 325+ 7BDD
 326+ 7BDD 06 1A                LD B,high DMASL
 326+ 7BDF ED 69         OUT (C),L
 327+ 7BE1 06 1B                LD B,high DMASH
 327+ 7BE3 ED 61         OUT (C),H
 328+ 7BE5
 329+ 7BE5 06 26                LD B,high DMA_N
 329+ 7BE7 ED 59         OUT (C),E
 330+ 7BE9 06 28                LD B,high DMA_T
 330+ 7BEB ED 51         OUT (C),D
 331+ 7BED
 332+ 7BED 06 27 3E 31          LD B,high DMA_C,A,%00110001
 332+ 7BF1 ED 79         OUT (C),A
 333+ 7BF3 ED 70                INF
 333+ 7BF5 FA F3 7B      JP M,$-2
 334+ 7BF8 C9                   RET
 335+ 7BF9              ;-------
 336+ 7BF9 CD 0C 7D     WSDDN   CALL DMAMTCH
 336+ 7BFC 38 54         JR C,NWSD
 337+ 7BFE
 338+ 7BFE 21 00 00             LD HL,#0000
 339+ 7C01 DD 7E 02             LD A,(IX+2)
 339+ 7C04 85 83         ADD A,L,A,E
 339+ 7C06 5F            LD E,A
 340+ 7C07 DD 7E 03             LD A,(IX+3)
 340+ 7C0A 84 82 80      ADD A,H,A,D,A,B
 341+ 7C0D 57                   LD D,A
 341+ 7C0E 15            DEC D
 342+ 7C0F 62 6B                LD HL,DE
 342+ 7C11 25            DEC H
 343+ 7C12
 344+ 7C12 78                   LD A,B
 344+ 7C13 3D            DEC A
 345+ 7C14 08                   EXA
 346+ 7C15 79                   LD A,C
 347+ 7C16 01 AF 26             LD BC,DMA_N
 347+ 7C19 ED 79         OUT (C),A
 348+ 7C1B AF                   XOR A
 349+ 7C1C 06 1F                LD B,high DMADX
 349+ 7C1E ED 79         OUT (C),A
 350+ 7C20 06 1C                LD B,high DMASX
 350+ 7C22 ED 79         OUT (C),A
 351+ 7C24 06 28                LD B,high DMA_T
 351+ 7C26 ED 79         OUT (C),A
 352+ 7C28
 353+ 7C28 08                   EXA
 354+ 7C29 08           ZUPZUP  EXA
 355+ 7C2A 06 1D                LD B,high DMADL
 355+ 7C2C ED 59         OUT (C),E
 356+ 7C2E 06 1E                LD B,high DMADH
 356+ 7C30 ED 51         OUT (C),D
 356+ 7C32 15            DEC D
 357+ 7C33 06 1A                LD B,high DMASL
 357+ 7C35 ED 69         OUT (C),L
 358+ 7C37 06 1B                LD B,high DMASH
 358+ 7C39 ED 61         OUT (C),H
 358+ 7C3B 25            DEC H
 359+ 7C3C
 360+ 7C3C 06 27 3E 01          LD B,high DMA_C,A,%00000001
 360+ 7C40 ED 79         OUT (C),A
 361+ 7C42 ED 70                INF
 361+ 7C44 FA 42 7C      JP M,$-2
 362+ 7C47 08                   EXA
 362+ 7C48 3D            DEC A
 362+ 7C49 20 DE         JR NZ,ZUPZUP
 363+ 7C4B C9                   RET
 364+ 7C4C              ;-------
 365+ 7C4C              SCRLWOW ;i: D - Y
 366+ 7C4C              ;           E - X
 367+ 7C4C              ;           B - H
 368+ 7C4C              ;           C - W
 369+ 7C4C              ;           A - [7]: %1 - with attr
 370+ 7C4C              ;                    %0 - chars only
 371+ 7C4C              ;               [6]: %1 - clear src side
 372+ 7C4C              ;                    %0 - don't clear
 373+ 7C4C              ;             [5-2]: %0000 - 1 char step
 374+ 7C4C              ;                    %1111 - 16 chars
 375+ 7C4C              ;             [1-0]: %00 - down
 376+ 7C4C              ;                    %01 - up
 377+ 7C4C              ;                    %10 - right
 378+ 7C4C              ;                    %11 - left
 379+ 7C4C
 380+ 7C4C 67                   LD H,A
 380+ 7C4D E6 FC         AND %11111100
 380+ 7C4F CA A8 7B      JP Z,SWDMA
 381+ 7C52 7C           NWSD    LD A,H
 382+ 7C53
 383+ 7C53 21 9F 7C 36          LD HL,ATTE+1,(HL),0
 383+ 7C57 00
 384+ 7C58 CB 7F                BIT 7,A
 384+ 7C5A 28 02         JR Z,$+4
 384+ 7C5C 36 01         LD (HL),1
 385+ 7C5E
 386+ 7C5E 21 B6 7C 36          LD HL,SWCL+1,(HL),0
 386+ 7C62 00
 387+ 7C63 CB 77                BIT 6,A
 387+ 7C65 28 02         JR Z,$+4
 387+ 7C67 36 01         LD (HL),1
 388+ 7C69
 389+ 7C69 6F                   LD L,A
 390+ 7C6A E6 3C                AND %00111100
 391+ 7C6C 1F          > RRA
 391+ 7C6D 1F          > RRA
 392+ 7C6E 3C                   INC A
 392+ 7C6F 32 92 7C      LD (WSST+1),A
 393+ 7C72
 394+ 7C72 7D                   LD A,L
 395+ 7C73 E6 03                AND %00000011
 396+ 7C75 B7                   OR A
 396+ 7C76 28 57         JR Z,WSDN
 397+ 7C78 3D                   DEC A
 397+ 7C79 28 05         JR Z,WSUP
 398+ 7C7B 3D                   DEC A
 398+ 7C7C 28 01         JR Z,WSRG
 399+ 7C7E C9           WSLF    RET
 400+ 7C7F C9           WSRG    RET
 401+ 7C80 CD 96 7B     WSUP    CALL GPOZA
 402+ 7C83 7A                   LD A,D
 402+ 7C84 84            ADD A,H
 402+ 7C85 67            LD H,A
 403+ 7C86 7B                   LD A,E
 403+ 7C87 85            ADD A,L
 403+ 7C88 6F            LD L,A
 404+ 7C89 54 5D                LD DE,HL
 405+ 7C8B
 406+ 7C8B 3A 92 7C             LD A,(WSST+1)
 406+ 7C8E 84            ADD A,H
 406+ 7C8F 67            LD H,A
 407+ 7C90 78                   LD A,B
 408+ 7C91 D6 00        WSST    SUB 0
 408+ 7C93 D8            RET C
 409+ 7C94
 410+ 7C94 47                   LD B,A
 411+ 7C95 C5           WSup    PUSH BC
 412+ 7C96 E5 D5                PUSH HL,DE
 413+ 7C98 79                   LD A,C
 413+ 7C99 08            EXA
 414+ 7C9A 06 00                LD B,0
 414+ 7C9C ED B0         LDIR
 415+ 7C9E 3E 00        ATTE    LD A,0
 415+ 7CA0 B7            OR A
 415+ 7CA1 28 0A         JR Z,ATTD
 416+ 7CA3
 417+ 7CA3 CB FD                SET 7,L
 418+ 7CA5 CB FB                SET 7,E
 418+ 7CA7 2D 1D         DEC L,E
 419+ 7CA9 08                   EXA
 419+ 7CAA 4F            LD C,A
 419+ 7CAB ED B8         LDDR
 420+ 7CAD
 421+ 7CAD D1 E1        ATTD    POP DE,HL
 421+ 7CAF 24 14         INC H,D
 422+ 7CB1 C1                   POP BC
 422+ 7CB2 10 E1         DJNZ WSup
 423+ 7CB4
 424+ 7CB4 25                   DEC H
 425+ 7CB5 3E 00        SWCL    LD A,0
 425+ 7CB7 B7            OR A
 425+ 7CB8 C8            RET Z
 426+ 7CB9 AF                   XOR A
 427+ 7CBA 41 77                LD B,C,(HL),A
 427+ 7CBC 2C            INC L
 427+ 7CBD 10 FC         DJNZ $-2
 428+ 7CBF
 429+ 7CBF 3A 9F 7C             LD A,(ATTE+1)
 429+ 7CC2 B7            OR A
 429+ 7CC3 C8            RET Z
 430+ 7CC4 CB FD                SET 7,L
 431+ 7CC6 DD 7E 06             LD A,(IX+6)
 432+ 7CC9 41                   LD B,C
 432+ 7CCA 2D            DEC L
 432+ 7CCB 77            LD (HL),A
 432+ 7CCC 10 FC         DJNZ $-2
 433+ 7CCE C9                   RET
 434+ 7CCF              ;-------
 435+ 7CCF CD 96 7B     WSDN    CALL GPOZA
 436+ 7CD2 7A                   LD A,D
 436+ 7CD3 84 80         ADD A,H,A,B
 436+ 7CD5 67            LD H,A
 436+ 7CD6 25            DEC H
 437+ 7CD7 7B                   LD A,E
 437+ 7CD8 85            ADD A,L
 437+ 7CD9 6F            LD L,A
 438+ 7CDA 54 5D                LD DE,HL
 439+ 7CDC
 440+ 7CDC C5                   PUSH BC
 441+ 7CDD 3A 92 7C 4F          LD A,(WSST+1),C,A
 442+ 7CE1 7C                   LD A,H
 442+ 7CE2 91            SUB C
 442+ 7CE3 67            LD H,A
 443+ 7CE4 78                   LD A,B
 443+ 7CE5 91            SUB C
 444+ 7CE6 C1                   POP BC
 444+ 7CE7 D8            RET C
 445+ 7CE8
 446+ 7CE8 47                   LD B,A
 447+ 7CE9 C5           WSdn    PUSH BC
 448+ 7CEA E5 D5                PUSH HL,DE
 449+ 7CEC 79                   LD A,C
 449+ 7CED 08            EXA
 450+ 7CEE 06 00                LD B,0
 450+ 7CF0 ED B0         LDIR
 451+ 7CF2 3A 9F 7C             LD A,(ATTE+1)
 451+ 7CF5 B7            OR A
 451+ 7CF6 28 0A         JR Z,ATTd
 452+ 7CF8
 453+ 7CF8 CB FD                SET 7,L
 454+ 7CFA CB FB                SET 7,E
 454+ 7CFC 2D 1D         DEC L,E
 455+ 7CFE 08                   EXA
 455+ 7CFF 4F            LD C,A
 455+ 7D00 ED B8         LDDR
 456+ 7D02
 457+ 7D02 D1 E1        ATTd    POP DE,HL
 457+ 7D04 25 15         DEC H,D
 458+ 7D06 C1                   POP BC
 458+ 7D07 10 E0         DJNZ WSdn
 459+ 7D09
 460+ 7D09 24                   INC H
 461+ 7D0A 18 A9                JR SWCL
 462+ 7D0C              ;-------
 463+ 7D0C DD 7E 02     DMAMTCH LD A,(IX+2)
 463+ 7D0F 83            ADD A,E
 463+ 7D10 1F            RRA
 463+ 7D11 D8            RET C
 464+ 7D12 79                   LD A,C
 464+ 7D13 1F            RRA
 465+ 7D14 C9                   RET
 466+ 7D15              ;---------------------------------------
 467+ 7D15              CURSORF
 468+ 7D15 05          > DEC B
 468+ 7D16 05          > DEC B
 469+ 7D17
 470+ 7D17 2D                   DEC L
 471+ 7D18 3E 0F                LD A,%00001111
 471+ 7D1A A7 A6         AND A,(HL)
 471+ 7D1C 4F            LD C,A
 472+ 7D1D 3E F0                LD A,%11110000
 472+ 7D1F DD A6 0E      AND (IX+14)
 472+ 7D22 B1            OR C
 473+ 7D23 77                   LD (HL),A
 474+ 7D24 2C                   INC L
 475+ 7D25
 476+ 7D25 F5                   PUSH AF
 477+ 7D26 DD 7E 01             LD A,(IX+1)
 478+ 7D29 A7 A6                AND A,(HL)
 478+ 7D2B DD B6 0E      OR (IX+14)
 479+ 7D2E BE                   CP (HL)
 479+ 7D2F 28 04         JR Z,CURB
 480+ 7D31 4E DD 71 0F          LD C,(HL),(IX+15),C
 481+ 7D35 CD 52 7D     CURB    CALL CRS
 482+ 7D38 F1                   POP AF
 483+ 7D39 77                   LD (HL),A
 484+ 7D3A C9                   RET
 485+ 7D3B
 486+ 7D3B CD 76 7D     CURSOR  CALL SOR
 486+ 7D3E 20 D5         JR NZ,CURSORF
 487+ 7D40 05          > DEC B
 487+ 7D41 05          > DEC B
 487+ 7D42 C8            RET Z
 488+ 7D43 DD 7E 01             LD A,(IX+1)
 489+ 7D46 A7 A6                AND A,(HL)
 489+ 7D48 DD B6 0E      OR (IX+14)
 490+ 7D4B
 491+ 7D4B BE                   CP (HL)
 491+ 7D4C 28 04         JR Z,CRS
 492+ 7D4E 4E DD 71 0F          LD C,(HL),(IX+15),C
 493+ 7D52 77           CRS     LD (HL),A
 493+ 7D53 2C            INC L
 493+ 7D54 10 FC         DJNZ $-2
 494+ 7D56 C9                   RET
 495+ 7D57
 496+ 7D57 CD 76 7D     CURSER  CALL SOR
 496+ 7D5A 20 08         JR NZ,CURSERF
 497+ 7D5C 05          > DEC B
 497+ 7D5D 05          > DEC B
 497+ 7D5E C8            RET Z
 498+ 7D5F DD 7E 0F             LD A,(IX+15)
 499+ 7D62 18 EE                JR CRS
 500+ 7D64
 501+ 7D64 2D           CURSERF DEC L
 501+ 7D65 DD 7E 06 77   LD A,(IX+6),(HL),A
 501+ 7D69 2C            INC L
 502+ 7D6A 05          > DEC B
 502+ 7D6B 05          > DEC B
 503+ 7D6C F5                   PUSH AF
 503+ 7D6D DD 7E 0F      LD A,(IX+15)
 503+ 7D70 CD 52 7D      CALL CRS
 504+ 7D73 F1                   POP AF
 504+ 7D74 77            LD (HL),A
 505+ 7D75 C9                   RET
 506+ 7D76
 507+ 7D76 CD 96 7B     SOR     CALL GPOZA
 508+ 7D79 DD 46 04             LD B,(IX+4)
 508+ 7D7C CB FD         SET 7,L
 508+ 7D7E 2C            INC L
 509+ 7D7F DD 7E 0C             LD A,(IX+12)
 509+ 7D82 84            ADD A,H
 509+ 7D83 67            LD H,A
 510+ 7D84
 511+ 7D84 DD CB 00 76          BIT 6,(IX)
 512+ 7D88 C9                   RET
 513+ 7D89              ;---------------------------------------
 514+ 7D89              PRSRW   ;i:IX - SOW
 515+ 7D89              ;          HL - TEXT
 516+ 7D89              ;          BC - Length
 517+ 7D89              ;           D - Y
 518+ 7D89              ;           E - X
 519+ 7D89              ;        o:HL - Address
 520+ 7D89
 521+ 7D89 D5                   PUSH DE
 522+ 7D8A E5                   PUSH HL
 523+ 7D8B CD 96 7B             CALL GPOZA;INC H,L
 524+ 7D8E 7A                   LD A,D
 524+ 7D8F 84            ADD A,H
 524+ 7D90 67            LD H,A
 525+ 7D91 7B                   LD A,E
 525+ 7D92 85            ADD A,L
 525+ 7D93 6F            LD L,A
 526+ 7D94 EB                   EX DE,HL
 527+ 7D95 E1                   POP HL
 528+ 7D96 79                   LD A,C
 529+ 7D97 ED B0                LDIR
 530+ 7D99 47                   LD B,A
 531+ 7D9A EB                   EX DE,HL
 532+ 7D9B D1                   POP DE
 533+ 7D9C C9                   RET
 534+ 7D9D              ;-------
 535+ 7D9D              PRIAT   ;i:HL - Address in SCREEN
 536+ 7D9D              ;           A - Color
 537+ 7D9D              ;           B - Lenght
 538+ 7D9D
 539+ 7D9D CD B5 7D             CALL VALIDAD
 539+ 7DA0 D8            RET C
 540+ 7DA1
 541+ 7DA1 CB FD                SET 7,L
 542+ 7DA3 2D                   DEC L
 542+ 7DA4 77            LD (HL),A
 542+ 7DA5 2D            DEC L
 542+ 7DA6 10 FC         DJNZ $-2
 543+ 7DA8 C9                   RET
 544+ 7DA9              ;-------
 545+ 7DA9              GADRW   ;i:IX - SOW
 546+ 7DA9              ;           D - Y
 547+ 7DA9              ;           E - X
 548+ 7DA9              ;        o:HL - Address
 549+ 7DA9
 550+ 7DA9 D5                   PUSH DE
 551+ 7DAA CD 96 7B             CALL GPOZA
 552+ 7DAD 7A                   LD A,D
 552+ 7DAE 84            ADD A,H
 552+ 7DAF 67            LD H,A
 553+ 7DB0 7B                   LD A,E
 553+ 7DB1 85            ADD A,L
 553+ 7DB2 6F            LD L,A
 554+ 7DB3 D1                   POP DE
 555+ 7DB4 C9                   RET
 556+ 7DB5              ;-------
 557+ 7DB5 F5           VALIDAD PUSH AF
 558+ 7DB6 78                   LD A,B
 558+ 7DB7 FE 5B         CP 90+1
 558+ 7DB9 30 13         JR NC,XEP
 559+ 7DBB 7C                   LD A,H
 559+ 7DBC FE C0         CP #C0
 559+ 7DBE 38 0E         JR C,XEP
 560+ 7DC0 CB 7D                BIT 7,L
 560+ 7DC2 20 0A         JR NZ,XEP
 561+ 7DC4 3A 03 60             LD A,(PGC)
 561+ 7DC7 FE 00         CP MTXPG
 561+ 7DC9 20 03         JR NZ,XEP
 562+ 7DCB F1                   POP AF
 563+ 7DCC B7                   OR A
 564+ 7DCD C9                   RET
 565+ 7DCE F1           XEP     POP AF
 566+ 7DCF 37                   SCF
 567+ 7DD0 C9                   RET
 568+ 7DD1              ;---------------------------------------
 569+ 7DD1              ;i: D - Y
 570+ 7DD1              ;   E - X
 571+ 7DD1              ;  HL - text addres
 572+ 7DD1              ;   A - message number
 573+ 7DD1
 574+ 7DD1 B7           MEZZ    OR A
 574+ 7DD2 28 11         JR Z,TXTPR
 575+ 7DD4 D5                   PUSH DE
 576+ 7DD5 5F                   LD E,A
 577+ 7DD6 01 00 20             LD BC,8192
 578+ 7DD9 AF           BXX     XOR A
 579+ 7DDA ED B1        BAX     CPIR
 580+ 7DDC 7E                   LD A,(HL)
 580+ 7DDD 23            INC HL
 581+ 7DDE B7                   OR A
 581+ 7DDF 20 F8         JR NZ,BXX
 582+ 7DE1 1D                   DEC E
 582+ 7DE2 20 F6         JR NZ,BAX
 583+ 7DE4 D1                   POP DE
 584+ 7DE5              ;---------------------------------------
 585+ 7DE5              TXTPR   ;i:HL - Text
 586+ 7DE5              ;           E - X
 587+ 7DE5              ;           D - Y
 588+ 7DE5
 589+ 7DE5              ;        o: E - old X
 590+ 7DE5              ;           D - new Y
 591+ 7DE5
 592+ 7DE5 AF                   XOR A
 592+ 7DE6 CD B6 68      CALL MNGC
 593+ 7DE9 ED 53 B8 7F          LD (LXY),DE,A,(IX+6),(CLRN),A
 593+ 7DED DD 7E 06 32
 593+ 7DF1 B7 7F
 594+ 7DF3
 595+ 7DF3 7E           BTOOOM  LD A,(HL)
 596+ 7DF4 B7                   OR A
 596+ 7DF5 28 25         JR Z,LOOOL
 597+ 7DF7 FE 0B                CP 11
 597+ 7DF9 28 27         JR Z,TTAB
 598+ 7DFB FE 0C                CP 12
 598+ 7DFD 28 2A         JR Z,TTRA
 599+ 7DFF FE 0D                CP 13
 599+ 7E01 CA 92 7E      JP Z,NxtLine
 600+ 7E04 FE 0E                CP 14
 600+ 7E06 28 28         JR Z,CNTR
 601+ 7E08 FE FE                CP #FE
 601+ 7E0A CC 9B 7E      CALL Z,CybLnk
 601+ 7E0D 28 E4         JR Z,BTOOOM
 602+ 7E0F
 603+ 7E0F FE 0A                CP 10
 603+ 7E11 DC BE 7E      CALL C,CCOD
 603+ 7E14 38 DD         JR C,BTOOOM
 604+ 7E16 CD 70 7E             CALL CHAR
 605+ 7E19 C3 F3 7D             JP BTOOOM
 606+ 7E1C ED 5B B8 7F  LOOOL   LD DE,(LXY)
 606+ 7E20 14            INC D
 607+ 7E21 C9                   RET
 608+ 7E22 23           TTAB    INC HL
 608+ 7E23 7B            LD A,E
 608+ 7E24 86            ADD A,(HL)
 608+ 7E25 5F            LD E,A
 609+ 7E26 23                   INC HL
 609+ 7E27 18 CA         JR BTOOOM
 610+ 7E29 23           TTRA    INC HL
 610+ 7E2A 7A            LD A,D
 610+ 7E2B 86            ADD A,(HL)
 610+ 7E2C 57            LD D,A
 611+ 7E2D 23                   INC HL
 611+ 7E2E 18 C3         JR BTOOOM
 612+ 7E30 E5           CNTR    PUSH HL
 613+ 7E31 01 00 50             LD BC,#5000
 613+ 7E34 CD 4C 7E      CALL STSCN
 613+ 7E37 20 0F         JR NZ,CNt
 614+ 7E39 79                   LD A,C
 614+ 7E3A B7            OR A
 614+ 7E3B 28 0B         JR Z,CNt
 615+ 7E3D DD 7E 04             LD A,(IX+4)
 615+ 7E40 91            SUB C
 615+ 7E41 38 05 28 03   JR C,CNt,Z,CNt
 616+ 7E45 CB 3F                SRL A
 616+ 7E47 5F            LD E,A
 617+ 7E48 E1           CNt     POP HL
 617+ 7E49 23            INC HL
 617+ 7E4A 18 A7         JR BTOOOM
 618+ 7E4C
 619+ 7E4C 23           STSCN   INC HL
 620+ 7E4D 7E                   LD A,(HL)
 621+ 7E4E B7                   OR A
 621+ 7E4F C8            RET Z
 622+ 7E50 FE 0D                CP 13
 622+ 7E52 C8            RET Z
 623+ 7E53 FE 0E                CP 14
 623+ 7E55 28 15         JR Z,BDCD
 624+ 7E57 FE FE                CP #FE
 624+ 7E59 30 11         JR NC,BDCD
 625+ 7E5B
 626+ 7E5B FE 10                CP 16
 626+ 7E5D 38 01         JR C,$+3
 626+ 7E5F 0C            INC C
 627+ 7E60 FE 0B                CP 11
 627+ 7E62 20 01         JR NZ,$+3
 627+ 7E64 23            INC HL
 628+ 7E65 FE 0C                CP 12
 628+ 7E67 20 01         JR NZ,$+3
 628+ 7E69 23            INC HL
 629+ 7E6A 10 E0                DJNZ STSCN
 630+ 7E6C 3E FE        BDCD    LD A,#FE
 631+ 7E6E B7                   OR A
 632+ 7E6F C9                   RET
 633+ 7E70              ;-------
 634+ 7E70 E5           CHAR    PUSH HL
 635+ 7E71 7E                   LD A,(HL)
 636+ 7E72 08                   EXA
 637+ 7E73 21 00 C0             LD HL,#C000
 638+ 7E76 DD 7E 02             LD A,(IX+2)
 638+ 7E79 85            ADD A,L
 638+ 7E7A 6F            LD L,A
 639+ 7E7B DD 7E 03             LD A,(IX+3)
 639+ 7E7E 84            ADD A,H
 639+ 7E7F 67            LD H,A
 640+ 7E80 7A                   LD A,D
 640+ 7E81 84            ADD A,H
 640+ 7E82 67            LD H,A
 641+ 7E83 7B                   LD A,E
 641+ 7E84 85            ADD A,L
 641+ 7E85 6F            LD L,A
 642+ 7E86 08                   EXA
 642+ 7E87 77            LD (HL),A
 643+ 7E88 CB FD                SET 7,L
 644+ 7E8A 3A B7 7F 77          LD A,(CLRN),(HL),A
 645+ 7E8E E1                   POP HL
 646+ 7E8F 1C 23                INC E,HL
 647+ 7E91 C9                   RET
 648+ 7E92              ;---------------------------------------
 649+ 7E92 ED 5B B8 7F  NxtLine LD DE,(LXY)
 649+ 7E96 14 23         INC D,HL
 649+ 7E98 C3 E5 7D      JP TXTPR
 650+ 7E9B              ;-------
 651+ 7E9B 23           CybLnk  INC HL
 652+ 7E9C 7E                   LD A,(HL)
 652+ 7E9D 23            INC HL
 652+ 7E9E 08            EXA
 653+ 7E9F 7E                   LD A,(HL)
 653+ 7EA0 23            INC HL
 654+ 7EA1 E5                   PUSH HL
 655+ 7EA2 67                   LD H,A
 655+ 7EA3 08            EXA
 656+ 7EA4 6F                   LD L,A
 657+ 7EA5
 658+ 7EA5 CD AB 7E             CALL STRING
 659+ 7EA8
 660+ 7EA8 E1                   POP HL
 661+ 7EA9 AF                   XOR A
 662+ 7EAA C9                   RET
 663+ 7EAB
 664+ 7EAB 7E           STRING  LD A,(HL)
 665+ 7EAC B7                   OR A
 665+ 7EAD C8            RET Z
 666+ 7EAE FE 0D                CP 13
 666+ 7EB0 C8            RET Z
 667+ 7EB1
 668+ 7EB1 FE 0A                CP 10
 668+ 7EB3 DC BE 7E      CALL C,CCOD
 668+ 7EB6 38 F3         JR C,STRING
 669+ 7EB8 CD 70 7E             CALL CHAR
 670+ 7EBB C3 AB 7E             JP STRING
 671+ 7EBE              ;-------
 672+ 7EBE FE 09        CCOD    CP 9
 672+ 7EC0 20 0D         JR NZ,XA
 673+ 7EC2 3A B7 7F             LD A,(CLRN)
 674+ 7EC5 0F          > RRCA
 674+ 7EC6 0F          > RRCA
 674+ 7EC7 0F          > RRCA
 674+ 7EC8 0F          > RRCA
 675+ 7EC9 32 B7 7F             LD (CLRN),A
 676+ 7ECC 23                   INC HL
 677+ 7ECD 37                   SCF
 678+ 7ECE C9                   RET
 679+ 7ECF              ;-------
 680+ 7ECF 08           XA      EXA
 680+ 7ED0 23            INC HL
 680+ 7ED1 7E            LD A,(HL)
 680+ 7ED2 FE 09         CP 9
 680+ 7ED4 38 0F         JR C,X
 681+ 7ED6 08                   EXA
 682+ 7ED7
 683+ 7ED7 E6 07                AND 7
 683+ 7ED9 4F            LD C,A
 684+ 7EDA DD 7E 06             LD A,(IX+6)
 684+ 7EDD E6 F0         AND %11110000
 684+ 7EDF B1            OR C
 685+ 7EE0 32 B7 7F             LD (CLRN),A
 686+ 7EE3 37                   SCF
 687+ 7EE4 C9                   RET
 688+ 7EE5              ;-------
 689+ 7EE5 D9           X       EXX
 690+ 7EE6 4F                   LD C,A
 690+ 7EE7 08            EXA
 691+ 7EE8 B9                   CP C
 691+ 7EE9 28 0E         JR Z,BRO
 692+ 7EEB 3D 0D                DEC A,C
 693+ 7EED 87          > ADD A,A
 693+ 7EEE 87          > ADD A,A
 693+ 7EEF 87          > ADD A,A
 693+ 7EF0 87          > ADD A,A
 694+ 7EF1 B1                   OR C
 695+ 7EF2 32 B7 7F     GGB     LD (CLRN),A
 695+ 7EF5 37            SCF
 696+ 7EF6 D9                   EXX
 697+ 7EF7 23                   INC HL
 698+ 7EF8 C9                   RET
 699+ 7EF9 F6 08        BRO     OR %00001000
 700+ 7EFB 4F DD 7E 06          LD C,A,A,(IX+6)
 700+ 7EFF E6 F0         AND %11110000
 701+ 7F01 B1                   OR C
 701+ 7F02 18 EE         JR GGB
 702+ 7F04              ;---------------------------------------
 703+ 7F04
# file closed: WCIF.ASM
1646  7F04                      INCLUDE "WCVLS.ASM"
# file opened: WCVLS.ASM
   1+ 7F04              ;---------------------------------------
   2+ 7F04 16 07        WINDOW  DB 6+16,CURmsk; TYPE+CURcolMASK
   3+ 7F06 00 00                DB 0,0;  +2  X,Y
   4+ 7F08 28 02                DB 40,2; +4  W,H
   5+ 7F0A 1F                   DB WNDCLR;6  PAPER+INK
   6+ 7F0B 00                   DB 0;    +7  reserved
   7+ 7F0C FF FF                DW #FFFF;+8  BUFFER
   8+ 7F0E 02 00                DB 2,0;  +10 LINES
   9+ 7F10 01 00                DB 1,0;  +12 CURSOR+CURMAX
  10+ 7F12 58                   DB CURclr;14 CUR COLOR
  11+ 7F13 17                   DB TBG;  +15 undCUR COLOR
  12+ 7F14 00 00                DW 0;    +16 GLOBAL Y
  13+ 7F16 00 00                DW 0;    +18 ENTRYS in DIR
  14+ 7F18 00 00                DB 0,0;  +20 flgEND+flgSTART
  15+ 7F1A 1E                   DB CPPG1;+22 pageNUMBER \
  16+ 7F1B 00 00                DW 0;    +23 offset     /
  17+ 7F1D 00 00                DB 0,0;  +25 pageN+current(CAT1)
  18+ 7F1F 00 00                DB 0,0;  +27 pageN+act(DRIVER)
  19+ 7F21 01                   DB 1;    +29 N of DRVR to mount
  20+ 7F22 00 10                DW RLPNL;+30  Start
  21+ 7F24 00 10                DW RLPNL;+32  Current
  22+ 7F26 00                   DB 0;    +34  Init flag
  23+ 7F27 00                   DB 0;    +35 Sort
  24+ 7F28
  25+ 7F28 16 07        WINDO2  DB 6+16,CURmsk
  26+ 7F2A 28 00                DB 40,0;     X,Y
  27+ 7F2C 28 02                DB 40,2;     W,H
  28+ 7F2E 1F                   DB WNDCLR
  29+ 7F2F 00                   DB 0
  30+ 7F30 FF FF                DW #FFFF;    BUFFER
  31+ 7F32 02 00                DB 2,0;      LINES
  32+ 7F34 01 00                DB 1,0
  33+ 7F36 58                   DB CURclr
  34+ 7F37 17                   DB TBG
  35+ 7F38 00 00                DW 0
  36+ 7F3A 00 00                DW 0
  37+ 7F3C 00 00                DB 0,0
  38+ 7F3E 1F                   DB CPPG2
  39+ 7F3F 00 00                DW 0;+23
  40+ 7F41 09 00                DB CATMX,0
  41+ 7F43 01 00                DB 1,0;+27
  42+ 7F45 01                   DB 1;+29
  43+ 7F46 00 20                DW RRPNL;+30
  44+ 7F48 00 20                DW RRPNL;+32
  45+ 7F4A 00                   DB 0;+34
  46+ 7F4B 00                   DB 0;+35
  47+ 7F4C
  48+ 7F4C              ;---------------------------------------
  49+ 7F4C 00 00 10 00  PALLIT  DW #0000,#0010,#4000,#4010
  49+ 7F50 00 40 10 40
  50+ 7F54 00 02 10 02          DW #0200,#0210,#4200,#4210
  50+ 7F58 00 42 10 42
  51+ 7F5C 00 00 18 00          DW #0000,#0018,#6000,#6018
  51+ 7F60 00 60 18 60
  52+ 7F64 00 03 18 03          DW #0300,#0318,#6300,#6318
  52+ 7F68 00 63 18 63
  53+ 7F6C              ;-------
  54+ 7F6C 3C 44 49 52  SDIR    DB "<DIR>"
  54+ 7F70 3E
  55+ 7F71 20 46 49 4C  SFIL    DB " FILE"
  55+ 7F75 45
  56+ 7F76
  57+ 7F76 00           CSEL    NOP
  58+ 7F77 00           CNSL    NOP
  59+ 7F78
  60+ 7F78 00           PPFR    NOP ;Flag (Load by INI/ENKE)
  61+ 7F79 00           PPGP    NOP ;First PG of Active plugin
  62+ 7F7A 00           PPGM    NOP ;PG num to load in PLG buff
  63+ 7F7B 00           PPG2    NOP ;temp value
  64+ 7F7C 00 00        PHED    DS 2;Address in PHEADER page
  65+ 7F7E 00 00        PHEP    DS 2;Active Plug Addr in PHED pg
  66+ 7F80
  67+ 7F80 00           LFLT    NOP ;BIT 0,path; BIT 1,cur
  68+ 7F81 50           WID     DB WID1
  68+ 7F82 00            NOP
  69+ 7F83
  70+ 7F83 01           AYZ80   DB DEFRQ
  71+ 7F84 01           DFRQ    DB DEFRQ
  72+ 7F85
  73+ 7F85 00           DSA     NOP
  74+ 7F86 00           DDA     NOP
  75+ 7F87 00           DAS     NOP
  76+ 7F88
  77+ 7F88 00 00        IXBU    DS 2
  78+ 7F8A 00 00        SPBU    DS 2
  79+ 7F8C
  80+ 7F8C 00 00 00 00  BRRR    DS 4;\
  81+ 7F90 00 00 00 00  ARRR    DS 4;/
  82+ 7F94 00 00 00 00  CRRR    DS 4;FCN
  83+ 7F98 00 00 00 00  DRRR    DS 4;SAVECD/LOADCD
  84+ 7F9C 00 00 00 00  ERRR    DS 4;DIRCOPY
  85+ 7FA0
  86+ 7FA0 00 00        IXHL    DS 2
  87+ 7FA2
  88+ 7FA2 00 00 00 00  PBNOW   DS 4
  89+ 7FA6
  90+ 7FA6 00           RSTA    NOP
  91+ 7FA7
  92+ 7FA7 00           STUS    NOP
  93+ 7FA8
  94+ 7FA8 00 00        MRCT    DS 2
  95+ 7FAA 00 00        MRRN    DS 2
  96+ 7FAC 00 00        AAHL    DS 2
  97+ 7FAE 00 00        AADE    DS 2
  98+ 7FB0
  99+ 7FB0              ;-INTS
 100+ 7FB0 00           INTPL   NOP
 101+ 7FB1 00           INTTM   NOP
 102+ 7FB2 00           INTPS   NOP
 103+ 7FB3
 104+ 7FB3              ;-temp
 105+ 7FB3 00 00        TTHL    DS 2
 106+ 7FB5 00 00        TTDE    DS 2
 107+ 7FB7
 108+ 7FB7              ;-api
 109+ 7FB7 00           CLRN    NOP
 110+ 7FB8 00 00        LXY     DS 2
 111+ 7FBA
 112+ 7FBA              ;-Video-
 113+ 7FBA 00           VVpag   NOP
 114+ 7FBB 00           VVmod   NOP
 115+ 7FBC
 116+ 7FBC 00           VYofL   NOP
 117+ 7FBD 00           VYofH   NOP
 118+ 7FBE 00           VXofL   NOP
 119+ 7FBF 00           VXofH   NOP
 120+ 7FC0
 121+ 7FC0              ;-Time:-
 122+ 7FC0 00 00        TABTM   DS 2
 123+ 7FC2 00 08        AFTM    DW 2048
 124+ 7FC4
 125+ 7FC4 03 06 2E     TMR     DB 3,6,49-3
 126+ 7FC7 58 58 3A 58  TTM     DB "XX:XX.XX"
 126+ 7FCB 58 2E 58 58
 127+ 7FCF              ;-------
 128+ 7FCF 00 00 00...  ENTRY   DS 32
 129+ 7FEF              ;---------------------------------------
 130+ 7FEF 5B 20 20 4F  TXT00   DB "[  OK  ]"
 130+ 7FF3 4B 20 20 5D
 131+ 7FF7 5B 43 41 4E  TXT01   DB "[CANCEL]"
 131+ 7FFB 43 45 4C 5D
 132+ 7FFF 5B 20 59 45  TXT00y  DB "[ YES  ]"
 132+ 8003 53 20 20 5D
 133+ 8007 5B 20 20 4E  TXT01n  DB "[  NO  ]"
 133+ 800B 4F 20 20 5D
 134+ 800F              ;---------------------------------------
 135+ 800F 10 77 63 00  WCDIR   DB #10,"wc",0
 136+ 8013 00 77 63 2E  WCINI   DB #00,"wc.ini",0
 136+ 8017 69 6E 69 00
 137+ 801B              ;---------------------------------------
 138+ 801B              ;ERror window
 139+ 801B 94 00        ERWND   DB 4+16+128,0
 140+ 801D FF FF                DB 255,255;  X,Y
 141+ 801F 3E 05                DB 60+2,3+2; W,H
 142+ 8021 2F                   DB %00101111;PAP+INK
 143+ 8022 00                   DB 0
 144+ 8023 00 00                DW #0000;    BUFFER
 145+ 8025 00 00                DB 0,0;      LINES
 146+ 8027 2D 80                DW ERHD
 147+ 8029 36 80                DW ERSL
 148+ 802B 00 00                DW 0
 149+ 802D 0E 09 45 52  ERHD    DB #0E,#09,"ERROR:",0
 149+ 8031 52 4F 52 3A
 149+ 8035 00
 150+ 8036 0E 09 70 72  ERSL    DB #0E,#09,"press any key",0
 150+ 803A 65 73 73 20
 150+ 803E 61 6E 79 20
 150+ 8042 6B 65 79 00
 151+ 8046
 152+ 8046              ;Progress Bar
 153+ 8046 84 00        PBWND   DB 4+128,0
 154+ 8048 FF FF                DB 255,255;  X,Y
 155+ 804A 42 04                DB 64+2,2+2; W,H
 156+ 804C 5F                   DB %01011111;PAP+INK
 157+ 804D 00                   DB 0
 158+ 804E 00 00                DW #0000;    BUFFER
 159+ 8050 00 00                DB 0,0;      LINES
 160+ 8052 00 00                DW 0;       TOP
 161+ 8054 00 00                DW 0;       BOTTOM
 162+ 8056 00 00                DW 0;       BODY
 163+ 8058
 164+ 8058              ;Make Dir + Rename
 165+ 8058 93 00        MDWND   DB 3+16+128,0
 166+ 805A FF FF                DB 255,255;  X,Y
 167+ 805C 28 03                DB 38+2,1+2; W,H
 168+ 805E 5F                   DB %01011111;PAP+INK
 169+ 805F 00                   DB 0
 170+ 8060 00 00                DW #0000;    BUFFER
 171+ 8062 00 00                DB 0,0;      LINES
 172+ 8064
 173+ 8064              ;COPY
 174+ 8064 93 00        F5WND   DB 3+16+128,0
 175+ 8066 FF FF                DB 255,255;  X,Y
 176+ 8068 28 06                DB 38+2,6;   W,H
 177+ 806A 7F                   DB %01111111;PAP+INK
 178+ 806B 00                   DB 0
 179+ 806C 00 00                DW #0000;    BUFFER
 180+ 806E 02 00                DB 2,0;      LINES
 181+ 8070
 182+ 8070              ;ABort window
 183+ 8070 93 00        ABWND   DB 3+16+128,0
 184+ 8072 FF FF                DB 255,255;  X,Y
 185+ 8074 28 06                DB 38+2,6;   W,H
 186+ 8076 7F                   DB %01111111
 187+ 8077 00                   DB 0
 188+ 8078 00 00                DW #0000
 189+ 807A 02 00                DB 2,0;      LINES
 190+ 807C
 191+ 807C              ;HelP
 192+ 807C 94 00        HPWND   DB 4+16+128,0
 193+ 807E FF FF                DB 255,255;  X,Y
 194+ 8080 28 08                DB 38+2,6+2; W,H
 195+ 8082 7F                   DB %01111111;PAP+INK
 196+ 8083 00                   DB 0
 197+ 8084 00 00                DW #0000;    BUFFER
 198+ 8086 02 05                DB 2,5;      LINES
 199+ 8088 2F 84                DW ABHED
 200+ 808A 00 00                DW 0
 201+ 808C 37 84                DW ABTXT
 202+ 808E
 203+ 808E              ;Plugin loaded
 204+ 808E 93 00        LGWND   DB 3+16+128,0
 205+ 8090 FF FF                DB 255,255;  X,Y
 206+ 8092 22 04                DB 32+2,2+2; W,H
 207+ 8094 7F                   DB %01111111;PAP+INK
 208+ 8095 00                   DB 0
 209+ 8096 00 00                DW #0000;    BUFFER
 210+ 8098 00 00                DB 0,0;      LINES
 211+ 809A
 212+ 809A              ;F10 menu (PLUGINS)
 213+ 809A D5 00        F11WND  DB 5+16+128+64,0
 214+ 809C FF FF                DB 255,255;  X,Y
 215+ 809E 22 02                DB 32+2,2;   W,H
 216+ 80A0 5F                   DB %01011111;PAP+INK
 217+ 80A1 00                   DB 0
 218+ 80A2 00 00                DW #0000;    BUFFER
 219+ 80A4 00 00                DB 0,0;      LINES
 220+ 80A6
 221+ 80A6 01 00                DB 1,0;      CURnow+CURmax
 222+ 80A8 E1                   DB %11100001;CURcolor
 223+ 80A9 00                   DB 0
 224+ 80AA
 225+ 80AA B0 80                DW F11TXT
 226+ 80AC BD 80                DW F11BOT
 227+ 80AE 00 00                DW 0
 228+ 80B0
 229+ 80B0 0E 09 52 55  F11TXT  DB #0E,#09,"RUN PLUGIN",0
 229+ 80B4 4E 20 50 4C
 229+ 80B8 55 47 49 4E
 229+ 80BC 00
 230+ 80BD 0B 0E 09     F11BOT  DB #0B,14,#09
 231+ 80C0 44 45 4C 20          DB "DEL - delete plugin",0
 231+ 80C4 2D 20 64 65
 231+ 80C8 6C 65 74 65
 231+ 80CC 20 70 6C 75
 231+ 80D0 67 69 6E 00
 232+ 80D4
 233+ 80D4              ;Sorting Message
 234+ 80D4 94 00        SMWND   DB 4+16+128,0
 235+ 80D6 FF FF                DB 255,255;  X,Y
 236+ 80D8 1A 03                DB 24+2,3;   W,H
 237+ 80DA 7F                   DB %01111111;PAP+INK
 238+ 80DB 00                   DB 0
 239+ 80DC 00 00                DW #0000;    BUFFER
 240+ 80DE 00 00                DB 0,0;      LINES
 241+ 80E0
 242+ 80E0 00 00                DW 0
 243+ 80E2 00 00                DW 0
 244+ 80E4 54 84                DW SORTIP
 245+ 80E6
 246+ 80E6              ;Device Select
 247+ 80E6 D5 00        DSWND   DB 5+16+128+64,0
 248+ 80E8 00 00                DB 0,0;          X,Y
 249+ 80EA 20 09                DB 30+2,DRVRS+2; W,H
 250+ 80EC 7F                   DB %01111111;PAP+INK
 251+ 80ED 00                   DB 0
 252+ 80EE 00 00                DW #0000;    BUFFER
 253+ 80F0 00 00                DB 0,0;      LINES
 254+ 80F2
 255+ 80F2 01 07                DB 1,DRVRS
 256+ 80F4 E0                   DB %11100000
 257+ 80F5 00                   DB 0
 258+ 80F6
 259+ 80F6 65 84                DW TXT4
 260+ 80F8 00 00                DW 0
 261+ 80FA 76 84                DW THDD
 262+ 80FC
 263+ 80FC              ;GReen menu
 264+ 80FC              BASEOP  EQU 0
 265+ 80FC C5 07        GRWND   DB 5+128+64,CURmsk
 266+ 80FE 00 00                DB 0,0;      X,Y
 267+ 8100 1A 02                DB 24+2,BASEOP+2; W,H
 268+ 8102 4F                   DB %01001111;PAP+INK
 269+ 8103 00                   DB 0
 270+ 8104 00 00                DW #0000;    BUFFER
 271+ 8106 00 00                DB 0,0;      LINES
 272+ 8108
 273+ 8108 01 00                DB 1,BASEOP; CURnow,CURmax
 274+ 810A F0                   DB %11110000
 275+ 810B 00                   DB 0
 276+ 810C
 277+ 810C 00 00                DW 0
 278+ 810E 00 00                DW 0
 279+ 8110 00 00                DW 0
 280+ 8112
 281+ 8112              ;FRequency select
 282+ 8112 D5 00        FRWND   DB 5+16+128+64,0
 283+ 8114 FF FF                DB 255,255;  X,Y
 284+ 8116 14 08                DB 18+2,6+2; W,H
 285+ 8118 7F                   DB %01111111;PAP+INK
 286+ 8119 00                   DB 0
 287+ 811A 00 00                DW #0000;    BUFFER
 288+ 811C 02 00                DB 2,0;      LINES
 289+ 811E
 290+ 811E 01 04                DB 1,4;      CURnow,CURmax
 291+ 8120 E0                   DB %11100000
 292+ 8121 00                   DB 0
 293+ 8122
 294+ 8122 28 81                DW FRWNDH
 295+ 8124 00 00                DW 0
 296+ 8126 37 81                DW FREQS
 297+ 8128
 298+ 8128 0E 09 52 55  FRWNDH  DB #0E,#09,"RUN File AT:",0
 298+ 812C 4E 20 46 69
 298+ 8130 6C 65 20 41
 298+ 8134 54 3A 00
 299+ 8137 0E 33 2E 35  FREQS   DB #0E,"3.5 MHz",13
 299+ 813B 20 4D 48 7A
 299+ 813F 0D
 300+ 8140 0E 37 2E 30          DB #0E,"7.0 MHz",13
 300+ 8144 20 4D 48 7A
 300+ 8148 0D
 301+ 8149 0E 31 34 20          DB #0E,"14 MHz",13
 301+ 814D 4D 48 7A 0D
 302+ 8151 0E 31 34 2B          DB #0E,"14+MHz",0
 302+ 8155 4D 48 7A 00
 303+ 8159              ;---------------------------------------
 304+ 8159              ;ZXADR   DW #C000,#C020,#C040,#C060
 305+ 8159              ;        DW #C080,#C0A0,#C0C0,#C0E0
 306+ 8159              ;        DW #C800,#C820,#C840,#C860
 307+ 8159              ;        DW #C880,#C8A0,#C8C0,#C8E0
 308+ 8159              ;        DW #D000,#D020,#D040,#D060
 309+ 8159              ;        DW #D080,#D0A0,#D0C0,#D0E0
 310+ 8159
 311+ 8159 53 50 47     EXTZ    DB "SPG"
 311+ 815C BB 95         DW RUNSPG
 312+ 815E 24 43 20             DB "$C "
 312+ 8161 A7 93         DW RUNHOB
 313+ 8163 57 4D 46             DB "WMF"
 313+ 8166 7A 97         DW LDPLG
 314+ 8168 00                   NOP
 315+ 8169              ;---------------------------------------
 316+ 8169              ;TGAPAL DB #00,#00,#00,#A0,#00,#00
 317+ 8169              ;DB #00,#80,#02,#A0,#80,#02
 318+ 8169              ;DB #00,#14,#00,#A0,#14,#00
 319+ 8169              ;DB #00,#94,#02,#A0,#94,#02
 320+ 8169              ;DB #00,#00,#00,#F0,#00,#00
 321+ 8169              ;DB #00,#C0,#03,#F0,#C0,#03
 322+ 8169              ;DB #00,#1E,#00,#F0,#1E,#00
 323+ 8169              ;DB #00,#DE,#03,#F0,#DE,#03
 324+ 8169              ;---------------------------------------
 325+ 8169 0E 09 4D 61  TXT6    DB #0E,#09,"Make Directory",0
 325+ 816D 6B 65 20 44
 325+ 8171 69 72 65 63
 325+ 8175 74 6F 72 79
 325+ 8179 00
 326+ 817A 0E 09 52 65  TXT7    DB #0E,#09,"ReName",0
 326+ 817E 4E 61 6D 65
 326+ 8182 00
 327+ 8183 0E 09 43 6F  TXT8    DB #0E,#09,"Copy",0
 327+ 8187 70 79 00
 328+ 818A 43 6F 70 79  TXT9    DB "Copy ",#FE
 328+ 818E 20 FE
 328+ 8190 B4 81         DW TXTD7
 328+ 8192 00            NOP
 329+ 8193 0E 3C 30 30  TXT10   DB #0E,"<0000 of 0000>",0
 329+ 8197 30 30 20 6F
 329+ 819B 66 20 30 30
 329+ 819F 30 30 3E 00
 330+ 81A3 0E 09 44 65  TXTB    DB #0E,#09,"Delete",0
 330+ 81A7 6C 65 74 65
 330+ 81AB 00
 331+ 81AC 0E 44 65 6C  TXTD    DB #0E,"Delete "
 331+ 81B0 65 74 65 20
 332+ 81B4 20 20 20 20  TXTD7   DB "     files/dirs?",0
 332+ 81B8 20 66 69 6C
 332+ 81BC 65 73 2F 64
 332+ 81C0 69 72 73 3F
 332+ 81C4 00
 333+ 81C5 02 0E        TXTE    DB 2,#0E
 334+ 81C7 44 65 6C 65          DB "Deleting is in Progress!",0
 334+ 81CB 74 69 6E 67
 334+ 81CF 20 69 73 20
 334+ 81D3 69 6E 20 50
 334+ 81D7 72 6F 67 72
 334+ 81DB 65 73 73 21
 334+ 81DF 00
 335+ 81E0 0E 09 41 62  TXTF    DB #0E,#09,"Aborting",0
 335+ 81E4 6F 72 74 69
 335+ 81E8 6E 67 00
 336+ 81EB 0E 41 62 6F  TXTG    DB #0E,"Abort operation?",0
 336+ 81EF 72 74 20 6F
 336+ 81F3 70 65 72 61
 336+ 81F7 74 69 6F 6E
 336+ 81FB 3F 00
 337+ 81FD
 338+ 81FD 0E 44 45 4C  TXTK    DB #0E,"DELETE PLUGIN?",0
 338+ 8201 45 54 45 20
 338+ 8205 50 4C 55 47
 338+ 8209 49 4E 3F 00
 339+ 820D 0E 50 6C 75  TXTL    DB #0E,"Plugin already exists!"
 339+ 8211 67 69 6E 20
 339+ 8215 61 6C 72 65
 339+ 8219 61 64 79 20
 339+ 821D 65 78 69 73
 339+ 8221 74 73 21
 340+ 8224 0D                   DB 13
 341+ 8225 0E 52 45 4C          DB #0E,"RELOAD IT?",0
 341+ 8229 4F 41 44 20
 341+ 822D 49 54 3F 00
 342+ 8231
 343+ 8231 4E 61 6D 65  TCT0    DB "Name:",0
 343+ 8235 3A 00
 344+ 8237
 345+ 8237 0E 44 65 76  TER0    DB #0E,"Device Not Found!",0
 345+ 823B 69 63 65 20
 345+ 823F 4E 6F 74 20
 345+ 8243 46 6F 75 6E
 345+ 8247 64 21 00
 346+ 824A 0E 46 41 54  TER1    DB #0E,"FAT32 Not Found!",0
 346+ 824E 33 32 20 4E
 346+ 8252 6F 74 20 46
 346+ 8256 6F 75 6E 64
 346+ 825A 21 00
 347+ 825C
 348+ 825C 0E 4E 6F 74  TER2    DB #0E,"Not Enough Space!",0
 348+ 8260 20 45 6E 6F
 348+ 8264 75 67 68 20
 348+ 8268 53 70 61 63
 348+ 826C 65 21 00
 349+ 826F 0E           TER2A   DB #0E
 350+ 8270 53 6F 75 72          DB "Source file is not found!",0
 350+ 8274 63 65 20 66
 350+ 8278 69 6C 65 20
 350+ 827C 69 73 20 6E
 350+ 8280 6F 74 20 66
 350+ 8284 6F 75 6E 64
 350+ 8288 21 00
 351+ 828A 0E           TER2B   DB #0E
 352+ 828B 4C 6F 6E 67          DB "Long Name is not valid!",0
 352+ 828F 20 4E 61 6D
 352+ 8293 65 20 69 73
 352+ 8297 20 6E 6F 74
 352+ 829B 20 76 61 6C
 352+ 829F 69 64 21 00
 353+ 82A3 0E           TER2C   DB #0E
 354+ 82A4 53 68 6F 72          DB "Short Name index FATALITY",0
 354+ 82A8 74 20 4E 61
 354+ 82AC 6D 65 20 69
 354+ 82B0 6E 64 65 78
 354+ 82B4 20 46 41 54
 354+ 82B8 41 4C 49 54
 354+ 82BC 59 00
 355+ 82BE 0E           TER2D   DB #0E
 356+ 82BF 4E 61 6D 65          DB "Name already exists!",0
 356+ 82C3 20 61 6C 72
 356+ 82C7 65 61 64 79
 356+ 82CB 20 65 78 69
 356+ 82CF 73 74 73 21
 356+ 82D3 00
 357+ 82D4 0E 44 49 52  TER2F   DB #0E,"DIR with same name "
 357+ 82D8 20 77 69 74
 357+ 82DC 68 20 73 61
 357+ 82E0 6D 65 20 6E
 357+ 82E4 61 6D 65 20
 358+ 82E8 61 6C 72 65          DB "already exists!",0
 358+ 82EC 61 64 79 20
 358+ 82F0 65 78 69 73
 358+ 82F4 74 73 21 00
 359+ 82F8 0E 44 49 52  TER30   DB #0E,"DIR is not empty!",0
 359+ 82FC 20 69 73 20
 359+ 8300 6E 6F 74 20
 359+ 8304 65 6D 70 74
 359+ 8308 79 21 00
 360+ 830B 0E           TER2X   DB #0E
 361+ 830C 55 4E 4B 4E          DB "UNKNOWN ERROR!!!",0
 361+ 8310 4F 57 4E 20
 361+ 8314 45 52 52 4F
 361+ 8318 52 21 21 21
 361+ 831C 00
 362+ 831D
 363+ 831D 0E 44 49 52  TERC1   DB #0E,"DIR not found (src)",0
 363+ 8321 20 6E 6F 74
 363+ 8325 20 66 6F 75
 363+ 8329 6E 64 20 28
 363+ 832D 73 72 63 29
 363+ 8331 00
 364+ 8332 0E 4D 61 6B  TERC2   DB #0E,"Make DIR failed (dst)",0
 364+ 8336 65 20 44 49
 364+ 833A 52 20 66 61
 364+ 833E 69 6C 65 64
 364+ 8342 20 28 64 73
 364+ 8346 74 29 00
 365+ 8349 0E 44 49 52  TERC3   DB #0E,"DIR not found (dst)",0
 365+ 834D 20 6E 6F 74
 365+ 8351 20 66 6F 75
 365+ 8355 6E 64 20 28
 365+ 8359 64 73 74 29
 365+ 835D 00
 366+ 835E 0E 55 50 44  TERC4   DB #0E,"UPDIR not found (src)",0
 366+ 8362 49 52 20 6E
 366+ 8366 6F 74 20 66
 366+ 836A 6F 75 6E 64
 366+ 836E 20 28 73 72
 366+ 8372 63 29 00
 367+ 8375 0E 55 50 44  TERC5   DB #0E,"UPDIR not found (dst)",0
 367+ 8379 49 52 20 6E
 367+ 837D 6F 74 20 66
 367+ 8381 6F 75 6E 64
 367+ 8385 20 28 64 73
 367+ 8389 74 29 00
 368+ 838C 0E 49 4E 44  TERC6   DB #0E,"INDEX out of DIR",0
 368+ 8390 45 58 20 6F
 368+ 8394 75 74 20 6F
 368+ 8398 66 20 44 49
 368+ 839C 52 00
 369+ 839E 0E 44 49 52  TERD7   DB #0E,"DIR name too long/"
 369+ 83A2 20 6E 61 6D
 369+ 83A6 65 20 74 6F
 369+ 83AA 6F 20 6C 6F
 369+ 83AE 6E 67 2F
 370+ 83B1 45 4E 44 20          DB "END of buffer",0
 370+ 83B5 6F 66 20 62
 370+ 83B9 75 66 66 65
 370+ 83BD 72 00
 371+ 83BF 0E 46 69 6C  TERD8   DB #0E,"File not found",0
 371+ 83C3 65 20 6E 6F
 371+ 83C7 74 20 66 6F
 371+ 83CB 75 6E 64 00
 372+ 83CF 0E 41 62 6F  TERCU   DB #0E,"Aborted by user!",0
 372+ 83D3 72 74 65 64
 372+ 83D7 20 62 79 20
 372+ 83DB 75 73 65 72
 372+ 83DF 21 00
 373+ 83E1
 374+ 83E1 0E           TER3    DB #0E
 375+ 83E2 54 68 69 73          DB "This PLUGIN can't be run"
 375+ 83E6 20 50 4C 55
 375+ 83EA 47 49 4E 20
 375+ 83EE 63 61 6E 27
 375+ 83F2 74 20 62 65
 375+ 83F6 20 72 75 6E
 376+ 83FA 20 66 72 6F          DB " from menu!!!",0
 376+ 83FE 6D 20 6D 65
 376+ 8402 6E 75 21 21
 376+ 8406 21 00
 377+ 8408 0E           TER4    DB #0E
 378+ 8409 57 72 6F 6E          DB "Wrong version of Plugin!",0
 378+ 840D 67 20 76 65
 378+ 8411 72 73 69 6F
 378+ 8415 6E 20 6F 66
 378+ 8419 20 50 6C 75
 378+ 841D 67 69 6E 21
 378+ 8421 00
 379+ 8422
 380+ 8422 4C 4F 41 44  TEM0    DB "LOADED!!!"
 380+ 8426 45 44 21 21
 380+ 842A 21
 381+ 842B
 382+ 842B 42 65 74 61  BETA    DB "Beta"
 383+ 842F
 384+ 842F 0E 09 41 42  ABHED   DB #0E,#09,"ABOUT",0
 384+ 8433 4F 55 54 00
 385+ 8437 0B 09 FE     ABTXT   DB #0B,9,#FE
 385+ 843A F5 84         DW TXTC
 385+ 843C 0D            DB 13
 386+ 843D 0C 04                DB #0C,4
 387+ 843F 0E 28 43 29          DB #0E,"(C) KOSHI/MGN "
 387+ 8443 20 4B 4F 53
 387+ 8447 48 49 2F 4D
 387+ 844B 47 4E 20
 388+ 844E 01 32 30 32          DB 1,"2025",0
 388+ 8452 35 00
 389+ 8454 0E 20 20 53  SORTIP  DB #0E,"  Sorting... ;P",0
 389+ 8458 6F 72 74 69
 389+ 845C 6E 67 2E 2E
 389+ 8460 2E 20 3B 50
 389+ 8464 00
 390+ 8465 0E 09 53 65  TXT4    DB #0E,#09,"Select Device:",0
 390+ 8469 6C 65 63 74
 390+ 846D 20 44 65 76
 390+ 8471 69 63 65 3A
 390+ 8475 00
 391+ 8476 49 44 45 20  THDD    DB "IDE NEMO: Master",13
 391+ 847A 4E 45 4D 4F
 391+ 847E 3A 20 4D 61
 391+ 8482 73 74 65 72
 391+ 8486 0D
 392+ 8487 0B 06 53 44          DB #0B,6,"SD: Z-Controller",13
 392+ 848B 3A 20 5A 2D
 392+ 848F 43 6F 6E 74
 392+ 8493 72 6F 6C 6C
 392+ 8497 65 72 0D
 393+ 849A 0B 05 53 44          DB #0B,5,"SD2: Z-Controller",13
 393+ 849E 32 3A 20 5A
 393+ 84A2 2D 43 6F 6E
 393+ 84A6 74 72 6F 6C
 393+ 84AA 6C 65 72 0D
 394+ 84AE 0B 06 53 44          DB #0B,6,"SD: NeoGS",13
 394+ 84B2 3A 20 4E 65
 394+ 84B6 6F 47 53 0D
 395+ 84BA 49 44 45 20          DB "IDE SMUC: Master",13
 395+ 84BE 53 4D 55 43
 395+ 84C2 3A 20 4D 61
 395+ 84C6 73 74 65 72
 395+ 84CA 0D
 396+ 84CB 49 44 45 20          DB "IDE SMUC: Slave",13
 396+ 84CF 53 4D 55 43
 396+ 84D3 3A 20 53 6C
 396+ 84D7 61 76 65 0D
 397+ 84DB 49 44 45 20          DB "IDE NEMO: Slave",0
 397+ 84DF 4E 45 4D 4F
 397+ 84E3 3A 20 53 6C
 397+ 84E7 61 76 65 00
 398+ 84EB              ;---------------------------------------
 399+ 84EB 0F 00        WND     DB #0F,0
 400+ 84ED 00 00                DB 0,0;      X,Y
 401+ 84EF 50           WND_W   DB 80;       W
 402+ 84F0 24           WND_H   DB 36;       H
 403+ 84F1 00                   DB %00000000;color
 404+ 84F2
 405+ 84F2 0E 05 05     TXT1    DB #0E,5,5
 406+ 84F5              TXTC
 407+ 84F5 57 69 6C 64          DB "Wild Commander v1.10",0
 407+ 84F9 20 43 6F 6D
 407+ 84FD 6D 61 6E 64
 407+ 8501 65 72 20 76
 407+ 8505 31 2E 31 30
 407+ 8509 00
 408+ 850A 07 07 46 31  TXT2    DB 7,7,"F1",6,1,"Help  "
 408+ 850E 06 01 48 65
 408+ 8512 6C 70 20 20
 409+ 8516 07 07 46 32          DB 7,7,"F2",8,1
 409+ 851A 08 01
 410+ 851C 20 20 20 20  F2TXT   DB "      "
 410+ 8520 20 20
 411+ 8522 07 07 46 33          DB 7,7,"F3",6,1,"View  "
 411+ 8526 06 01 56 69
 411+ 852A 65 77 20 20
 412+ 852E 07 07 46 34          DB 7,7,"F4",8,1
 412+ 8532 08 01
 413+ 8534 20 20 20 20  F4TXT   DB "      "
 413+ 8538 20 20
 414+ 853A 07 07 46 35          DB 7,7,"F5",6,1,"Copy  "
 414+ 853E 06 01 43 6F
 414+ 8542 70 79 20 20
 415+ 8546 07 07 46 36          DB 7,7,"F6",8,1,"ReName"
 415+ 854A 08 01 52 65
 415+ 854E 4E 61 6D 65
 416+ 8552 07 07 46 37          DB 7,7,"F7",6,1,"MkDir "
 416+ 8556 06 01 4D 6B
 416+ 855A 44 69 72 20
 417+ 855E 07 07 46 38          DB 7,7,"F8",8,1,"Delete"
 417+ 8562 08 01 44 65
 417+ 8566 6C 65 74 65
 418+ 856A 07 07 46 39          DB 7,7,"F9",6,1,"SetUP "
 418+ 856E 06 01 53 65
 418+ 8572 74 55 50 20
 419+ 8576 07 07 31 30          DB 7,7,"10",8,1,"Plugin"
 419+ 857A 08 01 50 6C
 419+ 857E 75 67 69 6E
 420+ 8582 07 07 20 06          DB 7,7,32,6,1,"KOSHI/MGN"
 420+ 8586 01 4B 4F 53
 420+ 858A 48 49 2F 4D
 420+ 858E 47 4E
 421+ 8590 00                   NOP
 422+ 8591              ;---------------------------------------
 423+ 8591 10 2E 2E 00  UPDIR   DB #10,"..",0
 424+ 8595              ;---------------------------------------
 425+ 8595
# file closed: WCVLS.ASM
1647  8595                      INCLUDE "WCFX.ASM"
# file opened: WCFX.ASM
   1+ 8595              ;---------------------------------------
   2+ 8595 CD 9F 74     F36     CALL F3
   2+ 8598 3E 01         LD A,1
   2+ 859A 20 21         JR NZ,SBN
   3+ 859C CD A4 74             CALL F4
   3+ 859F 3E 02         LD A,2
   3+ 85A1 20 1A         JR NZ,SBN
   4+ 85A3 CD AE 74             CALL F6
   4+ 85A6 3E 03         LD A,3
   4+ 85A8 20 13         JR NZ,SBN
   5+ 85AA CD 21 74             CALL CLAVA
   5+ 85AD 28 0A         JR Z,F36E
   6+ 85AF FE 72                CP "r"
   6+ 85B1 CC 79 8D      CALL Z,SEXY
   7+ 85B4 FE 61                CP "a"
   7+ 85B6 CC CB 85      CALL Z,MarkALL
   8+ 85B9
   9+ 85B9 3E 01        F36E    LD A,1
   9+ 85BB B7            OR A
  10+ 85BC C9                   RET
  11+ 85BD
  12+ 85BD DD BE 23     SBN     CP (IX+35)
  12+ 85C0 20 01         JR NZ,$+3
  12+ 85C2 AF            XOR A
  13+ 85C3 DD 77 23             LD (IX+35),A
  14+ 85C6 CD 79 8D             CALL SEXY
  15+ 85C9 18 EE                JR F36E
  16+ 85CB
  17+ 85CB              ;---------------------------------------
  18+ 85CB 3E F6 32 F6  MarkALL LD A,#F6,(NOTXOR),A
  18+ 85CF 85
  18+ 85D0 CD D9 85      CALL MarkMUL
  19+ 85D3 3E EE 32 F6          LD A,#EE,(NOTXOR),A
  19+ 85D7 85
  20+ 85D8 C9                   RET
  21+ 85D9              ;---------------------------------------
  22+ 85D9 21 FF FF 22  MarkMUL LD HL,0-1,(MMU+1),HL
  22+ 85DD E0 85
  23+ 85DF 21 00 00     MMU     LD HL,0
  23+ 85E2 23            INC HL
  24+ 85E3 22 E0 85             LD (MMU+1),HL
  25+ 85E6 CD 0B 63 CD          CALL GETen,MK
  25+ 85EA 01 86
  25+ 85EC 38 0D 28 EF   JR C,MEND,Z,MMU
  26+ 85F0 EB                   EX DE,HL
  27+ 85F1 11 F0 FF             LD DE,0-FLG
  27+ 85F4 19            ADD HL,DE
  28+ 85F5 7E                   LD A,(HL)
  29+ 85F6 EE 01        NOTXOR  XOR 1
  29+ 85F8 77            LD (HL),A
  30+ 85F9 18 E4                JR MMU
  31+ 85FB
  32+ 85FB CD B8 65     MEND    CALL WLIT
  33+ 85FE C3 3B 7D             JP CURSOR
  34+ 8601              ;---------------------------------------
  35+ 8601 08           MK      EXA
  35+ 8602 7C            LD A,H
  35+ 8603 B5            OR L
  35+ 8604 37            SCF
  35+ 8605 C8            RET Z
  36+ 8606 08                   EXA
  36+ 8607 C0            RET NZ
  37+ 8608 D5                   PUSH DE
  38+ 8609 E1                   POP HL
  39+ 860A 23                   INC HL
  39+ 860B 7E            LD A,(HL)
  39+ 860C EE 2E         XOR "."
  39+ 860E C0            RET NZ
  40+ 860F 23                   INC HL
  40+ 8610 7E            LD A,(HL)
  40+ 8611 EE 2E         XOR "."
  40+ 8613 C0            RET NZ
  41+ 8614 23                   INC HL
  41+ 8615 7E            LD A,(HL)
  41+ 8616 B7            OR A
  42+ 8617 C9                   RET
  43+ 8618              ;-------
  44+ 8618 CD FE 62 CD  Mark    CALL GETEN,MK
  44+ 861C 01 86
  44+ 861E C8            RET Z
  45+ 861F EB                   EX DE,HL
  46+ 8620 11 F0 FF             LD DE,0-FLG
  46+ 8623 19            ADD HL,DE
  47+ 8624 7E                   LD A,(HL)
  47+ 8625 EE 01         XOR 1
  47+ 8627 77            LD (HL),A
  48+ 8628
  49+ 8628 DD 6E 10             LD L,(IX+16)
  50+ 862B DD 66 11             LD H,(IX+17)
  51+ 862E E5                   PUSH HL
  52+ 862F CD 1C 62             CALL CRDN
  53+ 8632 E1                   POP HL
  54+ 8633 DD 5E 10             LD E,(IX+16)
  55+ 8636 DD 56 11             LD D,(IX+17)
  55+ 8639 B7            OR A
  55+ 863A ED 52         SBC HL,DE
  56+ 863C C0                   RET NZ
  57+ 863D CD 57 7D CD          CALL CURSER,WLIT
  57+ 8641 B8 65
  58+ 8643 C3 3B 7D             JP CURSOR
  59+ 8646
  60+ 8646              IMrk    ;no mark (one item)
  61+ 8646 CD FE 62 CD          CALL GETEN,MK
  61+ 864A 01 86
  61+ 864C C8            RET Z
  62+ 864D EB                   EX DE,HL
  63+ 864E 11 F0 FF             LD DE,0-FLG
  63+ 8651 19            ADD HL,DE
  64+ 8652 7E                   LD A,(HL)
  64+ 8653 EE 01         XOR 1
  64+ 8655 77            LD (HL),A
  65+ 8656 CD B8 65             CALL WLIT
  66+ 8659 AF                   XOR A
  66+ 865A 32 A9 7F      LD (MRCT+1),A
  67+ 865D 3C                   INC A
  67+ 865E 32 A8 7F      LD (MRCT),A;  marked count
  68+ 8661 C9                   RET
  69+ 8662
  70+ 8662 21 00 00     MARKSRH LD HL,0
  70+ 8665 AF            XOR A
  70+ 8666 32 04 60      LD (ABT),A
  71+ 8669 D9                   EXX
  71+ 866A 01 00 00      LD BC,0
  72+ 866D D9           RKSRH   EXX
  73+ 866E 22 AA 7F     RKSR1   LD (MRRN),HL
  73+ 8671 CD 4F 63      CALL Gwe
  73+ 8674 28 0E         JR Z,ERK
  74+ 8676 7E                   LD A,(HL)
  74+ 8677 CB 47         BIT 0,A
  75+ 8679 2A AA 7F             LD HL,(MRRN)
  75+ 867C 23            INC HL
  75+ 867D 28 EF         JR Z,RKSR1
  76+ 867F D9                   EXX
  77+ 8680 03                   INC BC
  78+ 8681 C3 6D 86             JP RKSRH
  79+ 8684
  80+ 8684 D9           ERK     EXX
  81+ 8685 21 00 00             LD HL,0
  82+ 8688 22 AA 7F             LD (MRRN),HL
  83+ 868B ED 43 A8 7F          LD (MRCT),BC
  84+ 868F 78                   LD A,B
  84+ 8690 B1            OR C
  85+ 8691 C9                   RET
  86+ 8692              ;---------------------------------------
  87+ 8692              DEL64
  88+ 8692 CB 3A       > SRL D
  88+ 8694 CB 3A       > SRL D
  88+ 8696 CB 3A       > SRL D
  88+ 8698 CB 3A       > SRL D
  88+ 869A CB 3A       > SRL D
  88+ 869C CB 3A       > SRL D
  88+ 869E CB 1B CB 1C   RR E,H,L
  88+ 86A2 CB 1D
  89+ 86A4 C9                   RET
  90+ 86A5
  91+ 86A5 ED 4B B8 86  DLT4PCH LD BC,(PBSTH+1),A,B
  91+ 86A9 78
  91+ 86AA B1            OR C
  92+ 86AB ED 4B C2 86          LD BC,(PBSTL+1)
  92+ 86AF B0 B1         OR B,C
  92+ 86B1 C8            RET Z
  93+ 86B2
  94+ 86B2 DD 21 FF FF  DELIT4P LD IX,0-1
  95+ 86B6 B7           NAZE    OR A
  96+ 86B7 01 00 00     PBSTH   LD BC,0
  96+ 86BA DD 23         INC IX
  97+ 86BC EB                   EX DE,HL
  97+ 86BD ED 42         SBC HL,BC
  97+ 86BF 38 18         JR C,ND
  98+ 86C1 01 00 00     PBSTL   LD BC,0
  99+ 86C4 EB                   EX DE,HL
  99+ 86C5 ED 42         SBC HL,BC
  99+ 86C7 30 EE         JR NC,PBSTH
 100+ 86C9 1B                   DEC DE
 101+ 86CA 7A                   LD A,D
 101+ 86CB 3C            INC A
 101+ 86CC 20 E8         JR NZ,NAZE
 102+ 86CE 7B                   LD A,E
 102+ 86CF 3C            INC A
 102+ 86D0 20 E4         JR NZ,NAZE
 103+ 86D2 13                   INC DE
 104+ 86D3
 105+ 86D3 09                   ADD HL,BC
 106+ 86D4 EB                   EX DE,HL
 107+ 86D5 ED 4B B8 86          LD BC,(PBSTH+1)
 108+ 86D9 09           ND      ADD HL,BC
 109+ 86DA EB                   EX DE,HL
 110+ 86DB DD E5                PUSH IX
 111+ 86DD C1                   POP BC
 112+ 86DE 79                   LD A,C
 112+ 86DF C6 30         ADD A,#30
 113+ 86E1 C9                   RET
 114+ 86E2
 115+ 86E2              DECZON4 ;i:[DE,HL] - int32
 116+ 86E2              ;           EXX DE - String address
 117+ 86E2              ;        o:Decimal string(10)
 118+ 86E2
 119+ 86E2 01 00 CA ED          LD BC,#CA00,(PBSTL+1),BC
 119+ 86E6 43 C2 86
 120+ 86E9 01 9A 3B ED          LD BC,#3B9A,(PBSTH+1),BC
 120+ 86ED 43 B8 86
 121+ 86F0 CD B2 86             CALL DELIT4P
 122+ 86F3 D9                   EXX
 122+ 86F4 12            LD (DE),A
 122+ 86F5 13            INC DE
 122+ 86F6 D9            EXX
 123+ 86F7
 124+ 86F7 01 00 E1 ED          LD BC,#E100,(PBSTL+1),BC
 124+ 86FB 43 C2 86
 125+ 86FE 01 F5 05 ED          LD BC,#05F5,(PBSTH+1),BC
 125+ 8702 43 B8 86
 126+ 8705 CD B2 86             CALL DELIT4P
 127+ 8708 D9                   EXX
 127+ 8709 12            LD (DE),A
 127+ 870A 13            INC DE
 127+ 870B D9            EXX
 128+ 870C
 129+ 870C 01 80 96 ED          LD BC,#9680,(PBSTL+1),BC
 129+ 8710 43 C2 86
 130+ 8713 01 98 00 ED          LD BC,#0098,(PBSTH+1),BC
 130+ 8717 43 B8 86
 131+ 871A CD B2 86             CALL DELIT4P
 132+ 871D D9                   EXX
 132+ 871E 12            LD (DE),A
 132+ 871F 13            INC DE
 132+ 8720 D9            EXX
 133+ 8721
 134+ 8721 01 40 42 ED          LD BC,#4240,(PBSTL+1),BC
 134+ 8725 43 C2 86
 135+ 8728 01 0F 00 ED          LD BC,#000F,(PBSTH+1),BC
 135+ 872C 43 B8 86
 136+ 872F CD B2 86             CALL DELIT4P
 137+ 8732 D9                   EXX
 137+ 8733 12            LD (DE),A
 137+ 8734 13            INC DE
 137+ 8735 D9            EXX
 138+ 8736
 139+ 8736 01 A0 86 ED          LD BC,#86A0,(PBSTL+1),BC
 139+ 873A 43 C2 86
 140+ 873D 01 01 00 ED          LD BC,#0001,(PBSTH+1),BC
 140+ 8741 43 B8 86
 141+ 8744 CD B2 86             CALL DELIT4P
 142+ 8747 D9                   EXX
 142+ 8748 12            LD (DE),A
 142+ 8749 13            INC DE
 142+ 874A D9            EXX
 143+ 874B              ;-------
 144+ 874B 01 10 27 ED  DECZON2 LD BC,10000,(PBSTL+1),BC
 144+ 874F 43 C2 86
 145+ 8752 01 00 00 ED          LD BC,0,(PBSTH+1),BC
 145+ 8756 43 B8 86
 146+ 8759 CD B2 86             CALL DELIT4P
 147+ 875C E5                   PUSH HL
 148+ 875D D9                   EXX
 148+ 875E 12            LD (DE),A
 148+ 875F 13            INC DE
 149+ 8760 E1                   POP HL
 150+ 8761 01 E8 03     DECZ2   LD BC,1000
 151+ 8764 CD 80 87             CALL DELIT
 152+ 8767 12                   LD (DE),A
 152+ 8768 13            INC DE
 153+ 8769 01 64 00     DECZ1   LD BC,100
 154+ 876C CD 80 87             CALL DELIT
 155+ 876F 12                   LD (DE),A
 155+ 8770 13            INC DE
 156+ 8771 0E 0A        DECZ    LD C,10
 157+ 8773 CD 80 87             CALL DELIT
 158+ 8776 12                   LD (DE),A
 158+ 8777 13            INC DE
 159+ 8778 0E 01                LD C,1
 160+ 877A CD 80 87             CALL DELIT
 161+ 877D 12                   LD (DE),A
 161+ 877E 13            INC DE
 162+ 877F C9                   RET
 163+ 8780              ;-------
 164+ 8780 3E FF        DELIT   LD A,#FF
 165+ 8782 B7                   OR A
 166+ 8783 3C           DLIT    INC A
 167+ 8784 ED 42                SBC HL,BC
 167+ 8786 D2 83 87      JP NC,DLIT
 168+ 8789 09 C6 30             ADD HL,BC,A,#30
 169+ 878C C9                   RET
 170+ 878D              ;---------------------------------------
 171+ 878D AF           STATUS  XOR A
 171+ 878E 21 A7 7F      LD HL,STUS
 171+ 8791 BE            CP (HL)
 171+ 8792 C8            RET Z
 172+ 8793 77                   LD (HL),A
 173+ 8794
 174+ 8794 DD 5E 12             LD E,(IX+18)
 175+ 8797 DD 56 13             LD D,(IX+19)
 176+ 879A CD 6D 78             CALL PBINIT
 177+ 879D DD 6E 10             LD L,(IX+16)
 178+ 87A0 DD 66 11             LD H,(IX+17)
 179+ 87A3 CD A1 78             CALL PBPRINT
 180+ 87A6
 181+ 87A6 CD 6A 9F             CALL ARAP
 182+ 87A9 DD 7E 0A             LD A,(IX+10)
 182+ 87AC FE 02         CP 2
 182+ 87AE C0            RET NZ
 183+ 87AF
 184+ 87AF CD FE 62             CALL GETEN
 185+ 87B2
 186+ 87B2 08                   EXA
 187+ 87B3 1A                   LD A,(DE)
 187+ 87B4 B7            OR A
 188+ 87B5 3E 20                LD A," "
 188+ 87B7 28 02         JR Z,$+4
 188+ 87B9 3E 2E         LD A,"."
 189+ 87BB 23                   INC HL
 190+ 87BC E5                   PUSH HL
 191+ 87BD 21 CF 7F 11          LD HL,ENTRY,DE,LOBU,BC,8
 191+ 87C1 00 B0 01 08
 191+ 87C5 00
 191+ 87C6 ED B0         LDIR
 192+ 87C8 12                   LD (DE),A
 192+ 87C9 13            INC DE
 193+ 87CA E1                   POP HL
 194+ 87CB 0E 03                LD C,3
 194+ 87CD ED B0         LDIR
 195+ 87CF 3E 20 12             LD A," ",(DE),A
 195+ 87D2 13            INC DE
 196+ 87D3 08                   EXA
 197+ 87D4
 198+ 87D4 21 6C 7F             LD HL,SDIR
 198+ 87D7 28 03         JR Z,$+5
 198+ 87D9 21 71 7F      LD HL,SFIL
 199+ 87DC 0E 05                LD C,5
 199+ 87DE ED B0         LDIR
 200+ 87E0
 201+ 87E0 3E 20                LD A,32
 202+ 87E2 12          > LD (DE),A
 202+ 87E3 12          > LD (DE),A
 202+ 87E4 12          > LD (DE),A
 202+ 87E5 12          > LD (DE),A
 202+ 87E6 12          > LD (DE),A
 202+ 87E7 12          > LD (DE),A
 202+ 87E8 12          > LD (DE),A
 202+ 87E9 13            INC DE
 203+ 87EA
 204+ 87EA D9                   EXX
 205+ 87EB 2A 90 7F ED          LD HL,(ARRR),DE,(ARRR+2)
 205+ 87EF 5B 92 7F
 206+ 87F2 DD E5                PUSH IX
 207+ 87F4 CD E2 86             CALL DECZON4
 208+ 87F7 DD E1                POP IX
 209+ 87F9
 210+ 87F9 1B                   DEC DE
 211+ 87FA 62 6B 01 F7          LD HL,DE,BC,0-9
 211+ 87FE FF
 211+ 87FF 09            ADD HL,BC
 212+ 8800
 213+ 8800 06 0A 3E 30          LD B,10,A,#30
 214+ 8804 BE           DZF     CP (HL)
 214+ 8805 20 05         JR NZ,DzF
 215+ 8807 36 20                LD (HL),32
 215+ 8809 23            INC HL
 216+ 880A 10 F8                DJNZ DZF
 217+ 880C 62 6B        DzF     LD HL,DE
 218+ 880E 13          > INC DE
 218+ 880F 13          > INC DE
 218+ 8810 13          > INC DE
 219+ 8811 3E 20                LD A,32
 220+ 8813 01 03 00             LD BC,3
 220+ 8816 ED B8         LDDR
 221+ 8818 12                   LD (DE),A
 221+ 8819 1B            DEC DE
 222+ 881A 0E 03                LD C,3
 222+ 881C ED B8         LDDR
 223+ 881E 12                   LD (DE),A
 223+ 881F 1B            DEC DE
 224+ 8820 0E 03                LD C,3
 224+ 8822 ED B8         LDDR
 225+ 8824 12                   LD (DE),A
 225+ 8825 1B            DEC DE
 226+ 8826 7E 12                LD A,(HL),(DE),A
 227+ 8828
 228+ 8828 DD 7E 05             LD A,(IX+5)
 228+ 882B D6 02         SUB 2
 229+ 882D 21 00 B0 57          LD HL,LOBU,D,A,E,1,BC,38
 229+ 8831 1E 01 01 26
 229+ 8835 00
 229+ 8836 C3 89 7D      JP PRSRW
 230+ 8839              ;-------
 231+ 8839 CD 6D 74     R2B2    CALL ENKE
 231+ 883C C2 9B 91      JP NZ,EXTZEL
 232+ 883F CD 9F 74             CALL F3
 232+ 8842 C2 9B 91      JP NZ,EXTZEL
 233+ 8845 3E 01                LD A,1
 233+ 8847 B7            OR A
 234+ 8848 C9                   RET
 235+ 8849              ;-------
 236+ 8849 CD 95 74     F12     CALL F1
 236+ 884C 20 07         JR NZ,SLM
 237+ 884E CD 9A 74             CALL F2
 237+ 8851 20 07         JR NZ,SRM
 238+ 8853 18 26                JR BER
 239+ 8855              ;-------
 240+ 8855 21 04 7F     SLM     LD HL,WINDOW
 240+ 8858 18 03         JR $+5
 241+ 885A 21 28 7F     SRM     LD HL,WINDO2
 242+ 885D
 243+ 885D CD 7F 88             CALL SXM
 243+ 8860 04            INC B
 243+ 8861 28 18         JR Z,BER
 244+ 8863 DD E5                PUSH IX
 245+ 8865 DD 2A A0 7F          LD IX,(IXHL),(IX+29),A,(IX+28),0
 245+ 8869 DD 77 1D DD
 245+ 886D 36 1C 00
 246+ 8870 CD 5D 68 CD          CALL DRACT,ORIGA
 246+ 8874 ED 63
 247+ 8876 DD E1                POP IX
 248+ 8878 CD 5D 68             CALL DRACT
 249+ 887B
 250+ 887B 3E 01        BER     LD A,1
 250+ 887D B7            OR A
 251+ 887E C9                   RET
 252+ 887F              ;-------
 253+ 887F              SXM     ;i:HL - SOW, IX - SOW(now)
 254+ 887F              ;        o: A - CurPoz-1
 255+ 887F
 256+ 887F DD E5                PUSH IX
 257+ 8881 E5                   PUSH HL
 257+ 8882 CD 57 7D      CALL CURSER
 257+ 8885 E1            POP HL
 258+ 8886 22 A0 7F             LD (IXHL),HL
 259+ 8889 E5                   PUSH HL
 260+ 888A FD E1                POP IY
 261+ 888C DD 21 E6 80          LD IX,DSWND
 262+ 8890
 263+ 8890 FD 7E 02             LD A,(IY+2)
 263+ 8893 C6 02         ADD A,2
 263+ 8895 DD 77 02      LD (IX+2),A
 264+ 8898 FD 7E 03             LD A,(IY+3)
 264+ 889B C6 02         ADD A,2
 264+ 889D DD 77 03      LD (IX+3),A
 265+ 88A0
 266+ 88A0 FD 7E 1D             LD A,(IY+29)
 267+ 88A3 FE 06                CP 6
 267+ 88A5 20 04         JR NZ,AMC4
 268+ 88A7 3E 02                LD A,2
 268+ 88A9 18 05         JR AMC5
 269+ 88AB FE 02        AMC4    CP 2
 269+ 88AD 38 01         JR C,$+3
 269+ 88AF 3C            INC A
 270+ 88B0 3C           AMC5    INC A
 270+ 88B1 DD 77 0C      LD (IX+12),A
 271+ 88B4 CD 92 79             CALL PRWOW
 272+ 88B7
 273+ 88B7 FB           SMC     EI
 273+ 88B8 76            HALT
 273+ 88B9 CD 3B 7D      CALL CURSOR
 274+ 88BC CD 49 74 C4          CALL UPPP,NZ,CrUP
 274+ 88C0 8E 62
 275+ 88C2 CD 4F 74 C4          CALL DWWW,NZ,CrDN
 275+ 88C6 85 62
 276+ 88C8
 277+ 88C8 CD 90 74             CALL ESC
 277+ 88CB 06 FF         LD B,#FF
 277+ 88CD 20 07         JR NZ,AMC
 278+ 88CF CD 6D 74             CALL ENKE
 278+ 88D2 28 E3         JR Z,SMC
 279+ 88D4 06 00                LD B,0
 280+ 88D6 C5           AMC     PUSH BC
 281+ 88D7 CD 34 7B             CALL RRESB
 282+ 88DA C1                   POP BC
 283+ 88DB DD 7E 0C             LD A,(IX+12)
 283+ 88DE 3D            DEC A
 284+ 88DF FE 02                CP 2
 284+ 88E1 20 02         JR NZ,AMC3
 285+ 88E3 3E 07                LD A,6+1
 286+ 88E5 38 01        AMC3    JR C,AMC2
 286+ 88E7 3D            DEC A
 287+ 88E8 DD E1        AMC2    POP IX
 288+ 88EA C9                   RET
 289+ 88EB              ;---------------------------------------
 290+ 88EB DD E5        HELP    PUSH IX
 291+ 88ED DD 21 7C 80          LD IX,HPWND
 291+ 88F1 CD 92 79      CALL PRWOW
 292+ 88F4
 293+ 88F4 CD 03 89             CALL Confa
 294+ 88F7
 295+ 88F7 CD 41 74             CALL USPO
 296+ 88FA CD 39 74             CALL NUSP
 297+ 88FD
 298+ 88FD CD 34 7B             CALL RRESB
 299+ 8900 DD E1                POP IX
 300+ 8902 C9                   RET
 301+ 8903              ;-------
 302+ 8903 CD 9F 89     Confa   CALL FROZEN
 303+ 8906 21 10 B0 06          LD HL,LOBU+16,B,32
 303+ 890A 20
 303+ 890B CD 8E 69      CALL NOPING
 304+ 890E 21 00 B0 11          LD HL,LOBU,DE,LOBU+16,C,12
 304+ 8912 10 B0 0E 0C
 304+ 8916 ED B0         LDIR
 305+ 8918 CD 58 89             CALL ROZEN
 306+ 891B
 307+ 891B 21 10 B0 11          LD HL,LOBU+16,DE,#0307,BC,28
 307+ 891F 07 03 01 1C
 307+ 8923 00
 307+ 8924 CD 89 7D      CALL PRSRW
 308+ 8927 3E 71                LD A,%01110001
 308+ 8929 CD 9D 7D      CALL PRIAT
 309+ 892C 21 8B AB 11          LD HL,IVD,DE,LOBU,BC,14
 309+ 8930 00 B0 01 0E
 309+ 8934 00
 309+ 8935 ED B0         LDIR
 310+ 8937 3A 0D 60             LD A,(CNFv)
 311+ 893A 21 99 AB             LD HL,IVDy
 312+ 893D B7                   OR A
 312+ 893E 20 03         JR NZ,$+5
 312+ 8940 21 A1 AB      LD HL,IVDn
 313+ 8943 0E 08                LD C,8
 313+ 8945 ED B0         LDIR
 314+ 8947 21 00 B0 11          LD HL,LOBU,DE,#040B,BC,22
 314+ 894B 0B 04 01 16
 314+ 894F 00
 314+ 8950 CD 89 7D      CALL PRSRW
 315+ 8953 3E 70                LD A,%01110000
 315+ 8955 C3 9D 7D      JP PRIAT
 316+ 8958              ;-------
 317+ 8958 7E           ROZEN   LD A,(HL)
 317+ 8959 E6 1F         AND %00011111
 318+ 895B E5                   PUSH HL
 319+ 895C 6F 26 00             LD L,A,H,0
 320+ 895F CD 71 87             CALL DECZ
 320+ 8962 3E 2E 12      LD A,".",(DE),A
 320+ 8965 13            INC DE
 321+ 8966 E1                   POP HL
 322+ 8967
 323+ 8967 7E                   LD A,(HL)
 323+ 8968 23            INC HL
 324+ 8969 CB 3E                SRL (HL)
 324+ 896B 1F            RRA
 325+ 896C CB 3F       > SRL A
 325+ 896E CB 3F       > SRL A
 325+ 8970 CB 3F       > SRL A
 325+ 8972 CB 3F       > SRL A
 326+ 8974 E5                   PUSH HL
 326+ 8975 6F 26 00      LD L,A,H,0
 326+ 8978 CD 71 87      CALL DECZ
 327+ 897B E1                   POP HL
 328+ 897C EB                   EX DE,HL
 329+ 897D 36 2E                LD (HL),"."
 329+ 897F 23            INC HL
 330+ 8980 36 32                LD (HL),"2"
 330+ 8982 23            INC HL
 331+ 8983 36 30                LD (HL),"0"
 331+ 8985 23            INC HL
 332+ 8986 EB                   EX DE,HL
 333+ 8987
 334+ 8987 7E                   LD A,(HL)
 334+ 8988 E6 3F         AND %00111111
 335+ 898A E5                   PUSH HL
 335+ 898B 6F 26 00      LD L,A,H,0
 335+ 898E CD 71 87      CALL DECZ
 336+ 8991 E1                   POP HL
 337+ 8992 CB 76                BIT 6,(HL)
 337+ 8994 C0            RET NZ
 338+ 8995 13                   INC DE
 339+ 8996 21 2B 84 01          LD HL,BETA,BC,4
 339+ 899A 04 00
 339+ 899C ED B0         LDIR
 340+ 899E C9                   RET
 341+ 899F              ;-------
 342+ 899F 01 F7 DF 3E  FROZEN  LD BC,#DFF7,A,#F0,E,A
 342+ 89A3 F0 5F
 342+ 89A5 ED 79         OUT (C),A
 343+ 89A7 06 BF                LD B,#BF
 343+ 89A9 AF            XOR A
 343+ 89AA ED 79         OUT (C),A
 344+ 89AC
 345+ 89AC 21 00 B0             LD HL,LOBU
 346+ 89AF 06 BF        FRZ     LD B,#BF
 346+ 89B1 ED A2         INI
 346+ 89B3 1C            INC E
 346+ 89B4 28 06         JR Z,FrZ
 347+ 89B6 06 DF                LD B,#DF
 347+ 89B8 ED 59         OUT (C),E
 348+ 89BA 18 F3                JR FRZ
 349+ 89BC 06 BF 3E 02  FrZ     LD B,#BF,A,2
 349+ 89C0 ED 79         OUT (C),A
 350+ 89C2 C9                   RET
 351+ 89C3              ;---------------------------------------
 352+ 89C3 CD 57 7D     COPY    CALL CURSER
 353+ 89C6 CD 62 86 CC          CALL MARKSRH,Z,IMrk
 353+ 89CA 46 86
 353+ 89CC C8            RET Z
 354+ 89CD
 355+ 89CD CD E3 89             CALL CPDI
 356+ 89D0
 357+ 89D0 CD DF 8C     TERM    CALL SWPPAND
 358+ 89D3 11 8C 7F             LD DE,BRRR
 358+ 89D6 CD 21 40      CALL TLSTCAT
 359+ 89D9 CD EB 62 CD          CALL PANELI,FOLD
 359+ 89DD F0 63
 360+ 89DF CD DF 8C             CALL SWPPAND
 361+ 89E2 C9                   RET
 362+ 89E3              ;*******
 363+ 89E3 DD E5        CPDI    PUSH IX
 364+ 89E5 DD 21 64 80          LD IX,F5WND
 364+ 89E9 CD 92 79      CALL PRWOW
 365+ 89EC 21 83 81 11          LD HL,TXT8,DE,#0000
 365+ 89F0 00 00
 365+ 89F2 CD E5 7D      CALL TXTPR
 366+ 89F5
 367+ 89F5 2A A8 7F             LD HL,(MRCT)
 368+ 89F8 11 B4 81             LD DE,TXTD7
 368+ 89FB CD 61 87      CALL DECZ2
 369+ 89FE 21 8A 81 11          LD HL,TXT9,DE,#020A
 369+ 8A02 0A 02
 369+ 8A04 CD E5 7D      CALL TXTPR
 370+ 8A07
 371+ 8A07 3E 01                LD A,1
 371+ 8A09 CD 70 66      CALL YN
 372+ 8A0C FB           CPM     EI
 372+ 8A0D 76            HALT
 373+ 8A0E AF                   XOR A
 373+ 8A0F CD 70 66      CALL YN
 374+ 8A12
 375+ 8A12 CD 6D 74             CALL ENKE
 375+ 8A15 20 0B         JR NZ,CPGO
 376+ 8A17 CD 90 74             CALL ESC
 376+ 8A1A 28 F0         JR Z,CPM
 377+ 8A1C
 378+ 8A1C CD 34 7B     CPet    CALL RRESB
 379+ 8A1F DD E1                POP IX
 380+ 8A21 C9                   RET
 381+ 8A22              ;-------
 382+ 8A22 3E FF        CPGO    LD A,#FF
 382+ 8A24 CD 70 66      CALL YN
 382+ 8A27 20 F3         JR NZ,CPet
 383+ 8A29 DD E1                POP IX
 384+ 8A2B
 385+ 8A2B 21 00 00             LD HL,0
 386+ 8A2E E5           LENIN   PUSH HL
 387+ 8A2F CD 0B 63             CALL GETen
 388+ 8A32 08                   EXA
 388+ 8A33 7C            LD A,H
 388+ 8A34 B5            OR L
 388+ 8A35 28 0E         JR Z,CPgo
 389+ 8A37 08                   EXA
 389+ 8A38 CB 46         BIT 0,(HL)
 389+ 8A3A 36 00         LD (HL),0
 390+ 8A3C C4 0C 8B             CALL NZ,COPYF
 390+ 8A3F 20 04         JR NZ,CPgo
 391+ 8A41 E1                   POP HL
 392+ 8A42 23                   INC HL
 393+ 8A43 18 E9                JR LENIN
 394+ 8A45
 395+ 8A45 E1           CPgo    POP HL
 396+ 8A46 DD E5                PUSH IX
 397+ 8A48 DD 21 64 80          LD IX,F5WND
 397+ 8A4C CD 34 7B      CALL RRESB
 398+ 8A4F DD E1                POP IX
 399+ 8A51
 400+ 8A51 C3 B8 65             JP WLIT
 401+ 8A54              ;*******
 402+ 8A54 CD BB 8A     FLOF    CALL NAMEBG
 403+ 8A57
 404+ 8A57 AF                   XOR A
 405+ 8A58 11 00 B2             LD DE,LOBU+512
 406+ 8A5B 01 FF 26             LD BC,#26FF
 407+ 8A5E ED A0        FLOf    LDI
 407+ 8A60 BE            CP (HL)
 407+ 8A61 28 02         JR Z,$+4
 407+ 8A63 10 F9         DJNZ FLOf
 408+ 8A65 78                   LD A,B
 408+ 8A66 B7            OR A
 409+ 8A67 EB                   EX DE,HL
 409+ 8A68 C4 8E 69      CALL NZ,NOPING
 410+ 8A6B
 411+ 8A6B DD E5                PUSH IX
 412+ 8A6D DD 21 64 80          LD IX,F5WND
 413+ 8A71
 414+ 8A71 2A AA 7F             LD HL,(MRRN)
 414+ 8A74 23            INC HL
 414+ 8A75 22 AA 7F      LD (MRRN),HL
 415+ 8A78 11 95 81             LD DE,TXT10+2
 415+ 8A7B CD 61 87      CALL DECZ2
 416+ 8A7E 2A A8 7F             LD HL,(MRCT)
 417+ 8A81 11 9D 81             LD DE,TXT10+8+2
 417+ 8A84 CD 61 87      CALL DECZ2
 418+ 8A87 21 A0 5E 06          LD HL,TXTBU,B,32
 418+ 8A8B 20
 419+ 8A8C E5                   PUSH HL
 419+ 8A8D CD 8E 69      CALL NOPING
 420+ 8A90 E1                   POP HL
 420+ 8A91 11 01 02 01   LD DE,#0201,BC,32
 420+ 8A95 20 00
 420+ 8A97 CD 89 7D      CALL PRSRW
 421+ 8A9A 21 93 81 11          LD HL,TXT10,DE,#0200
 421+ 8A9E 00 02
 421+ 8AA0 CD E5 7D      CALL TXTPR
 422+ 8AA3
 423+ 8AA3 21 00 B2             LD HL,LOBU+512
 424+ 8AA6 11 01 01 01          LD DE,#0101,BC,#26
 424+ 8AAA 26 00
 424+ 8AAC CD 89 7D      CALL PRSRW
 425+ 8AAF 3E 70                LD A,%01110000
 425+ 8AB1 CD 9D 7D      CALL PRIAT
 426+ 8AB4 DD E1                POP IX
 427+ 8AB6
 428+ 8AB6 3A 04 60             LD A,(ABT)
 428+ 8AB9 B7            OR A
 429+ 8ABA C9                   RET
 430+ 8ABB
 431+ 8ABB EB           NAMEBG  EX DE,HL
 432+ 8ABC 11 04 B0             LD DE,LOBU+4
 433+ 8ABF 7E                   LD A,(HL)
 433+ 8AC0 E6 10         AND #10
 434+ 8AC2 EE 10                XOR #10
 434+ 8AC4 12            LD (DE),A
 435+ 8AC5 23 13                INC HL,DE
 436+ 8AC7 E5                   PUSH HL
 436+ 8AC8 01 00 01      LD BC,256
 436+ 8ACB ED B0         LDIR
 437+ 8ACD E1                   POP HL
 438+ 8ACE C9                   RET
 439+ 8ACF              ;---------------------------------------
 440+ 8ACF 3D           FEEM    DEC A
 440+ 8AD0 21 8A 82      LD HL,TER2B
 440+ 8AD3 C8            RET Z
 441+ 8AD4 3D                   DEC A
 441+ 8AD5 21 A3 82      LD HL,TER2C
 441+ 8AD8 C8            RET Z
 442+ 8AD9 3D                   DEC A
 442+ 8ADA 21 BE 82      LD HL,TER2D
 442+ 8ADD C8            RET Z
 443+ 8ADE 3D                   DEC A
 443+ 8ADF 21 BE 82      LD HL,TER2D
 443+ 8AE2 C8            RET Z
 444+ 8AE3 FE 04                CP 8-4
 444+ 8AE5 21 6F 82      LD HL,TER2A
 444+ 8AE8 C8            RET Z
 445+ 8AE9 FE 0C                CP 16-4
 445+ 8AEB 21 5C 82      LD HL,TER2
 445+ 8AEE C8            RET Z
 446+ 8AEF 21 0B 83             LD HL,TER2X
 447+ 8AF2 C9                   RET
 448+ 8AF3              ;-------
 449+ 8AF3 CD CF 8A     RER0    CALL FEEM
 449+ 8AF6 C3 1E 91      JP ERR0
 450+ 8AF9              ;-------
 451+ 8AF9 21 6F 82     CE1     LD HL,TER2A
 452+ 8AFC 18 08                JR CE0
 453+ 8AFE CD CF 8A     CER0    CALL FEEM
 454+ 8B01 E5                   PUSH HL
 454+ 8B02 CD DF 8C      CALL SWPPAND
 455+ 8B05 E1                   POP HL
 456+ 8B06 CD 1E 91     CE0     CALL ERR0
 457+ 8B09 AF           CEX     XOR A
 457+ 8B0A 3C            INC A
 458+ 8B0B C9                   RET
 459+ 8B0C              ;-------
 460+ 8B0C B7           COPYF   OR A
 460+ 8B0D CA B9 8B      JP Z,DIRCOPY
 461+ 8B10 CD 54 8A C4          CALL FLOF,NZ,ABME
 461+ 8B14 20 90
 461+ 8B16 20 F1         JR NZ,CEX
 462+ 8B18 21 00 00 3E          LD HL,0,A,3
 462+ 8B1C 03
 463+ 8B1D 32 4B 80     COPYFD  LD (PBWND+5),A
 464+ 8B20 22 56 80             LD (PBWND+16),HL
 465+ 8B23 21 04 B0             LD HL,LOBU+4
 466+ 8B26 CD 21 6F             CALL FENTRY
 466+ 8B29 28 CE         JR Z,CE1
 467+ 8B2B 3A 04 B0 32          LD A,(LOBU+4),(LOBU),A
 467+ 8B2F 00 B0
 468+ 8B31 22 01 B0             LD (LOBU+1),HL
 469+ 8B34 ED 53 03 B0          LD (LOBU+3),DE
 470+ 8B38 CD 47 6F             CALL GFILE
 471+ 8B3B
 472+ 8B3B CD DF 8C             CALL SWPPAND
 473+ 8B3E
 474+ 8B3E 21 00 B0             LD HL,LOBU
 475+ 8B41 CD 53 6F             CALL MKfile
 475+ 8B44 20 B8         JR NZ,CER0
 476+ 8B46
 477+ 8B46 3E 08                LD A,BUFPG
 477+ 8B48 CD B6 68      CALL MNGC
 478+ 8B4B CD 83 90             CALL PBSHW
 479+ 8B4E CD BD 90     SVNG    CALL PBPR
 480+ 8B51
 481+ 8B51 CD DF 8C             CALL SWPPAND
 482+ 8B54 21 00 C0             LD HL,#C000
 483+ 8B57 06 20                LD B,32
 483+ 8B59 CD 15 40      CALL LOAD512
 484+ 8B5C
 485+ 8B5C CD DF 8C             CALL SWPPAND
 486+ 8B5F 21 00 C0             LD HL,#C000
 487+ 8B62 06 20                LD B,32
 487+ 8B64 CD 18 40      CALL SAVE512
 488+ 8B67 FE 0F                CP #0F
 488+ 8B69 20 E3         JR NZ,SVNG
 489+ 8B6B
 490+ 8B6B CD B1 90             CALL PBHTW
 491+ 8B6E
 492+ 8B6E CD DF 8C             CALL SWPPAND
 493+ 8B71 AF                   XOR A
 494+ 8B72 C9                   RET
 495+ 8B73
 496+ 8B73              ;ERR Codes
 497+ 8B73              ;    B: 1 - dir not found (src)
 498+ 8B73              ;       2 - mkdir failed (dest)
 499+ 8B73              ;       3 - dir nf after mkdir (dest)
 500+ 8B73              ;       4 - updir ("..") not found (src)
 501+ 8B73              ;       5 - updir nf (dest)
 502+ 8B73              ;       6 - index>dir (src)
 503+ 8B73              ;       7 - dir name too long/buff end
 504+ 8B73              ;       8 - file not found (del file)
 505+ 8B73              ;     254 - aborted by user
 506+ 8B73              ;     255 - err already showed (copyf)
 507+ 8B73
 508+ 8B73 05           FEEM2   DEC B
 508+ 8B74 21 1D 83      LD HL,TERC1
 508+ 8B77 C8            RET Z
 509+ 8B78 05                   DEC B
 509+ 8B79 21 32 83      LD HL,TERC2
 509+ 8B7C C8            RET Z
 510+ 8B7D 05                   DEC B
 510+ 8B7E 21 49 83      LD HL,TERC3
 510+ 8B81 C8            RET Z
 511+ 8B82 05                   DEC B
 511+ 8B83 21 5E 83      LD HL,TERC4
 511+ 8B86 C8            RET Z
 512+ 8B87 05                   DEC B
 512+ 8B88 21 75 83      LD HL,TERC5
 512+ 8B8B C8            RET Z
 513+ 8B8C 05                   DEC B
 513+ 8B8D 21 8C 83      LD HL,TERC6
 513+ 8B90 C8            RET Z
 514+ 8B91 05                   DEC B
 514+ 8B92 21 9E 83      LD HL,TERD7
 514+ 8B95 C8            RET Z
 515+ 8B96 05                   DEC B
 515+ 8B97 21 BF 83      LD HL,TERD8
 515+ 8B9A C8            RET Z
 516+ 8B9B 21 CF 83             LD HL,TERCU
 517+ 8B9E C9                   RET
 518+ 8B9F
 519+ 8B9F F5 C5        ERALT   PUSH AF,BC
 520+ 8BA1 CD EB 8C             CALL LOADCD2
 521+ 8BA4 CD DF 8C             CALL SWPPAND
 522+ 8BA7 CD 1B 6F             CALL LOADCD
 523+ 8BAA C1 F1                POP BC,AF
 524+ 8BAC
 525+ 8BAC 04           ERDCOPY INC B
 525+ 8BAD 28 07         JR Z,ERSKIPO
 526+ 8BAF 05                   DEC B
 527+ 8BB0 CD 73 8B CD          CALL FEEM2,ERR0
 527+ 8BB4 1E 91
 528+ 8BB6 AF           ERSKIPO XOR A
 528+ 8BB7 3C            INC A
 529+ 8BB8 C9                   RET
 530+ 8BB9
 531+ 8BB9 CD 54 8A     DIRCOPY CALL FLOF
 532+ 8BBC
 533+ 8BBC CD 15 6F             CALL SAVECD
 534+ 8BBF CD DF 8C CD          CALL SWPPAND,SAVECD2
 534+ 8BC3 E5 8C
 535+ 8BC5 CD DF 8C             CALL SWPPAND
 536+ 8BC8
 537+ 8BC8 21 00 C0 22          LD HL,#C000,(DDIRS+1),HL
 537+ 8BCC B1 8F
 538+ 8BCE              ;!!!
 539+ 8BCE CD DA 8C     ZANOVOC CALL RECBUF
 540+ 8BD1 11 02 00             LD DE,2
 541+ 8BD4 73                   LD (HL),E
 541+ 8BD5 2C            INC L
 542+ 8BD6 72                   LD (HL),D
 543+ 8BD7
 544+ 8BD7 21 04 B0             LD HL,LOBU+4
 545+ 8BDA CD 21 6F             CALL FENTRY
 545+ 8BDD 06 01         LD B,1
 545+ 8BDF CA D0 8C      JP Z,ERMAIN
 546+ 8BE2 CD 4D 6F             CALL GDIR
 547+ 8BE5
 548+ 8BE5 CD DF 8C             CALL SWPPAND
 549+ 8BE8 21 04 B0             LD HL,LOBU+4
 550+ 8BEB E5                   PUSH HL
 551+ 8BEC 23                   INC HL
 551+ 8BED CD 70 6F      CALL MKdir
 552+ 8BF0 E1                   POP HL
 552+ 8BF1 06 02         LD B,2
 552+ 8BF3 20 AA         JR NZ,ERALT
 553+ 8BF5 CD 21 6F             CALL FENTRY
 553+ 8BF8 06 03         LD B,3
 553+ 8BFA 28 A3         JR Z,ERALT
 554+ 8BFC CD 4D 6F             CALL GDIR
 555+ 8BFF CD DF 8C             CALL SWPPAND
 556+ 8C02
 557+ 8C02 CD F1 8C             CALL CLONEZ
 558+ 8C05 11 00 B4             LD DE,LOBU+1024
 559+ 8C08 D5                   PUSH DE
 559+ 8C09 AF            XOR A
 559+ 8C0A CD 5A 40      CALL NXTETY2
 560+ 8C0D D1                   POP DE
 560+ 8C0E AF            XOR A
 560+ 8C0F CD 5A 40      CALL NXTETY2
 561+ 8C12
 562+ 8C12 CD DA 8C     IDXLOOP CALL RECBUF
 563+ 8C15 2A B1 8F             LD HL,(DDIRS+1)
 564+ 8C18 5E                   LD E,(HL)
 564+ 8C19 2C            INC L
 565+ 8C1A 56                   LD D,(HL)
 566+ 8C1B 13                   INC DE
 567+ 8C1C 72                   LD (HL),D
 567+ 8C1D 2D            DEC L
 568+ 8C1E 73                   LD (HL),E
 569+ 8C1F
 570+ 8C1F CD 8D 6E             CALL CLPG
 571+ 8C22 11 04 B0             LD DE,LOBU+4
 572+ 8C25 AF                   XOR A
 572+ 8C26 CD 5A 40 CD   CALL NXTETY2,CLONOFF
 572+ 8C2A 05 8D
 573+ 8C2C 28 3A                JR Z,DCUPP
 574+ 8C2E
 575+ 8C2E 21 04 B0             LD HL,LOBU+4
 576+ 8C31 7E                   LD A,(HL)
 576+ 8C32 E6 10         AND #10
 576+ 8C34 77            LD (HL),A
 577+ 8C35 20 26                JR NZ,DCIN
 578+ 8C37 21 05 B0             LD HL,LOBU+4+1
 579+ 8C3A 11 A0 5E             LD DE,TXTBU
 580+ 8C3D D5                   PUSH DE
 580+ 8C3E 01 40 00      LD BC,64
 580+ 8C41 ED B0         LDIR
 581+ 8C43 AF                   XOR A
 581+ 8C44 12            LD (DE),A
 582+ 8C45 E1                   POP HL
 583+ 8C46 3E 04                LD A,4
 583+ 8C48 CD 1D 8B      CALL COPYFD
 584+ 8C4B 06 FF                LD B,255
 584+ 8C4D C2 D0 8C      JP NZ,ERMAIN
 585+ 8C50 3A 04 60             LD A,(ABT)
 586+ 8C53 B7                   OR A
 586+ 8C54 C4 20 90      CALL NZ,ABME
 587+ 8C57 06 FE                LD B,254
 587+ 8C59 20 75         JR NZ,ERMAIN
 588+ 8C5B 18 B5                JR IDXLOOP
 589+ 8C5D
 590+ 8C5D 2A B1 8F     DCIN    LD HL,(DDIRS+1)
 590+ 8C60 23 23         INC HL,HL
 591+ 8C62 22 B1 8F             LD (DDIRS+1),HL
 592+ 8C65 C3 CE 8B             JP ZANOVOC
 593+ 8C68
 594+ 8C68 2A B1 8F     DCUPP   LD HL,(DDIRS+1)
 595+ 8C6B 7D                   LD A,L
 595+ 8C6C B7            OR A
 595+ 8C6D 20 05         JR NZ,TEKK
 596+ 8C6F 7C                   LD A,H
 596+ 8C70 FE C0         CP #C0
 596+ 8C72 28 4C         JR Z,CDIREX
 597+ 8C74
 598+ 8C74 2B 2B        TEKK    DEC HL,HL
 599+ 8C76 22 B1 8F             LD (DDIRS+1),HL
 600+ 8C79
 601+ 8C79 21 91 85             LD HL,UPDIR
 602+ 8C7C CD 21 6F             CALL FENTRY
 602+ 8C7F 06 04         LD B,4
 602+ 8C81 28 4D         JR Z,ERMAIN
 603+ 8C83 CD 4D 6F             CALL GDIR
 604+ 8C86
 605+ 8C86 CD DF 8C             CALL SWPPAND
 606+ 8C89 21 91 85             LD HL,UPDIR
 607+ 8C8C CD 21 6F             CALL FENTRY
 607+ 8C8F 06 05         LD B,5
 607+ 8C91 CA 9F 8B      JP Z,ERALT
 608+ 8C94 CD 4D 6F             CALL GDIR
 609+ 8C97 CD DF 8C             CALL SWPPAND
 610+ 8C9A
 611+ 8C9A CD F1 8C             CALL CLONEZ
 612+ 8C9D CD DA 8C             CALL RECBUF
 613+ 8CA0 2A B1 8F             LD HL,(DDIRS+1)
 614+ 8CA3 4E                   LD C,(HL)
 614+ 8CA4 2C            INC L
 615+ 8CA5 46                   LD B,(HL)
 616+ 8CA6 11 00 B4     LOOPUP  LD DE,LOBU+1024
 617+ 8CA9 C5                   PUSH BC
 618+ 8CAA CD 8D 6E             CALL CLPG
 619+ 8CAD AF                   XOR A
 619+ 8CAE CD 5A 40 CD   CALL NXTETY2,CLONOFF
 619+ 8CB2 05 8D
 620+ 8CB4 C1                   POP BC
 620+ 8CB5 28 17         JR Z,ERMAINB
 621+ 8CB7 0B                   DEC BC
 621+ 8CB8 78            LD A,B
 621+ 8CB9 B1            OR C
 621+ 8CBA CA 12 8C      JP Z,IDXLOOP
 622+ 8CBD C3 A6 8C             JP LOOPUP
 623+ 8CC0              ;!!!
 624+ 8CC0 CD 1B 6F     CDIREX  CALL LOADCD
 625+ 8CC3 CD DF 8C CD          CALL SWPPAND,LOADCD2
 625+ 8CC7 EB 8C
 626+ 8CC9 CD DF 8C             CALL SWPPAND
 627+ 8CCC
 628+ 8CCC AF                   XOR A
 629+ 8CCD C9                   RET
 630+ 8CCE
 631+ 8CCE 06 06        ERMAINB LD B,6
 632+ 8CD0 F5 C5        ERMAIN  PUSH AF,BC
 632+ 8CD2 CD C0 8C      CALL CDIREX
 633+ 8CD5 C1 F1                POP BC,AF
 634+ 8CD7 C3 AC 8B             JP ERDCOPY
 635+ 8CDA
 636+ 8CDA 3E 20        RECBUF  LD A,TVBPG
 636+ 8CDC C3 B6 68      JP MNGC
 637+ 8CDF CD 48 68     SWPPAND CALL SWPPAN
 637+ 8CE2 C3 5D 68      JP DRACT
 638+ 8CE5 11 9C 7F     SAVECD2 LD DE,ERRR
 638+ 8CE8 C3 21 40      JP TLSTCAT
 639+ 8CEB 21 9C 7F     LOADCD2 LD HL,ERRR
 639+ 8CEE C3 1E 40      JP GLSTCAT
 640+ 8CF1 3A 00 60 32  CLONEZ  LD A,(PG0),(FEP2),A
 640+ 8CF5 18 60
 641+ 8CF7 21 00 30 54          LD HL,#3000,DE,HL
 641+ 8CFB 5D
 642+ 8CFC 01 FF 07             LD BC,#07FF
 642+ 8CFF CD DC 6C      CALL PDITN
 643+ 8D02 C3 78 6E             JP CLONE
 644+ 8D05 3A 18 60     CLONOFF LD A,(FEP2)
 644+ 8D08 C3 91 68      JP MNG0
 645+ 8D0B              ;*******
 646+ 8D0B CD 57 7D     MkDir   CALL CURSER
 647+ 8D0E DD E5                PUSH IX
 648+ 8D10 DD 21 58 80          LD IX,MDWND
 648+ 8D14 CD 92 79      CALL PRWOW
 649+ 8D17
 650+ 8D17 21 69 81 11          LD HL,TXT6,DE,#0000
 650+ 8D1B 00 00
 650+ 8D1D CD E5 7D      CALL TXTPR
 651+ 8D20 21 31 82 11          LD HL,TCT0,DE,#0101
 651+ 8D24 01 01
 651+ 8D26 CD E5 7D      CALL TXTPR
 652+ 8D29
 653+ 8D29 11 06 01             LD DE,#0106
 653+ 8D2C CD A9 7D      CALL GADRW
 654+ 8D2F 22 5A 8D             LD (BMKD+1),HL
 655+ 8D32 11 00 21 3E          LD DE,#2100,A,#FF
 655+ 8D36 FF
 655+ 8D37 CD 6B 71      CALL ISTR
 656+ 8D3A 21 00 01 3E          LD HL,#0100,A,#FE
 656+ 8D3E FE
 656+ 8D3F CD 6B 71      CALL ISTR
 657+ 8D42 FB           MKD     EI
 657+ 8D43 76            HALT
 658+ 8D44 CD 90 74             CALL ESC
 658+ 8D47 20 3E         JR NZ,EMKD
 659+ 8D49 CD 6D 74             CALL ENKE
 659+ 8D4C 20 0B         JR NZ,BMKD
 660+ 8D4E
 661+ 8D4E AF                   XOR A
 661+ 8D4F CD 6B 71      CALL ISTR
 662+ 8D52 3E 03                LD A,3
 662+ 8D54 CD 6B 71      CALL ISTR
 663+ 8D57 18 E9                JR MKD
 664+ 8D59              ;-------
 665+ 8D59 21 00 00     BMKD    LD HL,0
 666+ 8D5C 11 00 B0 01          LD DE,LOBU,BC,38-5
 666+ 8D60 21 00
 666+ 8D62 ED B0         LDIR
 667+ 8D64 AF                   XOR A
 667+ 8D65 12            LD (DE),A
 668+ 8D66
 669+ 8D66 21 00 B0             LD HL,LOBU
 669+ 8D69 CD 70 6F      CALL MKdir
 669+ 8D6C 28 06         JR Z,DMKD
 670+ 8D6E
 671+ 8D6E 21 D4 82             LD HL,TER2F
 671+ 8D71 CD 1E 91      CALL ERR0
 672+ 8D74
 673+ 8D74 CD 34 7B     DMKD    CALL RRESB
 674+ 8D77 DD E1                POP IX
 675+ 8D79
 676+ 8D79 11 8C 7F     SEXY    LD DE,BRRR
 676+ 8D7C CD 21 40      CALL TLSTCAT
 677+ 8D7F CD EB 62 CD          CALL PANELI,FOLD
 677+ 8D83 F0 63
 678+ 8D85 AF                   XOR A
 679+ 8D86 C9                   RET
 680+ 8D87              ;-------
 681+ 8D87 CD 34 7B     EMKD    CALL RRESB
 682+ 8D8A DD E1                POP IX
 683+ 8D8C C9                   RET
 684+ 8D8D              ;*******
 685+ 8D8D CD FE 62     Move    CALL GETEN
 685+ 8D90 7C            LD A,H
 685+ 8D91 B5            OR L
 685+ 8D92 C8            RET Z
 686+ 8D93 13                   INC DE
 686+ 8D94 1A            LD A,(DE)
 686+ 8D95 FE 2E         CP "."
 686+ 8D97 20 0C         JR NZ,RN
 687+ 8D99 13                   INC DE
 687+ 8D9A 1A            LD A,(DE)
 687+ 8D9B FE 2E         CP "."
 687+ 8D9D 20 05         JR NZ,Rn
 688+ 8D9F 13                   INC DE
 688+ 8DA0 1A            LD A,(DE)
 688+ 8DA1 B7            OR A
 688+ 8DA2 C8            RET Z
 689+ 8DA3 1B                   DEC DE
 690+ 8DA4 1B           Rn      DEC DE
 691+ 8DA5 1B           RN      DEC DE
 692+ 8DA6
 693+ 8DA6 CD BB 8A             CALL NAMEBG
 694+ 8DA9
 695+ 8DA9 CD 57 7D             CALL CURSER
 696+ 8DAC CD BF 8D             CALL RENAME
 696+ 8DAF C8            RET Z
 697+ 8DB0
 698+ 8DB0 21 04 B0             LD HL,LOBU+4
 699+ 8DB3 11 00 B2             LD DE,LOBU+512
 700+ 8DB6 CD 42 40 CC          CALL RENAM,Z,RER0
 700+ 8DBA F3 8A
 701+ 8DBC C3 79 8D             JP SEXY
 702+ 8DBF              ;-------
 703+ 8DBF DD E5        RENAME  PUSH IX
 704+ 8DC1 D5                   PUSH DE
 705+ 8DC2 21 58 80 11          LD HL,MDWND,DE,WINDC,BC,12
 705+ 8DC6 80 5E 01 0C
 705+ 8DCA 00
 705+ 8DCB ED B0         LDIR
 706+ 8DCD
 707+ 8DCD DD 5E 02             LD E,(IX+2)
 708+ 8DD0 DD 56 03             LD D,(IX+3)
 709+ 8DD3 DD 7E 0C             LD A,(IX+12)
 709+ 8DD6 3D            DEC A
 710+ 8DD7
 711+ 8DD7 DD 21 80 5E          LD IX,WINDC
 712+ 8DDB DD 36 01 00          LD (IX+1),0
 713+ 8DDF DD 73 02             LD (IX+2),E
 714+ 8DE2 82                   ADD A,D
 714+ 8DE3 DD 77 03      LD (IX+3),A
 715+ 8DE6
 716+ 8DE6 CD 92 79             CALL PRWOW
 717+ 8DE9 21 7A 81 11          LD HL,TXT7,DE,#0000
 717+ 8DED 00 00
 717+ 8DEF CD E5 7D      CALL TXTPR
 718+ 8DF2
 719+ 8DF2 CD 33 8E             CALL MMM
 720+ 8DF5 3E FF                LD A,255
 720+ 8DF7 91            SUB C
 721+ 8DF8 FE 27                CP 39
 721+ 8DFA 38 01         JR C,$+3
 721+ 8DFC AF            XOR A
 722+ 8DFD
 723+ 8DFD 21 FF 00             LD HL,255
 723+ 8E00 D9            EXX
 724+ 8E01 21 00 B2             LD HL,LOBU+512
 725+ 8E04 11 01 01             LD DE,#0101
 726+ 8E07 06 26 4F             LD B,#26,C,A
 727+ 8E0A 3E FD                LD A,#FD
 727+ 8E0C CD 6B 71      CALL ISTR
 728+ 8E0F 21 00 01 3E          LD HL,#0100,A,#FE
 728+ 8E13 FE
 728+ 8E14 CD 6B 71      CALL ISTR
 729+ 8E17 FB           REN     EI
 729+ 8E18 76            HALT
 730+ 8E19 CD 90 74             CALL ESC
 730+ 8E1C 20 55         JR NZ,REM
 731+ 8E1E CD 6D 74             CALL ENKE
 731+ 8E21 20 31         JR NZ,TRIGUN
 732+ 8E23
 733+ 8E23 AF                   XOR A
 733+ 8E24 CD 6B 71      CALL ISTR
 734+ 8E27 3E 02                LD A,2
 734+ 8E29 CD 6B 71      CALL ISTR
 735+ 8E2C 3E 03                LD A,3
 735+ 8E2E CD 6B 71      CALL ISTR
 736+ 8E31 18 E4                JR REN
 737+ 8E33
 738+ 8E33 21 05 B0     MMM     LD HL,LOBU+4+1
 739+ 8E36 11 00 B2             LD DE,LOBU+512
 740+ 8E39 AF                   XOR A
 741+ 8E3A 01 FF FF             LD BC,#FFFF
 742+ 8E3D ED A0        MmM     LDI
 742+ 8E3F BE            CP (HL)
 742+ 8E40 28 08         JR Z,Mmm
 742+ 8E42 10 F9         DJNZ MmM
 743+ 8E44 EB           MnM     EX DE,HL
 743+ 8E45 3E 20         LD A," "
 743+ 8E47 C3 8F 69      JP NOPING+1
 744+ 8E4A 1B           Mmm     DEC DE
 745+ 8E4B 1A                   LD A,(DE)
 745+ 8E4C FE 20         CP " "
 745+ 8E4E 20 01         JR NZ,$+3
 745+ 8E50 0C            INC C
 746+ 8E51 13                   INC DE
 747+ 8E52 18 F0                JR MnM
 748+ 8E54
 749+ 8E54 3E 01        TRIGUN  LD A,1
 749+ 8E56 CD 6B 71      CALL ISTR
 750+ 8E59
 751+ 8E59 11 FF B2             LD DE,LOBU+512+255
 752+ 8E5C 06 FF                LD B,255
 753+ 8E5E 1B           TGN     DEC DE
 753+ 8E5F 1A            LD A,(DE)
 754+ 8E60 FE 20                CP " "
 754+ 8E62 20 02         JR NZ,$+4
 754+ 8E64 10 F8         DJNZ TGN
 755+ 8E66 13                   INC DE
 755+ 8E67 AF            XOR A
 755+ 8E68 12            LD (DE),A
 756+ 8E69
 757+ 8E69 CD 34 7B             CALL RRESB
 758+ 8E6C D1                   POP DE
 759+ 8E6D DD E1                POP IX
 760+ 8E6F 3E 01                LD A,1
 760+ 8E71 B7            OR A
 761+ 8E72 C9                   RET
 762+ 8E73
 763+ 8E73 3E 01        REM     LD A,1
 763+ 8E75 CD 6B 71      CALL ISTR
 764+ 8E78 CD 34 7B             CALL RRESB
 765+ 8E7B D1                   POP DE
 766+ 8E7C DD E1                POP IX
 767+ 8E7E AF                   XOR A
 768+ 8E7F C9                   RET
 769+ 8E80              ;---------------------------------------
 770+ 8E80 CD 57 7D     DelFl   CALL CURSER
 771+ 8E83 CD 62 86 CC          CALL MARKSRH,Z,IMrk
 771+ 8E87 46 86
 771+ 8E89 C8            RET Z
 772+ 8E8A
 773+ 8E8A CD D2 8E             CALL DLDI
 773+ 8E8D C8            RET Z
 774+ 8E8E
 775+ 8E8E 11 8C 7F             LD DE,BRRR
 775+ 8E91 CD 21 40      CALL TLSTCAT
 776+ 8E94 CD EB 62 CD          CALL PANELI,FOLD
 776+ 8E98 F0 63
 777+ 8E9A C9                   RET
 778+ 8E9B
 779+ 8E9B CD 15 6F     DELDIR  CALL SAVECD
 780+ 8E9E
 781+ 8E9E 21 04 B0             LD HL,LOBU+4
 782+ 8EA1 CD 21 6F             CALL FENTRY
 782+ 8EA4 CA 4D 8F      JP Z,DER0
 783+ 8EA7 CD 4D 6F             CALL GDIR
 784+ 8EAA
 785+ 8EAA 11 00 B4             LD DE,LOBU+1024
 786+ 8EAD CD 57 40             CALL NXTETY
 786+ 8EB0 28 15         JR Z,NED
 787+ 8EB2 CD 57 40             CALL NXTETY
 787+ 8EB5 28 10         JR Z,NED
 788+ 8EB7 CD 57 40             CALL NXTETY
 788+ 8EBA 20 0B         JR NZ,NED
 789+ 8EBC
 790+ 8EBC CD 1B 6F             CALL LOADCD
 791+ 8EBF 21 04 B0             LD HL,LOBU+4
 791+ 8EC2 CD 76 6F      CALL FNDELFL
 792+ 8EC5 AF                   XOR A
 793+ 8EC6 C9                   RET
 794+ 8EC7              ;JP SEXY
 795+ 8EC7
 796+ 8EC7 21 F8 82     NED     LD HL,TER30
 796+ 8ECA CD 1E 91      CALL ERR0
 797+ 8ECD CD 1B 6F             CALL LOADCD
 798+ 8ED0 AF                   XOR A
 799+ 8ED1 C9                   RET
 800+ 8ED2              ;JP SEXY
 801+ 8ED2
 802+ 8ED2 DD E5        DLDI    PUSH IX
 803+ 8ED4 CD 41 74             CALL USPO
 804+ 8ED7 DD 21 64 80          LD IX,F5WND
 804+ 8EDB CD 92 79      CALL PRWOW
 805+ 8EDE 21 A3 81 11          LD HL,TXTB,DE,#0000
 805+ 8EE2 00 00
 805+ 8EE4 CD E5 7D      CALL TXTPR
 806+ 8EE7
 807+ 8EE7 2A A8 7F             LD HL,(MRCT)
 808+ 8EEA 11 B4 81             LD DE,TXTD7
 808+ 8EED CD 61 87      CALL DECZ2
 809+ 8EF0 21 AC 81 11          LD HL,TXTD,DE,#0200
 809+ 8EF4 00 02
 809+ 8EF6 CD E5 7D      CALL TXTPR
 810+ 8EF9
 811+ 8EF9 3E 01                LD A,1
 811+ 8EFB CD 70 66      CALL YN
 812+ 8EFE FB           DLM     EI
 812+ 8EFF 76            HALT
 813+ 8F00 AF                   XOR A
 813+ 8F01 CD 70 66      CALL YN
 814+ 8F04
 815+ 8F04 CD 6D 74             CALL ENKE
 815+ 8F07 20 0C         JR NZ,DLGO
 816+ 8F09 CD 90 74             CALL ESC
 816+ 8F0C 28 F0         JR Z,DLM
 817+ 8F0E
 818+ 8F0E CD 34 7B     DLet    CALL RRESB
 819+ 8F11 DD E1                POP IX
 820+ 8F13
 821+ 8F13 AF                   XOR A
 822+ 8F14 C9                   RET
 823+ 8F15              ;-------
 824+ 8F15 3E FF        DLGO    LD A,#FF
 824+ 8F17 CD 70 66      CALL YN
 824+ 8F1A 20 F2         JR NZ,DLet
 825+ 8F1C 21 C5 81 11          LD HL,TXTE,DE,#0400
 825+ 8F20 00 04
 825+ 8F22 CD E5 7D      CALL TXTPR
 826+ 8F25 DD E1                POP IX
 827+ 8F27
 828+ 8F27 21 00 00             LD HL,0
 829+ 8F2A E5           LENIN2  PUSH HL
 830+ 8F2B CD 0B 63             CALL GETen
 831+ 8F2E 08                   EXA
 831+ 8F2F 7C            LD A,H
 831+ 8F30 B5            OR L
 831+ 8F31 28 0E         JR Z,DLgo
 832+ 8F33 08                   EXA
 832+ 8F34 CB 46         BIT 0,(HL)
 832+ 8F36 36 00         LD (HL),0
 833+ 8F38 C4 50 8F             CALL NZ,DELF
 833+ 8F3B 20 04         JR NZ,DLgo
 834+ 8F3D E1                   POP HL
 835+ 8F3E 23                   INC HL
 836+ 8F3F 18 E9                JR LENIN2
 837+ 8F41
 838+ 8F41 E1           DLgo    POP HL
 839+ 8F42 DD E5                PUSH IX
 840+ 8F44 DD 21 64 80          LD IX,F5WND
 840+ 8F48 CD 34 7B      CALL RRESB
 841+ 8F4B DD E1                POP IX
 842+ 8F4D
 843+ 8F4D AF           DER0    XOR A
 843+ 8F4E 3C            INC A
 844+ 8F4F C9                   RET
 845+ 8F50              ;-------
 846+ 8F50 B7           DELF    OR A
 846+ 8F51 28 12         JR Z,DIRTREM
 847+ 8F53 CD 54 8A C4          CALL FLOF,NZ,ABME
 847+ 8F57 20 90
 847+ 8F59 20 F2         JR NZ,DER0
 848+ 8F5B
 849+ 8F5B 21 04 B0             LD HL,LOBU+4
 850+ 8F5E CD 3F 40             CALL DELFL
 850+ 8F61 28 EA         JR Z,DER0
 851+ 8F63
 852+ 8F63 AF                   XOR A
 853+ 8F64 C9                   RET
 854+ 8F65              ;-------
 855+ 8F65              DIRTREM ;DIR total remove
 856+ 8F65
 857+ 8F65 CD 54 8A             CALL FLOF
 858+ 8F68
 859+ 8F68 CD 15 6F             CALL SAVECD
 860+ 8F6B 21 00 C0 22          LD HL,#C000,(DDIRS+1),HL
 860+ 8F6F B1 8F
 861+ 8F71              ;!!!
 862+ 8F71 21 04 B0             LD HL,LOBU+4
 863+ 8F74 CD 21 6F     ZANOVO  CALL FENTRY
 863+ 8F77 06 01         LD B,1
 863+ 8F79 CA 18 90      JP Z,DTRER0
 864+ 8F7C CD 4D 6F             CALL GDIR
 865+ 8F7F CD F1 8C             CALL CLONEZ
 866+ 8F82
 867+ 8F82 CD 8D 6E     DFILES  CALL CLPG
 868+ 8F85 11 00 B4             LD DE,LOBU+1024
 869+ 8F88 3E 01                LD A,1
 869+ 8F8A CD 5A 40 CD   CALL NXTETY2,CLONOFF
 869+ 8F8E 05 8D
 870+ 8F90 28 1B                JR Z,DDIRZ
 871+ 8F92 21 00 B4             LD HL,LOBU+1024
 872+ 8F95 7E                   LD A,(HL)
 872+ 8F96 E6 10         AND #10
 872+ 8F98 77            LD (HL),A
 873+ 8F99 CD 3F 40             CALL DELFL
 873+ 8F9C 06 08         LD B,8
 873+ 8F9E 28 78         JR Z,DTRER0
 874+ 8FA0 3A 04 60             LD A,(ABT)
 875+ 8FA3 B7                   OR A
 875+ 8FA4 C4 20 90      CALL NZ,ABME
 876+ 8FA7 06 FE                LD B,254
 876+ 8FA9 20 6D         JR NZ,DTRER0
 877+ 8FAB 18 D5                JR DFILES
 878+ 8FAD
 879+ 8FAD              DDIRZ   ;CALL GDIR
 880+ 8FAD CD DA 8C             CALL RECBUF
 881+ 8FB0 11 00 00     DDIRS   LD DE,0
 882+ 8FB3
 883+ 8FB3 3E 02                LD A,2
 884+ 8FB5 D5                   PUSH DE
 884+ 8FB6 CD 5A 40      CALL NXTETY2
 884+ 8FB9 D1            POP DE
 885+ 8FBA 3E 02                LD A,2
 886+ 8FBC D5                   PUSH DE
 886+ 8FBD CD 5A 40      CALL NXTETY2
 886+ 8FC0 D1            POP DE
 887+ 8FC1
 888+ 8FC1 3E 02                LD A,2
 889+ 8FC3 D5                   PUSH DE
 889+ 8FC4 CD 5A 40      CALL NXTETY2
 890+ 8FC7 E1                   POP HL
 890+ 8FC8 28 1A         JR Z,NODIRS
 891+ 8FCA EB                   EX DE,HL
 892+ 8FCB E5                   PUSH HL
 892+ 8FCC B7            OR A
 892+ 8FCD ED 52         SBC HL,DE
 893+ 8FCF C1                   POP BC
 893+ 8FD0 38 44         JR C,DTRER0B
 894+ 8FD2 7C                   LD A,H
 894+ 8FD3 B7            OR A
 894+ 8FD4 20 40         JR NZ,DTRER0B
 895+ 8FD6 7D 02                LD A,L,(BC),A
 895+ 8FD8 03            INC BC
 896+ 8FD9 ED 43 B1 8F          LD (DDIRS+1),BC
 897+ 8FDD
 898+ 8FDD EB                   EX DE,HL
 899+ 8FDE 7E                   LD A,(HL)
 899+ 8FDF E6 10         AND #10
 899+ 8FE1 77            LD (HL),A
 900+ 8FE2 18 90                JR ZANOVO
 901+ 8FE4
 902+ 8FE4 21 91 85     NODIRS  LD HL,UPDIR
 903+ 8FE7 CD 21 6F             CALL FENTRY
 903+ 8FEA 06 04         LD B,4
 903+ 8FEC 28 2A         JR Z,DTRER0
 904+ 8FEE CD 4D 6F             CALL GDIR
 905+ 8FF1
 906+ 8FF1 2A B1 8F             LD HL,(DDIRS+1)
 907+ 8FF4 7D                   LD A,L
 907+ 8FF5 B7            OR A
 907+ 8FF6 20 05         JR NZ,NDR
 908+ 8FF8 7C                   LD A,H
 908+ 8FF9 FE C0         CP #C0
 908+ 8FFB 28 13         JR Z,DDIREX
 909+ 8FFD 2B           NDR     DEC HL
 910+ 8FFE 4E 06 00             LD C,(HL),B,0
 911+ 9001 B7                   OR A
 911+ 9002 ED 42         SBC HL,BC
 912+ 9004 22 B1 8F             LD (DDIRS+1),HL
 913+ 9007
 914+ 9007 CD 76 6F             CALL FNDELFL
 914+ 900A 06 03         LD B,3
 914+ 900C 28 0A         JR Z,DTRER0
 915+ 900E 18 A0                JR DDIRS
 916+ 9010              ;!!!
 917+ 9010 CD 1B 6F     DDIREX  CALL LOADCD
 918+ 9013 C3 9B 8E             JP DELDIR
 919+ 9016
 920+ 9016 06 07        DTRER0B LD B,7
 921+ 9018 C5           DTRER0  PUSH BC
 921+ 9019 CD 1B 6F      CALL LOADCD
 922+ 901C C1                   POP BC
 923+ 901D C3 AC 8B             JP ERDCOPY
 924+ 9020              ;---------------------------------------
 925+ 9020 DD E5        ABME    PUSH IX
 926+ 9022 DD 21 70 80          LD IX,ABWND
 926+ 9026 CD 92 79      CALL PRWOW
 927+ 9029
 928+ 9029 21 E0 81 11          LD HL,TXTF,DE,#0000
 928+ 902D 00 00
 928+ 902F CD E5 7D      CALL TXTPR
 929+ 9032 21 EB 81 11          LD HL,TXTG,DE,#0200
 929+ 9036 00 02
 929+ 9038 CD E5 7D      CALL TXTPR
 930+ 903B
 931+ 903B CD 41 74             CALL USPO
 932+ 903E 3E 01        MMEN    LD A,1
 932+ 9040 CD 70 66      CALL YN
 933+ 9043 FB           ABM     EI
 933+ 9044 76            HALT
 933+ 9045 AF            XOR A
 933+ 9046 CD 70 66      CALL YN
 934+ 9049 CD 90 74             CALL ESC
 934+ 904C 20 19         JR NZ,ESCABM
 935+ 904E CD 6D 74             CALL ENKE
 935+ 9051 28 F0         JR Z,ABM
 936+ 9053
 937+ 9053 CD 34 7B             CALL RRESB
 938+ 9056
 939+ 9056 3E FF                LD A,#FF
 939+ 9058 CD 70 66      CALL YN
 940+ 905B 3E 01                LD A,#01
 940+ 905D 28 01         JR Z,$+3
 941+ 905F AF           ABMM    XOR A
 942+ 9060 DD E1                POP IX
 943+ 9062 32 04 60             LD (ABT),A
 943+ 9065 B7            OR A
 944+ 9066 C9                   RET
 945+ 9067
 946+ 9067 CD 41 74     ESCABM  CALL USPO
 947+ 906A CD 34 7B             CALL RRESB
 947+ 906D 18 F0         JR ABMM
 948+ 906F              ;*******
 949+ 906F DD E5        DLME    PUSH IX
 950+ 9071 E5 D5 C5             PUSH HL,DE,BC
 951+ 9074 DD 21 70 80          LD IX,ABWND
 951+ 9078 CD 92 79      CALL PRWOW
 952+ 907B C1 D1 E1             POP BC,DE,HL
 952+ 907E CD E5 7D      CALL TXTPR
 953+ 9081 18 BB                JR MMEN
 954+ 9083              ;---------------------------------------
 955+ 9083 DD E5        PBSHW   PUSH IX
 956+ 9085 3A 03 60             LD A,(PGC)
 957+ 9088 F5                   PUSH AF
 958+ 9089 DD 21 46 80          LD IX,PBWND
 958+ 908D CD 92 79      CALL PRWOW
 959+ 9090 2A EB 7F             LD HL,(ENTRY+28)
 960+ 9093 ED 5B ED 7F          LD DE,(ENTRY+30)
 961+ 9097 CD 92 86             CALL DEL64
 962+ 909A 22 C2 86             LD (PBSTL+1),HL
 963+ 909D ED 53 B8 86          LD (PBSTH+1),DE
 964+ 90A1 21 00 00 22          LD HL,0,(PBNOW),HL,(PBNOW+2),HL
 964+ 90A5 A2 7F 22 A4
 964+ 90A9 7F
 965+ 90AA F1                   POP AF
 966+ 90AB CD B6 68             CALL MNGC
 967+ 90AE DD E1                POP IX
 968+ 90B0 C9                   RET
 969+ 90B1 DD E5        PBHTW   PUSH IX
 970+ 90B3 DD 21 46 80          LD IX,PBWND
 970+ 90B7 CD 34 7B      CALL RRESB
 971+ 90BA DD E1                POP IX
 972+ 90BC C9                   RET
 973+ 90BD              ;-------
 974+ 90BD DD E5        PBPR    PUSH IX
 975+ 90BF 3A 03 60             LD A,(PGC)
 976+ 90C2 F5                   PUSH AF
 977+ 90C3 AF                   XOR A
 977+ 90C4 CD B6 68      CALL MNGC
 978+ 90C7
 979+ 90C7 2A A2 7F             LD HL,(PBNOW)
 980+ 90CA ED 5B A4 7F          LD DE,(PBNOW+2)
 981+ 90CE 01 00 40             LD BC,16384
 982+ 90D1 09                   ADD HL,BC
 982+ 90D2 30 01         JR NC,$+3
 982+ 90D4 13            INC DE
 983+ 90D5 22 A2 7F             LD (PBNOW),HL
 984+ 90D8 ED 53 A4 7F          LD (PBNOW+2),DE
 985+ 90DC
 986+ 90DC CD A5 86             CALL DLT4PCH
 987+ 90DF
 988+ 90DF 21 A0 5E             LD HL,TXTBU
 989+ 90E2 79 0E 40             LD A,C,C,64
 990+ 90E5 B7                   OR A
 990+ 90E6 20 03         JR NZ,$+5
 990+ 90E8 79            LD A,C
 990+ 90E9 18 10         JR DoL
 991+ 90EB B9                   CP C
 991+ 90EC 38 01         JR C,$+3
 991+ 90EE 79            LD A,C
 992+ 90EF 47                   LD B,A
 993+ 90F0 79                   LD A,C
 993+ 90F1 90            SUB B
 994+ 90F2
 995+ 90F2 0E DB                LD C,#DB
 996+ 90F4 71                   LD (HL),C
 996+ 90F5 23            INC HL
 996+ 90F6 10 FC         DJNZ $-2
 997+ 90F8
 998+ 90F8 B7                   OR A
 998+ 90F9 28 07         JR Z,DOL
 999+ 90FB 47 0E B1     DoL     LD B,A,C,#B1
1000+ 90FE 71                   LD (HL),C
1000+ 90FF 23            INC HL
1000+ 9100 10 FC         DJNZ $-2
1001+ 9102              DOL
1002+ 9102 DD 21 46 80          LD IX,PBWND
1003+ 9106 21 A0 5E             LD HL,TXTBU
1004+ 9109 DD 7E 05             LD A,(IX+5)
1004+ 910C D6 02         SUB 2
1005+ 910E 57 1E 01 01          LD D,A,E,#01,BC,64
1005+ 9112 40 00
1005+ 9114 CD 89 7D      CALL PRSRW
1006+ 9117 F1                   POP AF
1007+ 9118 CD B6 68             CALL MNGC
1008+ 911B DD E1                POP IX
1009+ 911D C9                   RET
1010+ 911E              ;-------
1011+ 911E              ERR0    ;i:HL - TEXT Message
1012+ 911E
1013+ 911E DD E5                PUSH IX
1014+ 9120 E5                   PUSH HL
1014+ 9121 DD 21 1B 80   LD IX,ERWND
1014+ 9125 CD 92 79      CALL PRWOW
1015+ 9128 E1                   POP HL
1016+ 9129
1017+ 9129 11 01 02             LD DE,#0201
1017+ 912C CD E5 7D      CALL TXTPR
1018+ 912F
1019+ 912F CD 41 74             CALL USPO
1020+ 9132 CD 39 74             CALL NUSP
1021+ 9135
1022+ 9135 CD 34 7B             CALL RRESB
1023+ 9138 DD E1                POP IX
1024+ 913A C9                   RET
1025+ 913B              ;---------------------------------------
1026+ 913B 01 13 11     F2MENU  LD BC,#1112+1
1026+ 913E 18 13         JR EDT
1027+ 9140              ;---------------------------------------
1028+ 9140 CD FE 62     EDIT    CALL GETEN
1028+ 9143 C8            RET Z
1029+ 9144 7C                   LD A,H
1029+ 9145 B5            OR L
1029+ 9146 C8            RET Z
1030+ 9147
1031+ 9147 CD 7E 91             CALL TOBUX
1032+ 914A
1033+ 914A 21 8C 7F             LD HL,BRRR
1033+ 914D CD 12 40      CALL GIPAG
1034+ 9150 01 16 13             LD BC,#1315+1
1035+ 9153              ;-------
1036+ 9153 3E 60        EDT     LD A,PLHPG
1036+ 9155 CD B6 68      CALL MNGC
1037+ 9158
1038+ 9158 11 C5 BE             LD DE,#C000+197-512
1039+ 915B 2A 7C 7F     MTK     LD HL,(PHED)
1040+ 915E B7                   OR A
1040+ 915F ED 52         SBC HL,DE
1040+ 9161 D8            RET C
1041+ 9162
1042+ 9162 21 00 02             LD HL,512
1042+ 9165 19            ADD HL,DE
1042+ 9166 EB            EX DE,HL
1043+ 9167 1A                   LD A,(DE)
1044+ 9168 B8                   CP B
1044+ 9169 38 F0         JR C,MTK
1045+ 916B B9                   CP C
1045+ 916C 30 ED         JR NC,MTK
1046+ 916E
1047+ 916E 78                   LD A,B
1047+ 916F 3C            INC A
1048+ 9170 01 3B FF             LD BC,0-197
1049+ 9173 32 98 70             LD (NYAA),A
1049+ 9176 CD 39 9B      CALL PLGE
1050+ 9179 AF                   XOR A
1050+ 917A 32 98 70      LD (NYAA),A
1051+ 917D C9                   RET
1052+ 917E              ;-------
1053+ 917E EB           TOBUX   EX DE,HL
1053+ 917F 23            INC HL
1054+ 9180 11 00 5E             LD DE,BUX
1055+ 9183 01 00 01             LD BC,256
1055+ 9186 ED B0         LDIR
1056+ 9188 C9                   RET
1057+ 9189              ;---------------------------------------
1058+ 9189
# file closed: WCFX.ASM
1648  9189                      INCLUDE "WCVW.ASM"
# file opened: WCVW.ASM
   1+ 9189              ;-------
   2+ 9189 CD 1C 62 CD  NXTFL   CALL CRDN,STATUS
   2+ 918D 8D 87
   2+ 918F C3 FA 92      JP VIEW
   3+ 9192 CD 61 62 CD  PRVFL   CALL CRUP,STATUS
   3+ 9196 8D 87
   3+ 9198 C3 FA 92      JP VIEW
   4+ 919B              ;---------------------------------------
   5+ 919B CD FE 62     EXTZEL  CALL GETEN
   5+ 919E C8            RET Z
   6+ 919F 7C                   LD A,H
   6+ 91A0 B5            OR L
   6+ 91A1 C8            RET Z
   7+ 91A2 CD 7E 91             CALL TOBUX
   8+ 91A5 21 8C 7F             LD HL,BRRR
   8+ 91A8 CD 12 40      CALL GIPAG
   9+ 91AB
  10+ 91AB CD 94 69     EXTSEL  CALL GED
  11+ 91AE
  12+ 91AE DD 7E 02             LD A,(IX+2)
  12+ 91B1 C6 02         ADD A,2
  13+ 91B3 32 FE 80             LD (GRWND+2),A
  14+ 91B6
  15+ 91B6 DD 7E 03             LD A,(IX+3)
  16+ 91B9 DD 86 0C             ADD A,(IX+12)
  17+ 91BC C6 02                ADD A,2;SUB 3:JR NC,$+3:XOR A
  18+ 91BE 32 FF 80             LD (GRWND+3),A
  19+ 91C1
  20+ 91C1 DD E5                PUSH IX
  21+ 91C3 3A 7D 7F 0E          LD A,(PHED+1),C,0
  21+ 91C7 00
  22+ 91C8 FE C2                CP #C2
  22+ 91CA 38 43         JR C,GEE
  23+ 91CC
  24+ 91CC 3E 60                LD A,PLHPG
  24+ 91CE CD B6 68      CALL MNGC
  25+ 91D1 21 C5 C0 11          LD HL,#C000+197,DE,LOBU
  25+ 91D5 00 B0
  26+ 91D7
  27+ 91D7 7E           ZkL2    LD A,(HL)
  28+ 91D8 FE 04                CP #04
  28+ 91DA 28 0D         JR Z,GREEGO
  29+ 91DC FE 05                CP #05
  29+ 91DE 28 09         JR Z,GREEGO
  30+ 91E0 FE 15                CP #15
  30+ 91E2 28 05         JR Z,GREEGO
  31+ 91E4 01 00 02             LD BC,512
  31+ 91E7 18 0B         JR GREE
  32+ 91E9 01 07 00     GREEGO  LD BC,7
  32+ 91EC 09            ADD HL,BC
  32+ 91ED 0E 18         LD C,24
  32+ 91EF ED B0         LDIR
  33+ 91F1 01 E1 01             LD BC,512-24-7
  34+ 91F4 09           GREE    ADD HL,BC
  35+ 91F5 3A 7D 7F             LD A,(PHED+1)
  35+ 91F8 BC            CP H
  35+ 91F9 20 DC         JR NZ,ZkL2
  36+ 91FB
  37+ 91FB AF                   XOR A
  38+ 91FC EB                   EX DE,HL
  38+ 91FD 77            LD (HL),A
  39+ 91FE
  40+ 91FE 21 00 B0 11          LD HL,LOBU,DE,24,BC,MAXOP*256
  40+ 9202 18 00 01 00
  40+ 9206 08
  41+ 9207 7E           GREEOP  LD A,(HL)
  41+ 9208 B7            OR A
  41+ 9209 28 04         JR Z,GEE
  42+ 920B 19                   ADD HL,DE
  42+ 920C 0C            INC C
  42+ 920D 10 F8         DJNZ GREEOP
  43+ 920F
  44+ 920F 79           GEE     LD A,C
  45+ 9210 DD 21 FC 80          LD IX,GRWND
  46+ 9214 F5                   PUSH AF
  47+ 9215 C6 00                ADD A,BASEOP
  47+ 9217 DD 77 0D      LD (IX+13),A
  48+ 921A DD BE 0C             CP (IX+12)
  48+ 921D 30 04         JR NC,W850
  49+ 921F DD 36 0C 01          LD (IX+12),1
  50+ 9223 C6 02        W850    ADD A,2
  50+ 9225 DD 77 05      LD (IX+5),A
  51+ 9228 DD 7E 03             LD A,(IX+3)
  51+ 922B DD 86 05      ADD A,(IX+5)
  52+ 922E ED 4B 0E 60          LD BC,(HEI)
  52+ 9232 B9            CP C
  52+ 9233 38 0B         JR C,W85
  53+ 9235 DD 7E 03             LD A,(IX+3)
  53+ 9238 DD 96 05 D6   SUB (IX+5),3
  53+ 923C 03
  54+ 923D DD 77 03             LD (IX+3),A
  55+ 9240 CD 92 79     W85     CALL PRWOW
  56+ 9243 C1                   POP BC
  57+ 9244
  58+ 9244 78                   LD A,B
  58+ 9245 B7            OR A
  58+ 9246 28 19         JR Z,ET
  59+ 9248 21 00 B0 11          LD HL,LOBU,DE,#01+(BASEOP+1)*256
  59+ 924C 01 01
  60+ 924E C5           SPIG2   PUSH BC
  61+ 924F E5 D5                PUSH HL,DE
  61+ 9251 01 18 00      LD BC,24
  61+ 9254 CD 89 7D      CALL PRSRW
  62+ 9257 D1 E1                POP DE,HL
  63+ 9259 01 18 00             LD BC,24
  63+ 925C 09            ADD HL,BC
  63+ 925D 14            INC D
  64+ 925E C1                   POP BC
  64+ 925F 10 ED         DJNZ SPIG2
  65+ 9261
  66+ 9261 FB           ET      EI
  66+ 9262 76            HALT
  66+ 9263 CD 3B 7D      CALL CURSOR
  67+ 9266 CD 49 74 C4          CALL UPPP,NZ,CrUP
  67+ 926A 8E 62
  68+ 926C CD 4F 74 C4          CALL DWWW,NZ,CrDN
  68+ 9270 85 62
  69+ 9272
  70+ 9272 CD 6D 74             CALL ENKE
  70+ 9275 20 0B         JR NZ,ES
  71+ 9277 CD 90 74             CALL ESC
  71+ 927A 28 E5         JR Z,ET
  72+ 927C
  73+ 927C CD 34 7B             CALL RRESB
  74+ 927F DD E1                POP IX
  75+ 9281 C9                   RET
  76+ 9282              ;-------
  77+ 9282 CD 34 7B     ES      CALL RRESB
  78+ 9285 DD E1                POP IX
  79+ 9287
  80+ 9287 3A 08 81             LD A,(GRWND+12)
  81+ 928A F5                   PUSH AF
  81+ 928B 3E 60         LD A,PLHPG
  81+ 928D CD B6 68      CALL MNGC
  82+ 9290 C1                   POP BC
  83+ 9291 11 C5 BE             LD DE,#C000+197-512
  84+ 9294 2A 7C 7F     ESLG    LD HL,(PHED)
  85+ 9297 B7                   OR A
  85+ 9298 ED 52         SBC HL,DE
  85+ 929A D8            RET C
  86+ 929B 21 00 02             LD HL,512
  86+ 929E 19            ADD HL,DE
  87+ 929F 7E                   LD A,(HL)
  87+ 92A0 EB            EX DE,HL
  88+ 92A1 FE 04                CP #04
  88+ 92A3 28 08         JR Z,DSL
  89+ 92A5 FE 05                CP #05
  89+ 92A7 28 04         JR Z,DSL
  90+ 92A9 FE 15                CP #15
  90+ 92AB 20 E7         JR NZ,ESLG
  91+ 92AD 10 E5        DSL     DJNZ ESLG
  92+ 92AF
  93+ 92AF 01 3B FF             LD BC,0-197
  94+ 92B2 3E 04 32 98          LD A,#04,(NYAA),A
  94+ 92B6 70
  94+ 92B7 CD 39 9B      CALL PLGE
  95+ 92BA AF                   XOR A
  95+ 92BB 32 98 70      LD (NYAA),A
  96+ 92BE C3 94 69             JP GED
  97+ 92C1              ;-------
  98+ 92C1 1A           CHEXT   LD A,(DE)
  98+ 92C2 B7            OR A
  98+ 92C3 C8            RET Z
  99+ 92C4 BE                   CP (HL)
  99+ 92C5 20 10         JR NZ,HE
 100+ 92C7 23 13                INC HL,DE
 101+ 92C9 1A                   LD A,(DE)
 101+ 92CA BE            CP (HL)
 101+ 92CB 20 08         JR NZ,H2
 102+ 92CD 23 13                INC HL,DE
 103+ 92CF 1A                   LD A,(DE)
 103+ 92D0 BE            CP (HL)
 103+ 92D1 28 0B         JR Z,S7
 104+ 92D3 2B 1B                DEC HL,DE
 105+ 92D5 2B 1B        H2      DEC HL,DE
 106+ 92D7 13 13 13 13  HE      INC DE,DE,DE,DE,DE
 106+ 92DB 13
 107+ 92DC 18 E3                JR CHEXT
 108+ 92DE
 109+ 92DE 13           S7      INC DE
 109+ 92DF 1A 6F         LD A,(DE),L,A
 110+ 92E1 13                   INC DE
 110+ 92E2 1A 67         LD A,(DE),H,A
 111+ 92E4 3E 01                LD A,1
 111+ 92E6 B7            OR A
 112+ 92E7 C9                   RET
 113+ 92E8
 114+ 92E8 01 00 00 ED  CHext   LD BC,0,(HE),BC
 114+ 92EC 43 D7 92
 115+ 92EF CD C1 92             CALL CHEXT
 116+ 92F2 01 13 13 ED          LD BC,#1313,(HE),BC
 116+ 92F6 43 D7 92
 117+ 92F9 C9                   RET
 118+ 92FA              ;-------
 119+ 92FA              ;by F3:
 120+ 92FA CD FE 62     VIEW    CALL GETEN
 120+ 92FD CA 94 69      JP Z,GED
 121+ 9300 7C                   LD A,H
 121+ 9301 B5            OR L
 121+ 9302 CA 94 69      JP Z,GED
 122+ 9305 3E 01                LD A,1
 123+ 9307 18 01                JR EXEcute
 124+ 9309
 125+ 9309              ;by ENTER:
 126+ 9309 AF           VIE     XOR A
 127+ 930A 32 17 60     EXEcute LD (F3ENTFL),A
 128+ 930D CD 7E 91             CALL TOBUX
 129+ 9310 21 8C 7F             LD HL,BRRR
 129+ 9313 CD 12 40      CALL GIPAG
 130+ 9316
 131+ 9316 CD F6 9A             CALL GOPLG
 132+ 9319 B7                   OR A
 132+ 931A CA 94 69      JP Z,GED
 133+ 931D 3D                   DEC A
 133+ 931E 28 09         JR Z,VIK
 134+ 9320 3D                   DEC A
 134+ 9321 CA 89 91      JP Z,NXTFL
 135+ 9324 3D                   DEC A;sets A=0 after GOPLG
 136+ 9325 3D                   DEC A
 136+ 9326 CA 92 91      JP Z,PRVFL
 137+ 9329
 138+ 9329 3A 17 60     VIK     LD A,(F3ENTFL)
 138+ 932C B7            OR A
 138+ 932D C2 AB 91      JP NZ,EXTSEL
 139+ 9330 21 D7 7F             LD HL,ENTRY+8
 140+ 9333 11 59 81             LD DE,EXTZ
 141+ 9336 CD C1 92             CALL CHEXT
 141+ 9339 CA AB 91 E9   JP Z,EXTSEL,(HL)
 142+ 933D              ;-------
 143+ 933D 0E 0D        SER13D  LD C,13
 144+ 933F 7E           SER     LD A,(HL)
 145+ 9340 B7                   OR A
 145+ 9341 C8            RET Z
 145+ 9342 23            INC HL
 146+ 9343 B9                   CP C
 146+ 9344 C8            RET Z
 147+ 9345 C3 3F 93             JP SER
 148+ 9348              ;---------------------------------------
 149+ 9348 CD 94 69     FSM     CALL GED
 150+ 934B
 151+ 934B DD E5                PUSH IX
 152+ 934D DD 21 12 81          LD IX,FRWND
 152+ 9351 CD 92 79      CALL PRWOW
 153+ 9354
 154+ 9354 3E 01                LD A,1
 154+ 9356 CD 70 66      CALL YN
 155+ 9359 FB           MSPG    EI
 155+ 935A 76            HALT
 155+ 935B CD 3B 7D      CALL CURSOR
 156+ 935E AF                   XOR A
 156+ 935F CD 70 66      CALL YN
 157+ 9362
 158+ 9362 CD 49 74 C4          CALL UPPP,NZ,CrUP
 158+ 9366 8E 62
 159+ 9368 CD 4F 74 C4          CALL DWWW,NZ,CrDN
 159+ 936C 85 62
 160+ 936E
 161+ 936E CD 90 74             CALL ESC
 161+ 9371 20 2D         JR NZ,CSPG
 162+ 9373 CD 6D 74             CALL ENKE
 162+ 9376 28 E1         JR Z,MSPG
 163+ 9378              ;-------
 164+ 9378 3E FF                LD A,#FF
 164+ 937A CD 70 66      CALL YN
 164+ 937D 20 21         JR NZ,CSPG
 165+ 937F
 166+ 937F DD 7E 0C             LD A,(IX+12)
 167+ 9382 0E 00                LD C,0
 168+ 9384 3D                   DEC A
 168+ 9385 28 0C         JR Z,AS
 169+ 9387 0E 01                LD C,1
 170+ 9389 3D                   DEC A
 170+ 938A 28 07         JR Z,AS
 171+ 938C 0E 02                LD C,2
 172+ 938E 3D                   DEC A
 172+ 938F 28 02         JR Z,AS
 173+ 9391 0E 03                LD C,3
 174+ 9393 79 32 84 6A  AS      LD A,C,(BOF),A
 175+ 9397
 176+ 9397 CD 34 7B             CALL RRESB
 177+ 939A DD E1                POP IX
 178+ 939C
 179+ 939C 3E 01                LD A,1
 179+ 939E B7            OR A
 180+ 939F C9                   RET
 181+ 93A0              ;-------
 182+ 93A0 CD 34 7B     CSPG    CALL RRESB
 183+ 93A3 DD E1                POP IX
 184+ 93A5 AF                   XOR A
 185+ 93A6 C9                   RET
 186+ 93A7              ;---------------------------------------
 187+ 93A7 CD 48 93     RUNHOB  CALL FSM
 187+ 93AA C8            RET Z
 188+ 93AB
 189+ 93AB 21 00 02 06          LD HL,#0200,B,1
 189+ 93AF 01
 189+ 93B0 CD 15 40      CALL LOAD512
 190+ 93B3 2A 0B 02 7C          LD HL,(#020B),A,H
 190+ 93B7 FE A0         CP #A0
 190+ 93B9 D0            RET NC
 191+ 93BA ED 5B 09 02          LD DE,(#0209),A,D
 191+ 93BE 7A
 191+ 93BF FE 60         CP #60
 191+ 93C1 D8            RET C
 192+ 93C2
 193+ 93C2 D9                   EXX
 194+ 93C3 3E 20 32 BB          LD A,%00100000,(VVmod),A
 194+ 93C7 7F
 195+ 93C8 CD 59 A7             CALL DINT
 196+ 93CB AF                   XOR A
 196+ 93CC CD B6 68 CD   CALL MNGC,TURBOof
 196+ 93D0 7D 6A
 197+ 93D2 21 F1 93 11          LD HL,HOBAT,DE,#5B00,BC,96
 197+ 93D6 00 5B 01 60
 197+ 93DA 00
 197+ 93DB ED B0         LDIR
 198+ 93DD 21 7A 68 11          LD HL,MNG0D,DE,#5B60,BC,32
 198+ 93E1 60 5B 01 20
 198+ 93E5 00
 198+ 93E6 ED B0         LDIR
 199+ 93E8 D9                   EXX
 200+ 93E9
 201+ 93E9 21 EF 01             LD HL,512-17
 201+ 93EC 19            ADD HL,DE
 202+ 93ED D5                   PUSH DE
 203+ 93EE C3 00 5B             JP #5B00
 204+ 93F1
 205+ 93F1 D5           HOBAT   PUSH DE
 206+ 93F2 7C           THG     LD A,H
 206+ 93F3 FE 60         CP #60
 206+ 93F5 38 09         JR C,THg
 207+ 93F7 06 01                LD B,1
 207+ 93F9 CD 15 40      CALL LOAD512
 208+ 93FC FE 0F                CP #0F
 208+ 93FE 20 F2         JR NZ,THG
 209+ 9400 D1           THg     POP DE
 210+ 9401 21 11 02 01          LD HL,#0200+17,BC,512-17
 210+ 9405 EF 01
 210+ 9407 ED B0         LDIR
 211+ 9409
 212+ 9409 F3                   DI
 213+ 940A 3E 3F ED 47          LD A,63,I,A
 213+ 940E ED 56         IM 1
 214+ 9410 FD 21 3A 5C          LD IY,#5C3A
 215+ 9414
 216+ 9414 21 00 58 54          LD HL,#5800,DE,HL
 216+ 9418 5D
 216+ 9419 13            INC DE
 217+ 941A 01 FF 02 75          LD BC,#0300-1,(HL),L
 217+ 941E ED B0         LDIR
 218+ 9420
 219+ 9420 01 AF 00             LD BC,Vmod
 219+ 9423 AF            XOR A
 219+ 9424 ED 79         OUT (C),A
 220+ 9426 CD 60 5B             CALL #5B60
 221+ 9429 01 FD 7F 3E          LD BC,#7FFD,A,16
 221+ 942D 10
 221+ 942E ED 79         OUT (C),A
 222+ 9430 C9                   RET
 223+ 9431              ;---------------------------------------
 224+ 9431              K       EQU #0000
 225+ 9431              MLZP    EQU #0D00
 226+ 9431              HRSP    EQU #0E00
 227+ 9431              LOB3    EQU #1000
 228+ 9431              ;-------
 229+ 9431              SPG1    ;SPGv1.0
 230+ 9431 FE 10                CP #10
 230+ 9433 C2 94 69      JP NZ,GED
 231+ 9436
 232+ 9436 3E 20 32 BB          LD A,%00100000,(VVmod),A
 232+ 943A 7F
 233+ 943B CD 59 A7             CALL DINT
 234+ 943E
 235+ 943E 3E F5                LD A,D5PG
 235+ 9440 CD B6 68      CALL MNGC
 236+ 9443 21 00 C0 54          LD HL,#C000,DE,HL
 236+ 9447 5D
 236+ 9448 13            INC DE
 237+ 9449 75 01 FF 3F          LD (HL),L,BC,#4000-1
 237+ 944D ED B0         LDIR
 238+ 944F
 239+ 944F 2A 30 B0 22          LD HL,(LOB2+#30),(SPG_SA+1),HL
 239+ 9453 A4 95
 240+ 9455 2A 32 B0 22          LD HL,(LOB2+#32),(SPG_SP+1),HL
 240+ 9459 A7 95
 241+ 945B 2A 38 B0 22          LD HL,(LOB2+#38),(SPG_RZ+1),HL
 241+ 945F AA 95
 242+ 9461
 243+ 9461 3A 34 B0 32          LD A,(LOB2+#34),(SPG_PG+1),A
 243+ 9465 77 95
 244+ 9467 3A 35 B0             LD A,(LOB2+#35)
 245+ 946A 4F                   LD C,A
 246+ 946B E6 03                AND %00000011
 246+ 946D 32 84 6A      LD (BOF),A
 247+ 9470
 248+ 9470 79                   LD A,C
 248+ 9471 E6 04         AND %00000100
 249+ 9473 3E F3                LD A,#F3
 249+ 9475 28 02         JR Z,$+4
 249+ 9477 3E FB         LD A,#FB;EI
 250+ 9479 32 B9 95             LD (SPG_IT),A
 251+ 947C
 252+ 947C 21 00 B0 11          LD HL,LOB2,DE,LOB3,BC,1024
 252+ 9480 00 10 01 00
 252+ 9484 04
 252+ 9485 ED B0         LDIR
 253+ 9487 21 B0 94 11          LD HL,SPGRZ,DE,K,BC,Y-SPGRZ
 253+ 948B 00 00 01 0B
 253+ 948F 01
 253+ 9490 ED B0         LDIR
 254+ 9492
 255+ 9492 3E 01                LD A,MTXPG+1
 255+ 9494 CD B6 68      CALL MNGC
 256+ 9497 21 00 FE 11          LD HL,MLZ4,DE,MLZP,BC,256
 256+ 949B 00 0D 01 00
 256+ 949F 01
 256+ 94A0 ED B0         LDIR
 257+ 94A2 21 E9 FE 11          LD HL,DEHR1,DE,HRSP,BC,512
 257+ 94A6 00 0E 01 00
 257+ 94AA 02
 257+ 94AB ED B0         LDIR
 258+ 94AD C3 00 00             JP K
 259+ 94B0              ;-------
 260+ 94B0 DD 21 00 11  SPGRZ   LD IX,LOB3+256
 261+ 94B4 3E F4                LD A,DBPG
 261+ 94B6 CD A6 68      CALL MNG8
 262+ 94B9
 263+ 94B9 06 00                LD B,0
 264+ 94BB DD 7E 00     KOVR    LD A,(IX)
 264+ 94BE DD 23         INC IX
 265+ 94C0 4F                   LD C,A
 266+ 94C1 E6 1F                AND %00011111
 266+ 94C3 87 C6 C0      ADD A,A,A,#C0
 267+ 94C6 67                   LD H,A
 268+ 94C7 2E 00                LD L,0
 269+ 94C9 DD 23                INC IX
 270+ 94CB DD 7E 00             LD A,(IX)
 270+ 94CE DD 23         INC IX
 271+ 94D0 FE 02                CP #02
 271+ 94D2 20 02         JR NZ,$+4
 271+ 94D4 3E F6         LD A,D2PG
 272+ 94D6 FE 05                CP #05
 272+ 94D8 20 02         JR NZ,$+4
 272+ 94DA 3E F5         LD A,D5PG
 273+ 94DC CD B6 68             CALL MNGC
 274+ 94DF
 275+ 94DF DD 7E FE             LD A,(IX-2)
 276+ 94E2 5F                   LD E,A
 276+ 94E3 E6 C0         AND %11000000
 277+ 94E5 07          > RLCA
 277+ 94E6 07          > RLCA
 278+ 94E7 57                   LD D,A
 279+ 94E8
 280+ 94E8 7B                   LD A,E
 280+ 94E9 E6 1F         AND %00011111
 280+ 94EB 3C            INC A
 281+ 94EC C5 DD E5             PUSH BC,IX
 282+ 94EF 47                   LD B,A
 283+ 94F0 7A                   LD A,D
 283+ 94F1 B7            OR A
 283+ 94F2 20 0F         JR NZ,SPGPKD
 284+ 94F4 CD 15 40             CALL LOAD512
 285+ 94F7 DD E1 C1     PKDE    POP IX,BC
 286+ 94FA 79                   LD A,C
 287+ 94FB E6 80                AND %10000000
 287+ 94FD 20 36         JR NZ,ARBLKZ
 288+ 94FF 10 BA                DJNZ KOVR
 289+ 9501 18 32                JR ARBLKZ
 290+ 9503              ;-------
 291+ 9503 3D           SPGPKD  DEC A
 291+ 9504 28 1A         JR Z,SPGMLZ
 292+ 9506 E5           SPGHRS  PUSH HL
 292+ 9507 21 00 80      LD HL,#8000
 292+ 950A CD 15 40      CALL LOAD512
 293+ 950D D1                   POP DE
 294+ 950E F3                   DI
 295+ 950F ED 73 8A 7F          LD (SPBU),SP
 296+ 9513 DD 21 00 80          LD IX,#8000
 297+ 9517 CD 00 0E             CALL HRSP
 298+ 951A ED 7B 8A 7F  SPGPE   LD SP,(SPBU)
 299+ 951E 18 D7                JR PKDE
 300+ 9520
 301+ 9520 E5           SPGMLZ  PUSH HL
 301+ 9521 21 00 80      LD HL,#8000
 301+ 9524 CD 15 40      CALL LOAD512
 302+ 9527 D1                   POP DE
 303+ 9528 F3                   DI
 304+ 9529 ED 73 8A 7F          LD (SPBU),SP
 305+ 952D 21 00 80             LD HL,#8000
 306+ 9530 CD 00 0D             CALL MLZP
 307+ 9533 18 E5                JR SPGPE
 308+ 9535              ;-------
 309+ 9535 3E F6        ARBLKZ  LD A,D2PG
 309+ 9537 CD A6 68      CALL MNG8
 310+ 953A 3E 02                LD A,2
 310+ 953C CD B6 68      CALL MNGC
 311+ 953F 21 00 80 11          LD HL,#8000,DE,#C000
 311+ 9543 00 C0
 312+ 9545 01 00 40             LD BC,#4000
 312+ 9548 ED B0         LDIR
 313+ 954A
 314+ 954A F3                   DI
 314+ 954B CD 7D 6A      CALL TURBOof
 315+ 954E
 316+ 954E 3E F5                LD A,D5PG
 316+ 9550 CD A6 68      CALL MNG8
 317+ 9553 3E 05                LD A,5
 317+ 9555 CD B6 68      CALL MNGC
 318+ 9558 21 00 80 11          LD HL,#8000,DE,#C000
 318+ 955C 00 C0
 319+ 955E 01 00 40             LD BC,#4000
 319+ 9561 ED B0         LDIR
 320+ 9563
 321+ 9563 01 AF 01 3E          LD BC,Vpag,A,5
 321+ 9567 05
 321+ 9568 ED 79         OUT (C),A
 322+ 956A 01 AF 00             LD BC,Vmod
 322+ 956D AF            XOR A
 322+ 956E ED 79         OUT (C),A
 323+ 9570
 324+ 9570 3E 3F ED 47          LD A,63,I,A
 324+ 9574 ED 56         IM 1
 325+ 9576 3E 00 01 AF  SPG_PG  LD A,0,BC,PW4
 325+ 957A 13
 325+ 957B ED 79         OUT (C),A
 326+ 957D 3E 02 06 12          LD A,2,B,high PW2
 326+ 9581 ED 79         OUT (C),A
 327+ 9583 3E 05 06 11          LD A,5,B,high PW1
 327+ 9587 ED 79         OUT (C),A
 328+ 9589
 329+ 9589 21 FC 00             LD HL,SPGRZD-SPGRZ+K
 330+ 958C ED 5B FA 00          LD DE,(SPG_RZ+1-SPGRZ+K)
 331+ 9590 01 10 00             LD BC,16
 331+ 9593 ED B0         LDIR
 332+ 9595
 333+ 9595 21 58 27             LD HL,#2758
 333+ 9598 D9            EXX
 334+ 9599 FD 21 3A 5C          LD IY,#5C3A
 335+ 959D 01 AF 28             LD BC,DMA_T
 335+ 95A0 AF            XOR A
 335+ 95A1 ED 79         OUT (C),A
 336+ 95A3
 337+ 95A3 21 00 00     SPG_SA  LD HL,0
 338+ 95A6 31 00 60     SPG_SP  LD SP,#6000
 339+ 95A9 C3 00 00     SPG_RZ  JP 0
 340+ 95AC              ;-------
 341+ 95AC 01 AF 21 3E  SPGRZD  LD BC,PE0,A,%00000001
 341+ 95B0 01
 341+ 95B1 ED 79         OUT (C),A
 342+ 95B3 06 10 3E 03          LD B,high PW0,A,BASIC48
 342+ 95B7 ED 79         OUT (C),A
 343+ 95B9 F3           SPG_IT  DI
 344+ 95BA E9                   JP (HL)
 345+ 95BB              Y
 346+ 95BB              ;---------------------------------------
 347+ 95BB              PAGER   EQU #5300
 348+ 95BB              LOB2    EQU #B000
 349+ 95BB              ;-------
 350+ 95BB 21 00 B0 06  RUNSPG  LD HL,LOB2,B,2
 350+ 95BF 02
 350+ 95C0 CD 15 40      CALL LOAD512
 351+ 95C3 21 20 B0 11          LD HL,LOB2+32,DE,IDNT,B,12
 351+ 95C7 5C AB 06 0C
 352+ 95CB CD 63 A7             CALL RAZ
 352+ 95CE C2 94 69      JP NZ,GED
 353+ 95D1
 354+ 95D1 7E                   LD A,(HL)
 354+ 95D2 FE 03         CP 3
 354+ 95D4 D2 31 94      JP NC,SPG1
 355+ 95D7 FE 02                CP 2
 355+ 95D9 38 17         JR C,OF4
 356+ 95DB              ;SPGv0.2:
 357+ 95DB 3E 0F 32 7F          LD A,15,(VrS+1),A
 357+ 95DF 96
 358+ 95E0 3E 10 32 24          LD A,16,(V2A+1),A,(V2F+1),A
 358+ 95E4 96 32 16 97
 359+ 95E8 3E 04 32 A8          LD A,4,(V2B+1),A
 359+ 95EC 96
 360+ 95ED 3E 0F 32 ED          LD A,15,(V2C+1),A
 360+ 95F1 96
 361+ 95F2              ;SPGv0.0/0.1:
 362+ 95F2              OF4     ;HL,SPGLOG:CALL SPGLOG
 363+ 95F2
 364+ 95F2 CD 48 93             CALL FSM
 364+ 95F5 C8            RET Z
 364+ 95F6 CD 7D 6A      CALL TURBOof
 365+ 95F9
 366+ 95F9 3E 20 32 BB          LD A,%00100000,(VVmod),A
 366+ 95FD 7F
 367+ 95FE CD 59 A7             CALL DINT
 368+ 9601
 369+ 9601 21 00 B4 06          LD HL,LOB2+1024,B,2
 369+ 9605 02
 369+ 9606 CD 15 40      CALL LOAD512
 370+ 9609 21 00 B0 11          LD HL,LOB2,DE,PAGER,BC,#0800
 370+ 960D 00 53 01 00
 370+ 9611 08
 371+ 9612 ED B0                LDIR
 372+ 9614
 373+ 9614 21 4D 97 11          LD HL,MANAG0,DE,PAGER,BC,32
 373+ 9618 00 53 01 20
 373+ 961C 00
 373+ 961D ED B0         LDIR
 374+ 961F AF                   XOR A
 374+ 9620 CD B6 68      CALL MNGC
 375+ 9623              ;-------
 376+ 9623 3E 08 32 A7  V2A     LD A,8,(STUS),A;        COUNTER!
 376+ 9627 7F
 377+ 9628 2A 40 53 22          LD HL,(PAGER+64),(SAR+1),HL
 377+ 962C 10 97
 378+ 962E
 379+ 962E 3A 42 53 32          LD A,(PAGER+66),(SPA+1),A
 379+ 9632 EB 96
 380+ 9634 2A 4A 53             LD HL,(PAGER+74)
 381+ 9637 7C                   LD A,H
 381+ 9638 FE 40         CP #40
 381+ 963A 30 03         JR NC,NSPZ
 382+ 963C 2A 8A 7F             LD HL,(SPBU)
 383+ 963F 22 0D 97     NSPZ    LD (SSPA+1),HL
 384+ 9642
 385+ 9642 2A 44 53 22          LD HL,(PAGER+68),(V2E+1),HL
 385+ 9646 D4 96
 386+ 9648
 387+ 9648 2A 4C 53             LD HL,(PAGER+76)
 388+ 964B 7C                   LD A,H
 388+ 964C B5            OR L
 388+ 964D 28 03         JR Z,V2Di
 389+ 964F 22 E6 96             LD (V2D+1),HL
 390+ 9652 ED 4B 4E 53  V2Di    LD BC,(PAGER+78)
 391+ 9656 78                   LD A,B
 391+ 9657 B1            OR C
 391+ 9658 28 0D         JR Z,MAA
 392+ 965A 78                   LD A,B
 392+ 965B B7            OR A
 392+ 965C 28 09         JR Z,MAA
 392+ 965E 06 01         LD B,1
 393+ 9660 79                   LD A,C
 393+ 9661 FE 41         CP #41
 393+ 9663 38 02         JR C,MAA
 393+ 9665 0E 00         LD C,0
 394+ 9667 ED 43 DC 96  MAA     LD (LAA+1),BC
 395+ 966B
 396+ 966B DD 21 80 53          LD IX,PAGER+128
 397+ 966F DD 7E 02     GROP    LD A,(IX+2)
 397+ 9672 FE 0E         CP 14
 397+ 9674 38 02         JR C,NSPL
 398+ 9676 3E 0D                LD A,13
 399+ 9678 32 9B 96     NSPL    LD (SPGL+1),A
 400+ 967B
 401+ 967B              ;LD A,1,(PAUS),A
 402+ 967B DD 7E 03             LD A,(IX+3)
 403+ 967E E6 07        VrS     AND 7
 404+ 9680 CD B6 68             CALL MNGC
 405+ 9683
 406+ 9683 21 00 55 DD          LD HL,PAGER+512,E,(IX),D,(IX+1)
 406+ 9687 5E 00 DD 56
 406+ 968B 01
 407+ 968C 01 00 06             LD BC,#0600
 408+ 968F CD 12 97             CALL LC
 409+ 9692 EB                   EX DE,HL
 410+ 9693 7C                   LD A,H
 410+ 9694 FE A0         CP #A0
 410+ 9696 38 1D         JR C,DIPL
 411+ 9698 DD E5                PUSH IX
 412+ 969A 06 01        SPGL    LD B,1
 412+ 969C CB 20 CB 20   SLA B,B
 413+ 96A0 78                   LD A,B
 413+ 96A1 B7            OR A
 413+ 96A2 C4 15 40      CALL NZ,LOAD512
 414+ 96A5 DD E1                POP IX
 415+ 96A7
 416+ 96A7 11 08 00     V2B     LD DE,8
 416+ 96AA DD 19         ADD IX,DE
 417+ 96AC
 418+ 96AC 3A A7 7F             LD A,(STUS)
 418+ 96AF 3D            DEC A
 419+ 96B0 32 A7 7F             LD (STUS),A
 419+ 96B3 20 BA         JR NZ,GROP
 420+ 96B5              ;-------
 421+ 96B5 F3           DIPL    DI
 422+ 96B6 3E 3F ED 47          LD A,63,I,A
 422+ 96BA ED 56         IM 1
 423+ 96BC FD 21 3A 5C          LD IY,#5C3A
 424+ 96C0
 425+ 96C0 01 AF 00             LD BC,Vmod
 425+ 96C3 AF            XOR A
 425+ 96C4 ED 79         OUT (C),A
 426+ 96C6 CD 7A 68             CALL MNG0D
 427+ 96C9 01 FD 7F 3E          LD BC,#7FFD,A,16
 427+ 96CD 10
 427+ 96CE ED 79         OUT (C),A
 428+ 96D0
 429+ 96D0              ;LD HL,#5800,DE,#5801,BC,#02FF
 430+ 96D0              ;LD (HL),L
 431+ 96D0              ;LDIR
 432+ 96D0
 433+ 96D0 21 00 53             LD HL,PAGER
 434+ 96D3 11 00 00     V2E     LD DE,0
 435+ 96D6 01 20 00             LD BC,32
 436+ 96D9 ED B0                LDIR
 437+ 96DB
 438+ 96DB 01 00 00 78  LAA     LD BC,0,A,B
 438+ 96DF B1            OR C
 438+ 96E0 28 08         JR Z,SPA
 439+ 96E2 21 C0 53             LD HL,PAGER+192
 440+ 96E5 11 00 5B     V2D     LD DE,#5B00
 441+ 96E8 ED B0                LDIR
 442+ 96EA
 443+ 96EA 3E 00        SPA     LD A,0
 444+ 96EC E6 07        V2C     AND 7
 445+ 96EE CD 00 53             CALL PAGER
 446+ 96F1
 447+ 96F1              ;LD A,(PAGER+67)
 448+ 96F1              ;CP 1:JR NZ,NNx
 449+ 96F1              ;LD A,(DRVE),(#5CF6),A
 450+ 96F1
 451+ 96F1 3A ED 96     NNx     LD A,(V2C+1)
 451+ 96F4 FE 07         CP 7
 451+ 96F6 28 14         JR Z,SSPA
 452+ 96F8 21 31 53 1E          LD HL,PAGER+49,E,5
 452+ 96FC 05
 453+ 96FD 4E           OUTZ    LD C,(HL)
 453+ 96FE 23            INC HL
 454+ 96FF 46                   LD B,(HL)
 454+ 9700 23            INC HL
 455+ 9701 78                   LD A,B
 455+ 9702 B1            OR C
 455+ 9703 28 03         JR Z,OUTz
 456+ 9705 7E                   LD A,(HL)
 457+ 9706 ED 79                OUT (C),A
 458+ 9708 23           OUTz    INC HL
 459+ 9709 1D                   DEC E
 459+ 970A 20 F1         JR NZ,OUTZ
 460+ 970C
 461+ 970C 31 00 00     SSPA    LD SP,0
 462+ 970F C3 00 00     SAR     JP 0
 463+ 9712              ;-------
 464+ 9712 3A A7 7F     LC      LD A,(STUS)
 465+ 9715 FE 08        V2F     CP 8
 465+ 9717 C0            RET NZ
 466+ 9718 7A                   LD A,D
 466+ 9719 FE A0         CP #A0
 466+ 971B 30 1F         JR NC,V01
 467+ 971D
 468+ 971D ED 53 43 97          LD (SREZ+4),DE
 469+ 9721 C6 06                ADD A,6
 469+ 9723 57            LD D,A
 470+ 9724 D5                   PUSH DE
 471+ 9725 2A 10 97 22          LD HL,(SAR+1),(SR1+1),HL
 471+ 9729 4B 97
 472+ 972B 11 20 53 ED          LD DE,PAGER+#20,(SAR+1),DE
 472+ 972F 53 10 97
 473+ 9732 21 3F 97 01          LD HL,SREZ,BC,16
 473+ 9736 10 00
 473+ 9738 ED B0         LDIR
 474+ 973A D1                   POP DE
 475+ 973B C9                   RET
 476+ 973C ED B0        V01     LDIR
 477+ 973E C9                   RET
 478+ 973F 21 00 55     SREZ    LD HL,PAGER+512
 479+ 9742 11 00 00             LD DE,0
 480+ 9745 01 00 06             LD BC,#0600
 481+ 9748 ED B0                LDIR
 482+ 974A C3 00 00     SR1     JP 0
 483+ 974D              ;-------
 484+ 974D              MANAG0  ;I:A - num of PAGE (VALID: 0-15)
 485+ 974D C5                   PUSH BC
 486+ 974E 01 AF 13             LD BC,PW4
 486+ 9751 ED 79         OUT (C),A
 487+ 9753 C1                   POP BC
 488+ 9754 C9                   RET
 489+ 9755              ;---------------------------------------
 490+ 9755 21 08 84     PLER    LD HL,TER4
 490+ 9758 C3 1E 91      JP ERR0
 491+ 975B              ;---------------------------------------
 492+ 975B 3A 78 7F     RELOAD7 LD A,(PPFR)
 492+ 975E B7            OR A
 492+ 975F C0            RET NZ
 493+ 9760
 494+ 9760 E5                   PUSH HL
 495+ 9761 21 0D 82 11          LD HL,TXTL,DE,#0100
 495+ 9765 00 01
 496+ 9767 CD 6F 90             CALL DLME
 497+ 976A E1                   POP HL
 497+ 976B C8            RET Z
 498+ 976C
 499+ 976C E5                   PUSH HL
 499+ 976D CD 55 9A      CALL PLGDINI
 500+ 9770 E1                   POP HL
 501+ 9771 2E 00                LD L,0
 501+ 9773 24 24         INC H,H
 501+ 9775 CD 67 9A      CALL PLGDEL
 502+ 9778 18 15                JR LDRE
 503+ 977A              ;-------
 504+ 977A CD 94 69     LDPLG   CALL GED
 504+ 977D AF            XOR A
 505+ 977E 32 00 B2             LD (LOBULO),A
 506+ 9781 32 78 7F     LDPL2   LD (PPFR),A
 507+ 9784
 508+ 9784 21 00 B0 06          LD HL,LOBU,B,1
 508+ 9788 01
 508+ 9789 CD 15 40      CALL LOAD512
 509+ 978C CD C3 98             CALL LOPTION
 510+ 978F
 511+ 978F 3A 20 B0     LDRE    LD A,(LOBU+32)
 512+ 9792 FE 02                CP PLGOV
 512+ 9794 38 BF         JR C,PLER
 513+ 9796 FE 11                CP PLGCV+1
 513+ 9798 30 BB         JR NC,PLER
 514+ 979A
 515+ 979A 21 68 AB 11          LD HL,IDNT2,DE,LOBU+16,B,16
 515+ 979E 10 B0 06 10
 516+ 97A2 CD 63 A7             CALL RAZ
 516+ 97A5 C0            RET NZ
 517+ 97A6              ;-------
 518+ 97A6 3A 7A 7F 32          LD A,(PPGM),(PPGP),A,(LOBU),A
 518+ 97AA 79 7F 32 00
 518+ 97AE B0
 519+ 97AF 2A 22 B0             LD HL,(LOBU+34)
 519+ 97B2 85            ADD A,L
 520+ 97B3 D8                   RET C
 520+ 97B4 FE 3F         CP PLEPG-PLGPG
 520+ 97B6 D0            RET NC
 521+ 97B7 32 7B 7F             LD (PPG2),A
 522+ 97BA
 523+ 97BA 3E 60                LD A,PLHPG
 523+ 97BC CD B6 68      CALL MNGC
 524+ 97BF
 525+ 97BF 3A 7D 7F             LD A,(PHED+1)
 525+ 97C2 FE 40         CP #40
 525+ 97C4 D8            RET C
 526+ 97C5 CD 81 98             CALL PDCHECK
 526+ 97C8 DA 5B 97      JP C,RELOAD7
 527+ 97CB 21 00 B0 ED          LD HL,LOBU,DE,(PHED)
 527+ 97CF 5B 7C 7F
 528+ 97D2 01 00 02             LD BC,512
 528+ 97D5 ED B0         LDIR
 528+ 97D7 ED 53 7C 7F   LD (PHED),DE
 529+ 97DB EB                   EX DE,HL
 529+ 97DC 06 00         LD B,0
 529+ 97DE CD 8E 69      CALL NOPING
 530+ 97E1
 531+ 97E1 21 24 B0             LD HL,LOBU+36
 532+ 97E4 7E           WALK    LD A,(HL)
 532+ 97E5 23            INC HL
 532+ 97E6 CD EE 68      CALL MNGC_PL
 533+ 97E9 7E                   LD A,(HL)
 533+ 97EA 23            INC HL
 533+ 97EB B7            OR A
 533+ 97EC 28 0B         JR Z,LGW
 534+ 97EE E5                   PUSH HL
 535+ 97EF 47 21 00 C0          LD B,A,HL,#C000
 535+ 97F3 CD 15 40      CALL LOAD512
 536+ 97F6 E1                   POP HL
 537+ 97F7 18 EB                JR WALK
 538+ 97F9
 539+ 97F9 3A 7B 7F 32  LGW     LD A,(PPG2),(PPGM),A
 539+ 97FD 7A 7F
 540+ 97FF 3A 78 7F 0E          LD A,(PPFR),C,1
 540+ 9803 01
 540+ 9804 B7            OR A
 540+ 9805 20 63         JR NZ,ALPL
 541+ 9807
 542+ 9807 DD E5                PUSH IX
 543+ 9809 DD 21 8E 80          LD IX,LGWND
 543+ 980D CD 92 79      CALL PRWOW
 544+ 9810
 545+ 9810 21 00 B2 06          LD HL,LOBU+512,B,32
 545+ 9814 20
 545+ 9815 CD 8E 69      CALL NOPING
 546+ 9818 21 C4 B0             LD HL,LOBU+165+31
 547+ 981B 06 20 78             LD B,32,A,B
 547+ 981E CD BD 98      CALL NOMI
 548+ 9821 48                   LD C,B
 548+ 9822 90            SUB B
 548+ 9823 CB 3F         SRL A
 548+ 9825 47            LD B,A
 549+ 9826 11 00 B2 3E          LD DE,LOBU+512,A,31
 549+ 982A 1F
 549+ 982B 90            SUB B
 550+ 982C 5F 06 00             LD E,A,B,0
 551+ 982F 79                   LD A,C
 551+ 9830 B7            OR A
 551+ 9831 28 02         JR Z,$+4
 551+ 9833 ED B8         LDDR
 552+ 9835
 553+ 9835 21 00 B2 11          LD HL,LOBU+512,DE,257,BC,32
 553+ 9839 01 01 01 20
 553+ 983D 00
 553+ 983E CD 89 7D      CALL PRSRW
 554+ 9841 3E 71                LD A,%01110001
 554+ 9843 CD 9D 7D      CALL PRIAT
 555+ 9846 21 22 84 11          LD HL,TEM0,DE,#020D,BC,9
 555+ 984A 0D 02 01 09
 555+ 984E 00
 555+ 984F CD 89 7D      CALL PRSRW
 556+ 9852
 557+ 9852 CD 41 74             CALL USPO
 558+ 9855 CD 39 74             CALL NUSP
 559+ 9858
 560+ 9858 CD 34 7B             CALL RRESB
 561+ 985B DD E1                POP IX
 562+ 985D
 563+ 985D DD E5                PUSH IX
 563+ 985F DD 21 EB 84   LD IX,WND
 563+ 9863 CD 51 A2      CALL TXT2PR
 564+ 9866 DD E1                POP IX
 565+ 9868
 566+ 9868 0E FF                LD C,#FF
 567+ 986A 3A C5 B0     ALPL    LD A,(LOBU+197)
 568+ 986D 21 C6 B0             LD HL,LOBU+198
 569+ 9870 B9                   CP C
 569+ 9871 C8            RET Z
 570+ 9872 FE 11                CP #11
 570+ 9874 38 05         JR C,MIMI
 571+ 9876 FE 16                CP #16
 571+ 9878 DC 5E A2      CALL C,EDTPR
 572+ 987B FE 01        MIMI    CP #01
 572+ 987D CC B6 70      CALL Z,RAJT
 573+ 9880 C9                   RET
 574+ 9881              ;-------
 575+ 9881 21 A5 C0     PDCHECK LD HL,#C000+165
 576+ 9884 ED 4B 7C 7F  PDC     LD BC,(PHED)
 577+ 9888 B7                   OR A
 577+ 9889 ED 42         SBC HL,BC
 577+ 988B D0            RET NC
 578+ 988C 09                   ADD HL,BC
 579+ 988D
 580+ 988D E5                   PUSH HL
 581+ 988E 11 A5 B0             LD DE,LOBU+165
 582+ 9891 06 20                LD B,32
 583+ 9893 1A           DCH     LD A,(DE)
 583+ 9894 BE            CP (HL)
 583+ 9895 20 07         JR NZ,PDCH
 584+ 9897 23 13                INC HL,DE
 585+ 9899 10 F8                DJNZ DCH
 586+ 989B E1                   POP HL
 587+ 989C 37                   SCF
 588+ 989D C9                   RET
 589+ 989E
 590+ 989E E1           PDCH    POP HL
 591+ 989F 01 00 02             LD BC,512
 591+ 98A2 09            ADD HL,BC
 592+ 98A3 18 DF                JR PDC
 593+ 98A5              ;-------
 594+ 98A5 3E 60        PLGCL   LD A,PLHPG
 594+ 98A7 CD B6 68      CALL MNGC
 595+ 98AA 21 00 C0 22          LD HL,#C000,(PHED),HL
 595+ 98AE 7C 7F
 596+ 98B0 06 00                LD B,0
 596+ 98B2 CD 8E 69      CALL NOPING
 597+ 98B5 AF                   XOR A
 598+ 98B6 32 79 7F             LD (PPGP),A
 599+ 98B9 32 7A 7F             LD (PPGM),A
 600+ 98BC C9                   RET
 601+ 98BD              ;-------
 602+ 98BD BE           NOMI    CP (HL)
 602+ 98BE C0            RET NZ
 602+ 98BF 2B            DEC HL
 602+ 98C0 10 FB         DJNZ $-3
 603+ 98C2 C9                   RET
 604+ 98C3              ;---------------------------------------
 605+ 98C3              PARmaxL EQU 32;Parameter Max Length
 606+ 98C3              PARmaxC EQU 10;Parameters Max Count
 607+ 98C3              OPTmaxC EQU 10;Options Max Count
 608+ 98C3
 609+ 98C3 21 01 B0 06  LOPTION LD HL,LOBU+1,B,PARmaxC
 609+ 98C7 0A
 610+ 98C8 CD 8E 69             CALL NOPING
 611+ 98CB D9                   EXX
 611+ 98CC 21 01 B0      LD HL,LOBU+1
 612+ 98CF D9                   EXX
 613+ 98D0
 614+ 98D0 11 04 B1             LD DE,LOBU+260
 615+ 98D3 21 00 B2 7E  LPARS   LD HL,LOBULO,A,(HL)
 615+ 98D7 B7            OR A
 615+ 98D8 C8            RET Z
 616+ 98D9 ED 53 40 99          LD (LcurSPO+1),DE
 617+ 98DD 1A 32 3D 99          LD A,(DE),(LcurSL+1),A
 617+ 98E1 13            INC DE
 618+ 98E2 B7                   OR A
 618+ 98E3 C8            RET Z
 619+ 98E4 FE FC                CP 252
 619+ 98E6 D0            RET NC
 620+ 98E7 1A 32 32 99          LD A,(DE),(LdefOP+1),A
 620+ 98EB 13            INC DE
 621+ 98EC 21 00 B4             LD HL,LOBUL2
 622+ 98EF 36 2D                LD (HL),"-"
 622+ 98F1 23            INC HL
 623+ 98F2 06 20                LD B,PARmaxL
 624+ 98F4 1A           LoptCP  LD A,(DE)
 625+ 98F5 FE 0B                CP OPTmaxC+1
 625+ 98F7 38 06         JR C,LcurOPT
 626+ 98F9 77                   LD (HL),A
 626+ 98FA 23 13         INC HL,DE
 627+ 98FC 10 F6                DJNZ LoptCP
 628+ 98FE C9                   RET
 629+ 98FF B7           LcurOPT OR A
 629+ 9900 C8            RET Z
 630+ 9901 08                   EXA
 630+ 9902 78            LD A,B
 630+ 9903 FE 20         CP PARmaxL
 630+ 9905 C8            RET Z
 631+ 9906 08                   EXA
 631+ 9907 36 FF         LD (HL),#FF
 632+ 9909 32 1C 99             LD (LoptCNT+2),A
 632+ 990C 13            INC DE
 633+ 990D D5                   PUSH DE
 633+ 990E 21 00 B4 11   LD HL,LOBUL2,DE,LOBULO
 633+ 9912 00 B2
 634+ 9914 CD 01 9E             CALL SRHSQ
 635+ 9917 D1                   POP DE
 635+ 9918 28 17         JR Z,LdefOP
 636+ 991A 01 00 00     LoptCNT LD BC,0
 637+ 991D 7E                   LD A,(HL)
 637+ 991E B7            OR A
 637+ 991F C8            RET Z
 638+ 9920 FE 3D                CP "="
 638+ 9922 20 01         JR NZ,$+3
 638+ 9924 23            INC HL
 639+ 9925 C5           LoCNT   PUSH BC
 639+ 9926 CD 40 A3      CALL SUU
 640+ 9929 C1                   POP BC
 640+ 992A 03            INC BC
 640+ 992B 28 06         JR Z,LnotDEF
 641+ 992D 1B 1B                DEC DE,DE
 642+ 992F 10 F4                DJNZ LoCNT
 643+ 9931 0E 00        LdefOP  LD C,0
 644+ 9933 79           LnotDEF LD A,C
 645+ 9934 D9                   EXX
 645+ 9935 77            LD (HL),A
 645+ 9936 23            INC HL
 645+ 9937 7D            LD A,L
 646+ 9938 D9                   EXX
 646+ 9939 FE 0C         CP PARmaxC+1+1
 646+ 993B D0            RET NC
 647+ 993C 21 00 00     LcurSL  LD HL,0
 648+ 993F 11 00 00     LcurSPO LD DE,0
 648+ 9942 19            ADD HL,DE
 648+ 9943 EB            EX DE,HL
 649+ 9944 18 8D                JR LPARS
 650+ 9946              ;---------------------------------------
 651+ 9946 DD E5        F11MENU PUSH IX
 652+ 9948 3A 7D 7F     MNU     LD A,(PHED+1)
 652+ 994B FE C2         CP #C2
 652+ 994D DA DB 99      JP C,F1E
 653+ 9950
 654+ 9950 3E 60                LD A,PLHPG
 654+ 9952 CD B6 68      CALL MNGC
 655+ 9955 21 A5 C0 11          LD HL,#C000+165,DE,LOBU
 655+ 9959 00 B0
 656+ 995B
 657+ 995B 01 20 00     ZkL     LD BC,32
 657+ 995E ED B0         LDIR
 658+ 9960 01 E0 01             LD BC,512-32
 658+ 9963 09            ADD HL,BC
 659+ 9964 3A 7D 7F             LD A,(PHED+1)
 659+ 9967 BC            CP H
 659+ 9968 20 F1         JR NZ,ZkL
 660+ 996A
 661+ 996A EB                   EX DE,HL
 661+ 996B 01 00 50      LD BC,0-LOBU
 661+ 996E 09            ADD HL,BC
 662+ 996F CB 3C       > SRL H
 662+ 9971 CB 3C       > SRL H
 662+ 9973 CB 3C       > SRL H
 662+ 9975 CB 3C       > SRL H
 662+ 9977 CB 3C       > SRL H
 662+ 9979 CB 1D         RR L
 663+ 997B 7D                   LD A,L
 664+ 997C
 665+ 997C DD 21 9A 80          LD IX,F11WND
 666+ 9980 F5                   PUSH AF
 667+ 9981 DD 77 0D             LD (IX+13),A
 668+ 9984 C6 02                ADD A,2
 668+ 9986 DD 77 05      LD (IX+5),A
 668+ 9989 CD 92 79      CALL PRWOW
 669+ 998C C1                   POP BC
 670+ 998D
 671+ 998D 21 00 B0 11          LD HL,LOBU,DE,#0101
 671+ 9991 01 01
 672+ 9993 C5           SPIG    PUSH BC
 673+ 9994 E5 D5                PUSH HL,DE
 674+ 9996 01 20 00             LD BC,32
 674+ 9999 CD 89 7D      CALL PRSRW
 675+ 999C D1 E1                POP DE,HL
 676+ 999E 01 20 00             LD BC,32
 676+ 99A1 09            ADD HL,BC
 676+ 99A2 14            INC D
 677+ 99A3 C1                   POP BC
 678+ 99A4 10 ED                DJNZ SPIG
 679+ 99A6              ;-------
 680+ 99A6 FB           F11MC   EI
 680+ 99A7 76            HALT
 680+ 99A8 CD 3B 7D      CALL CURSOR
 681+ 99AB
 682+ 99AB CD 49 74 C4          CALL UPPP,NZ,CrUP
 682+ 99AF 8E 62
 683+ 99B1 CD 4F 74 C4          CALL DWWW,NZ,CrDN
 683+ 99B5 85 62
 684+ 99B7 CD 55 74 C4          CALL LFFF,NZ,CrPU
 684+ 99BB 96 62
 685+ 99BD CD 5B 74 C4          CALL RGGG,NZ,CrPD
 685+ 99C1 9F 62
 686+ 99C3
 687+ 99C3 CD 86 74 C4          CALL DELE,NZ,PSDEL
 687+ 99C7 30 9A
 687+ 99C9 C2 48 99      JP NZ,MNU
 688+ 99CC
 689+ 99CC CD 90 74             CALL ESC
 689+ 99CF 20 07         JR NZ,F1e
 690+ 99D1 CD 6D 74             CALL ENKE
 690+ 99D4 20 08         JR NZ,PSEXE
 691+ 99D6 18 CE                JR F11MC
 692+ 99D8              ;-------
 693+ 99D8 CD 34 7B     F1e     CALL RRESB
 694+ 99DB DD E1        F1E     POP IX
 695+ 99DD C9                   RET
 696+ 99DE              ;---------------------------------------
 697+ 99DE 3E 60        PSEXE   LD A,PLHPG
 697+ 99E0 CD B6 68      CALL MNGC
 698+ 99E3
 699+ 99E3 DD 7E 0C             LD A,(IX+12)
 699+ 99E6 3D            DEC A
 700+ 99E7 26 00 6F             LD H,0,L,A
 701+ 99EA 29          > ADD HL,HL
 701+ 99EB 29          > ADD HL,HL
 701+ 99EC 29          > ADD HL,HL
 701+ 99ED 29          > ADD HL,HL
 701+ 99EE 29          > ADD HL,HL
 701+ 99EF 29          > ADD HL,HL
 701+ 99F0 29          > ADD HL,HL
 701+ 99F1 29          > ADD HL,HL
 701+ 99F2 29          > ADD HL,HL
 702+ 99F3 01 00 C0             LD BC,#C000
 702+ 99F6 09            ADD HL,BC
 703+ 99F7 11 00 B0 01          LD DE,LOBU,BC,512
 703+ 99FB 00 02
 703+ 99FD ED B0         LDIR
 704+ 99FF
 705+ 99FF CD 34 7B             CALL RRESB
 706+ 9A02 DD E1                POP IX
 707+ 9A04
 708+ 9A04 3A C5 B0             LD A,(LOBU+197)
 709+ 9A07 FE 11                CP #11
 709+ 9A09 28 14         JR Z,TOAJT
 710+ 9A0B FE 13                CP #13
 710+ 9A0D 28 10         JR Z,TOAJT
 711+ 9A0F FE 15                CP #15
 711+ 9A11 28 0C         JR Z,TOAJT
 712+ 9A13 FE 05                CP 5
 712+ 9A15 28 08         JR Z,TOAJT
 713+ 9A17 FE 02                CP 2
 713+ 9A19 28 04         JR Z,TOAJT
 714+ 9A1B FE 03                CP 3
 714+ 9A1D 20 0B         JR NZ,PSER
 715+ 9A1F 3E 03        TOAJT   LD A,3
 715+ 9A21 CD B8 70      CALL AJT
 716+ 9A24 FE 03                CP 3
 716+ 9A26 CC 79 8D      CALL Z,SEXY
 717+ 9A29 C9                   RET
 718+ 9A2A              ;-------
 719+ 9A2A 21 E1 83     PSER    LD HL,TER3
 719+ 9A2D C3 1E 91      JP ERR0
 720+ 9A30              ;---------------------------------------
 721+ 9A30 21 FD 81 11  PSDEL   LD HL,TXTK,DE,#0100
 721+ 9A34 00 01
 722+ 9A36 CD 6F 90             CALL DLME
 722+ 9A39 C8            RET Z
 723+ 9A3A
 724+ 9A3A CD 55 9A             CALL PLGDINI
 725+ 9A3D
 726+ 9A3D DD 7E 0C             LD A,(IX+12)
 727+ 9A40 67 2E 00             LD H,A,L,0
 728+ 9A43 29                   ADD HL,HL
 729+ 9A44 01 00 C0             LD BC,#C000
 729+ 9A47 09            ADD HL,BC
 730+ 9A48 CD 67 9A             CALL PLGDEL
 731+ 9A4B
 732+ 9A4B CD 34 7B             CALL RRESB
 733+ 9A4E 3E 01 DD 77          LD A,1,(IX+12),A
 733+ 9A52 0C
 734+ 9A53 B7                   OR A
 735+ 9A54 C9                   RET
 736+ 9A55
 737+ 9A55 3E 60        PLGDINI LD A,PLHPG
 737+ 9A57 CD B6 68      CALL MNGC
 738+ 9A5A 21 00 00 11          LD HL,0,DE,1,BC,512-1
 738+ 9A5E 01 00 01 FF
 738+ 9A62 01
 739+ 9A63 75                   LD (HL),L
 740+ 9A64 ED B0                LDIR
 741+ 9A66 C9                   RET
 742+ 9A67 54 5D        PLGDEL  LD DE,HL
 742+ 9A69 15 15         DEC D,D
 743+ 9A6B 1A                   LD A,(DE)
 744+ 9A6C D5                   PUSH DE
 745+ 9A6D E5                   PUSH HL
 746+ 9A6E 21 00 00             LD HL,0
 746+ 9A71 ED 52         SBC HL,DE
 746+ 9A73 44 4D         LD BC,HL
 747+ 9A75 E1                   POP HL
 747+ 9A76 ED B0         LDIR
 748+ 9A78 2A 7C 7F             LD HL,(PHED)
 749+ 9A7B 01 00 FE             LD BC,0-512
 749+ 9A7E 09            ADD HL,BC
 750+ 9A7F 22 7C 7F             LD (PHED),HL
 751+ 9A82 E1                   POP HL
 752+ 9A83
 753+ 9A83 CD 8B 9A             CALL PSMOVE
 753+ 9A86 79 32 7A 7F   LD A,C,(PPGM),A
 754+ 9A8A C9                   RET
 755+ 9A8B
 756+ 9A8B              PSMOVE  ;i: A - Page (Logical)
 757+ 9A8B              ;          HL - Headers to Patching
 758+ 9A8B
 759+ 9A8B 4F                   LD C,A
 760+ 9A8C
 761+ 9A8C ED 5B 7C 7F  PSM     LD DE,(PHED)
 762+ 9A90 B7                   OR A
 762+ 9A91 ED 52         SBC HL,DE
 762+ 9A93 D0            RET NC
 762+ 9A94 19            ADD HL,DE
 763+ 9A95 7E 71                LD A,(HL),(HL),C
 764+ 9A97 E5                   PUSH HL
 765+ 9A98 11 22 00             LD DE,34
 765+ 9A9B 19            ADD HL,DE
 766+ 9A9C 46                   LD B,(HL)
 766+ 9A9D CD A7 9A      CALL PSMDMA
 767+ 9AA0 E1                   POP HL
 768+ 9AA1 11 00 02             LD DE,512
 768+ 9AA4 19            ADD HL,DE
 769+ 9AA5 18 E5                JR PSM
 770+ 9AA7
 771+ 9AA7              PSMDMA  ;i: A - Source (Logical)
 772+ 9AA7              ;           C - Dest (Logical)
 773+ 9AA7              ;           B - Ln (Pages)
 774+ 9AA7              ;        o: C - Dest (Logical)
 775+ 9AA7
 776+ 9AA7 C6 61                ADD A,PLGPG
 776+ 9AA9 5F            LD E,A
 777+ 9AAA 79                   LD A,C
 777+ 9AAB C6 61         ADD A,PLGPG
 778+ 9AAD 57                   LD D,A
 779+ 9AAE CD B4 9A             CALL DMAPG
 779+ 9AB1 10 FB         DJNZ $-3
 780+ 9AB3 C9                   RET
 781+ 9AB4
 782+ 9AB4 C5           DMAPG   PUSH BC
 783+ 9AB5 21 00 00             LD HL,0
 784+ 9AB8 01 AF 27             LD BC,STS
 784+ 9ABB ED 70         INF
 784+ 9ABD FA BB 9A      JP M,$-2
 785+ 9AC0 06 1A                LD B,high DMASL
 785+ 9AC2 ED 69         OUT (C),L
 786+ 9AC4 06 1B                LD B,high DMASH
 786+ 9AC6 ED 61         OUT (C),H
 787+ 9AC8 06 1C                LD B,high DMASX
 787+ 9ACA ED 59         OUT (C),E
 788+ 9ACC 06 1D                LD B,high DMADL
 788+ 9ACE ED 69         OUT (C),L
 789+ 9AD0 06 1E                LD B,high DMADH
 789+ 9AD2 ED 61         OUT (C),H
 790+ 9AD4 06 1F                LD B,high DMADX
 790+ 9AD6 ED 51         OUT (C),D
 791+ 9AD8
 792+ 9AD8 06 28 3E 1F          LD B,high DMA_T,A,31
 792+ 9ADC ED 79         OUT (C),A
 793+ 9ADE 06 26 3E FF          LD B,high DMA_N,A,255
 793+ 9AE2 ED 79         OUT (C),A
 794+ 9AE4 06 27 3E 01          LD B,high DMA_C,A,%00000001
 794+ 9AE8 ED 79         OUT (C),A
 795+ 9AEA 06 27                LD B,high STS
 795+ 9AEC ED 70         INF
 795+ 9AEE FA EC 9A      JP M,$-2
 796+ 9AF1 C1                   POP BC
 796+ 9AF2 0C 14 1C      INC C,D,E
 797+ 9AF5 C9                   RET
 798+ 9AF6              ;---------------------------------------
 799+ 9AF6 3E 60        GOPLG   LD A,PLHPG
 799+ 9AF8 CD B6 68      CALL MNGC
 800+ 9AFB
 801+ 9AFB 11 40 BE             LD DE,#C000+64-512
 802+ 9AFE 2A 7C 7F     PLG     LD HL,(PHED)
 803+ 9B01 B7                   OR A
 803+ 9B02 ED 52         SBC HL,DE
 803+ 9B04 38 65         JR C,PF
 804+ 9B06
 805+ 9B06 21 FF 01             LD HL,511
 805+ 9B09 19            ADD HL,DE
 806+ 9B0A 7E                   LD A,(HL)
 806+ 9B0B 23            INC HL
 806+ 9B0C EB            EX DE,HL
 807+ 9B0D B7                   OR A
 807+ 9B0E 28 0C         JR Z,OLDPLG
 808+ 9B10 CB 3F                SRL A
 808+ 9B12 E6 01         AND %00000001
 809+ 9B14 2A 17 60             LD HL,(F3ENTFL)
 810+ 9B17 BD                   CP L
 810+ 9B18 28 02         JR Z,OLDPLG
 811+ 9B1A 18 E2                JR PLG
 812+ 9B1C
 813+ 9B1C 21 D7 7F     OLDPLG  LD HL,ENTRY+8
 814+ 9B1F D5                   PUSH DE
 814+ 9B20 CD E8 92      CALL CHext
 814+ 9B23 EB            EX DE,HL
 815+ 9B24 D1                   POP DE
 815+ 9B25 28 D7         JR Z,PLG
 816+ 9B27
 817+ 9B27 37                   SCF
 817+ 9B28 ED 52         SBC HL,DE
 818+ 9B2A 7D                   LD A,L
 819+ 9B2B 0E FF                LD C,255
 819+ 9B2D 0C            INC C
 819+ 9B2E D6 03         SUB 3
 819+ 9B30 20 FB         JR NZ,$-3
 820+ 9B32 79 32 FC 70          LD A,C,(ENV+1),A
 821+ 9B36
 822+ 9B36 01 C0 FF             LD BC,0-64
 823+ 9B39 EB           PLGE    EX DE,HL
 823+ 9B3A 09            ADD HL,BC
 824+ 9B3B 22 7E 7F             LD (PHEP),HL
 825+ 9B3E 11 00 B0 01          LD DE,LOBU,BC,256
 825+ 9B42 00 01
 825+ 9B44 ED B0         LDIR
 826+ 9B46              ;-------
 827+ 9B46 ED 4B 90 7F          LD BC,(ARRR)
 828+ 9B4A ED 5B 92 7F          LD DE,(ARRR+2)
 829+ 9B4E 2A A3 B0             LD HL,(LOBU+161+2)
 830+ 9B51 B7                   OR A
 830+ 9B52 ED 52         SBC HL,DE
 830+ 9B54 38 15 20 08   JR C,PF,NZ,Pf
 831+ 9B58 2A A1 B0             LD HL,(LOBU+161)
 832+ 9B5B B7                   OR A
 832+ 9B5C ED 42         SBC HL,BC
 832+ 9B5E 38 0B         JR C,PF
 833+ 9B60
 834+ 9B60 CD 92 70     Pf      CALL NYAU
 834+ 9B63 FE 03         CP 3
 834+ 9B65 CC 79 8D      CALL Z,SEXY
 835+ 9B68
 836+ 9B68 FB                   EI
 836+ 9B69 76            HALT
 837+ 9B6A C9                   RET
 838+ 9B6B              ;-------
 839+ 9B6B 3E 01        PF      LD A,1
 840+ 9B6D C9                   RET
 841+ 9B6E              ;-------
 842+ 9B6E 3E 60        RATM    LD A,PLHPG
 842+ 9B70 CD B6 68      CALL MNGC
 843+ 9B73
 844+ 9B73 21 C5 C0 ED          LD HL,#C000+197,DE,(PHED),BC,512
 844+ 9B77 5B 7C 7F 01
 844+ 9B7B 00 02
 845+ 9B7D
 846+ 9B7D B7           RAT     OR A
 846+ 9B7E ED 52         SBC HL,DE
 846+ 9B80 30 16         JR NC,CAF
 847+ 9B82 19                   ADD HL,DE
 848+ 9B83 7E                   LD A,(HL)
 848+ 9B84 09            ADD HL,BC
 849+ 9B85 FE 02                CP 2
 849+ 9B87 20 F4         JR NZ,RAT
 850+ 9B89 01 3B FD             LD BC,0-(512+197)
 850+ 9B8C 09            ADD HL,BC
 851+ 9B8D 11 00 B0 01          LD DE,LOBU,BC,256
 851+ 9B91 00 01
 851+ 9B93 ED B0         LDIR
 852+ 9B95 CD B8 70             CALL AJT
 853+ 9B98 21 00 00     CAF     LD HL,0
 854+ 9B9B 18 13                JR MAF
 855+ 9B9D              ;-------
 856+ 9B9D CD 38 71     TMAFK   CALL TAB4E
 856+ 9BA0 20 F6         JR NZ,CAF
 857+ 9BA2 2A C0 7F             LD HL,(TABTM)
 857+ 9BA5 23            INC HL
 858+ 9BA6 ED 5B C2 7F          LD DE,(AFTM)
 859+ 9BAA B7                   OR A
 859+ 9BAB ED 52         SBC HL,DE
 859+ 9BAD 30 BF         JR NC,RATM
 860+ 9BAF 19                   ADD HL,DE
 861+ 9BB0 22 C0 7F     MAF     LD (TABTM),HL
 862+ 9BB3 C9                   RET
 863+ 9BB4              ;---------------------------------------
 864+ 9BB4
# file closed: WCVW.ASM
1649  9BB4                      INCLUDE "WCINI.ASM"
# file opened: WCINI.ASM
   1+ 9BB4              C000    EQU #C000
   2+ 9BB4
   3+ 9BB4              SP1     EQU 1
   4+ 9BB4              SP2     EQU 2
   5+ 9BB4              SP4     EQU 3
   6+ 9BB4              SP3     EQU 4
   7+ 9BB4              SP5     EQU 5
   8+ 9BB4              SP6     EQU 6
   9+ 9BB4              SL1     EQU 7;line
  10+ 9BB4              SPL1    EQU 8
  11+ 9BB4              SPL2    EQU 9
  12+ 9BB4              SPL3    EQU 10
  13+ 9BB4              SL2     EQU 11;line
  14+ 9BB4              SPR1    EQU 12
  15+ 9BB4              SPR2    EQU 13
  16+ 9BB4              SPR3    EQU 14
  17+ 9BB4              SPE     EQU SPR3;Last Param line
  18+ 9BB4
  19+ 9BB4              WNY     EQU 6
  20+ 9BB4              WNH     EQU SPE+2
  21+ 9BB4              CMX     EQU WNH+1
  22+ 9BB4
  23+ 9BB4              LN1     EQU SPE+1-SL1
  24+ 9BB4              LN2     EQU SPE+1-SL2
  25+ 9BB4              ;---------------------------------------
  26+ 9BB4 DD E5        F9STP   PUSH IX
  27+ 9BB6 CD 7C 9E             CALL CURVA
  28+ 9BB9
  29+ 9BB9 DD 21 78 A7          LD IX,F9WND
  29+ 9BBD CD 92 79      CALL PRWOW
  30+ 9BC0 DD E5                PUSH IX
  30+ 9BC2 DD 21 8E A7   LD IX,F9WN2
  30+ 9BC6 CD 92 79      CALL PRWOW
  31+ 9BC9 DD E1                POP IX
  32+ 9BCB 21 A2 A8 11          LD HL,STPL,DE,SL1*256
  32+ 9BCF 00 07
  32+ 9BD1 CD E5 7D      CALL TXTPR
  33+ 9BD4 21 AF A8 11          LD HL,STPR,DE,SL2*256
  33+ 9BD8 00 0B
  33+ 9BDA CD E5 7D      CALL TXTPR
  34+ 9BDD
  35+ 9BDD FB           STPM    EI
  35+ 9BDE 76            HALT
  36+ 9BDF 11 43 A9 3E          LD DE,SBL1,A,SP1-1
  36+ 9BE3 00
  36+ 9BE4 CD 1F 9E      CALL PRCONF
  37+ 9BE7 11 B6 A9 3E          LD DE,SBL2,A,SPL1-1
  37+ 9BEB 07
  37+ 9BEC CD 1F 9E      CALL PRCONF
  38+ 9BEF 11 E4 A9 3E          LD DE,SBL3,A,SPR1-1
  38+ 9BF3 0B
  38+ 9BF4 CD 1F 9E      CALL PRCONF
  39+ 9BF7 CD 3B 7D             CALL CURSOR
  40+ 9BFA
  41+ 9BFA CD 90 74             CALL ESC
  41+ 9BFD 20 14         JR NZ,STPE
  42+ 9BFF CD 49 74 C4          CALL UPPP,NZ,SCU
  42+ 9C03 24 9C
  43+ 9C05 CD 4F 74 C4          CALL DWWW,NZ,SCD
  43+ 9C09 44 9C
  44+ 9C0B CD 6D 74 C4          CALL ENKE,NZ,SEN
  44+ 9C0F 74 9C
  44+ 9C11 28 CA         JR Z,STPM
  45+ 9C13
  46+ 9C13 DD 21 8E A7  STPE    LD IX,F9WN2
  46+ 9C17 CD 34 7B      CALL RRESB
  47+ 9C1A DD 21 78 A7          LD IX,F9WND
  47+ 9C1E CD 34 7B      CALL RRESB
  48+ 9C21 DD E1                POP IX
  49+ 9C23 C9                   RET
  50+ 9C24              ;-------
  51+ 9C24 CD 57 7D     SCU     CALL CURSER
  52+ 9C27 DD 7E 0C             LD A,(IX+12)
  53+ 9C2A FE 08                CP SL1+1
  53+ 9C2C 28 11         JR Z,ScU
  54+ 9C2E FE 0C                CP SL2+1
  54+ 9C30 28 0D         JR Z,ScU
  55+ 9C32 FE 11                CP CMX
  55+ 9C34 28 06         JR Z,Sc2
  56+ 9C36 CD 3B 7D     Scu     CALL CURSOR
  57+ 9C39 C3 8E 62             JP CrUP
  58+ 9C3C DD 35 0C     Sc2     DEC (IX+12)
  59+ 9C3F DD 35 0C     ScU     DEC (IX+12)
  59+ 9C42 18 F2         JR Scu
  60+ 9C44
  61+ 9C44 CD 57 7D     SCD     CALL CURSER
  62+ 9C47 DD 7E 0C             LD A,(IX+12)
  63+ 9C4A FE 06                CP SL1-1
  63+ 9C4C 28 11         JR Z,ScD
  64+ 9C4E FE 0A                CP SL2-1
  64+ 9C50 28 0D         JR Z,ScD
  65+ 9C52 FE 0E                CP SPE
  65+ 9C54 28 06         JR Z,Sc3
  66+ 9C56 CD 3B 7D     Scd     CALL CURSOR
  67+ 9C59 C3 85 62             JP CrDN
  68+ 9C5C DD 34 0C     Sc3     INC (IX+12)
  69+ 9C5F DD 34 0C     ScD     INC (IX+12)
  69+ 9C62 18 F2         JR Scd
  70+ 9C64
  71+ 9C64 44 4D        SENE    LD BC,HL
  72+ 9C66 7E                   LD A,(HL)
  72+ 9C67 23            INC HL
  73+ 9C68 5E                   LD E,(HL)
  73+ 9C69 23            INC HL
  74+ 9C6A 56                   LD D,(HL)
  75+ 9C6B EB                   EX DE,HL
  76+ 9C6C 3C                   INC A
  76+ 9C6D BE            CP (HL)
  76+ 9C6E 38 01         JR C,$+3
  76+ 9C70 AF            XOR A
  77+ 9C71 02                   LD (BC),A
  78+ 9C72 AF                   XOR A
  79+ 9C73 C9                   RET
  80+ 9C74
  81+ 9C74 DD 7E 0C     SEN     LD A,(IX+12)
  82+ 9C77 21 43 A9             LD HL,SBL1
  82+ 9C7A FE 01         CP SP1
  82+ 9C7C 28 E6         JR Z,SENE
  83+ 9C7E 21 56 A9             LD HL,SBL1A
  83+ 9C81 FE 02         CP SP2
  83+ 9C83 28 DF         JR Z,SENE
  84+ 9C85 21 69 A9             LD HL,SBL1C
  84+ 9C88 FE 03         CP SP4
  84+ 9C8A 28 D8         JR Z,SENE
  85+ 9C8C 21 7C A9             LD HL,SBL1B
  85+ 9C8F FE 04         CP SP3
  85+ 9C91 28 D1         JR Z,SENE
  86+ 9C93 21 8F A9             LD HL,SBL1D
  86+ 9C96 FE 05         CP SP5
  86+ 9C98 28 CA         JR Z,SENE
  87+ 9C9A 21 A2 A9             LD HL,SBL1E
  87+ 9C9D FE 06         CP SP6
  87+ 9C9F 28 C3         JR Z,SENE
  88+ 9CA1 21 B6 A9             LD HL,SBL2
  88+ 9CA4 FE 08         CP SPL1
  88+ 9CA6 28 BC         JR Z,SENE
  89+ 9CA8 21 C5 A9             LD HL,SBL2A
  89+ 9CAB FE 09         CP SPL2
  89+ 9CAD 28 B5         JR Z,SENE
  90+ 9CAF 21 D4 A9             LD HL,SBL2B
  90+ 9CB2 FE 0A         CP SPL3
  90+ 9CB4 28 AE         JR Z,SENE
  91+ 9CB6 21 E4 A9             LD HL,SBL3
  91+ 9CB9 FE 0C         CP SPR1
  91+ 9CBB 28 A7         JR Z,SENE
  92+ 9CBD 21 F3 A9             LD HL,SBL3A
  92+ 9CC0 FE 0D         CP SPR2
  92+ 9CC2 28 A0         JR Z,SENE
  93+ 9CC4 21 02 AA             LD HL,SBL3B
  93+ 9CC7 FE 0E         CP SPR3
  93+ 9CC9 28 99         JR Z,SENE
  94+ 9CCB
  95+ 9CCB 3A 00 60 32          LD A,(PG0),(FEP),A
  95+ 9CCF 0B 60
  96+ 9CD1 CD 7B A2 CD          CALL LINI,GINI
  96+ 9CD5 53 9D
  97+ 9CD7 B7                   OR A
  97+ 9CD8 28 6F         JR Z,MINI
  98+ 9CDA 3D                   DEC A
  98+ 9CDB 28 09         JR Z,FTLER
  99+ 9CDD 3D                   DEC A
  99+ 9CDE 28 31         JR Z,FNI
 100+ 9CE0 3D                   DEC A
 100+ 9CE1 28 41         JR Z,JI
 101+ 9CE3 3D                   DEC A
 101+ 9CE4 28 63         JR Z,DICI
 102+ 9CE6 21 CF A8     FTLER   LD HL,SERR
 103+ 9CE9 11 13 01 01          LD DE,#0113,BC,26
 103+ 9CED 1A 00
 103+ 9CEF CD 1E 91      CALL ERR0
 104+ 9CF2 18 14                JR Sext
 105+ 9CF4 DD E5        SEXT    PUSH IX
 105+ 9CF6 DD 21 A0 A7   LD IX,F9OK
 105+ 9CFA CD 92 79      CALL PRWOW
 106+ 9CFD
 107+ 9CFD CD 41 74             CALL USPO
 108+ 9D00 CD 39 74             CALL NUSP
 109+ 9D03 CD 34 7B             CALL RRESB
 110+ 9D06 DD E1                POP IX
 111+ 9D08
 112+ 9D08 3A 0B 60     Sext    LD A,(FEP)
 112+ 9D0B CD 91 68      CALL MNG0
 113+ 9D0E
 114+ 9D0E AF                   XOR A
 114+ 9D0F 3C            INC A
 115+ 9D10 C9                   RET
 116+ 9D11 21 10 80     FNI     LD HL,WCDIR+1
 117+ 9D14 CD 70 6F             CALL MKdir
 117+ 9D17 20 DB         JR NZ,SEXT
 118+ 9D19 21 0F 80             LD HL,WCDIR
 119+ 9D1C CD 21 6F             CALL FENTRY
 119+ 9D1F 28 D3         JR Z,SEXT
 120+ 9D21 CD 4D 6F             CALL GDIR
 121+ 9D24
 122+ 9D24 21 00 10 11  JI      LD HL,INIB,DE,LOBU,BC,#1000
 122+ 9D28 00 B0 01 00
 122+ 9D2C 10
 122+ 9D2D ED B0         LDIR
 123+ 9D2F
 124+ 9D2F 21 EE A7             LD HL,SFINI
 125+ 9D32 CD 53 6F             CALL MKfile
 125+ 9D35 20 BD         JR NZ,SEXT
 126+ 9D37 21 00 B0             LD HL,LOBU
 127+ 9D3A 3A F0 A7             LD A,(SFIS+1)
 127+ 9D3D CB 3F         SRL A
 128+ 9D3F B7                   OR A
 128+ 9D40 20 01         JR NZ,$+3
 128+ 9D42 3C            INC A
 129+ 9D43 47                   LD B,A
 129+ 9D44 CD 18 40      CALL SAVE512
 130+ 9D47 18 AB                JR SEXT
 131+ 9D49              MINI
 132+ 9D49 21 13 80     DICI    LD HL,WCINI
 133+ 9D4C CD 76 6F             CALL FNDELFL
 133+ 9D4F 28 A3         JR Z,SEXT
 134+ 9D51 18 D1                JR JI
 135+ 9D53
 136+ 9D53 F5           GINI    PUSH AF
 137+ 9D54 F5                   PUSH AF
 138+ 9D55 1E 30                LD E,#30
 139+ 9D57 3A 43 A9             LD A,(SBL1)
 139+ 9D5A 83            ADD A,E
 139+ 9D5B 32 0B A8      LD (CPFRQ),A
 140+ 9D5E 3A 56 A9             LD A,(SBL1A)
 140+ 9D61 83            ADD A,E
 140+ 9D62 32 17 A8      LD (SPIR),A
 141+ 9D65 3A 69 A9             LD A,(SBL1C)
 141+ 9D68 83            ADD A,E
 141+ 9D69 32 26 A8      LD (CURP),A
 142+ 9D6C 3A 7C A9             LD A,(SBL1B)
 142+ 9D6F 83            ADD A,E
 142+ 9D70 32 31 A8      LD (TXTMD),A
 143+ 9D73 3A 8F A9             LD A,(SBL1D)
 143+ 9D76 83            ADD A,E
 143+ 9D77 32 3F A8      LD (AFKTIME),A
 144+ 9D7A 3A A2 A9             LD A,(SBL1E)
 144+ 9D7D 83            ADD A,E
 144+ 9D7E 32 46 A8      LD (LOGO),A
 145+ 9D81 3A B6 A9             LD A,(SBL2)
 145+ 9D84 83            ADD A,E
 145+ 9D85 32 56 A8      LD (SDRV1),A
 146+ 9D88 3A C5 A9             LD A,(SBL2A)
 146+ 9D8B 83            ADD A,E
 146+ 9D8C 32 5D A8      LD (SNFO1),A
 147+ 9D8F 3A D4 A9             LD A,(SBL2B)
 147+ 9D92 83            ADD A,E
 147+ 9D93 32 65 A8      LD (SSRT1),A
 148+ 9D96 3A E4 A9             LD A,(SBL3)
 148+ 9D99 83            ADD A,E
 148+ 9D9A 32 75 A8      LD (SDRV2),A
 149+ 9D9D 3A F3 A9             LD A,(SBL3A)
 149+ 9DA0 83            ADD A,E
 149+ 9DA1 32 7C A8      LD (SNFO2),A
 150+ 9DA4 3A 02 AA             LD A,(SBL3B)
 150+ 9DA7 83            ADD A,E
 150+ 9DA8 32 84 A8      LD (SSRT2),A
 151+ 9DAB
 152+ 9DAB F1                   POP AF
 152+ 9DAC B7            OR A
 153+ 9DAD
 154+ 9DAD 11 00 10             LD DE,INIB
 155+ 9DB0 D5                   PUSH DE
 156+ 9DB1 21 78 AB 01          LD HL,IDNT3,BC,19
 156+ 9DB5 13 00
 156+ 9DB7 ED B0         LDIR
 157+ 9DB9 3E 0D                LD A,13
 158+ 9DBB 12                   LD (DE),A
 158+ 9DBC 13            INC DE
 159+ 9DBD 12                   LD (DE),A
 159+ 9DBE 13            INC DE
 160+ 9DBF 21 FA A7 01          LD HL,SPTRN,BC,SPP1-SPTRN
 160+ 9DC3 4F 00
 160+ 9DC5 ED B0         LDIR
 161+ 9DC7 CC DC 9D             CALL Z,MII
 162+ 9DCA 21 49 A8 01          LD HL,SPTR2,BC,SPP2-SPTR2
 162+ 9DCE 3E 00
 162+ 9DD0 ED B0         LDIR
 163+ 9DD2 E1                   POP HL
 164+ 9DD3 EB                   EX DE,HL
 165+ 9DD4 B7                   OR A
 165+ 9DD5 ED 52         SBC HL,DE
 166+ 9DD7 22 EF A7             LD (SFIS),HL
 167+ 9DDA F1                   POP AF
 168+ 9DDB C9                   RET
 169+ 9DDC
 170+ 9DDC D5           MII     PUSH DE
 171+ 9DDD 11 00 00 21          LD DE,INIA,HL,SPP2
 171+ 9DE1 87 A8
 172+ 9DE3 CD 01 9E             CALL SRHSQ
 173+ 9DE6 D1                   POP DE
 173+ 9DE7 C8            RET Z
 174+ 9DE8
 175+ 9DE8 E5                   PUSH HL
 176+ 9DE9 21 87 A8 01          LD HL,SPP2,BC,9
 176+ 9DED 09 00
 176+ 9DEF ED B0         LDIR
 177+ 9DF1 E1                   POP HL
 178+ 9DF2
 179+ 9DF2 7A           MIIM    LD A,D
 179+ 9DF3 FE 20         CP #20
 179+ 9DF5 D0            RET NC
 180+ 9DF6 7E                   LD A,(HL)
 181+ 9DF7 B7                   OR A
 181+ 9DF8 C8            RET Z
 182+ 9DF9 FE 5B                CP "["
 182+ 9DFB C8            RET Z
 183+ 9DFC 12                   LD (DE),A
 183+ 9DFD 23 13         INC HL,DE
 184+ 9DFF 18 F1                JR MIIM
 185+ 9E01
 186+ 9E01 1A           SRHSQ   LD A,(DE)
 186+ 9E02 B7            OR A
 186+ 9E03 C8            RET Z
 187+ 9E04 BE                   CP (HL)
 187+ 9E05 13            INC DE
 187+ 9E06 20 F9         JR NZ,SRHSQ
 188+ 9E08 44 4D                LD BC,HL
 189+ 9E0A 23           SSQM    INC HL
 189+ 9E0B 7E            LD A,(HL)
 189+ 9E0C 3C            INC A
 189+ 9E0D 28 0B         JR Z,SSQ
 190+ 9E0F 1A                   LD A,(DE)
 190+ 9E10 B7            OR A
 190+ 9E11 C8            RET Z
 191+ 9E12 BE                   CP (HL)
 191+ 9E13 13            INC DE
 191+ 9E14 28 F4         JR Z,SSQM
 192+ 9E16 60 69                LD HL,BC
 193+ 9E18 18 E7                JR SRHSQ
 194+ 9E1A EB           SSQ     EX DE,HL
 195+ 9E1B 3E 01                LD A,1
 195+ 9E1D B7            OR A
 196+ 9E1E C9                   RET
 197+ 9E1F              ;-------
 198+ 9E1F 32 77 A7     PRCONF  LD (YYY),A
 199+ 9E22 CD 35 9E     PRCON   CALL GENBUF
 199+ 9E25 C8            RET Z
 200+ 9E26 D5                   PUSH DE
 200+ 9E27 57 1E 06      LD D,A,E,6
 200+ 9E2A CD 89 7D      CALL PRSRW
 201+ 9E2D 3E 5C                LD A,%01011100
 201+ 9E2F CD 9D 7D      CALL PRIAT
 202+ 9E32 D1                   POP DE
 203+ 9E33 18 ED                JR PRCON
 204+ 9E35
 205+ 9E35 1A           GENBUF  LD A,(DE)
 205+ 9E36 3C            INC A
 205+ 9E37 C8            RET Z
 205+ 9E38 3D            DEC A
 206+ 9E39
 207+ 9E39 EB                   EX DE,HL
 208+ 9E3A 23                   INC HL
 209+ 9E3B 5E                   LD E,(HL)
 209+ 9E3C 23            INC HL
 210+ 9E3D 56                   LD D,(HL)
 210+ 9E3E 23            INC HL
 211+ 9E3F F5 D5                PUSH AF,DE
 212+ 9E41 11 A0 5E             LD DE,TXTBU
 212+ 9E44 CD 74 9E      CALL LDIRT
 212+ 9E47 23            INC HL
 213+ 9E48 C1 F1                POP BC,AF
 214+ 9E4A
 215+ 9E4A E5                   PUSH HL
 215+ 9E4B 60 69         LD HL,BC
 216+ 9E4D 23                   INC HL
 216+ 9E4E 4E            LD C,(HL)
 216+ 9E4F 23            INC HL
 217+ 9E50 47                   LD B,A
 217+ 9E51 04            INC B
 218+ 9E52 AF                   XOR A
 218+ 9E53 91            SUB C
 218+ 9E54 81            ADD A,C
 218+ 9E55 10 FD         DJNZ $-1
 219+ 9E57 C5                   PUSH BC
 219+ 9E58 4F            LD C,A
 219+ 9E59 09            ADD HL,BC
 220+ 9E5A C1                   POP BC
 221+ 9E5B ED B0                LDIR
 222+ 9E5D 3E 20                LD A,32
 223+ 9E5F 06 06 12             LD B,6,(DE),A
 223+ 9E62 13            INC DE
 223+ 9E63 10 FC         DJNZ $-2
 224+ 9E65
 225+ 9E65 E1                   POP HL
 226+ 9E66 EB                   EX DE,HL
 227+ 9E67
 228+ 9E67 21 77 A7             LD HL,YYY
 228+ 9E6A 34            INC (HL)
 228+ 9E6B 7E            LD A,(HL)
 229+ 9E6C 21 A0 5E 01          LD HL,TXTBU,BC,24
 229+ 9E70 18 00
 230+ 9E72 B7                   OR A
 231+ 9E73 C9                   RET
 232+ 9E74 7E           LDIRT   LD A,(HL)
 232+ 9E75 B7            OR A
 232+ 9E76 C8            RET Z
 233+ 9E77 12                   LD (DE),A
 233+ 9E78 23 13         INC HL,DE
 234+ 9E7A 18 F8                JR LDIRT
 235+ 9E7C
 236+ 9E7C              ;---------------------------------------
 237+ 9E7C              ;update SETUP parameters
 238+ 9E7C 3A 84 7F     CURVA   LD A,(DFRQ)
 238+ 9E7F FE 03         CP 3
 238+ 9E81 38 02         JR C,$+4
 238+ 9E83 3E 02         LD A,2
 239+ 9E85 32 43 A9             LD (SBL1),A
 240+ 9E88
 241+ 9E88 3A 80 7F 01          LD A,(LFLT),BC,0
 241+ 9E8C 00 00
 242+ 9E8E CB 47                BIT 0,A
 242+ 9E90 28 01         JR Z,$+3
 242+ 9E92 0C            INC C
 243+ 9E93 CB 4F                BIT 1,A
 243+ 9E95 28 01         JR Z,$+3
 243+ 9E97 04            INC B
 244+ 9E98 79 32 56 A9          LD A,C,(SBL1A),A
 245+ 9E9C 78 32 69 A9          LD A,B,(SBL1C),A
 246+ 9EA0 3A 07 7F 32          LD A,(WINDOW+3),(SBL1E),A
 246+ 9EA4 A2 A9
 247+ 9EA6
 248+ 9EA6 3A 0E 60             LD A,(HEI)
 249+ 9EA9 FE 19                CP HEIMIN
 249+ 9EAB 06 00         LD B,0
 249+ 9EAD 28 08         JR Z,HEC
 250+ 9EAF FE 1E                CP HEIMID
 250+ 9EB1 06 01         LD B,1
 250+ 9EB3 28 02         JR Z,HEC
 251+ 9EB5 06 02                LD B,2
 252+ 9EB7 78 32 7C A9  HEC     LD A,B,(SBL1B),A
 253+ 9EBB              ;-------
 254+ 9EBB 3A 21 7F 32          LD A,(WINDOW+29),(SBL2),A
 254+ 9EBF B6 A9
 255+ 9EC1 3A 0E 7F             LD A,(WINDOW+10)
 256+ 9EC4 B7                   OR A
 256+ 9EC5 28 02         JR Z,$+4
 256+ 9EC7 3E 01         LD A,1
 257+ 9EC9 32 C5 A9             LD (SBL2A),A
 258+ 9ECC 3A 27 7F 32          LD A,(WINDOW+35),(SBL2B),A
 258+ 9ED0 D4 A9
 259+ 9ED2              ;-------
 260+ 9ED2 3A 45 7F 32          LD A,(WINDO2+29),(SBL3),A
 260+ 9ED6 E4 A9
 261+ 9ED8 3A 32 7F             LD A,(WINDO2+10)
 262+ 9EDB B7                   OR A
 262+ 9EDC 28 02         JR Z,$+4
 262+ 9EDE 3E 01         LD A,1
 263+ 9EE0 32 F3 A9             LD (SBL3A),A
 264+ 9EE3 3A 4B 7F 32          LD A,(WINDO2+35),(SBL3B),A
 264+ 9EE7 02 AA
 265+ 9EE9 C9                   RET
 266+ 9EEA              ;---------------------------------------
 267+ 9EEA 3A 80 7F     PATH    LD A,(LFLT)
 267+ 9EED CB 47         BIT 0,A
 267+ 9EEF 20 15         JR NZ,LPATH
 268+ 9EF1
 269+ 9EF1 DD 21 04 7F          LD IX,WINDOW
 269+ 9EF5 CD 5D 68 CD   CALL DRACT,ORIGA
 269+ 9EF9 ED 63
 270+ 9EFB DD 21 28 7F          LD IX,WINDO2
 270+ 9EFF CD 5D 68 CD   CALL DRACT,ORIGA
 270+ 9F03 ED 63
 271+ 9F05 C9                   RET
 272+ 9F06
 273+ 9F06 DD 21 04 7F  LPATH   LD IX,WINDOW
 274+ 9F0A 21 00 D0             LD HL,RLPNL+C000
 274+ 9F0D CD 9A 9F      CALL SIMUL
 275+ 9F10
 276+ 9F10 DD 21 28 7F          LD IX,WINDO2
 277+ 9F14 21 00 E0             LD HL,RRPNL+C000
 277+ 9F17 CD 9A 9F      CALL SIMUL
 278+ 9F1A
 279+ 9F1A CD C7 68             CALL MNGP
 280+ 9F1D 3A FC DF             LD A,(RAPNL+#C000)
 281+ 9F20 FE 42                CP #42
 281+ 9F22 28 0B         JR Z,MEL
 282+ 9F24 FE 41                CP #41
 282+ 9F26 20 63         JR NZ,RRAP
 283+ 9F28 DD 21 04 7F          LD IX,WINDOW
 283+ 9F2C CD 5D 68      CALL DRACT
 284+ 9F2F
 285+ 9F2F 3A 80 7F     MEL     LD A,(LFLT)
 285+ 9F32 CB 4F         BIT 1,A
 285+ 9F34 C8            RET Z
 286+ 9F35 CD 7D 9F             CALL RAP
 287+ 9F38 7E                   LD A,(HL)
 287+ 9F39 3C            INC A
 287+ 9F3A 4F            LD C,A
 288+ 9F3B DD 7E 05             LD A,(IX+5)
 288+ 9F3E D6 02 DD 96   SUB 2,(IX+10)
 288+ 9F42 0A
 289+ 9F43 B9                   CP C
 289+ 9F44 DA B8 65      JP C,WLIT
 290+ 9F47 2B                   DEC HL
 290+ 9F48 5E            LD E,(HL)
 291+ 9F49 2B                   DEC HL
 291+ 9F4A 56            LD D,(HL)
 292+ 9F4B 26 00 69             LD H,0,L,C
 293+ 9F4E 19                   ADD HL,DE
 294+ 9F4F
 295+ 9F4F D5                   PUSH DE
 296+ 9F50 EB                   EX DE,HL
 297+ 9F51 DD 6E 12             LD L,(IX+18)
 298+ 9F54 DD 66 13             LD H,(IX+19)
 299+ 9F57 B7                   OR A
 299+ 9F58 ED 52         SBC HL,DE
 300+ 9F5A D1                   POP DE
 300+ 9F5B DA B8 65      JP C,WLIT
 301+ 9F5E
 302+ 9F5E DD 71 0C             LD (IX+12),C
 303+ 9F61 DD 73 10             LD (IX+16),E
 304+ 9F64 DD 72 11             LD (IX+17),D
 305+ 9F67 C3 B8 65             JP WLIT
 306+ 9F6A
 307+ 9F6A CD 7D 9F     ARAP    CALL RAP
 308+ 9F6D DD 7E 0C             LD A,(IX+12)
 308+ 9F70 3D            DEC A
 308+ 9F71 77            LD (HL),A
 309+ 9F72 2B                   DEC HL
 309+ 9F73 DD 7E 10 77   LD A,(IX+16),(HL),A
 310+ 9F77 2B                   DEC HL
 310+ 9F78 DD 7E 11 77   LD A,(IX+17),(HL),A
 311+ 9F7C C9                   RET
 312+ 9F7D CD C7 68     RAP     CALL MNGP
 313+ 9F80 DD 6E 1E             LD L,(IX+30)
 314+ 9F83 DD 7E 1F             LD A,(IX+31)
 314+ 9F86 C6 C0         ADD A,#C0
 314+ 9F88 67            LD H,A
 315+ 9F89 2B                   DEC HL
 316+ 9F8A C9                   RET
 317+ 9F8B
 318+ 9F8B CD 7D 9F     RRAP    CALL RAP
 319+ 9F8E AF                   XOR A
 320+ 9F8F 77                   LD (HL),A
 320+ 9F90 2B            DEC HL
 321+ 9F91 77                   LD (HL),A
 321+ 9F92 2B            DEC HL
 322+ 9F93 77                   LD (HL),A
 323+ 9F94 3E 42                LD A,#42
 324+ 9F96 32 FC DF             LD (RAPNL+#C000),A
 325+ 9F99 C9                   RET
 326+ 9F9A              ;-------
 327+ 9F9A CD C7 68     SIMUL   CALL MNGP
 328+ 9F9D 4E                   LD C,(HL)
 328+ 9F9E 23            INC HL
 329+ 9F9F 7E                   LD A,(HL)
 329+ 9FA0 23            INC HL
 329+ 9FA1 FE 3A         CP ":"
 329+ 9FA3 C2 39 A0      JP NZ,FI
 330+ 9FA6 7E                   LD A,(HL)
 330+ 9FA7 23            INC HL
 330+ 9FA8 FE 5C         CP "\\"
 330+ 9FAA C2 39 A0      JP NZ,FI
 331+ 9FAD 79                   LD A,C
 331+ 9FAE D6 30         SUB #30
 331+ 9FB0 FE 07         CP DRVRS
 331+ 9FB2 D2 39 A0      JP NC,FI
 332+ 9FB5 DD 77 1D DD          LD (IX+29),A,(IX+28),0
 332+ 9FB9 36 1C 00
 333+ 9FBC
 334+ 9FBC DD 36 22 01          LD (IX+34),1
 335+ 9FC0 F5                   PUSH AF
 336+ 9FC1 E5                   PUSH HL
 336+ 9FC2 CD 5D 68 CD   CALL DRACT,ORIGA2,PANELI
 336+ 9FC6 CD 63 CD EB
 336+ 9FCA 62
 337+ 9FCB E1                   POP HL
 338+ 9FCC F1                   POP AF
 339+ 9FCD DD 36 22 00          LD (IX+34),0
 340+ 9FD1 DD BE 1D             CP (IX+29)
 340+ 9FD4 20 5F         JR NZ,FAIL
 341+ 9FD6
 342+ 9FD6 CD C7 68     SIMZ    CALL MNGP
 343+ 9FD9
 344+ 9FD9 7E                   LD A,(HL)
 344+ 9FDA FE FF         CP #FF
 344+ 9FDC 28 4A         JR Z,EXCE
 345+ 9FDE 06 7F 11 A1          LD B,127,DE,TXTBU+1
 345+ 9FE2 5E
 346+ 9FE3 7E           SIMC    LD A,(HL)
 346+ 9FE4 23            INC HL
 347+ 9FE5 FE 5C                CP "\\"
 347+ 9FE7 28 06         JR Z,SIME
 348+ 9FE9 12                   LD (DE),A
 348+ 9FEA 13            INC DE
 349+ 9FEB 10 F6                DJNZ SIMC
 349+ 9FED 18 46         JR FAIL
 350+ 9FEF
 351+ 9FEF AF           SIME    XOR A
 351+ 9FF0 12            LD (DE),A
 352+ 9FF1 E5                   PUSH HL
 353+ 9FF2 21 A0 5E 36          LD HL,TXTBU,(HL),#10
 353+ 9FF6 10
 354+ 9FF7 CD 4E 40             CALL SRHDRN
 355+ 9FFA 22 8C 7F ED          LD (BRRR),HL,(BRRR+2),DE
 355+ 9FFE 53 8E 7F
 356+ A001 E1                   POP HL
 356+ A002 28 31         JR Z,FAIL
 357+ A004
 358+ A004 E5                   PUSH HL
 358+ A005 21 8C 7F      LD HL,BRRR
 358+ A008 CD 1E 40      CALL GLSTCAT
 359+ A00B E1                   POP HL
 360+ A00C
 361+ A00C E5                   PUSH HL
 362+ A00D DD 7E 16             LD A,(IX+22)
 362+ A010 CD B6 68      CALL MNGC
 363+ A013 DD 6E 17             LD L,(IX+23)
 364+ A016 DD 66 18             LD H,(IX+24)
 365+ A019 11 00 C0 01          LD DE,CURO,BC,0,A,1
 365+ A01D 00 00 3E 01
 365+ A021 CD 72 63      CALL Lup
 366+ A024 E1                   POP HL
 367+ A025 C3 D6 9F             JP SIMZ
 368+ A028
 369+ A028 11 00 40     EXCE    LD DE,0-C000
 369+ A02B 19            ADD HL,DE
 370+ A02C DD 75 20             LD (IX+32),L
 371+ A02F DD 74 21             LD (IX+33),H
 372+ A032 C3 F0 63             JP FOLD
 373+ A035 DD 36 1C 00  FAIL    LD (IX+28),0
 374+ A039 CD 8B 9F     FI      CALL RRAP
 375+ A03C CD 5D 68 CD          CALL DRACT,ORIGA
 375+ A040 ED 63
 376+ A042 C9                   RET
 377+ A043              ;-------
 378+ A043 3E F7        MPATH   LD A,RPPG
 378+ A045 CD 91 68      CALL MNG0
 379+ A048 DD 6E 1E             LD L,(IX+30)
 380+ A04B DD 66 1F             LD H,(IX+31)
 380+ A04E 2B            DEC HL
 381+ A04F AF                   XOR A
 382+ A050 77                   LD (HL),A
 382+ A051 2B            DEC HL
 383+ A052 77                   LD (HL),A
 383+ A053 2B            DEC HL
 384+ A054 77                   LD (HL),A
 385+ A055
 386+ A055 EB                   EX DE,HL
 387+ A056 DD 5E 20             LD E,(IX+32)
 388+ A059 DD 56 21             LD D,(IX+33)
 389+ A05C 3E 2E                LD A,"."
 389+ A05E BE            CP (HL)
 389+ A05F 28 1B         JR Z,SPATH
 390+ A061 06 FF        APATH   LD B,255
 391+ A063 7E           ApA     LD A,(HL)
 391+ A064 23            INC HL
 392+ A065 B7                   OR A
 392+ A066 28 04         JR Z,EDPA
 393+ A068 12                   LD (DE),A
 393+ A069 13            INC DE
 394+ A06A 10 F7                DJNZ ApA
 395+ A06C 3E 5C 12     EDPA    LD A,"\\",(DE),A
 395+ A06F 13            INC DE
 396+ A070
 397+ A070 3E FF 12     EPATH   LD A,#FF,(DE),A
 398+ A073 DD 73 20             LD (IX+32),E
 399+ A076 DD 72 21             LD (IX+33),D
 400+ A079 C3 72 68     ZIP     JP FRST
 401+ A07C 23           SPATH   INC HL
 401+ A07D BE            CP (HL)
 401+ A07E 20 18         JR NZ,LNPT
 402+ A080 23                   INC HL
 402+ A081 7E            LD A,(HL)
 403+ A082 2B                   DEC HL
 403+ A083 B7            OR A
 403+ A084 20 12         JR NZ,LNPT
 404+ A086 06 FF                LD B,255
 405+ A088 1B                   DEC DE
 406+ A089 1B           SiP     DEC DE
 406+ A08A 1A            LD A,(DE)
 407+ A08B FE 5C                CP "\\"
 407+ A08D 28 06         JR Z,SIP
 408+ A08F FE 3A                CP ":"
 408+ A091 28 E6         JR Z,ZIP
 409+ A093 10 F4                DJNZ SiP
 410+ A095 13           SIP     INC DE
 411+ A096 18 D8                JR EPATH
 412+ A098 2B           LNPT    DEC HL
 413+ A099 C3 61 A0             JP APATH
 414+ A09C              ;-------
 415+ A09C DD 7E 22     RPATH   LD A,(IX+34)
 415+ A09F B7            OR A
 415+ A0A0 C0            RET NZ
 416+ A0A1 3E F7                LD A,RPPG
 416+ A0A3 CD 91 68      CALL MNG0
 417+ A0A6
 418+ A0A6 DD 6E 1E             LD L,(IX+30)
 419+ A0A9 DD 66 1F             LD H,(IX+31)
 420+ A0AC DD 7E 1D             LD A,(IX+29)
 421+ A0AF C6 30                ADD A,#30
 422+ A0B1 77                   LD (HL),A
 422+ A0B2 23            INC HL
 423+ A0B3 36 3A                LD (HL),":"
 423+ A0B5 23            INC HL
 424+ A0B6 36 5C                LD (HL),"\\"
 424+ A0B8 23            INC HL
 425+ A0B9 36 FF                LD (HL),#FF
 426+ A0BB DD 75 20             LD (IX+32),L
 427+ A0BE DD 74 21             LD (IX+33),H
 428+ A0C1 C3 72 68             JP FRST
 429+ A0C4              ;-------
 430+ A0C4 3E F7        PPATH   LD A,RPPG
 430+ A0C6 CD 91 68      CALL MNG0
 431+ A0C9
 432+ A0C9 DD 6E 1E             LD L,(IX+30)
 433+ A0CC DD 66 1F             LD H,(IX+31)
 434+ A0CF
 435+ A0CF 54 5D                LD DE,HL
 436+ A0D1 06 28                LD B,PPATHLN
 437+ A0D3              PPATH1  EQU $-1
 438+ A0D3 1A           AG      LD A,(DE)
 438+ A0D4 13            INC DE
 438+ A0D5 FE FF         CP #FF
 438+ A0D7 28 02         JR Z,$+4
 439+ A0D9 10 F8                DJNZ AG
 440+ A0DB 3E 28                LD A,PPATHLN
 441+ A0DD              PPATH2  EQU $-1
 442+ A0DD 90                   SUB B
 443+ A0DE 4F                   LD C,A
 444+ A0DF C5                   PUSH BC
 445+ A0E0 06 00 4F             LD B,0,C,A
 446+ A0E3 11 00 00             LD DE,#0000
 446+ A0E6 CD 89 7D      CALL PRSRW
 447+ A0E9 C1                   POP BC
 448+ A0EA 59                   LD E,C
 449+ A0EB 21 A0 5E             LD HL,TXTBU
 450+ A0EE 48                   LD C,B
 451+ A0EF 78                   LD A,B
 451+ A0F0 B7            OR A
 451+ A0F1 28 10         JR Z,PPO
 452+ A0F3 3E 20 77             LD A," ",(HL),A
 452+ A0F6 23            INC HL
 452+ A0F7 10 FC         DJNZ $-2
 453+ A0F9 06 00                LD B,0
 454+ A0FB 21 A0 5E 16          LD HL,TXTBU,D,0
 454+ A0FF 00
 454+ A100 CD 89 7D      CALL PRSRW
 455+ A103 C3 72 68     PPO     JP FRST
 456+ A106              ;---------------------------------------
 457+ A106              INIA    EQU #0000
 458+ A106              INIB    EQU #1000
 459+ A106
 460+ A106 CD 76 A1     FINI    CALL VDAC
 461+ A109 CD 7B A2             CALL LINI
 461+ A10C B7            OR A
 461+ A10D 20 13         JR NZ,IERR
 462+ A10F              ;-------
 463+ A10F 3E 01 32 10          LD A,1,(INIflg),A
 463+ A113 60
 464+ A114 CD 1B A3             CALL PARSING
 465+ A117              ;LD A,(INIflg):OR A:CALL NZ,GEDZ
 466+ A117              ;-------
 467+ A117 21 CF 7F 06          LD HL,ENTRY,B,32
 467+ A11B 20
 467+ A11C CD 8E 69      CALL NOPING
 468+ A11F C3 41 74             JP USPO;F7F
 469+ A122
 470+ A122 F5           IERR    PUSH AF
 470+ A123 CD 94 69      CALL GEDPL
 471+ A126 F1                   POP AF
 472+ A127 21 CF A8 01          LD HL,IFM1,BC,26
 472+ A12B 1A 00
 472+ A12D 3D            DEC A
 472+ A12E 28 1B         JR Z,IERP
 473+ A130 21 F8 A8 01          LD HL,IFM2,BC,20
 473+ A134 14 00
 473+ A136 3D            DEC A
 473+ A137 28 12         JR Z,IERP
 474+ A139 21 0C A9 01          LD HL,IFM3,BC,17
 474+ A13D 11 00
 474+ A13F 3D            DEC A
 474+ A140 28 09         JR Z,IERP
 475+ A142 21 1D A9 01          LD HL,IFM4,BC,19
 475+ A146 13 00
 475+ A148 3D            DEC A
 475+ A149 28 00         JR Z,IERP
 476+ A14B E5 C5        IERP    PUSH HL,BC
 477+ A14D DD 21 D6 A7          LD IX,IMWND
 477+ A151 CD 92 79      CALL PRWOW
 478+ A154 21 E9 A8 11          LD HL,IFM,DE,#000E
 478+ A158 0E 00
 479+ A15A 01 0F 00             LD BC,15
 479+ A15D CD 89 7D      CALL PRSRW
 480+ A160 3E F1                LD A,%11110001
 480+ A162 CD 9D 7D      CALL PRIAT
 481+ A165 C1 E1                POP BC,HL
 482+ A167 11 0C 01             LD DE,#010C
 482+ A16A CD 89 7D      CALL PRSRW
 483+ A16D              ;LD B,16:EI:HALT:DJNZ $-2
 484+ A16D CD 41 74             CALL USPO
 485+ A170 CD 39 74             CALL NUSP;F7F
 486+ A173 C3 34 7B             JP RRESB
 487+ A176
 488+ A176 01 AF 00     VDAC    LD BC,Vmod
 488+ A179 ED 78         IN A,(C)
 488+ A17B E6 07         AND %00000111
 489+ A17D 32 0D 60             LD (CNFv),A
 490+ A180
 491+ A180 21 00 80             LD HL,RSQB
 492+ A183 22 11 60             LD (RSQBC),HL
 493+ A186              ;LD HL,0,(Yoff),HL
 494+ A186 21 1E 83 22          LD HL,%1000001100011110,(HEI),HL
 494+ A18A 0E 60
 495+ A18C
 496+ A18C 3E C3 32 06          LD A,#C3,(Fun),A
 496+ A190 60
 497+ A191 21 D2 6F 22          LD HL,FUN,(Fun+1),HL
 497+ A195 07 60
 498+ A197
 499+ A197 3E 05 32 01          LD A,5,(PG4),A
 499+ A19B 60
 500+ A19C 3E 02 32 02          LD A,2,(PG8),A
 500+ A1A0 60
 501+ A1A1
 502+ A1A1 AF                   XOR A
 502+ A1A2 CD B6 68      CALL MNGC
 503+ A1A5 21 00 00 22          LD HL,0,(#C000),HL
 503+ A1A9 00 C0
 504+ A1AB 01 AF 27             LD BC,STS
 504+ A1AE ED 70         INF
 504+ A1B0 FA AE A1      JP M,$-2
 505+ A1B3
 506+ A1B3 06 26 3E FF          LD B,high DMA_N,A,255
 506+ A1B7 ED 79         OUT (C),A
 507+ A1B9 06 28 3E 11          LD B,high DMA_T,A,18-1
 507+ A1BD ED 79         OUT (C),A
 508+ A1BF AF                   XOR A
 509+ A1C0 06 1A                LD B,high DMASL
 509+ A1C2 ED 79         OUT (C),A
 510+ A1C4 04                   INC B
 510+ A1C5 ED 79         OUT (C),A
 511+ A1C7 04                   INC B
 511+ A1C8 ED 79         OUT (C),A
 512+ A1CA 06 1F                LD B,high DMADX
 512+ A1CC ED 79         OUT (C),A
 513+ A1CE 05                   DEC B
 513+ A1CF ED 79         OUT (C),A
 513+ A1D1 3C 3C         INC A,A
 514+ A1D3 05                   DEC B
 514+ A1D4 ED 79         OUT (C),A
 515+ A1D6 06 27 3E 04          LD B,high DMA_C,A,%00000100
 515+ A1DA ED 79         OUT (C),A
 516+ A1DC              ;-------
 517+ A1DC CD A5 98             CALL PLGCL
 518+ A1DF
 519+ A1DF 3E 01                LD A,MTXPG+1
 519+ A1E1 CD B6 68      CALL MNGC
 520+ A1E4 21 D7 AB             LD HL,FONT
 521+ A1E7 11 00 C0             LD DE,#C000
 522+ A1EA 01 00 08             LD BC,#0800
 523+ A1ED ED B0                LDIR
 524+ A1EF              ;LD DE,GIG_PAL
 525+ A1EF              ;LD BC,512
 526+ A1EF              ;LDIR
 527+ A1EF 11 E9 FE             LD DE,DEHR1
 528+ A1F2 01 17 01             LD BC,DEHR1L
 529+ A1F5 ED B0                LDIR
 530+ A1F7 11 00 FE             LD DE,MLZ4
 531+ A1FA 01 E9 00             LD BC,MLZ4L
 532+ A1FD ED B0                LDIR
 533+ A1FF
 534+ A1FF 3E 09                LD A,TVvPG+1
 534+ A201 CD B6 68      CALL MNGC
 535+ A204 21 D7 AB             LD HL,FONT
 536+ A207 11 00 C0             LD DE,#C000
 537+ A20A 01 00 08             LD BC,#0800
 538+ A20D ED B0                LDIR
 539+ A20F              ;LD HL,NOre
 540+ A20F              ;LD DE,ENCODET
 541+ A20F              ;LD BC,ENCND-ENCOD
 542+ A20F              ;LDIR
 543+ A20F 3E F0                LD A,PNLPG
 543+ A211 CD 91 68 CD   CALL MNG0,MNG0I
 543+ A215 89 68
 544+ A217 C9                   RET
 545+ A218
 546+ A218 DD 21 EB 84  GEDZ    LD IX,WND
 547+ A21C 3A 07 7F             LD A,(WINDOW+3)
 547+ A21F B7            OR A
 547+ A220 28 2F         JR Z,TXT2PR
 548+ A222 11 20 00 43          LD DE,32,B,E
 548+ A226 CD A9 7D      CALL GADRW
 549+ A229 AF                   XOR A
 549+ A22A CD 9D 7D      CALL PRIAT
 550+ A22D
 551+ A22D 21 F2 84 11          LD HL,TXT1,DE,0
 551+ A231 00 00
 551+ A233 CD E5 7D      CALL TXTPR
 552+ A236 21 C7 7F             LD HL,TTM
 553+ A239 11 48 00             LD DE,WID1-8
 554+ A23C 3A 0E 60             LD A,(HEI)
 554+ A23F FE 24         CP HEIMAX
 554+ A241 20 03         JR NZ,GMS
 555+ A243 11 52 00             LD DE,WID2-8
 556+ A246 01 08 00     GMS     LD BC,8
 556+ A249 CD 89 7D      CALL PRSRW
 557+ A24C 3E 1F                LD A,%00011111
 557+ A24E CD 9D 7D      CALL PRIAT
 558+ A251
 559+ A251 21 0A 85 3A  TXT2PR  LD HL,TXT2,A,(HEI)
 559+ A255 0E 60
 559+ A257 3D            DEC A
 560+ A258 57 1E 00             LD D,A,E,0
 560+ A25B C3 E5 7D      JP TXTPR
 561+ A25E
 562+ A25E DD E5        EDTPR   PUSH IX
 563+ A260 DD 21 EB 84          LD IX,WND
 564+ A264 F5                   PUSH AF
 565+ A265 11 1C 85             LD DE,F2TXT
 566+ A268 D6 11                SUB #11
 566+ A26A 28 06         JR Z,F2PR
 567+ A26C 3D                   DEC A
 567+ A26D 28 03         JR Z,F2PR
 568+ A26F 11 34 85             LD DE,F4TXT
 569+ A272 01 06 00     F2PR    LD BC,6
 569+ A275 ED B0         LDIR
 570+ A277 F1                   POP AF
 571+ A278 DD E1                POP IX
 572+ A27A C9                   RET
 573+ A27B
 574+ A27B 3E F2        LINI    LD A,INIPG
 574+ A27D CD 91 68      CALL MNG0
 575+ A280 CD 94 6A             CALL GBD
 576+ A283 CD 19 6E             CALL TSBC
 576+ A286 3E 01         LD A,1
 576+ A288 C0            RET NZ
 577+ A289              ;-------
 578+ A289 21 0F 80             LD HL,WCDIR
 578+ A28C CD 4E 40      CALL SRHDRN
 578+ A28F 3E 02         LD A,2
 578+ A291 C8            RET Z
 579+ A292 22 8C 7F ED          LD (BRRR),HL,(BRRR+2),DE
 579+ A296 53 8E 7F
 580+ A299 21 8C 7F             LD HL,BRRR
 580+ A29C CD 1E 40      CALL GLSTCAT
 581+ A29F
 582+ A29F 21 13 80             LD HL,WCINI
 582+ A2A2 CD 4E 40      CALL SRHDRN
 582+ A2A5 3E 03         LD A,3
 582+ A2A7 C8            RET Z
 583+ A2A8
 584+ A2A8 22 8C 7F ED          LD (BRRR),HL,(BRRR+2),DE
 584+ A2AC 53 8E 7F
 585+ A2AF 21 8C 7F             LD HL,BRRR
 585+ A2B2 CD 12 40      CALL GIPAG
 586+ A2B5              ;-------
 587+ A2B5 CD BD A2             CALL INILOAD
 587+ A2B8 3E 04         LD A,4
 587+ A2BA C0            RET NZ
 588+ A2BB AF                   XOR A
 589+ A2BC C9                   RET
 590+ A2BD              ;---------------------------------------
 591+ A2BD CD 10 A3     INILOAD CALL INXSe
 592+ A2C0
 593+ A2C0 11 78 AB 06          LD DE,IDNT3,B,19
 593+ A2C4 13
 594+ A2C5 CD 63 A7             CALL RAZ
 594+ A2C8 C0            RET NZ
 594+ A2C9 23            INC HL
 595+ A2CA
 596+ A2CA 11 00 00 01          LD DE,INIA,BC,0
 596+ A2CE 00 00
 597+ A2D0 7A           INIF    LD A,D
 597+ A2D1 FE 10         CP high INIB
 597+ A2D3 30 23         JR NC,INILE
 598+ A2D5 7C                   LD A,H
 598+ A2D6 E6 01         AND 1
 598+ A2D8 B5            OR L
 599+ A2D9 CC 01 A3             CALL Z,INXSE
 599+ A2DC 28 1A         JR Z,INILE
 600+ A2DE 7E                   LD A,(HL)
 601+ A2DF FE 0A                CP #0A
 601+ A2E1 38 15 28 10   JR C,INILE,Z,INiF
 602+ A2E5 FE 0D                CP #0D
 602+ A2E7 CC FE A2      CALL Z,SKIPE
 603+ A2EA FE 3B                CP ";"
 603+ A2EC CC FB A2      CALL Z,SKIPS
 604+ A2EF
 605+ A2EF 0C                   INC C
 605+ A2F0 0D            DEC C
 605+ A2F1 20 02         JR NZ,INiF
 606+ A2F3 12                   LD (DE),A
 607+ A2F4 13                   INC DE
 608+ A2F5 23           INiF    INC HL
 609+ A2F6 18 D8                JR INIF
 610+ A2F8
 611+ A2F8 AF           INILE   XOR A
 611+ A2F9 12            LD (DE),A
 611+ A2FA C9            RET
 612+ A2FB              ;-------
 613+ A2FB 0E 01        SKIPS   LD C,1
 613+ A2FD C9            RET
 614+ A2FE 0E 00        SKIPE   LD C,0
 614+ A300 C9            RET
 615+ A301              ;-------
 616+ A301 78           INXSE   LD A,B
 616+ A302 FE 0F         CP #0F
 616+ A304 C8            RET Z
 617+ A305 C5 D5                PUSH BC,DE
 617+ A307 CD 10 A3      CALL INXSe
 618+ A30A D1 C1                POP DE,BC
 618+ A30C 47            LD B,A
 619+ A30D AF                   XOR A
 619+ A30E 3C            INC A
 620+ A30F C9                   RET
 621+ A310
 622+ A310 21 00 10 06  INXSe   LD HL,INIB,B,1
 622+ A314 01
 623+ A315 E5                   PUSH HL
 623+ A316 CD 15 40      CALL LOAD512
 624+ A319 E1                   POP HL
 625+ A31A C9                   RET
 626+ A31B              ;---------------------------------------
 627+ A31B 21 00 00     PARSING LD HL,INIA
 628+ A31E 7E           PARS    LD A,(HL)
 629+ A31F FE 5B                CP "["
 629+ A321 CC 32 A3      CALL Z,SUEXE
 629+ A324 28 F8         JR Z,PARS
 630+ A326 CD 3D 93             CALL SER13D
 631+ A329 7E                   LD A,(HL)
 632+ A32A B7                   OR A
 632+ A32B C8            RET Z
 633+ A32C 7C                   LD A,H
 633+ A32D FE 10         CP high INIB
 633+ A32F D0            RET NC
 634+ A330 18 EC                JR PARS
 635+ A332
 636+ A332 11 DA AA     SUEXE   LD DE,STARTU
 636+ A335 23            INC HL
 637+ A336 1A           SUfnd   LD A,(DE)
 637+ A337 3C            INC A
 637+ A338 C8            RET Z
 638+ A339 CD 40 A3             CALL SUU
 638+ A33C 28 15         JR Z,SUexe
 639+ A33E 18 F6                JR SUfnd
 640+ A340
 641+ A340 E5           SUU     PUSH HL
 641+ A341 CD 6B A7      CALL RAZ0
 641+ A344 13            INC DE
 642+ A345 E1                   POP HL
 642+ A346 C8            RET Z
 643+ A347 AF                   XOR A
 644+ A348 EB                   EX DE,HL
 644+ A349 01 10 00      LD BC,16
 644+ A34C ED B1         CPIR
 644+ A34E 23 23         INC HL,HL
 645+ A350 EB                   EX DE,HL
 646+ A351 3C                   INC A
 647+ A352 C9                   RET
 648+ A353
 649+ A353 1A 32 5D A3  SUexe   LD A,(DE),(SUmod+1),A
 649+ A357 13            INC DE
 650+ A358 1A 32 5E A3          LD A,(DE),(SUmod+2),A
 651+ A35C CD 00 00     SUmod   CALL 0
 652+ A35F AF                   XOR A
 653+ A360 C9                   RET
 654+ A361              ;-------
 655+ A361 E5           SUPL    PUSH HL
 656+ A362 DD 21 E2 A7          LD IX,INIWND
 656+ A366 CD 92 79      CALL PRWOW
 657+ A369 CD 94 69             CALL GEDPL
 658+ A36C E1                   POP HL
 659+ A36D
 660+ A36D 11 00 00             LD DE,#0000
 661+ A370 01 30 A9             LD BC,TXTIL
 661+ A373 CD 1D A5      CALL PRMESS
 662+ A376 CD 3D 93 CD  RSI     CALL SER13D,ICE
 662+ A37A F8 A3
 662+ A37C C8            RET Z
 663+ A37D
 664+ A37D E5                   PUSH HL
 665+ A37E D5                   PUSH DE
 665+ A37F CD A4 A4      CALL SERNLOD
 666+ A382 D1                   POP DE
 667+ A383 C4 07 A5             CALL NZ,PLPRNAM
 668+ A386 E1                   POP HL
 669+ A387 18 ED                JR RSI
 670+ A389              ;-------
 671+ A389 3E 00        SUPAL   LD A,0
 671+ A38B 08            EXA
 671+ A38C 18 03         JR SUPA
 672+ A38E 3E 01        SUPAR   LD A,1
 672+ A390 08            EXA
 673+ A391
 674+ A391 CD 3D 93 CD  SUPA    CALL SER13D,ICE
 674+ A395 F8 A3
 674+ A397 C8            RET Z
 675+ A398
 676+ A398 11 FF AA             LD DE,PANN
 676+ A39B CD A0 A3      CALL SUpa
 677+ A39E 18 F1                JR SUPA
 678+ A3A0
 679+ A3A0 1A           SUpa    LD A,(DE)
 679+ A3A1 3C            INC A
 679+ A3A2 C8            RET Z
 680+ A3A3 CD 40 A3             CALL SUU
 680+ A3A6 28 AB         JR Z,SUexe
 681+ A3A8 18 F6                JR SUpa
 682+ A3AA
 683+ A3AA 7E           CPCL    LD A,(HL)
 683+ A3AB 23            INC HL
 684+ A3AC FE 20                CP " "
 684+ A3AE 28 0D         JR Z,CPC
 685+ A3B0 FE 3D                CP "="
 685+ A3B2 28 09         JR Z,CPC
 686+ A3B4 FE 0E                CP #0E
 686+ A3B6 30 F2         JR NC,CPCL
 687+ A3B8 2B                   DEC HL
 688+ A3B9 3E 31                LD A,"1"
 688+ A3BB 18 01         JR $+3
 689+ A3BD 7E           CPC     LD A,(HL)
 690+ A3BE
 691+ A3BE 21 04 7F             LD HL,WINDOW
 692+ A3C1 08                   EXA
 692+ A3C2 B7            OR A
 692+ A3C3 28 03         JR Z,$+5
 692+ A3C5 21 28 7F      LD HL,WINDO2
 693+ A3C8 08                   EXA
 694+ A3C9 D6 30                SUB #30
 695+ A3CB C9                   RET
 696+ A3CC              ;-------
 697+ A3CC E5           SUPAD   PUSH HL
 697+ A3CD CD AA A3      CALL CPCL
 698+ A3D0 11 1D 00             LD DE,29
 698+ A3D3 19            ADD HL,DE
 699+ A3D4 FE 07                CP DRVRS
 699+ A3D6 38 02         JR C,$+4
 699+ A3D8 3E 01         LD A,1
 700+ A3DA 77                   LD (HL),A
 701+ A3DB E1                   POP HL
 702+ A3DC C9                   RET
 703+ A3DD E5           SUPAI   PUSH HL
 703+ A3DE CD AA A3      CALL CPCL
 704+ A3E1 11 0A 00             LD DE,10
 704+ A3E4 19            ADD HL,DE
 705+ A3E5 E6 01                AND 1
 705+ A3E7 87            ADD A,A
 706+ A3E8 77                   LD (HL),A
 707+ A3E9 E1                   POP HL
 708+ A3EA C9                   RET
 709+ A3EB E5           SUPAS   PUSH HL
 709+ A3EC CD AA A3      CALL CPCL
 710+ A3EF 11 23 00             LD DE,35
 710+ A3F2 19            ADD HL,DE
 711+ A3F3 E6 03                AND 3
 712+ A3F5 77                   LD (HL),A
 713+ A3F6 E1                   POP HL
 714+ A3F7 C9                   RET
 715+ A3F8
 716+ A3F8 7E           ICE     LD A,(HL)
 717+ A3F9 B7                   OR A
 717+ A3FA C8            RET Z
 718+ A3FB FE 0D                CP #0D
 718+ A3FD C8            RET Z
 719+ A3FE FE 5B                CP "["
 720+ A400 C9                   RET
 721+ A401              ;-------
 722+ A401 CD 3D 93 CD  SUL     CALL SER13D,ICE
 722+ A405 F8 A3
 722+ A407 C8            RET Z
 723+ A408
 724+ A408 11 15 AB             LD DE,SETUP
 724+ A40B CD A0 A3      CALL SUpa
 725+ A40E 18 F1                JR SUL
 726+ A410 E5           SUL1    PUSH HL
 726+ A411 CD AA A3      CALL CPCL
 727+ A414 E6 03                AND %00000011
 728+ A416 32 84 7F             LD (DFRQ),A
 729+ A419 E1                   POP HL
 730+ A41A C9                   RET
 731+ A41B
 732+ A41B E5           SUL2    PUSH HL
 732+ A41C CD AA A3      CALL CPCL
 733+ A41F E6 01                AND %00000001
 734+ A421 21 80 7F             LD HL,LFLT
 734+ A424 B6            OR (HL)
 734+ A425 77            LD (HL),A
 735+ A426 E1                   POP HL
 736+ A427 C9                   RET
 737+ A428
 738+ A428 E5           SUL3    PUSH HL
 738+ A429 CD AA A3      CALL CPCL
 739+ A42C 21 83 1E             LD HL,%0001111010000011
 740+ A42F 20 03                JR NZ,$+5
 741+ A431 21 43 19             LD HL,%0001100101000011
 742+ A434 FE 02                CP 2
 742+ A436 20 03         JR NZ,$+5
 743+ A438 21 C3 24             LD HL,%0010010011000011
 744+ A43B
 745+ A43B 7C 32 0E 60          LD A,H,(HEI),A
 745+ A43F FE 24         CP HEIMAX
 746+ A441 7D 32 0F 60          LD A,L,(TXTmdCO),A
 746+ A445 20 1B         JR NZ,SUL3E
 747+ A447 3E 5A 32 81          LD A,WID2,(WID),A,(WND_W),A
 747+ A44B 7F 32 EF 84
 748+ A44F 3E 2D                LD A,WID2/2
 749+ A451 32 08 7F             LD (WINDOW+4),A
 750+ A454 32 2C 7F             LD (WINDO2+4),A
 751+ A457 32 2A 7F             LD (WINDO2+2),A
 752+ A45A 3E 2D                LD A,PPATHL2
 753+ A45C 32 D2 A0 32          LD (PPATH1),A,(PPATH2),A
 753+ A460 DC A0
 754+ A462
 755+ A462 E1           SUL3E   POP HL
 756+ A463 C9                   RET
 757+ A464
 758+ A464 E5           SUL4    PUSH HL
 758+ A465 CD AA A3      CALL CPCL
 759+ A468 E6 01                AND %00000001
 759+ A46A 87            ADD A,A
 760+ A46B 21 80 7F             LD HL,LFLT
 760+ A46E B6            OR (HL)
 760+ A46F 77            LD (HL),A
 761+ A470 E1                   POP HL
 762+ A471 C9                   RET
 763+ A472
 764+ A472 E5           SUL5    PUSH HL
 764+ A473 CD AA A3      CALL CPCL
 765+ A476 21 FF FF             LD HL,#FFFF
 766+ A479 E6 0F                AND 15
 766+ A47B 28 08         JR Z,SUL5E
 767+ A47D 47                   LD B,A
 767+ A47E 23            INC HL
 768+ A47F 11 7C 0B             LD DE,49*60
 769+ A482 19           NEADD   ADD HL,DE
 769+ A483 10 FD         DJNZ NEADD
 770+ A485 22 C2 7F     SUL5E   LD (AFTM),HL
 771+ A488 E1                   POP HL
 772+ A489 C9                   RET
 773+ A48A
 774+ A48A E5           SUL6    PUSH HL
 774+ A48B CD AA A3      CALL CPCL
 774+ A48E 28 12         JR Z,SUL6OFF
 775+ A490
 776+ A490 3E 01                LD A,1
 777+ A492 32 B1 7F             LD (INTTM),A
 778+ A495 32 70 6A             LD (INTTMPL),A
 779+ A498 32 07 7F             LD (WINDOW+3),A
 780+ A49B 32 2B 7F             LD (WINDO2+3),A
 781+ A49E 3C                   INC A
 781+ A49F 32 D1 63      LD (ORI),A
 782+ A4A2 E1           SUL6OFF POP HL
 783+ A4A3 C9                   RET
 784+ A4A4              ;-------
 785+ A4A4 CD C1 A4 CD  SERNLOD CALL GENNAM,SRHDRN
 785+ A4A8 4E 40
 785+ A4AA C8            RET Z
 786+ A4AB 22 8C 7F ED          LD (BRRR),HL,(BRRR+2),DE
 786+ A4AF 53 8E 7F
 787+ A4B2 21 8C 7F             LD HL,BRRR
 787+ A4B5 CD 12 40      CALL GIPAG
 788+ A4B8
 789+ A4B8 3E 01                LD A,1
 789+ A4BA CD 81 97      CALL LDPL2
 790+ A4BD 3E 01                LD A,1
 790+ A4BF B7            OR A
 791+ A4C0 C9                   RET
 792+ A4C1              ;-------
 793+ A4C1 11 01 B0     GENNAM  LD DE,LOBU+1
 794+ A4C4 06 FF                LD B,255
 795+ A4C6 7E           GENA    LD A,(HL)
 796+ A4C7 FE 3B                CP ";"
 796+ A4C9 28 1A         JR Z,GENEND
 797+ A4CB FE 20                CP " "
 797+ A4CD 38 16         JR C,GENEND
 798+ A4CF 20 0F                JR NZ,NOiniPM
 798+ A4D1 23            INC HL
 799+ A4D2 7E                   LD A,(HL)
 800+ A4D3 FE 2D                CP "-"
 800+ A4D5 20 07         JR NZ,NOiniPm
 800+ A4D7 23            INC HL
 801+ A4D8 7E                   LD A,(HL)
 802+ A4D9 FE 20                CP " "
 802+ A4DB 2B            DEC HL
 802+ A4DC 20 0E         JR NZ,INIprm
 803+ A4DE 2B           NOiniPm DEC HL
 803+ A4DF 7E            LD A,(HL)
 804+ A4E0 12           NOiniPM LD (DE),A
 804+ A4E1 23 13         INC HL,DE
 805+ A4E3 10 E1                DJNZ GENA
 806+ A4E5 AF           GENEND  XOR A
 806+ A4E6 12            LD (DE),A
 807+ A4E7 21 00 B0 77          LD HL,LOBU,(HL),A
 808+ A4EB C9                   RET
 809+ A4EC              ;-------
 810+ A4EC D5           INIprm  PUSH DE
 811+ A4ED 11 00 B2             LD DE,LOBULO
 812+ A4F0 06 FF                LD B,255
 813+ A4F2 7E           INIyoyo LD A,(HL)
 814+ A4F3 FE 20                CP #20
 814+ A4F5 38 0B 28 06   JR C,INIprND,Z,INIprNX
 815+ A4F9 FE 3B                CP ";"
 815+ A4FB 28 05         JR Z,INIprND
 816+ A4FD 12                   LD (DE),A
 816+ A4FE 13            INC DE
 817+ A4FF 23           INIprNX INC HL
 818+ A500 10 F0                DJNZ INIyoyo
 819+ A502 AF           INIprND XOR A
 819+ A503 12            LD (DE),A
 820+ A504 D1                   POP DE
 821+ A505 18 DE                JR GENEND
 822+ A507              ;-------
 823+ A507 D5           PLPRNAM PUSH DE
 824+ A508 DD 21 E2 A7          LD IX,INIWND
 825+ A50C 21 A5 B0 01          LD HL,LOBU+165,BC,32
 825+ A510 20 00
 825+ A512 CD 89 7D      CALL PRSRW
 826+ A515 3E 0F                LD A,%00001111
 826+ A517 CD 9D 7D      CALL PRIAT
 827+ A51A D1                   POP DE
 828+ A51B 14                   INC D
 829+ A51C C9                   RET
 830+ A51D              ;-------
 831+ A51D E5 D5        PRMESS  PUSH HL,DE
 832+ A51F DD 21 E2 A7          LD IX,INIWND
 833+ A523 60 69                LD HL,BC
 833+ A525 CD E5 7D      CALL TXTPR
 834+ A528 D1 E1                POP DE,HL
 835+ A52A 14                   INC D
 836+ A52B C9                   RET
 837+ A52C              ;---------------------------------------
 838+ A52C AF           SORT    XOR A
 838+ A52D 32 25 A7      LD (SWAP+1),A
 839+ A530 DD 7E 13             LD A,(IX+19)
 839+ A533 B7            OR A
 839+ A534 20 06         JR NZ,SORD
 840+ A536 DD 7E 12             LD A,(IX+18)
 840+ A539 FE 02         CP 2
 840+ A53B D8            RET C
 841+ A53C
 842+ A53C DD 7E 23     SORD    LD A,(IX+35)
 843+ A53F B7                   OR A
 843+ A540 C8            RET Z
 844+ A541 3D                   DEC A
 844+ A542 CA AB A6      JP Z,BYNM
 845+ A545 3D                   DEC A
 845+ A546 28 3C         JR Z,BYEX
 846+ A548 3D                   DEC A
 846+ A549 CA 2B A6      JP Z,BYSZ
 847+ A54C C9                   RET
 848+ A54D              ;-------
 849+ A54D CD CB 68     DDNET   CALL CAT3
 850+ A550 CD DB 68             CALL CAT1
 851+ A553
 852+ A553 11 00 00             LD DE,0
 853+ A556 1C                   INC E
 853+ A557 1A            LD A,(DE)
 853+ A558 6F            LD L,A
 854+ A559 1C                   INC E
 854+ A55A 1A            LD A,(DE)
 854+ A55B 67            LD H,A
 855+ A55C 1D          > DEC E
 855+ A55D 1D          > DEC E
 856+ A55E 01 11 00             LD BC,ELN
 856+ A561 09            ADD HL,BC
 857+ A562 3E 2E                LD A,"."
 858+ A564 BE                   CP (HL)
 858+ A565 C0            RET NZ
 858+ A566 23            INC HL
 859+ A567 BE                   CP (HL)
 859+ A568 C0            RET NZ
 860+ A569 1E 04                LD E,4
 861+ A56B C9                   RET
 862+ A56C              ;-------
 863+ A56C 1C           IINET   INC E
 863+ A56D 1A 4F         LD A,(DE),C,A
 864+ A56F 1C                   INC E
 864+ A570 1A 57 79      LD A,(DE),D,A,A,C
 865+ A573 C6 10                ADD A,FLG
 865+ A575 30 01         JR NC,$+3
 865+ A577 14            INC D
 865+ A578 5F            LD E,A
 866+ A579
 867+ A579 2C                   INC L
 867+ A57A 7E            LD A,(HL)
 868+ A57B 2C                   INC L
 868+ A57C 66            LD H,(HL)
 869+ A57D C6 10                ADD A,FLG
 869+ A57F 30 01         JR NC,$+3
 869+ A581 24            INC H
 869+ A582 6F            LD L,A
 870+ A583 C9                   RET
 871+ A584              ;-------
 872+ A584 CD 4D A5     BYEX    CALL DDNET
 873+ A587 ED 53 75 A7  CA9     LD (C_DE),DE
 874+ A58B EB                   EX DE,HL
 875+ A58C
 876+ A58C 22 C1 A6             LD (CYK+1),HL
 877+ A58F
 878+ A58F 01 05 00             LD BC,5
 878+ A592 09            ADD HL,BC
 879+ A593 7E                   LD A,(HL);          addr in pg
 880+ A594 2C                   INC L
 880+ A595 B6            OR (HL)
 880+ A596 C8            RET Z;valid #C000+
 881+ A597 2D          > DEC L
 881+ A598 2D          > DEC L
 882+ A599
 883+ A599 ED 5B C1 A6  CYK3    LD DE,(CYK+1)
 884+ A59D 22 02 A6             LD (C_HL3+1),HL
 885+ A5A0 2C                   INC L
 885+ A5A1 7E            LD A,(HL)
 886+ A5A2 2C                   INC L
 886+ A5A3 B6            OR (HL)
 887+ A5A4 2B          > DEC HL
 887+ A5A5 2B          > DEC HL
 888+ A5A6 CC 24 A7             CALL Z,SWAP
 888+ A5A9 28 DC         JR Z,CA9
 889+ A5AB
 890+ A5AB 1C                   INC E
 890+ A5AC 1A 4F         LD A,(DE),C,A
 891+ A5AE 1C                   INC E
 891+ A5AF 1A 57 59      LD A,(DE),D,A,E,C
 891+ A5B2 13            INC DE
 892+ A5B3 2C                   INC L
 892+ A5B4 7E            LD A,(HL)
 893+ A5B5 2C                   INC L
 893+ A5B6 66 6F         LD H,(HL),L,A
 893+ A5B8 23            INC HL
 894+ A5B9
 895+ A5B9 1A                   LD A,(DE)
 896+ A5BA BE                   CP (HL)
 896+ A5BB 28 04 30 5A   JR Z,$+6,NC,TZER3,C_HL3
 896+ A5BF 18 40
 897+ A5C1 23 13                INC HL,DE
 898+ A5C3 1A                   LD A,(DE)
 899+ A5C4 BE                   CP (HL)
 899+ A5C5 28 04 30 50   JR Z,$+6,NC,TZER3,C_HL3
 899+ A5C9 18 36
 900+ A5CB 23 13                INC HL,DE
 901+ A5CD 1A                   LD A,(DE)
 902+ A5CE BE                   CP (HL)
 902+ A5CF 28 04 30 46   JR Z,$+6,NC,TZER3,C_HL3
 902+ A5D3 18 2C
 903+ A5D5
 904+ A5D5 7B                   LD A,E
 904+ A5D6 C6 0E         ADD A,ELN-3
 905+ A5D8 30 01                JR NC,$+3
 905+ A5DA 14            INC D
 905+ A5DB 5F            LD E,A
 906+ A5DC 7D                   LD A,L
 906+ A5DD C6 0E         ADD A,ELN-3
 907+ A5DF 30 01                JR NC,$+3
 907+ A5E1 24            INC H
 907+ A5E2 6F            LD L,A
 908+ A5E3
 909+ A5E3 06 FF        KPUK    LD B,255
 910+ A5E5 7E 4F        CHAK3   LD A,(HL),C,A
 911+ A5E7 FE 5B                CP #5B
 911+ A5E9 30 06         JR NC,CKF3
 912+ A5EB FE 41                CP #41
 912+ A5ED 38 02         JR C,CKF3
 912+ A5EF CB E9         SET 5,C
 913+ A5F1 1A           CKF3    LD A,(DE)
 914+ A5F2 FE 5B                CP #5B
 914+ A5F4 30 06         JR NC,CKS3
 915+ A5F6 FE 41                CP #41
 915+ A5F8 38 02         JR C,CKS3
 915+ A5FA CB EF         SET 5,A
 916+ A5FC B9           CKS3    CP C
 916+ A5FD 28 0C 30 18   JR Z,NXC3,NC,TZER3
 917+ A601 21 00 00     C_HL3   LD HL,0
 918+ A604 2C          > INC L
 918+ A605 2C          > INC L
 918+ A606 2C          > INC L
 919+ A607 23                   INC HL
 920+ A608 C3 99 A5             JP CYK3
 921+ A60B              ;-------
 922+ A60B 23 13        NXC3    INC HL,DE
 922+ A60D 10 D6         DJNZ CHAK3
 923+ A60F 2A 02 A6             LD HL,(C_HL3+1)
 924+ A612 2C          > INC L
 924+ A613 2C          > INC L
 924+ A614 2C          > INC L
 925+ A615 23                   INC HL
 926+ A616 C3 99 A5             JP CYK3
 927+ A619 3E 01 32 25  TZER3   LD A,1,(SWAP+1),A
 927+ A61D A7
 928+ A61E 2A 02 A6             LD HL,(C_HL3+1)
 929+ A621 22 C1 A6             LD (CYK+1),HL
 930+ A624
 931+ A624 2C          > INC L
 931+ A625 2C          > INC L
 931+ A626 2C          > INC L
 932+ A627 23                   INC HL
 933+ A628 C3 99 A5             JP CYK3
 934+ A62B              ;-------
 935+ A62B CD 4D A5     BYSZ    CALL DDNET
 936+ A62E ED 53 75 A7  CA8     LD (C_DE),DE
 937+ A632 EB                   EX DE,HL
 938+ A633
 939+ A633 22 C1 A6             LD (CYK+1),HL
 940+ A636
 941+ A636 01 05 00             LD BC,5
 941+ A639 09            ADD HL,BC
 942+ A63A 7E                   LD A,(HL)
 943+ A63B 2C                   INC L
 943+ A63C B6            OR (HL)
 943+ A63D C8            RET Z
 944+ A63E 2D          > DEC L
 944+ A63F 2D          > DEC L
 945+ A640
 946+ A640 ED 5B C1 A6  CYK2    LD DE,(CYK+1)
 947+ A644 22 82 A6             LD (C_HL2+1),HL
 948+ A647 2C                   INC L
 948+ A648 7E            LD A,(HL)
 949+ A649 2C                   INC L
 949+ A64A B6            OR (HL)
 950+ A64B 2B          > DEC HL
 950+ A64C 2B          > DEC HL
 951+ A64D CC 24 A7             CALL Z,SWAP
 951+ A650 28 DC         JR Z,CA8
 952+ A652
 953+ A652 CD 6C A5             CALL IINET
 954+ A655
 955+ A655 1A                   LD A,(DE)
 956+ A656 BE                   CP (HL)
 956+ A657 28 04 30 3E   JR Z,BJK,NC,TZER2,C_HL2
 956+ A65B 18 24
 957+ A65D 01 F8 FF     BJK     LD BC,0-(FLG-8)
 958+ A660 09                   ADD HL,BC
 958+ A661 EB            EX DE,HL
 959+ A662 09                   ADD HL,BC
 959+ A663 EB            EX DE,HL
 960+ A664 06 04                LD B,4
 961+ A666 1A           CHaK2   LD A,(DE)
 962+ A667 BE                   CP (HL)
 962+ A668 28 04 30 2D   JR Z,NXc2,NC,TZER2,C_HL2
 962+ A66C 18 13
 963+ A66E 2B 1B        NXc2    DEC HL,DE
 963+ A670 10 F4         DJNZ CHaK2
 964+ A672
 965+ A672 01 0D 00             LD BC,ELN-4
 966+ A675 09                   ADD HL,BC
 966+ A676 EB            EX DE,HL
 967+ A677 09                   ADD HL,BC
 967+ A678 EB            EX DE,HL
 968+ A679
 969+ A679 06 FF                LD B,255
 970+ A67B 1A           CHAK2   LD A,(DE)
 971+ A67C BE                   CP (HL)
 971+ A67D 28 0C 30 18   JR Z,NXC2,NC,TZER2
 972+ A681 21 00 00     C_HL2   LD HL,0
 973+ A684 2C          > INC L
 973+ A685 2C          > INC L
 973+ A686 2C          > INC L
 974+ A687 23                   INC HL
 975+ A688 C3 40 A6             JP CYK2
 976+ A68B              ;-------
 977+ A68B 23 13        NXC2    INC HL,DE
 977+ A68D 10 EC         DJNZ CHAK2
 978+ A68F 2A 82 A6             LD HL,(C_HL2+1)
 979+ A692 2C          > INC L
 979+ A693 2C          > INC L
 979+ A694 2C          > INC L
 980+ A695 23                   INC HL
 981+ A696 C3 40 A6             JP CYK2
 982+ A699 3E 01 32 25  TZER2   LD A,1,(SWAP+1),A
 982+ A69D A7
 983+ A69E 2A 82 A6             LD HL,(C_HL2+1)
 984+ A6A1 22 C1 A6             LD (CYK+1),HL
 985+ A6A4
 986+ A6A4 2C          > INC L
 986+ A6A5 2C          > INC L
 986+ A6A6 2C          > INC L
 987+ A6A7 23                   INC HL
 988+ A6A8 C3 40 A6             JP CYK2
 989+ A6AB              ;-------
 990+ A6AB CD 4D A5     BYNM    CALL DDNET
 991+ A6AE ED 53 75 A7  CA7     LD (C_DE),DE
 992+ A6B2 EB                   EX DE,HL
 993+ A6B3
 994+ A6B3 22 C1 A6             LD (CYK+1),HL
 995+ A6B6
 996+ A6B6 01 05 00             LD BC,5
 996+ A6B9 09            ADD HL,BC
 997+ A6BA 7E                   LD A,(HL)
 998+ A6BB 2C                   INC L
 998+ A6BC B6            OR (HL)
 998+ A6BD C8            RET Z
 999+ A6BE 2D          > DEC L
 999+ A6BF 2D          > DEC L
1000+ A6C0
1001+ A6C0 11 00 00     CYK     LD DE,0
1002+ A6C3 22 FB A6             LD (C_HL),HL
1003+ A6C6
1004+ A6C6 2C                   INC L
1004+ A6C7 7E            LD A,(HL)
1005+ A6C8 2C                   INC L
1005+ A6C9 B6            OR (HL)
1006+ A6CA 2B          > DEC HL
1006+ A6CB 2B          > DEC HL
1007+ A6CC CC 24 A7             CALL Z,SWAP
1007+ A6CF 28 DD         JR Z,CA7
1008+ A6D1
1009+ A6D1 CD 6C A5             CALL IINET
1010+ A6D4
1011+ A6D4 06 FF                LD B,255
1012+ A6D6 1A                   LD A,(DE)
1013+ A6D7 BE                   CP (HL)
1013+ A6D8 28 2A 30 36   JR Z,NXC,NC,TZER,KP9K
1013+ A6DC 18 1C
1014+ A6DE
1015+ A6DE 7E 4F        CHAK    LD A,(HL),C,A
1016+ A6E0 FE 5B                CP #5B
1016+ A6E2 30 06         JR NC,CKF
1017+ A6E4 FE 41                CP #41
1017+ A6E6 38 02         JR C,CKF
1017+ A6E8 CB E9         SET 5,C
1018+ A6EA 1A           CKF     LD A,(DE)
1019+ A6EB FE 5B                CP #5B
1019+ A6ED 30 06         JR NC,CKS
1020+ A6EF FE 41                CP #41
1020+ A6F1 38 02         JR C,CKS
1020+ A6F3 CB EF         SET 5,A
1021+ A6F5 B9           CKS     CP C
1021+ A6F6 28 0C 30 18   JR Z,NXC,NC,TZER
1022+ A6FA              KP9K
1023+ A6FA              C_HL    EQU $+1
1023+ A6FA 21 00 00      LD HL,0
1024+ A6FD 2C          > INC L
1024+ A6FE 2C          > INC L
1024+ A6FF 2C          > INC L
1025+ A700 23                   INC HL
1026+ A701 C3 C0 A6             JP CYK
1027+ A704              ;-------
1028+ A704 23 13        NXC     INC HL,DE
1028+ A706 10 D6         DJNZ CHAK
1029+ A708 2A FB A6             LD HL,(C_HL)
1030+ A70B 2C          > INC L
1030+ A70C 2C          > INC L
1030+ A70D 2C          > INC L
1031+ A70E 23                   INC HL
1032+ A70F C3 C0 A6             JP CYK
1033+ A712 3E 01 32 25  TZER    LD A,1,(SWAP+1),A
1033+ A716 A7
1034+ A717 2A FB A6             LD HL,(C_HL)
1035+ A71A 22 C1 A6             LD (CYK+1),HL
1036+ A71D
1037+ A71D 2C          > INC L
1037+ A71E 2C          > INC L
1037+ A71F 2C          > INC L
1038+ A720 23                   INC HL
1039+ A721 C3 C0 A6             JP CYK
1040+ A724              ;-------
1041+ A724 3E 00        SWAP    LD A,0
1041+ A726 B7            OR A
1041+ A727 CA 4F A7      JP Z,NSWA
1042+ A72A AF                   XOR A
1042+ A72B 32 25 A7      LD (SWAP+1),A
1043+ A72E
1044+ A72E ED 5B 75 A7          LD DE,(C_DE)
1045+ A732 2A C1 A6             LD HL,(CYK+1)
1046+ A735
1047+ A735 1A 4E                LD A,(DE),C,(HL)
1048+ A737 77 79 12             LD (HL),A,A,C,(DE),A
1048+ A73A 2C 1C         INC L,E
1049+ A73C 1A 4E                LD A,(DE),C,(HL)
1050+ A73E 77 79 12             LD (HL),A,A,C,(DE),A
1050+ A741 2C 1C         INC L,E
1051+ A743 1A 4E                LD A,(DE),C,(HL)
1052+ A745 77 79 12             LD (HL),A,A,C,(DE),A
1052+ A748 2C 1C         INC L,E
1053+ A74A 1A 4E                LD A,(DE),C,(HL)
1054+ A74C 77 79 12             LD (HL),A,A,C,(DE),A
1055+ A74F
1056+ A74F 2A 75 A7     NSWA    LD HL,(C_DE)
1057+ A752 2C          > INC L
1057+ A753 2C          > INC L
1057+ A754 2C          > INC L
1058+ A755 23                   INC HL
1059+ A756 EB                   EX DE,HL
1060+ A757 AF                   XOR A
1061+ A758 C9                   RET
1062+ A759              ;---------------------------------------
1063+ A759 FB           DINT    EI
1063+ A75A 76            HALT
1063+ A75B F3            DI
1064+ A75C 21 01 5C 22          LD HL,INTM+2,(INTM),HL
1064+ A760 FF 5B
1065+ A762 C9                   RET
1066+ A763              ;-------
1067+ A763 1A           RAZ     LD A,(DE)
1067+ A764 BE            CP (HL)
1067+ A765 C0            RET NZ
1068+ A766 23 13                INC HL,DE
1069+ A768 10 F9                DJNZ RAZ
1070+ A76A C9                   RET
1071+ A76B              ;-------
1072+ A76B 1A           RAZ0    LD A,(DE)
1072+ A76C BE            CP (HL)
1072+ A76D C0            RET NZ
1073+ A76E 23 13                INC HL,DE
1074+ A770 1A                   LD A,(DE)
1074+ A771 B7            OR A
1074+ A772 C8            RET Z
1075+ A773 18 F6                JR RAZ0
1076+ A775              ;---------------------------------------
1077+ A775 00 00        C_DE    DS 2
1078+ A777 00           YYY     NOP
1079+ A778              ;---------------------------------------
1080+ A778 D5 00        F9WND   DB 5+16+128+64,0;%00000111
1081+ A77A FF 06                DB 255,WNY;   X,Y
1082+ A77C 22 10                DB 32+2,WNH; W,H
1083+ A77E 5F                   DB %01011111;PAPER+INK
1084+ A77F 00                   DB 0
1085+ A780 00 00                DW #0000;    BUFFER
1086+ A782 04 08                DB LN2,LN1;  LINES
1087+ A784
1088+ A784 01 11                DB 1,CMX
1089+ A786 E4 58                DB %11100100,%01011000
1090+ A788
1091+ A788 91 A8                DW STP
1092+ A78A 00 00                DW 0
1093+ A78C 00 00                DW 0
1094+ A78E
1095+ A78E 84 00        F9WN2   DB 4+128,0
1096+ A790 FF 16                DB 255,WNY+WNH;X,Y
1097+ A792 22 03                DB 32+2,1+2; W,H
1098+ A794 5F                   DB %01011111;PAPER+INK
1099+ A795 00                   DB 0
1100+ A796 00 00                DW #0000;    BUFFER
1101+ A798 00 00                DB 0,0;      LINES
1102+ A79A
1103+ A79A 00 00                DW 0
1104+ A79C 00 00                DW 0
1105+ A79E BD A8                DW SSAV
1106+ A7A0
1107+ A7A0 84 00        F9OK    DB 4+128,0
1108+ A7A2 FF FF                DB 255,255;  X,Y
1109+ A7A4 2C 03                DB 42+2,1+2; W,H
1110+ A7A6 4F                   DB %01001111;PAPER+INK
1111+ A7A7 00                   DB 0
1112+ A7A8 00 00                DW #0000;    BUFFER
1113+ A7AA 00 00                DB 0,0;      LINES
1114+ A7AC
1115+ A7AC 00 00                DW 0
1116+ A7AE 00 00                DW 0
1117+ A7B0 B2 A7                DW SOK
1118+ A7B2
1119+ A7B2 0E 49 4E 49  SOK     DB #0E,"INI file SAVED/MERGED "
1119+ A7B6 20 66 69 6C
1119+ A7BA 65 20 53 41
1119+ A7BE 56 45 44 2F
1119+ A7C2 4D 45 52 47
1119+ A7C6 45 44 20
1120+ A7C9 53 55 43 43          DB "SUCCESSFULLY",0
1120+ A7CD 45 53 53 46
1120+ A7D1 55 4C 4C 59
1120+ A7D5 00
1121+ A7D6
1122+ A7D6 13 00        IMWND   DB 3+16,0
1123+ A7D8 12 0D                DB 18,13;    X,Y
1124+ A7DA 2C 03                DB 42+2,1+2; W,H
1125+ A7DC 1F                   DB %00011111;PAPER+INK
1126+ A7DD 00                   DB 0
1127+ A7DE 00 00                DW #0000;    BUFFER
1128+ A7E0 00 00                DB 0,0;      LINES
1129+ A7E2              ;-------
1130+ A7E2 00 00        INIWND  DB 0,0
1131+ A7E4 00 00                DB 0,0;     X,Y
1132+ A7E6 00 00                DB 0,0;      W,H
1133+ A7E8 00                   DB %00000000;PAP+INK
1134+ A7E9 00                   DB 0
1135+ A7EA FF FF                DW #FFFF;    BUFFER
1136+ A7EC 00 00                DB 0,0;      LINES
1137+ A7EE              ;---------------------------------------
1138+ A7EE 00           SFINI   DB #00
1139+ A7EF 00 00 00 00  SFIS    DW 0,0
1140+ A7F3 77 63 2E 69          DB "wc.ini",0
1140+ A7F7 6E 69 00
1141+ A7FA
1142+ A7FA 5B 53 45 54  SPTRN   DB "[SETUP]",13
1142+ A7FE 55 50 5D 0D
1143+ A802 43 50 55 5F          DB "CPU_FREQ=2",13
1143+ A806 46 52 45 51
1143+ A80A 3D 32 0D
1144+ A80D              CPFRQ   EQU $-2
1145+ A80D 53 61 76 65          DB "SavePaths=1",13
1145+ A811 50 61 74 68
1145+ A815 73 3D 31 0D
1146+ A819              SPIR    EQU $-2
1147+ A819 53 61 76 65          DB "SavePosition=0",13
1147+ A81D 50 6F 73 69
1147+ A821 74 69 6F 6E
1147+ A825 3D 30 0D
1148+ A828              CURP    EQU $-2
1149+ A828 54 65 78 74          DB "TextMode=1",13
1149+ A82C 4D 6F 64 65
1149+ A830 3D 31 0D
1150+ A833              TXTMD   EQU $-2
1151+ A833 53 63 72 65          DB "ScreenSaver=0",13
1151+ A837 65 6E 53 61
1151+ A83B 76 65 72 3D
1151+ A83F 30 0D
1152+ A841              AFKTIME EQU $-2
1153+ A841 4C 6F 67 6F          DB "Logo=0",13
1153+ A845 3D 30 0D
1154+ A848              LOGO    EQU $-2
1155+ A848 0D                   DB 13
1156+ A849              SPP1
1157+ A849 5B 4C 50 41  SPTR2   DB "[LPANEL]",13
1157+ A84D 4E 45 4C 5D
1157+ A851 0D
1158+ A852 44 52 56 3D          DB "DRV=1",13
1158+ A856 31 0D
1159+ A858              SDRV1   EQU $-2
1160+ A858 49 4E 46 4F          DB "INFO=1",13
1160+ A85C 3D 31 0D
1161+ A85F              SNFO1   EQU $-2
1162+ A85F 43 53 4F 52          DB "CSORT=1",13
1162+ A863 54 3D 31 0D
1163+ A867              SSRT1   EQU $-2
1164+ A867 0D                   DB 13
1165+ A868 5B 52 50 41          DB "[RPANEL]",13
1165+ A86C 4E 45 4C 5D
1165+ A870 0D
1166+ A871 44 52 56 3D          DB "DRV=1",13
1166+ A875 31 0D
1167+ A877              SDRV2   EQU $-2
1168+ A877 49 4E 46 4F          DB "INFO=1",13
1168+ A87B 3D 31 0D
1169+ A87E              SNFO2   EQU $-2
1170+ A87E 43 53 4F 52          DB "CSORT=1",13
1170+ A882 54 3D 31 0D
1171+ A886              SSRT2   EQU $-2
1172+ A886 00                   DB 0
1173+ A887 5B 50 4C 55  SPP2    DB "[PLUGINS]",#FF
1173+ A88B 47 49 4E 53
1173+ A88F 5D FF
1174+ A891
1175+ A891 0E 09 49 4E  STP     DB #0E,#09,"INI File Setup",0
1175+ A895 49 20 46 69
1175+ A899 6C 65 20 53
1175+ A89D 65 74 75 70
1175+ A8A1 00
1176+ A8A2 0E 4C 65 66  STPL    DB #0E,"Left Panel:",0
1176+ A8A6 74 20 50 61
1176+ A8AA 6E 65 6C 3A
1176+ A8AE 00
1177+ A8AF 0E 52 69 67  STPR    DB #0E,"Right Panel:",0
1177+ A8B3 68 74 20 50
1177+ A8B7 61 6E 65 6C
1177+ A8BB 3A 00
1178+ A8BD 04 04 20 0E  SSAV    DB 4,4,32,#0E,"Save INI file",0
1178+ A8C1 53 61 76 65
1178+ A8C5 20 49 4E 49
1178+ A8C9 20 66 69 6C
1178+ A8CD 65 00
1179+ A8CF 44 65 76 69  SERR    DB "Device or FAT32 NOT FOUND!"
1179+ A8D3 63 65 20 6F
1179+ A8D7 72 20 46 41
1179+ A8DB 54 33 32 20
1179+ A8DF 4E 4F 54 20
1179+ A8E3 46 4F 55 4E
1179+ A8E7 44 21
1180+ A8E9 49 4E 49 20  IFM     DB "INI File ERROR:"
1180+ A8ED 46 69 6C 65
1180+ A8F1 20 45 52 52
1180+ A8F5 4F 52 3A
1181+ A8F8              IFM1    EQU SERR
1182+ A8F8 57 43 20 66  IFM2    DB "WC folder not found!"
1182+ A8FC 6F 6C 64 65
1182+ A900 72 20 6E 6F
1182+ A904 74 20 66 6F
1182+ A908 75 6E 64 21
1183+ A90C 57 43 2E 49  IFM3    DB "WC.INI not found!"
1183+ A910 4E 49 20 6E
1183+ A914 6F 74 20 66
1183+ A918 6F 75 6E 64
1183+ A91C 21
1184+ A91D 49 4E 49 20  IFM4    DB "INI file corrupted!"
1184+ A921 66 69 6C 65
1184+ A925 20 63 6F 72
1184+ A929 72 75 70 74
1184+ A92D 65 64 21
1185+ A930 04 04 3E 6C  TXTIL   DB 4,4,">loading plugins",0
1185+ A934 6F 61 64 69
1185+ A938 6E 67 20 70
1185+ A93C 6C 75 67 69
1185+ A940 6E 73 00
1186+ A943
1187+ A943 02           SBL1    DB 2
1187+ A944 12 AA         DW SFRQ
1188+ A946 20 20 20 20          DB "    CPU Speed: ",0
1188+ A94A 43 50 55 20
1188+ A94E 53 70 65 65
1188+ A952 64 3A 20 00
1189+ A956 01           SBL1A   DB 1
1189+ A957 29 AA         DW SDRS
1190+ A959 52 65 6D 65          DB "Remember dirs: ",0
1190+ A95D 6D 62 65 72
1190+ A961 20 64 69 72
1190+ A965 73 3A 20 00
1191+ A969 01           SBL1C   DB 1
1191+ A96A 29 AA         DW SDRS
1192+ A96C 20 20 53 61          DB "  Save Cursor: ",0
1192+ A970 76 65 20 43
1192+ A974 75 72 73 6F
1192+ A978 72 3A 20 00
1193+ A97C 01           SBL1B   DB 1
1193+ A97D 31 AA         DW STMD
1194+ A97F 20 20 20 20          DB "    TEXT Mode: ",0
1194+ A983 54 45 58 54
1194+ A987 20 4D 6F 64
1194+ A98B 65 3A 20 00
1195+ A98F 03           SBL1D   DB 3
1195+ A990 42 AA         DW SSCRS
1196+ A992 20 20 53 63          DB "  ScreenSaver: ",0
1196+ A996 72 65 65 6E
1196+ A99A 53 61 76 65
1196+ A99E 72 3A 20 00
1197+ A9A2 00           SBL1E   DB 0
1197+ A9A3 AA AA         DW SINF
1198+ A9A5 20 20 20 54          DB "   Title Logo: ",0
1198+ A9A9 69 74 6C 65
1198+ A9AD 20 4C 6F 67
1198+ A9B1 6F 3A 20 00
1199+ A9B5 FF                   DB #FF
1200+ A9B6 01           SBL2    DB 1
1200+ A9B7 62 AA         DW SDRV
1200+ A9B9 20 20 20 44   DB "   Driver: ",0
1200+ A9BD 72 69 76 65
1200+ A9C1 72 3A 20 00
1201+ A9C5 01           SBL2A   DB 1
1201+ A9C6 AA AA         DW SINF
1201+ A9C8 46 69 6C 65   DB "File Info: ",0
1201+ A9CC 20 49 6E 66
1201+ A9D0 6F 3A 20 00
1202+ A9D4 01           SBL2B   DB 1
1202+ A9D5 BC AA         DW SSOR
1202+ A9D7 20 20 53 6F   DB "  Sorting: ",0
1202+ A9DB 72 74 69 6E
1202+ A9DF 67 3A 20 00
1203+ A9E3 FF                   DB #FF
1204+ A9E4 01           SBL3    DB 1
1204+ A9E5 62 AA         DW SDRV
1204+ A9E7 20 20 20 44   DB "   Driver: ",0
1204+ A9EB 72 69 76 65
1204+ A9EF 72 3A 20 00
1205+ A9F3 01           SBL3A   DB 1
1205+ A9F4 AA AA         DW SINF
1205+ A9F6 46 69 6C 65   DB "File Info: ",0
1205+ A9FA 20 49 6E 66
1205+ A9FE 6F 3A 20 00
1206+ AA02 01           SBL3B   DB 1
1206+ AA03 BC AA         DW SSOR
1206+ AA05 20 20 53 6F   DB "  Sorting: ",0
1206+ AA09 72 74 69 6E
1206+ AA0D 67 3A 20 00
1207+ AA11 FF                   DB #FF
1208+ AA12
1209+ AA12 03 07        SFRQ    DB 3,7
1210+ AA14 33 2E 35 20          DB "3.5 MHz"
1210+ AA18 4D 48 7A
1211+ AA1B 37 20 4D 48          DB "7 MHz  "
1211+ AA1F 7A 20 20
1212+ AA22 31 34 20 4D          DB "14 MHz "
1212+ AA26 48 7A 20
1213+ AA29 02 03        SDRS    DB 2,3
1214+ AA2B 4E 4F 20             DB "NO "
1215+ AA2E 59 45 53             DB "YES"
1216+ AA31 03 05        STMD    DB 3,5
1217+ AA33 38 30 78 32          DB "80x25"
1217+ AA37 35
1218+ AA38 38 30 78 33          DB "80x30"
1218+ AA3C 30
1219+ AA3D 39 30 78 33          DB "90x36"
1219+ AA41 36
1220+ AA42 06 05        SSCRS   DB 6,5
1221+ AA44 4F 66 66 20          DB "Off  "
1221+ AA48 20
1222+ AA49 31 20 6D 69          DB "1 min"
1222+ AA4D 6E
1223+ AA4E 32 20 6D 69          DB "2 min"
1223+ AA52 6E
1224+ AA53 33 20 6D 69          DB "3 min"
1224+ AA57 6E
1225+ AA58 34 20 6D 69          DB "4 min"
1225+ AA5C 6E
1226+ AA5D 35 20 6D 69          DB "5 min"
1226+ AA61 6E
1227+ AA62
1228+ AA62 07 0A        SDRV    DB 7,10
1229+ AA64 49 44 45 6E          DB "IDEnemoMas"
1229+ AA68 65 6D 6F 4D
1229+ AA6C 61 73
1230+ AA6E 53 44 20 28          DB "SD (ZC)   "
1230+ AA72 5A 43 29 20
1230+ AA76 20 20
1231+ AA78 53 44 20 28          DB "SD (NGS)  "
1231+ AA7C 4E 47 53 29
1231+ AA80 20 20
1232+ AA82 49 44 45 73          DB "IDEsmucMas"
1232+ AA86 6D 75 63 4D
1232+ AA8A 61 73
1233+ AA8C 49 44 45 73          DB "IDEsmucSla"
1233+ AA90 6D 75 63 53
1233+ AA94 6C 61
1234+ AA96 49 44 45 6E          DB "IDEnemoSla"
1234+ AA9A 65 6D 6F 53
1234+ AA9E 6C 61
1235+ AAA0 53 44 32 20          DB "SD2 (ZC)  "
1235+ AAA4 28 5A 43 29
1235+ AAA8 20 20
1236+ AAAA 02 08        SINF    DB 2,8;uses as SLOGO
1237+ AAAC 44 69 73 61          DB "Disabled"
1237+ AAB0 62 6C 65 64
1238+ AAB4 45 6E 61 62          DB "Enabled "
1238+ AAB8 6C 65 64 20
1239+ AABC 04 07        SSOR    DB 4,7
1240+ AABE 6F 66 66 20          DB "off    "
1240+ AAC2 20 20 20
1241+ AAC5 62 79 20 6E          DB "by name"
1241+ AAC9 61 6D 65
1242+ AACC 62 79 20 65          DB "by ext "
1242+ AAD0 78 74 20
1243+ AAD3 62 79 20 73          DB "by size"
1243+ AAD7 69 7A 65
1244+ AADA
1245+ AADA 53 45 54 55  STARTU  DB "SETUP",0
1245+ AADE 50 00
1245+ AAE0 01 A4         DW SUL
1246+ AAE2 50 4C 55 47          DB "PLUGINS",0
1246+ AAE6 49 4E 53 00
1246+ AAEA 61 A3         DW SUPL
1247+ AAEC 4C 50 41 4E          DB "LPANEL",0
1247+ AAF0 45 4C 00
1247+ AAF3 89 A3         DW SUPAL
1248+ AAF5 52 50 41 4E          DB "RPANEL",0
1248+ AAF9 45 4C 00
1248+ AAFC 8E A3         DW SUPAR
1249+ AAFE FF                   DB #FF
1250+ AAFF 44 52 56 00  PANN    DB "DRV",0
1250+ AB03 CC A3         DW SUPAD
1251+ AB05 49 4E 46 4F          DB "INFO",0
1251+ AB09 00
1251+ AB0A DD A3         DW SUPAI
1252+ AB0C 43 53 4F 52          DB "CSORT",0
1252+ AB10 54 00
1252+ AB12 EB A3         DW SUPAS
1253+ AB14 FF                   DB #FF
1254+ AB15 43 50 55 5F  SETUP   DB "CPU_FREQ",0
1254+ AB19 46 52 45 51
1254+ AB1D 00
1254+ AB1E 10 A4         DW SUL1
1255+ AB20 53 61 76 65          DB "SavePaths",0
1255+ AB24 50 61 74 68
1255+ AB28 73 00
1255+ AB2A 1B A4         DW SUL2
1256+ AB2C 53 61 76 65          DB "SavePosition",0
1256+ AB30 50 6F 73 69
1256+ AB34 74 69 6F 6E
1256+ AB38 00
1256+ AB39 64 A4         DW SUL4
1257+ AB3B 54 65 78 74          DB "TextMode",0
1257+ AB3F 4D 6F 64 65
1257+ AB43 00
1257+ AB44 28 A4         DW SUL3
1258+ AB46 53 63 72 65          DB "ScreenSaver",0
1258+ AB4A 65 6E 53 61
1258+ AB4E 76 65 72 00
1258+ AB52 72 A4         DW SUL5
1259+ AB54 4C 6F 67 6F          DB "Logo",0
1259+ AB58 00
1259+ AB59 8A A4         DW SUL6
1260+ AB5B FF                   DB #FF
1261+ AB5C
1262+ AB5C 53 70 65 63  IDNT    DB "SpectrumProg"
1262+ AB60 74 72 75 6D
1262+ AB64 50 72 6F 67
1263+ AB68 57 69 6C 64  IDNT2   DB "WildCommanderMDL"
1263+ AB6C 43 6F 6D 6D
1263+ AB70 61 6E 64 65
1263+ AB74 72 4D 44 4C
1264+ AB78 57 69 6C 64  IDNT3   DB "Wild Commander v1.1"
1264+ AB7C 20 43 6F 6D
1264+ AB80 6D 61 6E 64
1264+ AB84 65 72 20 76
1264+ AB88 31 2E 31
1265+ AB8B
1266+ AB8B 49 44 45 20  IVD     DB "IDE VideoDAC: "
1266+ AB8F 56 69 64 65
1266+ AB93 6F 44 41 43
1266+ AB97 3A 20
1267+ AB99 64 65 74 65  IVDy    DB "detected"
1267+ AB9D 63 74 65 64
1268+ ABA1 6E 6F 6E 65  IVDn    DB "none    "
1268+ ABA5 20 20 20 20
1269+ ABA9              ;---------------------------------------
1270+ ABA9 C5           PLresJP PUSH BC
1270+ ABAA CD 17 69      CALL MNG8_PL
1271+ ABAD C1                   POP BC
1271+ ABAE E9            JP (HL)
1272+ ABAF 00 00                DS 2
1273+ ABB1 22 C1 AB     PLresCL LD (REScall+1),HL
1274+ ABB4 2A 02 60             LD HL,(PG8)
1275+ ABB7 C5                   PUSH BC
1275+ ABB8 CD 17 69      CALL MNG8_PL
1276+ ABBB C1                   POP BC
1277+ ABBC 7D 32 C4 AB          LD A,L,(REScPG+1),A
1278+ ABC0 CD 00 00     REScall CALL 0
1279+ ABC3 3E 00        REScPG  LD A,0
1280+ ABC5 C5                   PUSH BC
1280+ ABC6 CD 17 69      CALL MNG8_PL
1281+ ABC9 C1                   POP BC
1282+ ABCA C9                   RET
1283+ ABCB
1284+ ABCB 21 A9 AB 11  PLresCP LD HL,PLresJP,DE,PLresAD
1284+ ABCF 20 60
1285+ ABD1 01 28 00             LD BC,PLresLN
1285+ ABD4 ED B0         LDIR
1286+ ABD6 C9                   RET
1287+ ABD7              ;---------------------------------------
1288+ ABD7
# file closed: WCINI.ASM
1650  ABD7              ;-------
1651  ABD7              FONT    INCBIN "FONT32L3.CDB"
1652  B3D7              DEHR1M  INCBIN "DEHR1M.CCB"
1653  B4EE              DEHR1L  EQU $-DEHR1M
1654  B4EE              MLZ40   INCBIN "MLZ50F.CCB"
1655  B5D7              MLZ4L   EQU $-MLZ40
1656  B5D7
1657  B5D7              DEHR1   EQU GIG_PAL-DEHR1L
1658  B5D7              MLZ4    EQU DEHR1-MLZ4L
1659  B5D7
1660  B5D7              ;---------------------------------------
1661  B5D7                      IFNDEF __ALASM_CORG_ACTIVE
1662  B5D7 ~                    ORG #C000
1663  B5D7 ~                    DISP #C000
1664  B5D7 ~                    DEFINE __ALASM_CORG_ACTIVE 1
1665  B5D7 ~            __ALASM_CORG_CODE DEFL #C000
1666  B5D7 ~            __ALASM_CORG_LOGICAL DEFL #C000
1667  B5D7 ~            __ALASM_CORG_DISP DEFL 1
1668  B5D7                      ELSE
1669  B5D7              __ALASM_CORG_END DEFL __ALASM_CORG_CODE + ($ - __ALASM_CORG_LOGICAL)
1670  B5D7              __ALASM_CORG_NEW DEFL #C000
1671  B5D7                      IF __ALASM_CORG_NEW > __ALASM_CORG_END
1672  B5D7 00 00 00...          DS __ALASM_CORG_NEW - __ALASM_CORG_END,0
1673  C000                      ENDIF
1674  C000                      IF __ALASM_CORG_DISP
1675  C000                      ENT
1676  C000                      ENDIF
1677  C000                      DISP #C000
1678  C000              __ALASM_CORG_CODE DEFL __ALASM_CORG_NEW
1679  C000              __ALASM_CORG_LOGICAL DEFL #C000
1680  C000              __ALASM_CORG_DISP DEFL 1
1681  C000                      ENDIF
1682  C000              CORE    EQU #4000
1683  C000              ;IDE_INI EQU CORE
1684  C000              DEV_INI EQU CORE+3
1685  C000              ;REINI EQU CORE+6
1686  C000              HDD     EQU CORE+9
1687  C000
1688  C000              ;RDD     EQU CORE+12
1689  C000              ;SDD     EQU CORE+15
1690  C000
1691  C000              GIPAG   EQU CORE+18
1692  C000              LOAD512 EQU CORE+21
1693  C000              SAVE512 EQU CORE+24
1694  C000
1695  C000              DOS_SWP EQU CORE+27
1696  C000
1697  C000              GLSTCAT EQU CORE+30
1698  C000              TLSTCAT EQU CORE+33
1699  C000
1700  C000              SRHFCL  EQU CORE+36
1701  C000              ;EQU CORE+39
1702  C000              MKSG    EQU CORE+42
1703  C000              ;EQU CORE+45
1704  C000              RFRH    EQU CORE+48
1705  C000
1706  C000              GENTRY  EQU CORE+51
1707  C000              TENTRY  EQU CORE+54
1708  C000
1709  C000              MKFILE  EQU CORE+57
1710  C000              MKDIR   EQU CORE+60
1711  C000
1712  C000              DELFL   EQU CORE+63
1713  C000              RENAM   EQU CORE+66
1714  C000
1715  C000              ;DLSG    EQU CORE+69
1716  C000              CHTOSE  EQU CORE+72
1717  C000
1718  C000              ;EQU CORE+75
1719  C000              SRHDRN  EQU CORE+78
1720  C000
1721  C000              LOAD256 EQU CORE+81
1722  C000              LOADNON EQU CORE+84
1723  C000
1724  C000              NXTETY  EQU CORE+87
1725  C000              NXTETY2 EQU CORE+90
1726  C000              ;-------
1727  C000                      INCBIN "WDOSFC35.CCB"
1728  DBD3
# file closed: MD20.ASM
