warning[backslash]: File name contains \, use / instead (\ fails on most of the supported platforms): W:\WildCommander\source\BOOT_DISASM.ASM
# file opened: BOOT_DISASM.ASM
   1  0000              ; Wild Commander v1.10 — byte-exact annotated disassembly.
   2  0000              ; Generated from the local reference exe/boot.$C, not from repository source.
   3  0000              ; Address comments and instruction descriptions are produced by SkoolKit;
   4  0000              ; known binary regions are kept as DB so code/data boundaries stay explicit.
   5  0000              ; Assemble with SJASMPlus 1.21; expected payload SHA-256:
   6  0000              ; 270e0e11f48c5a3daec341cd74317b4216c66f74e3bbae185c469d1d1ccccbc6
   7  0000
   8  0000                      ORG #6011
   9  6011
  10  6011              ; Exact modules follow the responsibilities and include order of the original source.
  11  6011              ; ASSERT guards make any accidental size drift fail the build.
  12  6011
  13  6011                      INCLUDE "MD20_DISASM.ASM"
# file opened: MD20_DISASM.ASM
   1+ 6011              ; MD20: startup, main loop and shared commander routines
   2+ 6011              L6011:
   3+ 6011 F3             DI                      ; Disable interrupts
   4+ 6012 00             NOP                     ; Do nothing
   5+ 6013 31 FE 5F       LD SP,#5FFE             ; SP=#5FFE
   6+ 6016 00             NOP                     ; Do nothing
   7+ 6017 CD 44 6A       CALL L6011_138          ; CALL L6011_138
   8+ 601A CD 00 C0       CALL LC000              ; CALL LC000
   9+ 601D F3             DI                      ; Disable interrupts
  10+ 601E 21 15 67       LD HL,#6715             ; HL=#6715
  11+ 6021 22 FF 5B       LD (#5BFF),HL           ; POKE #5BFF,L; POKE #5C00,H
  12+ 6024 21 FB C9       LD HL,#C9FB             ; HL=#C9FB
  13+ 6027 22 01 5C       LD (#5C01),HL           ; POKE #5C01,L; POKE #5C02,H
  14+ 602A F3             DI                      ; Disable interrupts
  15+ 602B 3E 5B          LD A,#5B                ; A=#5B
  16+ 602D ED 47          LD I,A                  ; I=A
  17+ 602F ED 5E          IM 2                    ; Set interrupt mode 2
  18+ 6031 CD CE A0       CALL L9B7C_68           ; CALL L9B7C_68
  19+ 6034 CD E0 A1       CALL L9B7C_73           ; CALL L9B7C_73
  20+ 6037 CD ED 6B       CALL L6011_154          ; CALL L6011_154
  21+ 603A CD B2 9E       CALL L9B7C_39           ; CALL L9B7C_39
  22+ 603D CD 49 61       CALL L6011_4            ; CALL L6011_4
  23+ 6040 CD 47 87       CALL L8531_25           ; CALL L8531_25
  24+ 6043 CD 49 61       CALL L6011_4            ; CALL L6011_4
  25+ 6046 CD 93 AB       CALL L9B7C_218          ; CALL L9B7C_218
  26+ 6049              L6011_0:
  27+ 6049 FB             EI                      ; Enable interrupts
  28+ 604A 76             HALT                    ; Wait for the next interrupt
  29+ 604B CD D5 7C       CALL L7828_67           ; CALL L7828_67
  30+ 604E CD CB 74       CALL L7143_74           ; CALL L7143_74
  31+ 6051 C4 09 88       CALL NZ,L8531_31        ; CALL L8531_31 if the zero flag is not set
  32+ 6054 20 F3          JR NZ,L6011_0           ; Jump to L6011_0 if the zero flag is not set
  33+ 6056 CD D7 74       CALL L7143_76           ; CALL L7143_76
  34+ 6059 C4 31 85       CALL NZ,L8531           ; CALL L8531 if the zero flag is not set
  35+ 605C 20 EB          JR NZ,L6011_0           ; Jump to L6011_0 if the zero flag is not set
  36+ 605E CD 53 74       CALL L7143_49           ; CALL L7143_49
  37+ 6061 C4 61 62       CALL NZ,L6011_21        ; CALL L6011_21 if the zero flag is not set
  38+ 6064 CD 59 74       CALL L7143_50           ; CALL L7143_50
  39+ 6067 C4 1C 62       CALL NZ,L6011_14        ; CALL L6011_14 if the zero flag is not set
  40+ 606A CD 6B 74       CALL L7143_53           ; CALL L7143_53
  41+ 606D C4 FA 61       CALL NZ,L6011_12        ; CALL L6011_12 if the zero flag is not set
  42+ 6070 CD 71 74       CALL L7143_54           ; CALL L7143_54
  43+ 6073 C4 C9 61       CALL NZ,L6011_9         ; CALL L6011_9 if the zero flag is not set
  44+ 6076 CD 86 74       CALL L7143_58           ; CALL L7143_58
  45+ 6079 C4 10 62       CALL NZ,L6011_13        ; CALL L6011_13 if the zero flag is not set
  46+ 607C CD 8B 74       CALL L7143_59           ; CALL L7143_59
  47+ 607F C4 95 61       CALL NZ,L6011_7         ; CALL L6011_7 if the zero flag is not set
  48+ 6082 CD 5F 74       CALL L7143_51           ; CALL L7143_51
  49+ 6085 C4 10 62       CALL NZ,L6011_13        ; CALL L6011_13 if the zero flag is not set
  50+ 6088 CD 65 74       CALL L7143_52           ; CALL L7143_52
  51+ 608B C4 95 61       CALL NZ,L6011_7         ; CALL L6011_7 if the zero flag is not set
  52+ 608E CD 90 74       CALL L7143_60           ; CALL L7143_60
  53+ 6091 C4 40 8E       CALL NZ,L8531_111       ; CALL L8531_111 if the zero flag is not set
  54+ 6094 CD 95 74       CALL L7143_61           ; CALL L7143_61
  55+ 6097 C4 B4 85       CALL NZ,L8531_8         ; CALL L8531_8 if the zero flag is not set
  56+ 609A CD 81 74       CALL L7143_57           ; CALL L7143_57
  57+ 609D C4 1C 61       CALL NZ,L6011_2         ; CALL L6011_2 if the zero flag is not set
  58+ 60A0 CD 47 87       CALL L8531_25           ; CALL L8531_25
  59+ 60A3 CD D1 74       CALL L7143_75           ; CALL L7143_75
  60+ 60A6 C4 F9 87       CALL NZ,L8531_30        ; CALL L8531_30 if the zero flag is not set
  61+ 60A9 20 9E          JR NZ,L6011_0           ; Jump to L6011_0 if the zero flag is not set
  62+ 60AB CD 9E 74       CALL L7143_63           ; CALL L7143_63
  63+ 60AE C4 AB 88       CALL NZ,L8531_43        ; CALL L8531_43 if the zero flag is not set
  64+ 60B1 CD A6 74       CALL L7143_65           ; CALL L7143_65
  65+ 60B4 C4 BA 92       CALL NZ,L9149_20        ; CALL L9149_20 if the zero flag is not set
  66+ 60B7 CD C2 74       CALL L7143_72           ; CALL L7143_72
  67+ 60BA C4 06 99       CALL NZ,L9149_77        ; CALL L9149_77 if the zero flag is not set
  68+ 60BD CD DC 74       CALL L7143_77           ; CALL L7143_77
  69+ 60C0 C4 60 61       CALL NZ,L6011_5         ; CALL L6011_5 if the zero flag is not set
  70+ 60C3 CD A2 74       CALL L7143_64           ; CALL L7143_64
  71+ 60C6 C4 FB 90       CALL NZ,L8531_150       ; CALL L8531_150 if the zero flag is not set
  72+ 60C9 CD AA 74       CALL L7143_66           ; CALL L7143_66
  73+ 60CC C4 00 91       CALL NZ,L8531_151       ; CALL L8531_151 if the zero flag is not set
  74+ 60CF CD AE 74       CALL L7143_67           ; CALL L7143_67
  75+ 60D2 C4 83 89       CALL NZ,L8531_50        ; CALL L8531_50 if the zero flag is not set
  76+ 60D5 CD B2 74       CALL L7143_68           ; CALL L7143_68
  77+ 60D8 C4 4D 8D       CALL NZ,L8531_96        ; CALL L8531_96 if the zero flag is not set
  78+ 60DB CD B6 74       CALL L7143_69           ; CALL L7143_69
  79+ 60DE C4 CB 8C       CALL NZ,L8531_90        ; CALL L8531_90 if the zero flag is not set
  80+ 60E1 CD BA 74       CALL L7143_70           ; CALL L7143_70
  81+ 60E4 C4 40 8E       CALL NZ,L8531_111       ; CALL L8531_111 if the zero flag is not set
  82+ 60E7 CD BE 74       CALL L7143_71           ; CALL L7143_71
  83+ 60EA C4 7C 9B       CALL NZ,L9B7C           ; CALL L9B7C if the zero flag is not set
  84+ 60ED CD 7C 74       CALL L7143_56           ; CALL L7143_56
  85+ 60F0 C4 B4 85       CALL NZ,L8531_8         ; CALL L8531_8 if the zero flag is not set
  86+ 60F3 CD 65 9B       CALL L9149_107          ; CALL L9149_107
  87+ 60F6 CD 77 74       CALL L7143_55           ; CALL L7143_55
  88+ 60F9 C4 07 61       CALL NZ,L6011_1         ; CALL L6011_1 if the zero flag is not set
  89+ 60FC CD 2B 74       CALL L7143_44           ; CALL L7143_44
  90+ 60FF FE 2A          CP #2A                  ; Set the zero flag if A=#2A, or the carry flag if
  91+ 6101                                        ; A<#2A
  92+ 6101 CC 75 85       CALL Z,L8531_4          ; CALL L8531_4 if A=#2A
  93+ 6104 C3 49 60       JP L6011_0              ; Jump to L6011_0
  94+ 6107              L6011_1:
  95+ 6107 CD FE 62       CALL L6011_33           ; CALL L6011_33
  96+ 610A 08             EX AF,AF'               ; Exchange AF and AF'
  97+ 610B 7C             LD A,H                  ; A=H
  98+ 610C B5             OR L                    ; A=A|L
  99+ 610D C8             RET Z                   ; Return if A=0
 100+ 610E 08             EX AF,AF'               ; Exchange AF and AF'
 101+ 610F C2 C9 92       JP NZ,L9149_21          ; Jump to L9149_21 if the zero flag is not set
 102+ 6112 13             INC DE                  ; DE=DE+1
 103+ 6113 CD 0B A0       CALL L9B7C_52           ; CALL L9B7C_52
 104+ 6116 CD F2 7C       CALL L7828_69           ; CALL L7828_69
 105+ 6119 C3 FE 63       JP L6011_48             ; Jump to L6011_48
 106+ 611C              L6011_2:
 107+ 611C 21 00 00       LD HL,#0000             ; HL=#0000
 108+ 611F CD 0B 63       CALL L6011_34           ; CALL L6011_34
 109+ 6122 C0             RET NZ                  ; Return if the zero flag is not set
 110+ 6123 7C             LD A,H                  ; A=H
 111+ 6124 B5             OR L                    ; A=A|L
 112+ 6125 C8             RET Z                   ; Return if A=0
 113+ 6126 06 02          LD B,#02                ; B=#02
 114+ 6128              L6011_3:
 115+ 6128 13             INC DE                  ; DE=DE+1
 116+ 6129 1A             LD A,(DE)               ; A=PEEK DE
 117+ 612A FE 2E          CP #2E                  ; Set the zero flag if A=#2E, or the carry flag if
 118+ 612C                                        ; A<#2E
 119+ 612C C0             RET NZ                  ; Return if A<>#2E
 120+ 612D 10 F9          DJNZ L6011_3            ; Decrement B and jump to L6011_3 if B>0
 121+ 612F 13             INC DE                  ; DE=DE+1
 122+ 6130 1A             LD A,(DE)               ; A=PEEK DE
 123+ 6131 B7             OR A                    ; Clear the carry flag and set the zero flag if A=0
 124+ 6132 C0             RET NZ                  ; Return if A>0
 125+ 6133 1B             DEC DE                  ; DE=DE-1
 126+ 6134 1B             DEC DE                  ; DE=DE-1
 127+ 6135 CD 0B A0       CALL L9B7C_52           ; CALL L9B7C_52
 128+ 6138 CD F2 7C       CALL L7828_69           ; CALL L7828_69
 129+ 613B AF             XOR A                   ; A=0
 130+ 613C DD 36 0C 01    LD (IX+#0C),#01         ; POKE (IX+#0C),1
 131+ 6140 DD 77 10       LD (IX+#10),A           ; POKE (IX+#10),A
 132+ 6143 DD 77 11       LD (IX+#11),A           ; POKE (IX+#11),A
 133+ 6146 C3 FE 63       JP L6011_48             ; Jump to L6011_48
 134+ 6149              L6011_4:
 135+ 6149 3E 01          LD A,#01                ; A=#01
 136+ 614B 32 43 7F       LD (#7F43),A            ; POKE #7F43,A
 137+ 614E DD E5          PUSH IX                 ; Push IX onto the stack
 138+ 6150 E1             POP HL                  ; Pop last item from stack into HL
 139+ 6151 11 C4 7E       LD DE,#7EC4             ; DE=#7EC4
 140+ 6154 B7             OR A                    ; Clear the carry flag and set the zero flag if A=0
 141+ 6155 ED 52          SBC HL,DE               ; HL=HL-carry-DE
 142+ 6157 DD 21 A0 7E    LD IX,L7EA0             ; IX=#7EA0
 143+ 615B C8             RET Z                   ; Return if the zero flag is set
 144+ 615C D5             PUSH DE                 ; Push DE onto the stack
 145+ 615D DD E1          POP IX                  ; Pop last item from stack into IX
 146+ 615F C9             RET                     ; Return
 147+ 6160              L6011_5:
 148+ 6160 DD E5          PUSH IX                 ; Push IX onto the stack
 149+ 6162 E1             POP HL                  ; Pop last item from stack into HL
 150+ 6163 11 C4 7E       LD DE,#7EC4             ; DE=#7EC4
 151+ 6166 B7             OR A                    ; Clear the carry flag and set the zero flag if A=0
 152+ 6167 ED 52          SBC HL,DE               ; HL=HL-carry-DE
 153+ 6169 28 15          JR Z,L6011_6            ; Jump to L6011_6 if HL=0
 154+ 616B CD F2 7C       CALL L7828_69           ; CALL L7828_69
 155+ 616E CD D2 68       CALL L6011_116          ; CALL L6011_116
 156+ 6171 3E 42          LD A,#42                ; A=#42
 157+ 6173 32 FC DF       LD (#DFFC),A            ; POKE #DFFC,A
 158+ 6176 DD 21 C4 7E    LD IX,#7EC4             ; IX=#7EC4
 159+ 617A CD 68 68       CALL L6011_104          ; CALL L6011_104
 160+ 617D C3 6E 62       JP L6011_23             ; Jump to L6011_23
 161+ 6180              L6011_6:
 162+ 6180 CD F2 7C       CALL L7828_69           ; CALL L7828_69
 163+ 6183 CD D2 68       CALL L6011_116          ; CALL L6011_116
 164+ 6186 3E 41          LD A,#41                ; A=#41
 165+ 6188 32 FC DF       LD (#DFFC),A            ; POKE #DFFC,A
 166+ 618B DD 21 A0 7E    LD IX,L7EA0             ; IX=#7EA0
 167+ 618F CD 68 68       CALL L6011_104          ; CALL L6011_104
 168+ 6192 C3 6E 62       JP L6011_23             ; Jump to L6011_23
 169+ 6195              L6011_7:
 170+ 6195 CD F2 7C       CALL L7828_69           ; CALL L7828_69
 171+ 6198 DD 7E 14       LD A,(IX+#14)           ; A=PEEK (IX+#14)
 172+ 619B B7             OR A                    ; Clear the carry flag and set the zero flag if A=0
 173+ 619C 20 4F          JR NZ,L6011_10          ; Jump to L6011_10 if A>0
 174+ 619E DD 6E 10       LD L,(IX+#10)           ; L=PEEK (IX+#10)
 175+ 61A1 DD 66 11       LD H,(IX+#11)           ; H=PEEK (IX+#11)
 176+ 61A4              L6011_8:
 177+ 61A4 E5             PUSH HL                 ; Push HL onto the stack
 178+ 61A5 CD 4F 63       CALL L6011_36           ; CALL L6011_36
 179+ 61A8 E1             POP HL                  ; Pop last item from stack into HL
 180+ 61A9 23             INC HL                  ; HL=HL+1
 181+ 61AA 20 F8          JR NZ,L6011_8           ; Jump to L6011_8 if the zero flag is not set
 182+ 61AC DD 7E 05       LD A,(IX+#05)           ; A=PEEK (IX+#05)
 183+ 61AF D6 01          SUB #01                 ; A=A-#01
 184+ 61B1 DD 96 0A       SUB (IX+#0A)            ; A=A-PEEK (IX+#0A)
 185+ 61B4 06 00          LD B,#00                ; B=#00
 186+ 61B6 4F             LD C,A                  ; C=A
 187+ 61B7 B7             OR A                    ; Clear the carry flag and set the zero flag if A=0
 188+ 61B8 ED 42          SBC HL,BC               ; HL=HL-carry-BC
 189+ 61BA 7C             LD A,H                  ; A=H
 190+ 61BB FE FF          CP #FF                  ; Set the zero flag if A=#FF, or the carry flag if
 191+ 61BD                                        ; A<#FF
 192+ 61BD D0             RET NC                  ; Return if A>=#FF
 193+ 61BE DD 75 10       LD (IX+#10),L           ; POKE (IX+#10),L
 194+ 61C1 DD 74 11       LD (IX+#11),H           ; POKE (IX+#11),H
 195+ 61C4 CD BB 65       CALL L6011_78           ; CALL L6011_78
 196+ 61C7 18 24          JR L6011_10             ; Jump to L6011_10
 197+ 61C9              L6011_9:
 198+ 61C9 CD F2 7C       CALL L7828_69           ; CALL L7828_69
 199+ 61CC DD 7E 14       LD A,(IX+#14)           ; A=PEEK (IX+#14)
 200+ 61CF B7             OR A                    ; Clear the carry flag and set the zero flag if A=0
 201+ 61D0 20 1B          JR NZ,L6011_10          ; Jump to L6011_10 if A>0
 202+ 61D2 DD 7E 05       LD A,(IX+#05)           ; A=PEEK (IX+#05)
 203+ 61D5 D6 02          SUB #02                 ; A=A-#02
 204+ 61D7 DD 96 0A       SUB (IX+#0A)            ; A=A-PEEK (IX+#0A)
 205+ 61DA 4F             LD C,A                  ; C=A
 206+ 61DB 06 00          LD B,#00                ; B=#00
 207+ 61DD DD 6E 10       LD L,(IX+#10)           ; L=PEEK (IX+#10)
 208+ 61E0 DD 66 11       LD H,(IX+#11)           ; H=PEEK (IX+#11)
 209+ 61E3 09             ADD HL,BC               ; HL=HL+BC
 210+ 61E4 DD 75 10       LD (IX+#10),L           ; POKE (IX+#10),L
 211+ 61E7 DD 74 11       LD (IX+#11),H           ; POKE (IX+#11),H
 212+ 61EA CD BB 65       CALL L6011_78           ; CALL L6011_78
 213+ 61ED              L6011_10:
 214+ 61ED CD 44 62       CALL L6011_18           ; CALL L6011_18
 215+ 61F0 C3 6E 62       JP L6011_23             ; Jump to L6011_23
 216+ 61F3              L6011_11:
 217+ 61F3 E5             PUSH HL                 ; Push HL onto the stack
 218+ 61F4 CD F2 7C       CALL L7828_69           ; CALL L7828_69
 219+ 61F7 E1             POP HL                  ; Pop last item from stack into HL
 220+ 61F8 18 3E          JR L6011_17             ; Jump to L6011_17
 221+ 61FA              L6011_12:
 222+ 61FA DD 7E 05       LD A,(IX+#05)           ; A=PEEK (IX+#05)
 223+ 61FD D6 02          SUB #02                 ; A=A-#02
 224+ 61FF DD 96 0A       SUB (IX+#0A)            ; A=A-PEEK (IX+#0A)
 225+ 6202 4F             LD C,A                  ; C=A
 226+ 6203 06 00          LD B,#00                ; B=#00
 227+ 6205 DD 6E 10       LD L,(IX+#10)           ; L=PEEK (IX+#10)
 228+ 6208 DD 66 11       LD H,(IX+#11)           ; H=PEEK (IX+#11)
 229+ 620B B7             OR A                    ; Clear the carry flag and set the zero flag if A=0
 230+ 620C ED 42          SBC HL,BC               ; HL=HL-carry-BC
 231+ 620E 30 E3          JR NC,L6011_11          ; Jump to L6011_11 if the carry flag is not set
 232+ 6210              L6011_13:
 233+ 6210 CD F2 7C       CALL L7828_69           ; CALL L7828_69
 234+ 6213 21 00 00       LD HL,#0000             ; HL=#0000
 235+ 6216 DD 36 0C 01    LD (IX+#0C),#01         ; POKE (IX+#0C),1
 236+ 621A 18 1C          JR L6011_17             ; Jump to L6011_17
 237+ 621C              ; This entry point is used by the routines at L8531 and L9149.
 238+ 621C              L6011_14:
 239+ 621C DD 7E 0C       LD A,(IX+#0C)           ; A=PEEK (IX+#0C)
 240+ 621F DD BE 0D       CP (IX+#0D)             ; Set the zero flag if A=PEEK (IX+#0D), or the carry
 241+ 6222                                        ; flag if A<PEEK (IX+#0D)
 242+ 6222 30 08          JR NC,L6011_16          ; Jump to L6011_16 if A>=PEEK (IX+#0D)
 243+ 6224              L6011_15:
 244+ 6224 CD F2 7C       CALL L7828_69           ; CALL L7828_69
 245+ 6227 DD 34 0C       INC (IX+#0C)            ; POKE (IX+#0C),(PEEK (IX+#0C))+1
 246+ 622A 18 42          JR L6011_23             ; Jump to L6011_23
 247+ 622C              L6011_16:
 248+ 622C DD 7E 14       LD A,(IX+#14)           ; A=PEEK (IX+#14)
 249+ 622F B7             OR A                    ; Clear the carry flag and set the zero flag if A=0
 250+ 6230 C0             RET NZ                  ; Return if A>0
 251+ 6231 DD 6E 10       LD L,(IX+#10)           ; L=PEEK (IX+#10)
 252+ 6234 DD 66 11       LD H,(IX+#11)           ; H=PEEK (IX+#11)
 253+ 6237 23             INC HL                  ; HL=HL+1
 254+ 6238              L6011_17:
 255+ 6238 DD 75 10       LD (IX+#10),L           ; POKE (IX+#10),L
 256+ 623B DD 74 11       LD (IX+#11),H           ; POKE (IX+#11),H
 257+ 623E CD BB 65       CALL L6011_78           ; CALL L6011_78
 258+ 6241 C3 D5 7C       JP L7828_67             ; Jump to L7828_67
 259+ 6244              L6011_18:
 260+ 6244 DD 7E 14       LD A,(IX+#14)           ; A=PEEK (IX+#14)
 261+ 6247 B7             OR A                    ; Clear the carry flag and set the zero flag if A=0
 262+ 6248 C8             RET Z                   ; Return if A=0
 263+ 6249 DD 7E 0D       LD A,(IX+#0D)           ; A=PEEK (IX+#0D)
 264+ 624C B7             OR A                    ; Clear the carry flag and set the zero flag if A=0
 265+ 624D C8             RET Z                   ; Return if A=0
 266+ 624E DD 77 0C       LD (IX+#0C),A           ; POKE (IX+#0C),A
 267+ 6251 C9             RET                     ; Return
 268+ 6252              L6011_19:
 269+ 6252 DD 7E 0D       LD A,(IX+#0D)           ; A=PEEK (IX+#0D)
 270+ 6255 B7             OR A                    ; Clear the carry flag and set the zero flag if A=0
 271+ 6256 20 01          JR NZ,L6011_20          ; Jump to L6011_20 if A>0
 272+ 6258 3C             INC A                   ; A=A+1
 273+ 6259              L6011_20:
 274+ 6259 DD BE 0C       CP (IX+#0C)             ; Set the zero flag if A=PEEK (IX+#0C), or the carry
 275+ 625C                                        ; flag if A<PEEK (IX+#0C)
 276+ 625C D0             RET NC                  ; Return if A>=PEEK (IX+#0C)
 277+ 625D DD 77 0C       LD (IX+#0C),A           ; POKE (IX+#0C),A
 278+ 6260 C9             RET                     ; Return
 279+ 6261              ; This entry point is used by the routine at L9149.
 280+ 6261              L6011_21:
 281+ 6261 DD 7E 0C       LD A,(IX+#0C)           ; A=PEEK (IX+#0C)
 282+ 6264 FE 01          CP #01                  ; Set the zero flag if A=#01, or the carry flag if
 283+ 6266                                        ; A<#01
 284+ 6266 28 0F          JR Z,L6011_24           ; Jump to L6011_24 if A=#01
 285+ 6268              L6011_22:
 286+ 6268 CD F2 7C       CALL L7828_69           ; CALL L7828_69
 287+ 626B DD 35 0C       DEC (IX+#0C)            ; POKE (IX+#0C),(PEEK (IX+#0C))-1
 288+ 626E              L6011_23:
 289+ 626E CD D5 7C       CALL L7828_67           ; CALL L7828_67
 290+ 6271 3E 01          LD A,#01                ; A=#01
 291+ 6273 32 43 7F       LD (#7F43),A            ; POKE #7F43,A
 292+ 6276 C9             RET                     ; Return
 293+ 6277              L6011_24:
 294+ 6277 DD 7E 15       LD A,(IX+#15)           ; A=PEEK (IX+#15)
 295+ 627A B7             OR A                    ; Clear the carry flag and set the zero flag if A=0
 296+ 627B C0             RET NZ                  ; Return if A>0
 297+ 627C DD 6E 10       LD L,(IX+#10)           ; L=PEEK (IX+#10)
 298+ 627F DD 66 11       LD H,(IX+#11)           ; H=PEEK (IX+#11)
 299+ 6282 2B             DEC HL                  ; HL=HL-1
 300+ 6283 18 B3          JR L6011_17             ; Jump to L6011_17
 301+ 6285              ; This entry point is used by the routines at L8531, L9149 and L9B7C.
 302+ 6285              L6011_25:
 303+ 6285 DD 7E 0C       LD A,(IX+#0C)           ; A=PEEK (IX+#0C)
 304+ 6288 DD BE 0D       CP (IX+#0D)             ; Set the zero flag if A=PEEK (IX+#0D), or the carry
 305+ 628B                                        ; flag if A<PEEK (IX+#0D)
 306+ 628B D0             RET NC                  ; Return if A>=PEEK (IX+#0D)
 307+ 628C 18 96          JR L6011_15             ; Jump to L6011_15
 308+ 628E              ; This entry point is used by the routines at L8531, L9149 and L9B7C.
 309+ 628E              L6011_26:
 310+ 628E DD 7E 0C       LD A,(IX+#0C)           ; A=PEEK (IX+#0C)
 311+ 6291 FE 01          CP #01                  ; Set the zero flag if A=#01, or the carry flag if
 312+ 6293                                        ; A<#01
 313+ 6293 C8             RET Z                   ; Return if A=#01
 314+ 6294 18 D2          JR L6011_22             ; Jump to L6011_22
 315+ 6296              ; This entry point is used by the routine at L9149.
 316+ 6296              L6011_27:
 317+ 6296 CD F2 7C       CALL L7828_69           ; CALL L7828_69
 318+ 6299 DD 36 0C 01    LD (IX+#0C),#01         ; POKE (IX+#0C),1
 319+ 629D 18 CF          JR L6011_23             ; Jump to L6011_23
 320+ 629F              ; This entry point is used by the routine at L9149.
 321+ 629F              L6011_28:
 322+ 629F CD F2 7C       CALL L7828_69           ; CALL L7828_69
 323+ 62A2 DD 7E 0D       LD A,(IX+#0D)           ; A=PEEK (IX+#0D)
 324+ 62A5 DD 77 0C       LD (IX+#0C),A           ; POKE (IX+#0C),A
 325+ 62A8 18 C4          JR L6011_23             ; Jump to L6011_23
 326+ 62AA              L6011_29:
 327+ 62AA DD 6E 12       LD L,(IX+#12)           ; L=PEEK (IX+#12)
 328+ 62AD DD 66 13       LD H,(IX+#13)           ; H=PEEK (IX+#13)
 329+ 62B0 DD 7E 11       LD A,(IX+#11)           ; A=PEEK (IX+#11)
 330+ 62B3 BC             CP H                    ; Set the zero flag if A=H, or the carry flag if A<H
 331+ 62B4 D8             RET C                   ; Return if A<H
 332+ 62B5 DD 7E 10       LD A,(IX+#10)           ; A=PEEK (IX+#10)
 333+ 62B8 BD             CP L                    ; Set the zero flag if A=L, or the carry flag if A<L
 334+ 62B9 D8             RET C                   ; Return if A<L
 335+ 62BA DD 7E 05       LD A,(IX+#05)           ; A=PEEK (IX+#05)
 336+ 62BD D6 02          SUB #02                 ; A=A-#02
 337+ 62BF DD 96 0A       SUB (IX+#0A)            ; A=A-PEEK (IX+#0A)
 338+ 62C2 06 00          LD B,#00                ; B=#00
 339+ 62C4 4F             LD C,A                  ; C=A
 340+ 62C5 B7             OR A                    ; Clear the carry flag and set the zero flag if A=0
 341+ 62C6 ED 42          SBC HL,BC               ; HL=HL-carry-BC
 342+ 62C8 30 03          JR NC,L6011_30          ; Jump to L6011_30 if the carry flag is not set
 343+ 62CA 21 00 00       LD HL,#0000             ; HL=#0000
 344+ 62CD              L6011_30:
 345+ 62CD DD 75 10       LD (IX+#10),L           ; POKE (IX+#10),L
 346+ 62D0 DD 74 11       LD (IX+#11),H           ; POKE (IX+#11),H
 347+ 62D3 C9             RET                     ; Return
 348+ 62D4              L6011_31:
 349+ 62D4 CD EB 62       CALL L6011_32           ; CALL L6011_32
 350+ 62D7 DD 77 17       LD (IX+#17),A           ; POKE (IX+#17),A
 351+ 62DA DD 77 18       LD (IX+#18),A           ; POKE (IX+#18),A
 352+ 62DD DD 36 0C 01    LD (IX+#0C),#01         ; POKE (IX+#0C),1
 353+ 62E1 DD 77 10       LD (IX+#10),A           ; POKE (IX+#10),A
 354+ 62E4 DD 77 11       LD (IX+#11),A           ; POKE (IX+#11),A
 355+ 62E7 DD 77 1A       LD (IX+#1A),A           ; POKE (IX+#1A),A
 356+ 62EA C9             RET                     ; Return
 357+ 62EB              ; This entry point is used by the routines at L8531 and L9B7C.
 358+ 62EB              L6011_32:
 359+ 62EB 3E 01          LD A,#01                ; A=#01
 360+ 62ED 32 43 7F       LD (#7F43),A            ; POKE #7F43,A
 361+ 62F0 AF             XOR A                   ; A=0
 362+ 62F1 DD 77 0D       LD (IX+#0D),A           ; POKE (IX+#0D),A
 363+ 62F4 DD 77 0F       LD (IX+#0F),A           ; POKE (IX+#0F),A
 364+ 62F7 DD 77 14       LD (IX+#14),A           ; POKE (IX+#14),A
 365+ 62FA DD 77 15       LD (IX+#15),A           ; POKE (IX+#15),A
 366+ 62FD C9             RET                     ; Return
 367+ 62FE              ; This entry point is used by the routines at L8531 and L9149.
 368+ 62FE              L6011_33:
 369+ 62FE 06 00          LD B,#00                ; B=#00
 370+ 6300 DD 4E 0C       LD C,(IX+#0C)           ; C=PEEK (IX+#0C)
 371+ 6303 0D             DEC C                   ; C=C-1
 372+ 6304 DD 6E 10       LD L,(IX+#10)           ; L=PEEK (IX+#10)
 373+ 6307 DD 66 11       LD H,(IX+#11)           ; H=PEEK (IX+#11)
 374+ 630A 09             ADD HL,BC               ; HL=HL+BC
 375+ 630B              ; This entry point is used by the routine at L8531.
 376+ 630B              L6011_34:
 377+ 630B CD 36 63       CALL L6011_35           ; CALL L6011_35
 378+ 630E E5             PUSH HL                 ; Push HL onto the stack
 379+ 630F 23             INC HL                  ; HL=HL+1
 380+ 6310 23             INC HL                  ; HL=HL+1
 381+ 6311 23             INC HL                  ; HL=HL+1
 382+ 6312 23             INC HL                  ; HL=HL+1
 383+ 6313 11 28 7F       LD DE,#7F28             ; DE=#7F28
 384+ 6316 01 08 00       LD BC,#0008             ; BC=#0008
 385+ 6319 ED B0          LDIR                    ; POKE DE,PEEK HL; HL=HL+1; DE=DE+1; BC=BC-1; repeat
 386+ 631B                                        ; until BC=0
 387+ 631B 0E 04          LD C,#04                ; C=#04
 388+ 631D 09             ADD HL,BC               ; HL=HL+BC
 389+ 631E 11 6B 7F       LD DE,#7F6B             ; DE=#7F6B
 390+ 6321 CD 06 65       CALL L6011_60           ; CALL L6011_60
 391+ 6324 AF             XOR A                   ; A=0
 392+ 6325 12             LD (DE),A               ; POKE DE,A
 393+ 6326 E1             POP HL                  ; Pop last item from stack into HL
 394+ 6327 E5             PUSH HL                 ; Push HL onto the stack
 395+ 6328 0E 10          LD C,#10                ; C=#10
 396+ 632A 09             ADD HL,BC               ; HL=HL+BC
 397+ 632B EB             EX DE,HL                ; Exchange DE and HL
 398+ 632C E1             POP HL                  ; Pop last item from stack into HL
 399+ 632D 1A             LD A,(DE)               ; A=PEEK DE
 400+ 632E B7             OR A                    ; Clear the carry flag and set the zero flag if A=0
 401+ 632F C9             RET                     ; Return
 402+ 6330 DD 6E 10       LD L,(IX+#10)           ; L=PEEK (IX+#10)
 403+ 6333 DD 66 11       LD H,(IX+#11)           ; H=PEEK (IX+#11)
 404+ 6336              L6011_35:
 405+ 6336 29             ADD HL,HL               ; HL=HL+HL
 406+ 6337 29             ADD HL,HL               ; HL=HL+HL
 407+ 6338 01 00 C0       LD BC,LC000             ; BC=#C000
 408+ 633B 09             ADD HL,BC               ; HL=HL+BC
 409+ 633C CD DE 68       CALL L6011_118          ; CALL L6011_118
 410+ 633F 7E             LD A,(HL)               ; A=PEEK HL
 411+ 6340 2C             INC L                   ; L=L+1
 412+ 6341 DD 77 1A       LD (IX+#1A),A           ; POKE (IX+#1A),A
 413+ 6344 4E             LD C,(HL)               ; C=PEEK HL
 414+ 6345 2C             INC L                   ; L=L+1
 415+ 6346 46             LD B,(HL)               ; B=PEEK HL
 416+ 6347 2C             INC L                   ; L=L+1
 417+ 6348 7E             LD A,(HL)               ; A=PEEK HL
 418+ 6349 60             LD H,B                  ; H=B
 419+ 634A 69             LD L,C                  ; L=C
 420+ 634B 4F             LD C,A                  ; C=A
 421+ 634C C3 E6 68       JP L6011_119            ; Jump to L6011_119
 422+ 634F              ; This entry point is used by the routine at L8531.
 423+ 634F              L6011_36:
 424+ 634F CD 36 63       CALL L6011_35           ; CALL L6011_35
 425+ 6352 7C             LD A,H                  ; A=H
 426+ 6353 B5             OR L                    ; A=A|L
 427+ 6354 C9             RET                     ; Return
 428+ 6355              L6011_37:
 429+ 6355 DD 7E 16       LD A,(IX+#16)           ; A=PEEK (IX+#16)
 430+ 6358 B7             OR A                    ; Clear the carry flag and set the zero flag if A=0
 431+ 6359 C8             RET Z                   ; Return if A=0
 432+ 635A CD C1 68       CALL L6011_114          ; CALL L6011_114
 433+ 635D 11 00 C0       LD DE,LC000             ; DE=#C000
 434+ 6360 DD 4E 10       LD C,(IX+#10)           ; C=PEEK (IX+#10)
 435+ 6363 DD 46 11       LD B,(IX+#11)           ; B=PEEK (IX+#11)
 436+ 6366 DD 6E 17       LD L,(IX+#17)           ; L=PEEK (IX+#17)
 437+ 6369 DD 66 18       LD H,(IX+#18)           ; H=PEEK (IX+#18)
 438+ 636C DD 7E 0C       LD A,(IX+#0C)           ; A=PEEK (IX+#0C)
 439+ 636F 3D             DEC A                   ; A=A-1
 440+ 6370 28 23          JR Z,L6011_40           ; Jump to L6011_40 if A=0
 441+ 6372              ; This entry point is used by the routine at L9B7C.
 442+ 6372              L6011_38:
 443+ 6372 DD 7E 0C       LD A,(IX+#0C)           ; A=PEEK (IX+#0C)
 444+ 6375 19             ADD HL,DE               ; HL=HL+DE
 445+ 6376 71             LD (HL),C               ; POKE HL,C
 446+ 6377 23             INC HL                  ; HL=HL+1
 447+ 6378 70             LD (HL),B               ; POKE HL,B
 448+ 6379 23             INC HL                  ; HL=HL+1
 449+ 637A 77             LD (HL),A               ; POKE HL,A
 450+ 637B 23             INC HL                  ; HL=HL+1
 451+ 637C 36 00          LD (HL),#00             ; POKE HL,#00
 452+ 637E 23             INC HL                  ; HL=HL+1
 453+ 637F DD 36 0C 01    LD (IX+#0C),#01         ; POKE (IX+#0C),1
 454+ 6383 DD 36 10 00    LD (IX+#10),#00         ; POKE (IX+#10),0
 455+ 6387 DD 36 11 00    LD (IX+#11),#00         ; POKE (IX+#11),0
 456+ 638B              L6011_39:
 457+ 638B B7             OR A                    ; Clear the carry flag and set the zero flag if A=0
 458+ 638C ED 52          SBC HL,DE               ; HL=HL-carry-DE
 459+ 638E DD 75 17       LD (IX+#17),L           ; POKE (IX+#17),L
 460+ 6391 DD 74 18       LD (IX+#18),H           ; POKE (IX+#18),H
 461+ 6394 C9             RET                     ; Return
 462+ 6395              L6011_40:
 463+ 6395 78             LD A,B                  ; A=B
 464+ 6396 B1             OR C                    ; A=A|C
 465+ 6397 20 D9          JR NZ,L6011_38          ; Jump to L6011_38 if A>0
 466+ 6399 7D             LD A,L                  ; A=L
 467+ 639A B4             OR H                    ; A=A|H
 468+ 639B 28 D5          JR Z,L6011_38           ; Jump to L6011_38 if A=0
 469+ 639D 19             ADD HL,DE               ; HL=HL+DE
 470+ 639E 2B             DEC HL                  ; HL=HL-1
 471+ 639F 2B             DEC HL                  ; HL=HL-1
 472+ 63A0 7E             LD A,(HL)               ; A=PEEK HL
 473+ 63A1 DD 77 0C       LD (IX+#0C),A           ; POKE (IX+#0C),A
 474+ 63A4 2B             DEC HL                  ; HL=HL-1
 475+ 63A5 7E             LD A,(HL)               ; A=PEEK HL
 476+ 63A6 DD 77 11       LD (IX+#11),A           ; POKE (IX+#11),A
 477+ 63A9 2B             DEC HL                  ; HL=HL-1
 478+ 63AA 7E             LD A,(HL)               ; A=PEEK HL
 479+ 63AB DD 77 10       LD (IX+#10),A           ; POKE (IX+#10),A
 480+ 63AE 18 DB          JR L6011_39             ; Jump to L6011_39
 481+ 63B0              L6011_41:
 482+ 63B0 21 D3 81       LD HL,#81D3             ; HL=#81D3
 483+ 63B3              L6011_42:
 484+ 63B3 CD DE 90       CALL L8531_149          ; CALL L8531_149
 485+ 63B6 DD E5          PUSH IX                 ; Push IX onto the stack
 486+ 63B8 E1             POP HL                  ; Pop last item from stack into HL
 487+ 63B9 CD 3F 88       CALL L8531_36           ; CALL L8531_36
 488+ 63BC DD 77 1D       LD (IX+#1D),A           ; POKE (IX+#1D),A
 489+ 63BF DD 36 1C 00    LD (IX+#1C),#00         ; POKE (IX+#1C),0
 490+ 63C3 CD 68 68       CALL L6011_104          ; CALL L6011_104
 491+ 63C6 18 10          JR L6011_45             ; Jump to L6011_45
 492+ 63C8              L6011_43:
 493+ 63C8 21 E6 81       LD HL,#81E6             ; HL=#81E6
 494+ 63CB 18 E6          JR L6011_42             ; Jump to L6011_42
 495+ 63CD              ; This entry point is used by the routine at L9B7C.
 496+ 63CD              L6011_44:
 497+ 63CD 3A 0E 60       LD A,(#600E)            ; A=PEEK #600E
 498+ 63D0 D6 01          SUB #01                 ; A=A-#01
 499+ 63D2 DD 77 05       LD (IX+#05),A           ; POKE (IX+#05),A
 500+ 63D5 CD 2C 79       CALL #792C              ; CALL 792C
 501+ 63D8              L6011_45:
 502+ 63D8 CD 03 40       CALL #4003              ; CALL 4003
 503+ 63DB 20 D3          JR NZ,L6011_41          ; Jump to L6011_41 if the zero flag is not set
 504+ 63DD CD 09 40       CALL #4009              ; CALL 4009
 505+ 63E0 20 E6          JR NZ,L6011_43          ; Jump to L6011_43 if the zero flag is not set
 506+ 63E2 21 28 7F       LD HL,#7F28             ; HL=#7F28
 507+ 63E5 06 04          LD B,#04                ; B=#04
 508+ 63E7 CD 99 69       CALL L6011_129          ; CALL L6011_129
 509+ 63EA C3 D4 62       JP L6011_31             ; Jump to L6011_31
 510+ 63ED              ; This entry point is used by the routines at L8531 and L9B7C.
 511+ 63ED              L6011_46:
 512+ 63ED CD CD 63       CALL L6011_44           ; CALL L6011_44
 513+ 63F0              ; This entry point is used by the routines at L8531 and L9B7C.
 514+ 63F0              L6011_47:
 515+ 63F0 CD 07 64       CALL L6011_49           ; CALL L6011_49
 516+ 63F3 CD AA 62       CALL L6011_29           ; CALL L6011_29
 517+ 63F6 CD BB 65       CALL L6011_78           ; CALL L6011_78
 518+ 63F9 CD 52 62       CALL L6011_19           ; CALL L6011_19
 519+ 63FC AF             XOR A                   ; A=0
 520+ 63FD C9             RET                     ; Return
 521+ 63FE              L6011_48:
 522+ 63FE CD EB 62       CALL L6011_32           ; CALL L6011_32
 523+ 6401 CD 55 63       CALL L6011_37           ; CALL L6011_37
 524+ 6404 C3 F0 63       JP L6011_47             ; Jump to L6011_47
 525+ 6407              L6011_49:
 526+ 6407 CD 8C A0       CALL L9B7C_63           ; CALL L9B7C_63
 527+ 640A 21 28 7F       LD HL,#7F28             ; HL=#7F28
 528+ 640D CD 1E 40       CALL #401E              ; CALL 401E
 529+ 6410 AF             XOR A                   ; A=0
 530+ 6411 DD 77 12       LD (IX+#12),A           ; POKE (IX+#12),A
 531+ 6414 DD 77 13       LD (IX+#13),A           ; POKE (IX+#13),A
 532+ 6417 3C             INC A                   ; A=A+1
 533+ 6418 DD 77 1A       LD (IX+#1A),A           ; POKE (IX+#1A),A
 534+ 641B CD E6 68       CALL L6011_119          ; CALL L6011_119
 535+ 641E CD F1 68       CALL L6011_120          ; CALL L6011_120
 536+ 6421 AF             XOR A                   ; A=0
 537+ 6422 32 11 C0       LD (#C011),A            ; POKE #C011,A
 538+ 6425 11 00 C0       LD DE,LC000             ; DE=#C000
 539+ 6428 D5             PUSH DE                 ; Push DE onto the stack
 540+ 6429 CD 5F 65       CALL L6011_71           ; CALL L6011_71
 541+ 642C CD 57 40       CALL #4057              ; CALL 4057
 542+ 642F CD 6D 65       CALL L6011_72           ; CALL L6011_72
 543+ 6432 42             LD B,D                  ; B=D
 544+ 6433 4B             LD C,E                  ; C=E
 545+ 6434 21 FF 7F       LD HL,#7FFF             ; HL=#7FFF
 546+ 6437 D1             POP DE                  ; Pop last item from stack into DE
 547+ 6438 CA BF 64       JP Z,L6011_57           ; Jump to L6011_57 if the zero flag is set
 548+ 643B 21 10 00       LD HL,#0010             ; HL=#0010
 549+ 643E 19             ADD HL,DE               ; HL=HL+DE
 550+ 643F 7E             LD A,(HL)               ; A=PEEK HL
 551+ 6440 B7             OR A                    ; Clear the carry flag and set the zero flag if A=0
 552+ 6441 20 09          JR NZ,L6011_50          ; Jump to L6011_50 if A>0
 553+ 6443 23             INC HL                  ; HL=HL+1
 554+ 6444 7E             LD A,(HL)               ; A=PEEK HL
 555+ 6445 FE 2E          CP #2E                  ; Set the zero flag if A=#2E, or the carry flag if
 556+ 6447                                        ; A<#2E
 557+ 6447 20 03          JR NZ,L6011_50          ; Jump to L6011_50 if A<>#2E
 558+ 6449 23             INC HL                  ; HL=HL+1
 559+ 644A 7E             LD A,(HL)               ; A=PEEK HL
 560+ 644B B7             OR A                    ; Clear the carry flag and set the zero flag if A=0
 561+ 644C              L6011_50:
 562+ 644C 21 00 80       LD HL,L7EA0_0           ; HL=#8000
 563+ 644F 11 00 C0       LD DE,LC000             ; DE=#C000
 564+ 6452 28 13          JR Z,L6011_51           ; Jump to L6011_51 if the zero flag is set
 565+ 6454 DD 7E 1A       LD A,(IX+#1A)           ; A=PEEK (IX+#1A)
 566+ 6457 77             LD (HL),A               ; POKE HL,A
 567+ 6458 2C             INC L                   ; L=L+1
 568+ 6459 73             LD (HL),E               ; POKE HL,E
 569+ 645A 2C             INC L                   ; L=L+1
 570+ 645B 72             LD (HL),D               ; POKE HL,D
 571+ 645C 2C             INC L                   ; L=L+1
 572+ 645D 3A 4F 7F       LD A,(#7F4F)            ; A=PEEK #7F4F
 573+ 6460 77             LD (HL),A               ; POKE HL,A
 574+ 6461 23             INC HL                  ; HL=HL+1
 575+ 6462 50             LD D,B                  ; D=B
 576+ 6463 59             LD E,C                  ; E=C
 577+ 6464 DD 34 12       INC (IX+#12)            ; POKE (IX+#12),(PEEK (IX+#12))+1
 578+ 6467              L6011_51:
 579+ 6467 2B             DEC HL                  ; HL=HL-1
 580+ 6468              L6011_52:
 581+ 6468 7A             LD A,D                  ; A=D
 582+ 6469 FE FE          CP #FE                  ; Set the zero flag if A=#FE, or the carry flag if
 583+ 646B                                        ; A<#FE
 584+ 646B 38 09          JR C,L6011_53           ; Jump to L6011_53 if A<#FE
 585+ 646D DD 34 1A       INC (IX+#1A)            ; POKE (IX+#1A),(PEEK (IX+#1A))+1
 586+ 6470 CD E6 68       CALL L6011_119          ; CALL L6011_119
 587+ 6473 11 00 C0       LD DE,LC000             ; DE=#C000
 588+ 6476              L6011_53:
 589+ 6476 DD 7E 1A       LD A,(IX+#1A)           ; A=PEEK (IX+#1A)
 590+ 6479 FE 09          CP #09                  ; Set the zero flag if A=#09, or the carry flag if
 591+ 647B                                        ; A<#09
 592+ 647B 30 42          JR NC,L6011_57          ; Jump to L6011_57 if A>=#09
 593+ 647D 4F             LD C,A                  ; C=A
 594+ 647E 7C             LD A,H                  ; A=H
 595+ 647F FE 80          CP #80                  ; Set the zero flag if A=#80, or the carry flag if
 596+ 6481                                        ; A<#80
 597+ 6481 38 04          JR C,L6011_54           ; Jump to L6011_54 if A<#80
 598+ 6483 3A 4F 7F       LD A,(#7F4F)            ; A=PEEK #7F4F
 599+ 6486 77             LD (HL),A               ; POKE HL,A
 600+ 6487              L6011_54:
 601+ 6487 23             INC HL                  ; HL=HL+1
 602+ 6488 7C             LD A,H                  ; A=H
 603+ 6489 FE BF          CP #BF                  ; Set the zero flag if A=#BF, or the carry flag if
 604+ 648B                                        ; A<#BF
 605+ 648B C2 93 64       JP NZ,L6011_55          ; Jump to L6011_55 if A<>#BF
 606+ 648E 7D             LD A,L                  ; A=L
 607+ 648F FE FC          CP #FC                  ; Set the zero flag if A=#FC, or the carry flag if
 608+ 6491                                        ; A<#FC
 609+ 6491 28 2C          JR Z,L6011_57           ; Jump to L6011_57 if A=#FC
 610+ 6493              L6011_55:
 611+ 6493 71             LD (HL),C               ; POKE HL,C
 612+ 6494 2C             INC L                   ; L=L+1
 613+ 6495 73             LD (HL),E               ; POKE HL,E
 614+ 6496 2C             INC L                   ; L=L+1
 615+ 6497 72             LD (HL),D               ; POKE HL,D
 616+ 6498 2C             INC L                   ; L=L+1
 617+ 6499 DD 34 12       INC (IX+#12)            ; POKE (IX+#12),(PEEK (IX+#12))+1
 618+ 649C C2 A2 64       JP NZ,L6011_56          ; Jump to L6011_56 if (PEEK (IX+#12))>0
 619+ 649F DD 34 13       INC (IX+#13)            ; POKE (IX+#13),(PEEK (IX+#13))+1
 620+ 64A2              L6011_56:
 621+ 64A2 E5             PUSH HL                 ; Push HL onto the stack
 622+ 64A3 CD 5F 65       CALL L6011_71           ; CALL L6011_71
 623+ 64A6 CD 57 40       CALL #4057              ; CALL 4057
 624+ 64A9 CD 6D 65       CALL L6011_72           ; CALL L6011_72
 625+ 64AC E1             POP HL                  ; Pop last item from stack into HL
 626+ 64AD 20 B9          JR NZ,L6011_52          ; Jump to L6011_52 if the zero flag is not set
 627+ 64AF 2B             DEC HL                  ; HL=HL-1
 628+ 64B0 2B             DEC HL                  ; HL=HL-1
 629+ 64B1 2B             DEC HL                  ; HL=HL-1
 630+ 64B2 2B             DEC HL                  ; HL=HL-1
 631+ 64B3 DD 35 12       DEC (IX+#12)            ; POKE (IX+#12),(PEEK (IX+#12))-1
 632+ 64B6 DD 7E 12       LD A,(IX+#12)           ; A=PEEK (IX+#12)
 633+ 64B9 3C             INC A                   ; A=A+1
 634+ 64BA 20 03          JR NZ,L6011_57          ; Jump to L6011_57 if A>0
 635+ 64BC DD 35 13       DEC (IX+#13)            ; POKE (IX+#13),(PEEK (IX+#13))-1
 636+ 64BF              L6011_57:
 637+ 64BF AF             XOR A                   ; A=0
 638+ 64C0 23             INC HL                  ; HL=HL+1
 639+ 64C1 77             LD (HL),A               ; POKE HL,A
 640+ 64C2 2C             INC L                   ; L=L+1
 641+ 64C3 77             LD (HL),A               ; POKE HL,A
 642+ 64C4 2C             INC L                   ; L=L+1
 643+ 64C5 77             LD (HL),A               ; POKE HL,A
 644+ 64C6 3E 02          LD A,#02                ; A=#02
 645+ 64C8 CD B1 68       CALL L6011_110          ; CALL L6011_110
 646+ 64CB DD 7E 1A       LD A,(IX+#1A)           ; A=PEEK (IX+#1A)
 647+ 64CE FE 01          CP #01                  ; Set the zero flag if A=#01, or the carry flag if
 648+ 64D0                                        ; A<#01
 649+ 64D0 C0             RET NZ                  ; Return if A<>#01
 650+ 64D1 DD 7E 13       LD A,(IX+#13)           ; A=PEEK (IX+#13)
 651+ 64D4 B7             OR A                    ; Clear the carry flag and set the zero flag if A=0
 652+ 64D5 20 07          JR NZ,L6011_58          ; Jump to L6011_58 if A>0
 653+ 64D7 DD 7E 12       LD A,(IX+#12)           ; A=PEEK (IX+#12)
 654+ 64DA FE C8          CP #C8                  ; Set the zero flag if A=#C8, or the carry flag if
 655+ 64DC                                        ; A<#C8
 656+ 64DC 38 1A          JR C,L6011_59           ; Jump to L6011_59 if A<#C8
 657+ 64DE              L6011_58:
 658+ 64DE DD E5          PUSH IX                 ; Push IX onto the stack
 659+ 64E0 DD 21 70 80    LD IX,#8070             ; IX=#8070
 660+ 64E4 CD 2C 79       CALL #792C              ; CALL 792C
 661+ 64E7 DD E1          POP IX                  ; Pop last item from stack into IX
 662+ 64E9 CD F8 64       CALL L6011_59           ; CALL L6011_59
 663+ 64EC DD E5          PUSH IX                 ; Push IX onto the stack
 664+ 64EE DD 21 70 80    LD IX,#8070             ; IX=#8070
 665+ 64F2 CD CE 7A       CALL L7828_38           ; CALL L7828_38
 666+ 64F5 DD E1          POP IX                  ; Pop last item from stack into IX
 667+ 64F7 C9             RET                     ; Return
 668+ 64F8              L6011_59:
 669+ 64F8 3E 06          LD A,#06                ; A=#06
 670+ 64FA CD 99 6A       CALL L6011_143          ; CALL L6011_143
 671+ 64FD CD F4 A4       CALL L9B7C_121          ; CALL L9B7C_121
 672+ 6500 CD 7D 68       CALL L6011_105          ; CALL L6011_105
 673+ 6503 C3 97 6A       JP L6011_142            ; Jump to L6011_142
 674+ 6506              L6011_60:
 675+ 6506 4E             LD C,(HL)               ; C=PEEK HL
 676+ 6507 23             INC HL                  ; HL=HL+1
 677+ 6508 06 08          LD B,#08                ; B=#08
 678+ 650A              L6011_61:
 679+ 650A 7E             LD A,(HL)               ; A=PEEK HL
 680+ 650B B7             OR A                    ; Clear the carry flag and set the zero flag if A=0
 681+ 650C 28 2C          JR Z,L6011_64           ; Jump to L6011_64 if A=0
 682+ 650E FE 2E          CP #2E                  ; Set the zero flag if A=#2E, or the carry flag if
 683+ 6510                                        ; A<#2E
 684+ 6510 28 48          JR Z,L6011_70           ; Jump to L6011_70 if A=#2E
 685+ 6512 12             LD (DE),A               ; POKE DE,A
 686+ 6513 23             INC HL                  ; HL=HL+1
 687+ 6514 13             INC DE                  ; DE=DE+1
 688+ 6515 10 F3          DJNZ L6011_61           ; Decrement B and jump to L6011_61 if B>0
 689+ 6517 7E             LD A,(HL)               ; A=PEEK HL
 690+ 6518 B7             OR A                    ; Clear the carry flag and set the zero flag if A=0
 691+ 6519 28 1F          JR Z,L6011_64           ; Jump to L6011_64 if A=0
 692+ 651B 79             LD A,C                  ; A=C
 693+ 651C B7             OR A                    ; Clear the carry flag and set the zero flag if A=0
 694+ 651D 28 1B          JR Z,L6011_64           ; Jump to L6011_64 if A=0
 695+ 651F              L6011_62:
 696+ 651F AF             XOR A                   ; A=0
 697+ 6520 01 00 01       LD BC,#0100             ; BC=#0100
 698+ 6523 ED B1          CPIR                    ; Compare A with PEEK HL; HL=HL+1; BC=BC-1; repeat
 699+ 6525                                        ; until BC=0 or A=PEEK HL
 700+ 6525 2B             DEC HL                  ; HL=HL-1
 701+ 6526 3E FF          LD A,#FF                ; A=#FF
 702+ 6528 91             SUB C                   ; A=A-C
 703+ 6529 28 0F          JR Z,L6011_64           ; Jump to L6011_64 if A=0
 704+ 652B FE 04          CP #04                  ; Set the zero flag if A=#04, or the carry flag if
 705+ 652D                                        ; A<#04
 706+ 652D 47             LD B,A                  ; B=A
 707+ 652E 38 02          JR C,L6011_63           ; Jump to L6011_63 if the carry flag is set
 708+ 6530 06 04          LD B,#04                ; B=#04
 709+ 6532              L6011_63:
 710+ 6532 2B             DEC HL                  ; HL=HL-1
 711+ 6533 7E             LD A,(HL)               ; A=PEEK HL
 712+ 6534 FE 2E          CP #2E                  ; Set the zero flag if A=#2E, or the carry flag if
 713+ 6536                                        ; A<#2E
 714+ 6536 28 0C          JR Z,L6011_67           ; Jump to L6011_67 if A=#2E
 715+ 6538 10 F8          DJNZ L6011_63           ; Decrement B and jump to L6011_63 if B>0
 716+ 653A              L6011_64:
 717+ 653A 04             INC B                   ; B=B+1
 718+ 653B 04             INC B                   ; B=B+1
 719+ 653C 04             INC B                   ; B=B+1
 720+ 653D              L6011_65:
 721+ 653D 3E 20          LD A,#20                ; A=#20
 722+ 653F              L6011_66:
 723+ 653F 12             LD (DE),A               ; POKE DE,A
 724+ 6540 13             INC DE                  ; DE=DE+1
 725+ 6541 10 FC          DJNZ L6011_66           ; Decrement B and jump to L6011_66 if B>0
 726+ 6543 C9             RET                     ; Return
 727+ 6544              L6011_67:
 728+ 6544 06 03          LD B,#03                ; B=#03
 729+ 6546              L6011_68:
 730+ 6546 23             INC HL                  ; HL=HL+1
 731+ 6547 7E             LD A,(HL)               ; A=PEEK HL
 732+ 6548 B7             OR A                    ; Clear the carry flag and set the zero flag if A=0
 733+ 6549 28 F2          JR Z,L6011_65           ; Jump to L6011_65 if A=0
 734+ 654B FE 40          CP #40                  ; Set the zero flag if A=#40, or the carry flag if
 735+ 654D                                        ; A<#40
 736+ 654D 38 06          JR C,L6011_69           ; Jump to L6011_69 if A<#40
 737+ 654F FE 80          CP #80                  ; Set the zero flag if A=#80, or the carry flag if
 738+ 6551                                        ; A<#80
 739+ 6551 30 02          JR NC,L6011_69          ; Jump to L6011_69 if A>=#80
 740+ 6553 CB AF          RES 5,A                 ; Reset bit 5 of A
 741+ 6555              L6011_69:
 742+ 6555 12             LD (DE),A               ; POKE DE,A
 743+ 6556 13             INC DE                  ; DE=DE+1
 744+ 6557 10 ED          DJNZ L6011_68           ; Decrement B and jump to L6011_68 if B>0
 745+ 6559 C9             RET                     ; Return
 746+ 655A              L6011_70:
 747+ 655A CD 3D 65       CALL L6011_65           ; CALL L6011_65
 748+ 655D 18 C0          JR L6011_62             ; Jump to L6011_62
 749+ 655F              L6011_71:
 750+ 655F ED 53 51 7F    LD (#7F51),DE           ; POKE #7F51,E; POKE #7F52,D
 751+ 6563 AF             XOR A                   ; A=0
 752+ 6564 12             LD (DE),A               ; POKE DE,A
 753+ 6565 13             INC DE                  ; DE=DE+1
 754+ 6566 12             LD (DE),A               ; POKE DE,A
 755+ 6567 13             INC DE                  ; DE=DE+1
 756+ 6568 12             LD (DE),A               ; POKE DE,A
 757+ 6569 13             INC DE                  ; DE=DE+1
 758+ 656A 12             LD (DE),A               ; POKE DE,A
 759+ 656B 13             INC DE                  ; DE=DE+1
 760+ 656C C9             RET                     ; Return
 761+ 656D              L6011_72:
 762+ 656D 08             EX AF,AF'               ; Exchange AF and AF'
 763+ 656E D5             PUSH DE                 ; Push DE onto the stack
 764+ 656F 2A 51 7F       LD HL,(#7F51)           ; L=PEEK #7F51; H=PEEK #7F52
 765+ 6572 01 10 00       LD BC,#0010             ; BC=#0010
 766+ 6575 09             ADD HL,BC               ; HL=HL+BC
 767+ 6576 7E             LD A,(HL)               ; A=PEEK HL
 768+ 6577 B7             OR A                    ; Clear the carry flag and set the zero flag if A=0
 769+ 6578 28 2D          JR Z,L6011_77           ; Jump to L6011_77 if A=0
 770+ 657A 62             LD H,D                  ; H=D
 771+ 657B 6B             LD L,E                  ; L=E
 772+ 657C ED 5B 51 7F    LD DE,(#7F51)           ; E=PEEK #7F51; D=PEEK #7F52
 773+ 6580 13             INC DE                  ; DE=DE+1
 774+ 6581 2B             DEC HL                  ; HL=HL-1
 775+ 6582 2B             DEC HL                  ; HL=HL-1
 776+ 6583 FE 2E          CP #2E                  ; Set the zero flag if A=#2E, or the carry flag if
 777+ 6585                                        ; A<#2E
 778+ 6585 28 20          JR Z,L6011_77           ; Jump to L6011_77 if A=#2E
 779+ 6587 06 04          LD B,#04                ; B=#04
 780+ 6589 3E 2E          LD A,#2E                ; A=#2E
 781+ 658B              L6011_73:
 782+ 658B 2B             DEC HL                  ; HL=HL-1
 783+ 658C BE             CP (HL)                 ; Set the zero flag if A=PEEK HL, or the carry flag
 784+ 658D                                        ; if A<PEEK HL
 785+ 658D 28 02          JR Z,L6011_74           ; Jump to L6011_74 if A=PEEK HL
 786+ 658F 10 FA          DJNZ L6011_73           ; Decrement B and jump to L6011_73 if B>0
 787+ 6591              L6011_74:
 788+ 6591 23             INC HL                  ; HL=HL+1
 789+ 6592 06 03          LD B,#03                ; B=#03
 790+ 6594              L6011_75:
 791+ 6594 7E             LD A,(HL)               ; A=PEEK HL
 792+ 6595 B7             OR A                    ; Clear the carry flag and set the zero flag if A=0
 793+ 6596 28 0F          JR Z,L6011_77           ; Jump to L6011_77 if A=0
 794+ 6598 FE 5B          CP #5B                  ; Set the zero flag if A=#5B, or the carry flag if
 795+ 659A                                        ; A<#5B
 796+ 659A 30 06          JR NC,L6011_76          ; Jump to L6011_76 if A>=#5B
 797+ 659C FE 41          CP #41                  ; Set the zero flag if A=#41, or the carry flag if
 798+ 659E                                        ; A<#41
 799+ 659E 38 02          JR C,L6011_76           ; Jump to L6011_76 if A<#41
 800+ 65A0 CB EF          SET 5,A                 ; Set bit 5 of A
 801+ 65A2              L6011_76:
 802+ 65A2 12             LD (DE),A               ; POKE DE,A
 803+ 65A3 23             INC HL                  ; HL=HL+1
 804+ 65A4 13             INC DE                  ; DE=DE+1
 805+ 65A5 10 ED          DJNZ L6011_75           ; Decrement B and jump to L6011_75 if B>0
 806+ 65A7              L6011_77:
 807+ 65A7 D1             POP DE                  ; Pop last item from stack into DE
 808+ 65A8 62             LD H,D                  ; H=D
 809+ 65A9 6B             LD L,E                  ; L=E
 810+ 65AA ED 4B 51 7F    LD BC,(#7F51)           ; C=PEEK #7F51; B=PEEK #7F52
 811+ 65AE B7             OR A                    ; Clear the carry flag and set the zero flag if A=0
 812+ 65AF ED 42          SBC HL,BC               ; HL=HL-carry-BC
 813+ 65B1 01 13 00       LD BC,#0013             ; BC=#0013
 814+ 65B4 ED 42          SBC HL,BC               ; HL=HL-carry-BC
 815+ 65B6 22 4F 7F       LD (#7F4F),HL           ; POKE #7F4F,L; POKE #7F50,H
 816+ 65B9 08             EX AF,AF'               ; Exchange AF and AF'
 817+ 65BA C9             RET                     ; Return
 818+ 65BB              ; This entry point is used by the routines at L8531 and L9B7C.
 819+ 65BB              L6011_78:
 820+ 65BB AF             XOR A                   ; A=0
 821+ 65BC DD 77 0D       LD (IX+#0D),A           ; POKE (IX+#0D),A
 822+ 65BF DD 77 14       LD (IX+#14),A           ; POKE (IX+#14),A
 823+ 65C2 DD 77 15       LD (IX+#15),A           ; POKE (IX+#15),A
 824+ 65C5 3C             INC A                   ; A=A+1
 825+ 65C6 32 43 7F       LD (#7F43),A            ; POKE #7F43,A
 826+ 65C9 DD 66 11       LD H,(IX+#11)           ; H=PEEK (IX+#11)
 827+ 65CC DD 6E 10       LD L,(IX+#10)           ; L=PEEK (IX+#10)
 828+ 65CF 11 01 01       LD DE,#0101             ; DE=#0101
 829+ 65D2 7C             LD A,H                  ; A=H
 830+ 65D3 B5             OR L                    ; A=A|L
 831+ 65D4 20 04          JR NZ,L6011_79          ; Jump to L6011_79 if A>0
 832+ 65D6 DD 36 15 01    LD (IX+#15),#01         ; POKE (IX+#15),1
 833+ 65DA              L6011_79:
 834+ 65DA E5             PUSH HL                 ; Push HL onto the stack
 835+ 65DB D5             PUSH DE                 ; Push DE onto the stack
 836+ 65DC CD 36 63       CALL L6011_35           ; CALL L6011_35
 837+ 65DF 7C             LD A,H                  ; A=H
 838+ 65E0 B5             OR L                    ; A=A|L
 839+ 65E1 28 63          JR Z,L6011_85           ; Jump to L6011_85 if A=0
 840+ 65E3 7E             LD A,(HL)               ; A=PEEK HL
 841+ 65E4 CB 47          BIT 0,A                 ; Set the zero flag if bit 0 of A is 0
 842+ 65E6 0E 13          LD C,#13                ; C=#13
 843+ 65E8 20 02          JR NZ,L6011_80          ; Jump to L6011_80 if the zero flag is not set
 844+ 65EA 0E 17          LD C,#17                ; C=#17
 845+ 65EC              L6011_80:
 846+ 65EC 11 10 00       LD DE,#0010             ; DE=#0010
 847+ 65EF 19             ADD HL,DE               ; HL=HL+DE
 848+ 65F0 7E             LD A,(HL)               ; A=PEEK HL
 849+ 65F1 B7             OR A                    ; Clear the carry flag and set the zero flag if A=0
 850+ 65F2 79             LD A,C                  ; A=C
 851+ 65F3 20 02          JR NZ,L6011_81          ; Jump to L6011_81 if the zero flag is not set
 852+ 65F5 F6 08          OR #08                  ; Set bit 3 of A
 853+ 65F7              L6011_81:
 854+ 65F7 32 42 7F       LD (#7F42),A            ; POKE #7F42,A
 855+ 65FA 23             INC HL                  ; HL=HL+1
 856+ 65FB 11 A0 5E       LD DE,#5EA0             ; DE=#5EA0
 857+ 65FE DD 7E 04       LD A,(IX+#04)           ; A=PEEK (IX+#04)
 858+ 6601 D6 02          SUB #02                 ; A=A-#02
 859+ 6603 47             LD B,A                  ; B=A
 860+ 6604 4F             LD C,A                  ; C=A
 861+ 6605 AF             XOR A                   ; A=0
 862+ 6606              L6011_82:
 863+ 6606 BE             CP (HL)                 ; Set the zero flag if A=PEEK HL, or the carry flag
 864+ 6607                                        ; if A<PEEK HL
 865+ 6607 28 06          JR Z,L6011_83           ; Jump to L6011_83 if A=PEEK HL
 866+ 6609 ED A0          LDI                     ; POKE DE,PEEK HL; HL=HL+1; DE=DE+1; BC=BC-1
 867+ 660B 10 F9          DJNZ L6011_82           ; Decrement B and jump to L6011_82 if B>0
 868+ 660D 18 04          JR L6011_84             ; Jump to L6011_84
 869+ 660F              L6011_83:
 870+ 660F 12             LD (DE),A               ; POKE DE,A
 871+ 6610 13             INC DE                  ; DE=DE+1
 872+ 6611 10 FC          DJNZ L6011_83           ; Decrement B and jump to L6011_83 if B>0
 873+ 6613              L6011_84:
 874+ 6613 D1             POP DE                  ; Pop last item from stack into DE
 875+ 6614 E1             POP HL                  ; Pop last item from stack into HL
 876+ 6615 23             INC HL                  ; HL=HL+1
 877+ 6616 DD 34 0D       INC (IX+#0D)            ; POKE (IX+#0D),(PEEK (IX+#0D))+1
 878+ 6619 E5             PUSH HL                 ; Push HL onto the stack
 879+ 661A 21 A0 5E       LD HL,#5EA0             ; HL=#5EA0
 880+ 661D DD 7E 04       LD A,(IX+#04)           ; A=PEEK (IX+#04)
 881+ 6620 D6 02          SUB #02                 ; A=A-#02
 882+ 6622 06 00          LD B,#00                ; B=#00
 883+ 6624 4F             LD C,A                  ; C=A
 884+ 6625 CD 25 7D       CALL L7828_72           ; CALL L7828_72
 885+ 6628 14             INC D                   ; D=D+1
 886+ 6629 3A 42 7F       LD A,(#7F42)            ; A=PEEK #7F42
 887+ 662C CD 39 7D       CALL L7828_73           ; CALL L7828_73
 888+ 662F DD 7E 05       LD A,(IX+#05)           ; A=PEEK (IX+#05)
 889+ 6632 D6 02          SUB #02                 ; A=A-#02
 890+ 6634 DD 96 0A       SUB (IX+#0A)            ; A=A-PEEK (IX+#0A)
 891+ 6637 E1             POP HL                  ; Pop last item from stack into HL
 892+ 6638 BA             CP D                    ; Set the zero flag if A=D, or the carry flag if A<D
 893+ 6639 30 9F          JR NC,L6011_79          ; Jump to L6011_79 if A>=D
 894+ 663B CD 36 63       CALL L6011_35           ; CALL L6011_35
 895+ 663E 7C             LD A,H                  ; A=H
 896+ 663F B5             OR L                    ; A=A|L
 897+ 6640 C0             RET NZ                  ; Return if A>0
 898+ 6641 DD 36 14 01    LD (IX+#14),#01         ; POKE (IX+#14),1
 899+ 6645 C9             RET                     ; Return
 900+ 6646              L6011_85:
 901+ 6646 D1             POP DE                  ; Pop last item from stack into DE
 902+ 6647 E1             POP HL                  ; Pop last item from stack into HL
 903+ 6648 DD 36 14 01    LD (IX+#14),#01         ; POKE (IX+#14),1
 904+ 664C              L6011_86:
 905+ 664C 21 A0 5E       LD HL,#5EA0             ; HL=#5EA0
 906+ 664F E5             PUSH HL                 ; Push HL onto the stack
 907+ 6650 06 2B          LD B,#2B                ; B=#2B
 908+ 6652 CD 99 69       CALL L6011_129          ; CALL L6011_129
 909+ 6655 E1             POP HL                  ; Pop last item from stack into HL
 910+ 6656 DD 7E 04       LD A,(IX+#04)           ; A=PEEK (IX+#04)
 911+ 6659 D6 02          SUB #02                 ; A=A-#02
 912+ 665B 06 00          LD B,#00                ; B=#00
 913+ 665D 4F             LD C,A                  ; C=A
 914+ 665E CD 25 7D       CALL L7828_72           ; CALL L7828_72
 915+ 6661 14             INC D                   ; D=D+1
 916+ 6662 3E 17          LD A,#17                ; A=#17
 917+ 6664 CD 39 7D       CALL L7828_73           ; CALL L7828_73
 918+ 6667 DD 7E 05       LD A,(IX+#05)           ; A=PEEK (IX+#05)
 919+ 666A D6 02          SUB #02                 ; A=A-#02
 920+ 666C DD 96 0A       SUB (IX+#0A)            ; A=A-PEEK (IX+#0A)
 921+ 666F BA             CP D                    ; Set the zero flag if A=D, or the carry flag if A<D
 922+ 6670 30 DA          JR NC,L6011_86          ; Jump to L6011_86 if A>=D
 923+ 6672 C9             RET                     ; Return
 924+ 6673              ; This entry point is used by the routines at L8531 and L9149.
 925+ 6673              L6011_87:
 926+ 6673 FE 01          CP #01                  ; Set the zero flag if A=#01, or the carry flag if
 927+ 6675                                        ; A<#01
 928+ 6675 28 40          JR Z,L6011_89           ; Jump to L6011_89 if A=#01
 929+ 6677 FE 02          CP #02                  ; Set the zero flag if A=#02, or the carry flag if
 930+ 6679                                        ; A<#02
 931+ 6679 28 44          JR Z,L6011_90           ; Jump to L6011_90 if A=#02
 932+ 667B FE FF          CP #FF                  ; Set the zero flag if A=#FF, or the carry flag if
 933+ 667D                                        ; A<#FF
 934+ 667D 28 30          JR Z,L6011_88           ; Jump to L6011_88 if A=#FF
 935+ 667F CD 5F 74       CALL L7143_51           ; CALL L7143_51
 936+ 6682 C4 FB 66       CALL NZ,L6011_92        ; CALL L6011_92 if the zero flag is not set
 937+ 6685 CD 65 74       CALL L7143_52           ; CALL L7143_52
 938+ 6688 C4 08 67       CALL NZ,L6011_93        ; CALL L6011_93 if the zero flag is not set
 939+ 668B ED 5B 48 7F    LD DE,(#7F48)           ; E=PEEK #7F48; D=PEEK #7F49
 940+ 668F 21 8B 7F       LD HL,#7F8B             ; HL=#7F8B
 941+ 6692 01 08 00       LD BC,#0008             ; BC=#0008
 942+ 6695 CD 25 7D       CALL L7828_72           ; CALL L7828_72
 943+ 6698 3E F7          LD A,#F7                ; A=#F7
 944+ 669A CD 39 7D       CALL L7828_73           ; CALL L7828_73
 945+ 669D ED 5B 4A 7F    LD DE,(#7F4A)           ; E=PEEK #7F4A; D=PEEK #7F4B
 946+ 66A1 21 93 7F       LD HL,#7F93             ; HL=#7F93
 947+ 66A4 01 08 00       LD BC,#0008             ; BC=#0008
 948+ 66A7 CD 25 7D       CALL L7828_72           ; CALL L7828_72
 949+ 66AA 3E 07          LD A,#07                ; A=#07
 950+ 66AC C3 39 7D       JP L7828_73             ; Jump to L7828_73
 951+ 66AF              L6011_88:
 952+ 66AF 3A 99 66       LD A,(#6699)            ; A=PEEK #6699
 953+ 66B2 21 12 7F       LD HL,#7F12             ; HL=#7F12
 954+ 66B5 BE             CP (HL)                 ; Set the zero flag if A=PEEK HL, or the carry flag
 955+ 66B6                                        ; if A<PEEK HL
 956+ 66B6 C9             RET                     ; Return
 957+ 66B7              L6011_89:
 958+ 66B7 21 8B 7F       LD HL,#7F8B             ; HL=#7F8B
 959+ 66BA 11 93 7F       LD DE,#7F93             ; DE=#7F93
 960+ 66BD 18 06          JR L6011_91             ; Jump to L6011_91
 961+ 66BF              L6011_90:
 962+ 66BF 21 9B 7F       LD HL,#7F9B             ; HL=#7F9B
 963+ 66C2 11 A3 7F       LD DE,#7FA3             ; DE=#7FA3
 964+ 66C5              L6011_91:
 965+ 66C5 22 90 66       LD (#6690),HL           ; POKE #6690,L; POKE #6691,H
 966+ 66C8 ED 53 A2 66    LD (#66A2),DE           ; POKE #66A2,E; POKE #66A3,D
 967+ 66CC DD 7E 06       LD A,(IX+#06)           ; A=PEEK (IX+#06)
 968+ 66CF 07             RLCA                    ; Rotate A left circular (copying bit 7 into bit 0
 969+ 66D0                                        ; and into the carry flag)
 970+ 66D0 07             RLCA                    ; Rotate A left circular (copying bit 7 into bit 0
 971+ 66D1                                        ; and into the carry flag)
 972+ 66D1 07             RLCA                    ; Rotate A left circular (copying bit 7 into bit 0
 973+ 66D2                                        ; and into the carry flag)
 974+ 66D2 07             RLCA                    ; Rotate A left circular (copying bit 7 into bit 0
 975+ 66D3                                        ; and into the carry flag)
 976+ 66D3 32 12 7F       LD (#7F12),A            ; POKE #7F12,A
 977+ 66D6 DD 7E 06       LD A,(IX+#06)           ; A=PEEK (IX+#06)
 978+ 66D9 E6 F0          AND #F0                 ; Keep only bits 4, 5, 6 and 7 of A
 979+ 66DB 07             RLCA                    ; Rotate A left circular (copying bit 7 into bit 0
 980+ 66DC                                        ; and into the carry flag)
 981+ 66DC 07             RLCA                    ; Rotate A left circular (copying bit 7 into bit 0
 982+ 66DD                                        ; and into the carry flag)
 983+ 66DD 07             RLCA                    ; Rotate A left circular (copying bit 7 into bit 0
 984+ 66DE                                        ; and into the carry flag)
 985+ 66DE 07             RLCA                    ; Rotate A left circular (copying bit 7 into bit 0
 986+ 66DF                                        ; and into the carry flag)
 987+ 66DF 32 13 7F       LD (#7F13),A            ; POKE #7F13,A
 988+ 66E2 DD 7E 05       LD A,(IX+#05)           ; A=PEEK (IX+#05)
 989+ 66E5 D6 02          SUB #02                 ; A=A-#02
 990+ 66E7 57             LD D,A                  ; D=A
 991+ 66E8 67             LD H,A                  ; H=A
 992+ 66E9 DD 7E 04       LD A,(IX+#04)           ; A=PEEK (IX+#04)
 993+ 66EC CB 3F          SRL A                   ; Shift A right (copying bit 0 into the carry flag,
 994+ 66EE                                        ; and resetting bit 7)
 995+ 66EE D6 09          SUB #09                 ; A=A-#09
 996+ 66F0 6F             LD L,A                  ; L=A
 997+ 66F1 C6 0A          ADD A,#0A               ; A=A+#0A
 998+ 66F3 5F             LD E,A                  ; E=A
 999+ 66F4 22 48 7F       LD (#7F48),HL           ; POKE #7F48,L; POKE #7F49,H
1000+ 66F7 ED 53 4A 7F    LD (#7F4A),DE           ; POKE #7F4A,E; POKE #7F4B,D
1001+ 66FB              L6011_92:
1002+ 66FB 3A 12 7F       LD A,(#7F12)            ; A=PEEK #7F12
1003+ 66FE 32 99 66       LD (#6699),A            ; POKE #6699,A
1004+ 6701 3A 13 7F       LD A,(#7F13)            ; A=PEEK #7F13
1005+ 6704 32 AB 66       LD (#66AB),A            ; POKE #66AB,A
1006+ 6707 C9             RET                     ; Return
1007+ 6708              L6011_93:
1008+ 6708 3A 13 7F       LD A,(#7F13)            ; A=PEEK #7F13
1009+ 670B 32 99 66       LD (#6699),A            ; POKE #6699,A
1010+ 670E 3A 12 7F       LD A,(#7F12)            ; A=PEEK #7F12
1011+ 6711 32 AB 66       LD (#66AB),A            ; POKE #66AB,A
1012+ 6714 C9             RET                     ; Return
1013+ 6715 F5             PUSH AF                 ; Push AF onto the stack
1014+ 6716 C5             PUSH BC                 ; Push BC onto the stack
1015+ 6717 D5             PUSH DE                 ; Push DE onto the stack
1016+ 6718 E5             PUSH HL                 ; Push HL onto the stack
1017+ 6719 DD E5          PUSH IX                 ; Push IX onto the stack
1018+ 671B D9             EXX                     ; Exchange BC, DE and HL with BC', DE' and HL'
1019+ 671C 08             EX AF,AF'               ; Exchange AF and AF'
1020+ 671D F5             PUSH AF                 ; Push AF onto the stack
1021+ 671E C5             PUSH BC                 ; Push BC onto the stack
1022+ 671F D5             PUSH DE                 ; Push DE onto the stack
1023+ 6720 E5             PUSH HL                 ; Push HL onto the stack
1024+ 6721 2A 09 60       LD HL,(#6009)           ; L=PEEK #6009; H=PEEK #600A
1025+ 6724 23             INC HL                  ; HL=HL+1
1026+ 6725 22 09 60       LD (#6009),HL           ; POKE #6009,L; POKE #600A,H
1027+ 6728 3A 4C 7F       LD A,(#7F4C)            ; A=PEEK #7F4C
1028+ 672B B7             OR A                    ; Clear the carry flag and set the zero flag if A=0
1029+ 672C C4 86 6F       CALL NZ,L6011_233       ; CALL L6011_233 if A>0
1030+ 672F CD 5A 67       CALL L6011_94           ; CALL L6011_94
1031+ 6732 3A 4E 7F       LD A,(#7F4E)            ; A=PEEK #7F4E
1032+ 6735 B7             OR A                    ; Clear the carry flag and set the zero flag if A=0
1033+ 6736 C4 B8 75       CALL NZ,L7143_101       ; CALL L7143_101 if A>0
1034+ 6739 3A 4D 7F       LD A,(#7F4D)            ; A=PEEK #7F4D
1035+ 673C B7             OR A                    ; Clear the carry flag and set the zero flag if A=0
1036+ 673D C4 83 67       CALL NZ,L6011_97        ; CALL L6011_97 if A>0
1037+ 6740 CD E8 74       CALL L7143_79           ; CALL L7143_79
1038+ 6743 C4 7D 67       CALL NZ,L6011_96        ; CALL L6011_96 if the zero flag is not set
1039+ 6746 CD E1 74       CALL L7143_78           ; CALL L7143_78
1040+ 6749 C4 77 67       CALL NZ,L6011_95        ; CALL L6011_95 if the zero flag is not set
1041+ 674C E1             POP HL                  ; Pop last item from stack into HL
1042+ 674D D1             POP DE                  ; Pop last item from stack into DE
1043+ 674E C1             POP BC                  ; Pop last item from stack into BC
1044+ 674F F1             POP AF                  ; Pop last item from stack into AF
1045+ 6750 D9             EXX                     ; Exchange BC, DE and HL with BC', DE' and HL'
1046+ 6751 08             EX AF,AF'               ; Exchange AF and AF'
1047+ 6752 DD E1          POP IX                  ; Pop last item from stack into IX
1048+ 6754 E1             POP HL                  ; Pop last item from stack into HL
1049+ 6755 D1             POP DE                  ; Pop last item from stack into DE
1050+ 6756 C1             POP BC                  ; Pop last item from stack into BC
1051+ 6757 F1             POP AF                  ; Pop last item from stack into AF
1052+ 6758 FB             EI                      ; Enable interrupts
1053+ 6759 C9             RET                     ; Return
1054+ 675A              L6011_94:
1055+ 675A 21 56 7F       LD HL,#7F56             ; HL=#7F56
1056+ 675D 01 AF 02       LD BC,#02AF             ; BC=#02AF
1057+ 6760 ED A3          OUTI                    ; B=B-1; OUT BC,PEEK HL; HL=HL+1
1058+ 6762 06 01          LD B,#01                ; B=#01
1059+ 6764 ED A3          OUTI                    ; B=B-1; OUT BC,PEEK HL; HL=HL+1
1060+ 6766 06 05          LD B,#05                ; B=#05
1061+ 6768 ED A3          OUTI                    ; B=B-1; OUT BC,PEEK HL; HL=HL+1
1062+ 676A 06 06          LD B,#06                ; B=#06
1063+ 676C ED A3          OUTI                    ; B=B-1; OUT BC,PEEK HL; HL=HL+1
1064+ 676E 06 03          LD B,#03                ; B=#03
1065+ 6770 ED A3          OUTI                    ; B=B-1; OUT BC,PEEK HL; HL=HL+1
1066+ 6772 06 04          LD B,#04                ; B=#04
1067+ 6774 ED A3          OUTI                    ; B=B-1; OUT BC,PEEK HL; HL=HL+1
1068+ 6776 C9             RET                     ; Return
1069+ 6777              L6011_95:
1070+ 6777 3E 01          LD A,#01                ; A=#01
1071+ 6779 32 05 60       LD (#6005),A            ; POKE #6005,A
1072+ 677C C9             RET                     ; Return
1073+ 677D              L6011_96:
1074+ 677D 3E 01          LD A,#01                ; A=#01
1075+ 677F 32 04 60       LD (#6004),A            ; POKE #6004,A
1076+ 6782 C9             RET                     ; Return
1077+ 6783              L6011_97:
1078+ 6783 21 60 7F       LD HL,#7F60             ; HL=#7F60
1079+ 6786 7E             LD A,(HL)               ; A=PEEK HL
1080+ 6787 B7             OR A                    ; Clear the carry flag and set the zero flag if A=0
1081+ 6788 28 1C          JR Z,L6011_98           ; Jump to L6011_98 if A=0
1082+ 678A 35             DEC (HL)                ; POKE HL,(PEEK HL)-1
1083+ 678B 7E             LD A,(HL)               ; A=PEEK HL
1084+ 678C 86             ADD A,(HL)              ; A=A+PEEK HL
1085+ 678D 86             ADD A,(HL)              ; A=A+PEEK HL
1086+ 678E 06 00          LD B,#00                ; B=#00
1087+ 6790 4F             LD C,A                  ; C=A
1088+ 6791 96             SUB (HL)                ; A=A-PEEK HL
1089+ 6792 21 69 7F       LD HL,#7F69             ; HL=#7F69
1090+ 6795 B7             OR A                    ; Clear the carry flag and set the zero flag if A=0
1091+ 6796 ED 42          SBC HL,BC               ; HL=HL-carry-BC
1092+ 6798 01 F7 DF       LD BC,#DFF7             ; BC=#DFF7
1093+ 679B ED 79          OUT (C),A               ; OUT BC,A
1094+ 679D 06 BF          LD B,#BF                ; B=#BF
1095+ 679F ED 78          IN A,(C)                ; A=IN BC
1096+ 67A1 CD 26 6A       CALL L6011_135          ; CALL L6011_135
1097+ 67A4 18 0D          JR L6011_99             ; Jump to L6011_99
1098+ 67A6              L6011_98:
1099+ 67A6 23             INC HL                  ; HL=HL+1
1100+ 67A7 7E             LD A,(HL)               ; A=PEEK HL
1101+ 67A8 3D             DEC A                   ; A=A-1
1102+ 67A9 77             LD (HL),A               ; POKE HL,A
1103+ 67AA C0             RET NZ                  ; Return if the zero flag is not set
1104+ 67AB 23             INC HL                  ; HL=HL+1
1105+ 67AC 7E             LD A,(HL)               ; A=PEEK HL
1106+ 67AD 2B             DEC HL                  ; HL=HL-1
1107+ 67AE 77             LD (HL),A               ; POKE HL,A
1108+ 67AF 2B             DEC HL                  ; HL=HL-1
1109+ 67B0 36 03          LD (HL),#03             ; POKE HL,#03
1110+ 67B2 C9             RET                     ; Return
1111+ 67B3              L6011_99:
1112+ 67B3 AF             XOR A                   ; A=0
1113+ 67B4 CD CC 68       CALL L6011_115          ; CALL L6011_115
1114+ 67B7 11 63 7F       LD DE,#7F63             ; DE=#7F63
1115+ 67BA 21 F8 BF       LD HL,#BFF8             ; HL=#BFF8
1116+ 67BD ED 4B 1D 7F    LD BC,(#7F1D)           ; C=PEEK #7F1D; B=PEEK #7F1E
1117+ 67C1 09             ADD HL,BC               ; HL=HL+BC
1118+ 67C2 EB             EX DE,HL                ; Exchange DE and HL
1119+ 67C3 01 08 00       LD BC,#0008             ; BC=#0008
1120+ 67C6 ED B0          LDIR                    ; POKE DE,PEEK HL; HL=HL+1; DE=DE+1; BC=BC-1; repeat
1121+ 67C8                                        ; until BC=0
1122+ 67C8 C3 BE 68       JP L6011_113            ; Jump to L6011_113
1123+ 67CB              L6011_100:
1124+ 67CB 16 00          LD D,#00                ; D=#00
1125+ 67CD 3E 02          LD A,#02                ; A=#02
1126+ 67CF CD 32 68       CALL L6011_101          ; CALL L6011_101
1127+ 67D2 5F             LD E,A                  ; E=A
1128+ 67D3 CB 23          SLA E                   ; Shift E left (copying bit 7 into the carry flag,
1129+ 67D5                                        ; and resetting bit 0)
1130+ 67D5 CB 12          RL D                    ; Rotate D left through the carry flag
1131+ 67D7 CB 23          SLA E                   ; Shift E left (copying bit 7 into the carry flag,
1132+ 67D9                                        ; and resetting bit 0)
1133+ 67D9 CB 12          RL D                    ; Rotate D left through the carry flag
1134+ 67DB CB 23          SLA E                   ; Shift E left (copying bit 7 into the carry flag,
1135+ 67DD                                        ; and resetting bit 0)
1136+ 67DD CB 12          RL D                    ; Rotate D left through the carry flag
1137+ 67DF CB 23          SLA E                   ; Shift E left (copying bit 7 into the carry flag,
1138+ 67E1                                        ; and resetting bit 0)
1139+ 67E1 CB 12          RL D                    ; Rotate D left through the carry flag
1140+ 67E3 CB 23          SLA E                   ; Shift E left (copying bit 7 into the carry flag,
1141+ 67E5                                        ; and resetting bit 0)
1142+ 67E5 CB 12          RL D                    ; Rotate D left through the carry flag
1143+ 67E7 AF             XOR A                   ; A=0
1144+ 67E8 CD 32 68       CALL L6011_101          ; CALL L6011_101
1145+ 67EB CB 3F          SRL A                   ; Shift A right (copying bit 0 into the carry flag,
1146+ 67ED                                        ; and resetting bit 7)
1147+ 67ED B3             OR E                    ; A=A|E
1148+ 67EE 5F             LD E,A                  ; E=A
1149+ 67EF 3E 04          LD A,#04                ; A=#04
1150+ 67F1 CD 32 68       CALL L6011_101          ; CALL L6011_101
1151+ 67F4 CB 27          SLA A                   ; Shift A left (copying bit 7 into the carry flag,
1152+ 67F6                                        ; and resetting bit 0)
1153+ 67F6 CB 27          SLA A                   ; Shift A left (copying bit 7 into the carry flag,
1154+ 67F8                                        ; and resetting bit 0)
1155+ 67F8 CB 27          SLA A                   ; Shift A left (copying bit 7 into the carry flag,
1156+ 67FA                                        ; and resetting bit 0)
1157+ 67FA B2             OR D                    ; A=A|D
1158+ 67FB 57             LD D,A                  ; D=A
1159+ 67FC ED 53 79 7F    LD (#7F79),DE           ; POKE #7F79,E; POKE #7F7A,D
1160+ 6800 ED 53 81 7F    LD (#7F81),DE           ; POKE #7F81,E; POKE #7F82,D
1161+ 6804 3E 09          LD A,#09                ; A=#09
1162+ 6806 CD 32 68       CALL L6011_101          ; CALL L6011_101
1163+ 6809 C6 14          ADD A,#14               ; A=A+#14
1164+ 680B 57             LD D,A                  ; D=A
1165+ 680C 3E 08          LD A,#08                ; A=#08
1166+ 680E CD 32 68       CALL L6011_101          ; CALL L6011_101
1167+ 6811 CB 27          SLA A                   ; Shift A left (copying bit 7 into the carry flag,
1168+ 6813                                        ; and resetting bit 0)
1169+ 6813 CB 27          SLA A                   ; Shift A left (copying bit 7 into the carry flag,
1170+ 6815                                        ; and resetting bit 0)
1171+ 6815 CB 27          SLA A                   ; Shift A left (copying bit 7 into the carry flag,
1172+ 6817                                        ; and resetting bit 0)
1173+ 6817 CB 27          SLA A                   ; Shift A left (copying bit 7 into the carry flag,
1174+ 6819                                        ; and resetting bit 0)
1175+ 6819 CB 27          SLA A                   ; Shift A left (copying bit 7 into the carry flag,
1176+ 681B                                        ; and resetting bit 0)
1177+ 681B CB 12          RL D                    ; Rotate D left through the carry flag
1178+ 681D 5F             LD E,A                  ; E=A
1179+ 681E 3E 07          LD A,#07                ; A=#07
1180+ 6820 CD 32 68       CALL L6011_101          ; CALL L6011_101
1181+ 6823 B3             OR E                    ; A=A|E
1182+ 6824 5F             LD E,A                  ; E=A
1183+ 6825 ED 53 7B 7F    LD (#7F7B),DE           ; POKE #7F7B,E; POKE #7F7C,D
1184+ 6829 ED 53 7D 7F    LD (#7F7D),DE           ; POKE #7F7D,E; POKE #7F7E,D
1185+ 682D ED 53 83 7F    LD (#7F83),DE           ; POKE #7F83,E; POKE #7F84,D
1186+ 6831 C9             RET                     ; Return
1187+ 6832              L6011_101:
1188+ 6832 01 F7 DF       LD BC,#DFF7             ; BC=#DFF7
1189+ 6835 ED 79          OUT (C),A               ; OUT BC,A
1190+ 6837 06 BF          LD B,#BF                ; B=#BF
1191+ 6839 ED 78          IN A,(C)                ; A=IN BC
1192+ 683B 4F             LD C,A                  ; C=A
1193+ 683C E6 0F          AND #0F                 ; Keep only bits 0, 1, 2 and 3 of A
1194+ 683E 47             LD B,A                  ; B=A
1195+ 683F CB 39          SRL C                   ; Shift C right (copying bit 0 into the carry flag,
1196+ 6841                                        ; and resetting bit 7)
1197+ 6841 CB 39          SRL C                   ; Shift C right (copying bit 0 into the carry flag,
1198+ 6843                                        ; and resetting bit 7)
1199+ 6843 CB 39          SRL C                   ; Shift C right (copying bit 0 into the carry flag,
1200+ 6845                                        ; and resetting bit 7)
1201+ 6845 CB 39          SRL C                   ; Shift C right (copying bit 0 into the carry flag,
1202+ 6847                                        ; and resetting bit 7)
1203+ 6847 79             LD A,C                  ; A=C
1204+ 6848 81             ADD A,C                 ; A=A+C
1205+ 6849 81             ADD A,C                 ; A=A+C
1206+ 684A 81             ADD A,C                 ; A=A+C
1207+ 684B 81             ADD A,C                 ; A=A+C
1208+ 684C 81             ADD A,C                 ; A=A+C
1209+ 684D 81             ADD A,C                 ; A=A+C
1210+ 684E 81             ADD A,C                 ; A=A+C
1211+ 684F 81             ADD A,C                 ; A=A+C
1212+ 6850 81             ADD A,C                 ; A=A+C
1213+ 6851 80             ADD A,B                 ; A=A+B
1214+ 6852 C9             RET                     ; Return
1215+ 6853              ; This entry point is used by the routine at L8531.
1216+ 6853              L6011_102:
1217+ 6853 DD E5          PUSH IX                 ; Push IX onto the stack
1218+ 6855 E1             POP HL                  ; Pop last item from stack into HL
1219+ 6856 11 A0 7E       LD DE,L7EA0             ; DE=#7EA0
1220+ 6859 B7             OR A                    ; Clear the carry flag and set the zero flag if A=0
1221+ 685A ED 52          SBC HL,DE               ; HL=HL-carry-DE
1222+ 685C 20 05          JR NZ,L6011_103         ; Jump to L6011_103 if HL>0
1223+ 685E DD 21 C4 7E    LD IX,#7EC4             ; IX=#7EC4
1224+ 6862 C9             RET                     ; Return
1225+ 6863              L6011_103:
1226+ 6863 DD 21 A0 7E    LD IX,L7EA0             ; IX=#7EA0
1227+ 6867 C9             RET                     ; Return
1228+ 6868              ; This entry point is used by the routines at L8531 and L9B7C.
1229+ 6868              L6011_104:
1230+ 6868 CD 7D 68       CALL L6011_105          ; CALL L6011_105
1231+ 686B DD 7E 1C       LD A,(IX+#1C)           ; A=PEEK (IX+#1C)
1232+ 686E B7             OR A                    ; Clear the carry flag and set the zero flag if A=0
1233+ 686F C0             RET NZ                  ; Return if A>0
1234+ 6870 CD 64 A0       CALL L9B7C_62           ; CALL L9B7C_62
1235+ 6873 DD 36 1C 01    LD (IX+#1C),#01         ; POKE (IX+#1C),1
1236+ 6877 DD 7E 1D       LD A,(IX+#1D)           ; A=PEEK (IX+#1D)
1237+ 687A C3 1B 40       JP #401B                ; Jump to 401B
1238+ 687D              ; This entry point is used by the routine at L9B7C.
1239+ 687D              L6011_105:
1240+ 687D 3E F0          LD A,#F0                ; A=#F0
1241+ 687F DD 86 1B       ADD A,(IX+#1B)          ; A=A+PEEK (IX+#1B)
1242+ 6882 C3 9C 68       JP L6011_108            ; Jump to L6011_108
1243+ 6885              ; This entry point is used by the routine at L9149.
1244+ 6885              L6011_106:
1245+ 6885 01 AF 21       LD BC,#21AF             ; BC=#21AF
1246+ 6888 3E 01          LD A,#01                ; A=#01
1247+ 688A ED 79          OUT (C),A               ; OUT BC,A
1248+ 688C 01 AF 10       LD BC,#10AF             ; BC=#10AF
1249+ 688F 3E 00          LD A,#00                ; A=#00
1250+ 6891 ED 79          OUT (C),A               ; OUT BC,A
1251+ 6893 C9             RET                     ; Return
1252+ 6894              ; This entry point is used by the routine at L9B7C.
1253+ 6894              L6011_107:
1254+ 6894 01 AF 21       LD BC,#21AF             ; BC=#21AF
1255+ 6897 3E 0E          LD A,#0E                ; A=#0E
1256+ 6899 ED 79          OUT (C),A               ; OUT BC,A
1257+ 689B C9             RET                     ; Return
1258+ 689C              ; This entry point is used by the routines at L8531 and L9B7C.
1259+ 689C              L6011_108:
1260+ 689C 32 00 60       LD (#6000),A            ; POKE #6000,A
1261+ 689F 01 AF 10       LD BC,#10AF             ; BC=#10AF
1262+ 68A2 ED 79          OUT (C),A               ; OUT BC,A
1263+ 68A4 C9             RET                     ; Return
1264+ 68A5 32 01 60       LD (#6001),A            ; POKE #6001,A
1265+ 68A8 01 AF 11       LD BC,#11AF             ; BC=#11AF
1266+ 68AB ED 79          OUT (C),A               ; OUT BC,A
1267+ 68AD C9             RET                     ; Return
1268+ 68AE              ; This entry point is used by the routine at L7828.
1269+ 68AE              L6011_109:
1270+ 68AE 3A 02 60       LD A,(#6002)            ; A=PEEK #6002
1271+ 68B1              ; This entry point is used by the routine at L9149.
1272+ 68B1              L6011_110:
1273+ 68B1 32 02 60       LD (#6002),A            ; POKE #6002,A
1274+ 68B4              ; This entry point is used by the routine at L7828.
1275+ 68B4              L6011_111:
1276+ 68B4 01 AF 12       LD BC,#12AF             ; BC=#12AF
1277+ 68B7 ED 79          OUT (C),A               ; OUT BC,A
1278+ 68B9 C9             RET                     ; Return
1279+ 68BA              L6011_112:
1280+ 68BA AF             XOR A                   ; A=0
1281+ 68BB C3 C1 68       JP L6011_114            ; Jump to L6011_114
1282+ 68BE              L6011_113:
1283+ 68BE 3A 03 60       LD A,(#6003)            ; A=PEEK #6003
1284+ 68C1              ; This entry point is used by the routines at L7828, L8531, L9149 and L9B7C.
1285+ 68C1              L6011_114:
1286+ 68C1 C5             PUSH BC                 ; Push BC onto the stack
1287+ 68C2 32 03 60       LD (#6003),A            ; POKE #6003,A
1288+ 68C5 01 AF 13       LD BC,#13AF             ; BC=#13AF
1289+ 68C8 ED 79          OUT (C),A               ; OUT BC,A
1290+ 68CA C1             POP BC                  ; Pop last item from stack into BC
1291+ 68CB C9             RET                     ; Return
1292+ 68CC              L6011_115:
1293+ 68CC 01 AF 13       LD BC,#13AF             ; BC=#13AF
1294+ 68CF ED 79          OUT (C),A               ; OUT BC,A
1295+ 68D1 C9             RET                     ; Return
1296+ 68D2              ; This entry point is used by the routine at L9B7C.
1297+ 68D2              L6011_116:
1298+ 68D2 3E F7          LD A,#F7                ; A=#F7
1299+ 68D4 18 EB          JR L6011_114            ; Jump to L6011_114
1300+ 68D6              ; This entry point is used by the routine at L9B7C.
1301+ 68D6              L6011_117:
1302+ 68D6 3E 0B          LD A,#0B                ; A=#0B
1303+ 68D8 DD 86 19       ADD A,(IX+#19)          ; A=A+PEEK (IX+#19)
1304+ 68DB C3 9C 68       JP L6011_108            ; Jump to L6011_108
1305+ 68DE              L6011_118:
1306+ 68DE 3E 0B          LD A,#0B                ; A=#0B
1307+ 68E0 DD 86 19       ADD A,(IX+#19)          ; A=A+PEEK (IX+#19)
1308+ 68E3 C3 C1 68       JP L6011_114            ; Jump to L6011_114
1309+ 68E6              ; This entry point is used by the routine at L9B7C.
1310+ 68E6              L6011_119:
1311+ 68E6 3E 0B          LD A,#0B                ; A=#0B
1312+ 68E8 DD 86 1A       ADD A,(IX+#1A)          ; A=A+PEEK (IX+#1A)
1313+ 68EB DD 86 19       ADD A,(IX+#19)          ; A=A+PEEK (IX+#19)
1314+ 68EE C3 C1 68       JP L6011_114            ; Jump to L6011_114
1315+ 68F1              L6011_120:
1316+ 68F1 3E 0B          LD A,#0B                ; A=#0B
1317+ 68F3 DD 86 19       ADD A,(IX+#19)          ; A=A+PEEK (IX+#19)
1318+ 68F6 C3 B1 68       JP L6011_110            ; Jump to L6011_110
1319+ 68F9              ; This entry point is used by the routine at L9149.
1320+ 68F9              L6011_121:
1321+ 68F9 FE FE          CP #FE                  ; Set the zero flag if A=#FE, or the carry flag if
1322+ 68FB                                        ; A<#FE
1323+ 68FB 28 BD          JR Z,L6011_112          ; Jump to L6011_112 if A=#FE
1324+ 68FD FE FF          CP #FF                  ; Set the zero flag if A=#FF, or the carry flag if
1325+ 68FF                                        ; A<#FF
1326+ 68FF 28 0E          JR Z,L6011_122          ; Jump to L6011_122 if A=#FF
1327+ 6901 FE 40          CP #40                  ; Set the zero flag if A=#40, or the carry flag if
1328+ 6903                                        ; A<#40
1329+ 6903 D0             RET NC                  ; Return if A>=#40
1330+ 6904 C6 61          ADD A,#61               ; A=A+#61
1331+ 6906 E5             PUSH HL                 ; Push HL onto the stack
1332+ 6907 21 15 7F       LD HL,#7F15             ; HL=#7F15
1333+ 690A 86             ADD A,(HL)              ; A=A+PEEK HL
1334+ 690B E1             POP HL                  ; Pop last item from stack into HL
1335+ 690C C3 C1 68       JP L6011_114            ; Jump to L6011_114
1336+ 690F              L6011_122:
1337+ 690F 3E 01          LD A,#01                ; A=#01
1338+ 6911 C3 C1 68       JP L6011_114            ; Jump to L6011_114
1339+ 6914 FE 40          CP #40                  ; Set the zero flag if A=#40, or the carry flag if
1340+ 6916                                        ; A<#40
1341+ 6916 D0             RET NC                  ; Return if A>=#40
1342+ 6917 C6 61          ADD A,#61               ; A=A+#61
1343+ 6919 E5             PUSH HL                 ; Push HL onto the stack
1344+ 691A 21 15 7F       LD HL,#7F15             ; HL=#7F15
1345+ 691D 86             ADD A,(HL)              ; A=A+PEEK HL
1346+ 691E E1             POP HL                  ; Pop last item from stack into HL
1347+ 691F C3 9C 68       JP L6011_108            ; Jump to L6011_108
1348+ 6922              ; This entry point is used by the routine at L9B7C.
1349+ 6922              L6011_123:
1350+ 6922 FE 40          CP #40                  ; Set the zero flag if A=#40, or the carry flag if
1351+ 6924                                        ; A<#40
1352+ 6924 D0             RET NC                  ; Return if A>=#40
1353+ 6925 C6 61          ADD A,#61               ; A=A+#61
1354+ 6927 E5             PUSH HL                 ; Push HL onto the stack
1355+ 6928 21 15 7F       LD HL,#7F15             ; HL=#7F15
1356+ 692B 86             ADD A,(HL)              ; A=A+PEEK HL
1357+ 692C E1             POP HL                  ; Pop last item from stack into HL
1358+ 692D C3 B1 68       JP L6011_110            ; Jump to L6011_110
1359+ 6930 FE 40          CP #40                  ; Set the zero flag if A=#40, or the carry flag if
1360+ 6932                                        ; A<#40
1361+ 6932 D0             RET NC                  ; Return if A>=#40
1362+ 6933 C6 20          ADD A,#20               ; A=A+#20
1363+ 6935 C3 C1 68       JP L6011_114            ; Jump to L6011_114
1364+ 6938 FE 40          CP #40                  ; Set the zero flag if A=#40, or the carry flag if
1365+ 693A                                        ; A<#40
1366+ 693A D0             RET NC                  ; Return if A>=#40
1367+ 693B C6 20          ADD A,#20               ; A=A+#20
1368+ 693D C3 9C 68       JP L6011_108            ; Jump to L6011_108
1369+ 6940 FE 40          CP #40                  ; Set the zero flag if A=#40, or the carry flag if
1370+ 6942                                        ; A<#40
1371+ 6942 D0             RET NC                  ; Return if A>=#40
1372+ 6943 C6 20          ADD A,#20               ; A=A+#20
1373+ 6945 C3 B1 68       JP L6011_110            ; Jump to L6011_110
1374+ 6948 FE 01          CP #01                  ; Set the zero flag if A=#01, or the carry flag if
1375+ 694A                                        ; A<#01
1376+ 694A 28 19          JR Z,L6011_126          ; Jump to L6011_126 if A=#01
1377+ 694C FE 02          CP #02                  ; Set the zero flag if A=#02, or the carry flag if
1378+ 694E                                        ; A<#02
1379+ 694E 28 11          JR Z,L6011_125          ; Jump to L6011_125 if A=#02
1380+ 6950 FE 03          CP #03                  ; Set the zero flag if A=#03, or the carry flag if
1381+ 6952                                        ; A<#03
1382+ 6952 28 09          JR Z,L6011_124          ; Jump to L6011_124 if A=#03
1383+ 6954 FE 04          CP #04                  ; Set the zero flag if A=#04, or the carry flag if
1384+ 6956                                        ; A<#04
1385+ 6956 C2 9F 69       JP NZ,L6011_131         ; Jump to L6011_131 if A<>#04
1386+ 6959 3E 50          LD A,#50                ; A=#50
1387+ 695B 18 0A          JR L6011_127            ; Jump to L6011_127
1388+ 695D              L6011_124:
1389+ 695D 3E 40          LD A,#40                ; A=#40
1390+ 695F 18 06          JR L6011_127            ; Jump to L6011_127
1391+ 6961              L6011_125:
1392+ 6961 3E 30          LD A,#30                ; A=#30
1393+ 6963 18 02          JR L6011_127            ; Jump to L6011_127
1394+ 6965              L6011_126:
1395+ 6965 3E 20          LD A,#20                ; A=#20
1396+ 6967              L6011_127:
1397+ 6967 32 56 7F       LD (#7F56),A            ; POKE #7F56,A
1398+ 696A C9             RET                     ; Return
1399+ 696B 79             LD A,C                  ; A=C
1400+ 696C FE 40          CP #40                  ; Set the zero flag if A=#40, or the carry flag if
1401+ 696E                                        ; A<#40
1402+ 696E D0             RET NC                  ; Return if A>=#40
1403+ 696F C6 20          ADD A,#20               ; A=A+#20
1404+ 6971 01 AF 16       LD BC,#16AF             ; BC=#16AF
1405+ 6974 ED 79          OUT (C),A               ; OUT BC,A
1406+ 6976 C9             RET                     ; Return
1407+ 6977 79             LD A,C                  ; A=C
1408+ 6978 FE 40          CP #40                  ; Set the zero flag if A=#40, or the carry flag if
1409+ 697A                                        ; A<#40
1410+ 697A D0             RET NC                  ; Return if A>=#40
1411+ 697B C6 20          ADD A,#20               ; A=A+#20
1412+ 697D CB 40          BIT 0,B                 ; Set the zero flag if bit 0 of B is 0
1413+ 697F 20 06          JR NZ,L6011_128         ; Jump to L6011_128 if bit 0 of B is set
1414+ 6981 01 AF 17       LD BC,#17AF             ; BC=#17AF
1415+ 6984 ED 79          OUT (C),A               ; OUT BC,A
1416+ 6986 C9             RET                     ; Return
1417+ 6987              L6011_128:
1418+ 6987 01 AF 18       LD BC,#18AF             ; BC=#18AF
1419+ 698A ED 79          OUT (C),A               ; OUT BC,A
1420+ 698C C9             RET                     ; Return
1421+ 698D 79             LD A,C                  ; A=C
1422+ 698E FE 40          CP #40                  ; Set the zero flag if A=#40, or the carry flag if
1423+ 6990                                        ; A<#40
1424+ 6990 D0             RET NC                  ; Return if A>=#40
1425+ 6991 C6 20          ADD A,#20               ; A=A+#20
1426+ 6993 01 AF 19       LD BC,#19AF             ; BC=#19AF
1427+ 6996 ED 79          OUT (C),A               ; OUT BC,A
1428+ 6998 C9             RET                     ; Return
1429+ 6999              ; This entry point is used by the routines at L8531, L9149 and L9B7C.
1430+ 6999              L6011_129:
1431+ 6999 AF             XOR A                   ; A=0
1432+ 699A              ; This entry point is used by the routine at L8531.
1433+ 699A              L6011_130:
1434+ 699A 77             LD (HL),A               ; POKE HL,A
1435+ 699B 23             INC HL                  ; HL=HL+1
1436+ 699C 10 FC          DJNZ L6011_130          ; Decrement B and jump to L6011_130 if B>0
1437+ 699E C9             RET                     ; Return
1438+ 699F              ; This entry point is used by the routines at L9149 and L9B7C.
1439+ 699F              L6011_131:
1440+ 699F F3             DI                      ; Disable interrupts
1441+ 69A0 AF             XOR A                   ; A=0
1442+ 69A1 32 56 7F       LD (#7F56),A            ; POKE #7F56,A
1443+ 69A4 32 10 60       LD (#6010),A            ; POKE #6010,A
1444+ 69A7 3A 0F 60       LD A,(#600F)            ; A=PEEK #600F
1445+ 69AA 32 57 7F       LD (#7F57),A            ; POKE #7F57,A
1446+ 69AD AF             XOR A                   ; A=0
1447+ 69AE 47             LD B,A                  ; B=A
1448+ 69AF 4F             LD C,A                  ; C=A
1449+ 69B0 ED 43 58 7F    LD (#7F58),BC           ; POKE #7F58,C; POKE #7F59,B
1450+ 69B4 ED 43 5A 7F    LD (#7F5A),BC           ; POKE #7F5A,C; POKE #7F5B,B
1451+ 69B8 FB             EI                      ; Enable interrupts
1452+ 69B9 76             HALT                    ; Wait for the next interrupt
1453+ 69BA 01 AF 0F       LD BC,#0FAF             ; BC=#0FAF
1454+ 69BD ED 79          OUT (C),A               ; OUT BC,A
1455+ 69BF 3E 20          LD A,#20                ; A=#20
1456+ 69C1 CD C1 68       CALL L6011_114          ; CALL L6011_114
1457+ 69C4 CD FE 69       CALL L6011_134          ; CALL L6011_134
1458+ 69C7 21 E8 7E       LD HL,#7EE8             ; HL=#7EE8
1459+ 69CA 11 00 10       LD DE,#1000             ; DE=#1000
1460+ 69CD 01 20 00       LD BC,#0020             ; BC=#0020
1461+ 69D0 ED B0          LDIR                    ; POKE DE,PEEK HL; HL=HL+1; DE=DE+1; BC=BC-1; repeat
1462+ 69D2                                        ; until BC=0
1463+ 69D2 21 E8 7E       LD HL,#7EE8             ; HL=#7EE8
1464+ 69D5 11 E0 11       LD DE,#11E0             ; DE=#11E0
1465+ 69D8 0E 20          LD C,#20                ; C=#20
1466+ 69DA ED B0          LDIR                    ; POKE DE,PEEK HL; HL=HL+1; DE=DE+1; BC=BC-1; repeat
1467+ 69DC                                        ; until BC=0
1468+ 69DC EB             EX DE,HL                ; Exchange DE and HL
1469+ 69DD CD F0 69       CALL L6011_132          ; CALL L6011_132
1470+ 69E0 2E 40          LD L,#40                ; L=#40
1471+ 69E2 06 04          LD B,#04                ; B=#04
1472+ 69E4 CD F0 69       CALL L6011_132          ; CALL L6011_132
1473+ 69E7 CD F7 69       CALL L6011_133          ; CALL L6011_133
1474+ 69EA 01 AF 07       LD BC,#07AF             ; BC=#07AF
1475+ 69ED ED 79          OUT (C),A               ; OUT BC,A
1476+ 69EF C9             RET                     ; Return
1477+ 69F0              L6011_132:
1478+ 69F0 71             LD (HL),C               ; POKE HL,C
1479+ 69F1 2C             INC L                   ; L=L+1
1480+ 69F2 71             LD (HL),C               ; POKE HL,C
1481+ 69F3 23             INC HL                  ; HL=HL+1
1482+ 69F4 10 FA          DJNZ L6011_132          ; Decrement B and jump to L6011_132 if B>0
1483+ 69F6 C9             RET                     ; Return
1484+ 69F7              L6011_133:
1485+ 69F7 AF             XOR A                   ; A=0
1486+ 69F8 01 AF 15       LD BC,#15AF             ; BC=#15AF
1487+ 69FB ED 79          OUT (C),A               ; OUT BC,A
1488+ 69FD C9             RET                     ; Return
1489+ 69FE              L6011_134:
1490+ 69FE 3E 11          LD A,#11                ; A=#11
1491+ 6A00 01 AF 15       LD BC,#15AF             ; BC=#15AF
1492+ 6A03 ED 79          OUT (C),A               ; OUT BC,A
1493+ 6A05 C9             RET                     ; Return
1494+ 6A06 AF             XOR A                   ; A=0
1495+ 6A07 47             LD B,A                  ; B=A
1496+ 6A08 4F             LD C,A                  ; C=A
1497+ 6A09 ED 43 58 7F    LD (#7F58),BC           ; POKE #7F58,C; POKE #7F59,B
1498+ 6A0D ED 43 5A 7F    LD (#7F5A),BC           ; POKE #7F5A,C; POKE #7F5B,B
1499+ 6A11 32 56 7F       LD (#7F56),A            ; POKE #7F56,A
1500+ 6A14 01 AF 0F       LD BC,#0FAF             ; BC=#0FAF
1501+ 6A17 ED 79          OUT (C),A               ; OUT BC,A
1502+ 6A19 C9             RET                     ; Return
1503+ 6A1A 32 57 7F       LD (#7F57),A            ; POKE #7F57,A
1504+ 6A1D C9             RET                     ; Return
1505+ 6A1E 22 58 7F       LD (#7F58),HL           ; POKE #7F58,L; POKE #7F59,H
1506+ 6A21 C9             RET                     ; Return
1507+ 6A22 22 5A 7F       LD (#7F5A),HL           ; POKE #7F5A,L; POKE #7F5B,H
1508+ 6A25 C9             RET                     ; Return
1509+ 6A26              L6011_135:
1510+ 6A26 23             INC HL                  ; HL=HL+1
1511+ 6A27 4F             LD C,A                  ; C=A
1512+ 6A28 E6 0F          AND #0F                 ; Keep only bits 0, 1, 2 and 3 of A
1513+ 6A2A FE 0A          CP #0A                  ; Set the zero flag if A=#0A, or the carry flag if
1514+ 6A2C                                        ; A<#0A
1515+ 6A2C 38 02          JR C,L6011_136          ; Jump to L6011_136 if A<#0A
1516+ 6A2E C6 07          ADD A,#07               ; A=A+#07
1517+ 6A30              L6011_136:
1518+ 6A30 C6 30          ADD A,#30               ; A=A+#30
1519+ 6A32 77             LD (HL),A               ; POKE HL,A
1520+ 6A33 2B             DEC HL                  ; HL=HL-1
1521+ 6A34 71             LD (HL),C               ; POKE HL,C
1522+ 6A35 AF             XOR A                   ; A=0
1523+ 6A36 ED 6F          RLD                     ; Rotate the low nibble of A and all of (HL) left 4
1524+ 6A38                                        ; bits
1525+ 6A38 FE 0A          CP #0A                  ; Set the zero flag if A=#0A, or the carry flag if
1526+ 6A3A                                        ; A<#0A
1527+ 6A3A 38 02          JR C,L6011_137          ; Jump to L6011_137 if A<#0A
1528+ 6A3C C6 07          ADD A,#07               ; A=A+#07
1529+ 6A3E              L6011_137:
1530+ 6A3E C6 30          ADD A,#30               ; A=A+#30
1531+ 6A40 77             LD (HL),A               ; POKE HL,A
1532+ 6A41 23             INC HL                  ; HL=HL+1
1533+ 6A42 23             INC HL                  ; HL=HL+1
1534+ 6A43 C9             RET                     ; Return
1535+ 6A44              L6011_138:
1536+ 6A44 01 AF 00       LD BC,#00AF             ; BC=#00AF
1537+ 6A47 3E 30          LD A,#30                ; A=#30
1538+ 6A49 ED 79          OUT (C),A               ; OUT BC,A
1539+ 6A4B 01 F7 EF       LD BC,#EFF7             ; BC=#EFF7
1540+ 6A4E 3E 80          LD A,#80                ; A=#80
1541+ 6A50 ED 79          OUT (C),A               ; OUT BC,A
1542+ 6A52 06 DF          LD B,#DF                ; B=#DF
1543+ 6A54 3E 0B          LD A,#0B                ; A=#0B
1544+ 6A56 ED 79          OUT (C),A               ; OUT BC,A
1545+ 6A58 06 BF          LD B,#BF                ; B=#BF
1546+ 6A5A AF             XOR A                   ; A=0
1547+ 6A5B ED 79          OUT (C),A               ; OUT BC,A
1548+ 6A5D 06 DF          LD B,#DF                ; B=#DF
1549+ 6A5F 3E 0C          LD A,#0C                ; A=#0C
1550+ 6A61 ED 79          OUT (C),A               ; OUT BC,A
1551+ 6A63 06 BF          LD B,#BF                ; B=#BF
1552+ 6A65 3E 01          LD A,#01                ; A=#01
1553+ 6A67 ED 79          OUT (C),A               ; OUT BC,A
1554+ 6A69 06 DF          LD B,#DF                ; B=#DF
1555+ 6A6B 3E F0          LD A,#F0                ; A=#F0
1556+ 6A6D ED 79          OUT (C),A               ; OUT BC,A
1557+ 6A6F 06 BF          LD B,#BF                ; B=#BF
1558+ 6A71 3E 02          LD A,#02                ; A=#02
1559+ 6A73 ED 79          OUT (C),A               ; OUT BC,A
1560+ 6A75 3E 01          LD A,#01                ; A=#01
1561+ 6A77 CD 90 6A       CALL L6011_141          ; CALL L6011_141
1562+ 6A7A              L6011_139:
1563+ 6A7A 3E 00          LD A,#00                ; A=#00
1564+ 6A7C 32 4D 7F       LD (#7F4D),A            ; POKE #7F4D,A
1565+ 6A7F AF             XOR A                   ; A=0
1566+ 6A80 32 4C 7F       LD (#7F4C),A            ; POKE #7F4C,A
1567+ 6A83 3C             INC A                   ; A=A+1
1568+ 6A84 32 4E 7F       LD (#7F4E),A            ; POKE #7F4E,A
1569+ 6A87 C9             RET                     ; Return
1570+ 6A88              ; This entry point is used by the routine at L9149.
1571+ 6A88              L6011_140:
1572+ 6A88 01 F7 EF       LD BC,#EFF7             ; BC=#EFF7
1573+ 6A8B AF             XOR A                   ; A=0
1574+ 6A8C ED 79          OUT (C),A               ; OUT BC,A
1575+ 6A8E 3E 00          LD A,#00                ; A=#00
1576+ 6A90              L6011_141:
1577+ 6A90 E6 03          AND #03                 ; Keep only bits 0 and 1 of A
1578+ 6A92 01 AF 20       LD BC,#20AF             ; BC=#20AF
1579+ 6A95 ED 79          OUT (C),A               ; OUT BC,A
1580+ 6A97              L6011_142:
1581+ 6A97 3E 02          LD A,#02                ; A=#02
1582+ 6A99              L6011_143:
1583+ 6A99 01 AF 2B       LD BC,#2BAF             ; BC=#2BAF
1584+ 6A9C ED 79          OUT (C),A               ; OUT BC,A
1585+ 6A9E C9             RET                     ; Return
1586+ 6A9F              ; This entry point is used by the routine at L9B7C.
1587+ 6A9F              L6011_144:
1588+ 6A9F 01 F7 DF       LD BC,#DFF7             ; BC=#DFF7
1589+ 6AA2 3E B2          LD A,#B2                ; A=#B2
1590+ 6AA4 ED 79          OUT (C),A               ; OUT BC,A
1591+ 6AA6 06 BF          LD B,#BF                ; B=#BF
1592+ 6AA8 ED 78          IN A,(C)                ; A=IN BC
1593+ 6AAA C9             RET                     ; Return
1594+ 6AAB CD 7A 6B       CALL L6011_145          ; CALL L6011_145
1595+ 6AAE CD 96 6B       CALL L6011_147          ; CALL L6011_147
1596+ 6AB1 D5             PUSH DE                 ; Push DE onto the stack
1597+ 6AB2 CD BE 68       CALL L6011_113          ; CALL L6011_113
1598+ 6AB5 CD 15 40       CALL #4015              ; CALL 4015
1599+ 6AB8 D1             POP DE                  ; Pop last item from stack into DE
1600+ 6AB9 CD B1 6B       CALL L6011_149          ; CALL L6011_149
1601+ 6ABC C3 8B 6B       JP L6011_146            ; Jump to L6011_146
1602+ 6ABF CD 7A 6B       CALL L6011_145          ; CALL L6011_145
1603+ 6AC2 CD 96 6B       CALL L6011_147          ; CALL L6011_147
1604+ 6AC5 D5             PUSH DE                 ; Push DE onto the stack
1605+ 6AC6 CD 18 40       CALL #4018              ; CALL 4018
1606+ 6AC9 D1             POP DE                  ; Pop last item from stack into DE
1607+ 6ACA CD B1 6B       CALL L6011_149          ; CALL L6011_149
1608+ 6ACD C3 8B 6B       JP L6011_146            ; Jump to L6011_146
1609+ 6AD0 CD 7A 6B       CALL L6011_145          ; CALL L6011_145
1610+ 6AD3 CD F4 6B       CALL L6011_155          ; CALL L6011_155
1611+ 6AD6 C3 8B 6B       JP L6011_146            ; Jump to L6011_146
1612+ 6AD9 CD 7A 6B       CALL L6011_145          ; CALL L6011_145
1613+ 6ADC CD FA 6B       CALL L6011_156          ; CALL L6011_156
1614+ 6ADF C3 8B 6B       JP L6011_146            ; Jump to L6011_146
1615+ 6AE2 CD 7A 6B       CALL L6011_145          ; CALL L6011_145
1616+ 6AE5 CD 03 6C       CALL L6011_157          ; CALL L6011_157
1617+ 6AE8 C3 8B 6B       JP L6011_146            ; Jump to L6011_146
1618+ 6AEB CD 7A 6B       CALL L6011_145          ; CALL L6011_145
1619+ 6AEE CD 4A 6D       CALL L6011_187          ; CALL L6011_187
1620+ 6AF1 C3 8B 6B       JP L6011_146            ; Jump to L6011_146
1621+ 6AF4 CD 7A 6B       CALL L6011_145          ; CALL L6011_145
1622+ 6AF7 CD 4B 6D       CALL L6011_188          ; CALL L6011_188
1623+ 6AFA C3 8B 6B       JP L6011_146            ; Jump to L6011_146
1624+ 6AFD CD 7A 6B       CALL L6011_145          ; CALL L6011_145
1625+ 6B00 CD E1 6D       CALL L6011_202          ; CALL L6011_202
1626+ 6B03 C3 8B 6B       JP L6011_146            ; Jump to L6011_146
1627+ 6B06 CD 7A 6B       CALL L6011_145          ; CALL L6011_145
1628+ 6B09 CD 46 6F       CALL L6011_227          ; CALL L6011_227
1629+ 6B0C C3 8B 6B       JP L6011_146            ; Jump to L6011_146
1630+ 6B0F CD 7A 6B       CALL L6011_145          ; CALL L6011_145
1631+ 6B12 CD 08 6E       CALL L6011_205          ; CALL L6011_205
1632+ 6B15 08             EX AF,AF'               ; Exchange AF and AF'
1633+ 6B16 3A 00 60       LD A,(#6000)            ; A=PEEK #6000
1634+ 6B19 32 0B 60       LD (#600B),A            ; POKE #600B,A
1635+ 6B1C 08             EX AF,AF'               ; Exchange AF and AF'
1636+ 6B1D C3 8B 6B       JP L6011_146            ; Jump to L6011_146
1637+ 6B20 CD 7A 6B       CALL L6011_145          ; CALL L6011_145
1638+ 6B23 CD 5A 40       CALL #405A              ; CALL 405A
1639+ 6B26 C3 8B 6B       JP L6011_146            ; Jump to L6011_146
1640+ 6B29 CD 7A 6B       CALL L6011_145          ; CALL L6011_145
1641+ 6B2C CD CB 6E       CALL L6011_217          ; CALL L6011_217
1642+ 6B2F C3 8B 6B       JP L6011_146            ; Jump to L6011_146
1643+ 6B32 CD 7A 6B       CALL L6011_145          ; CALL L6011_145
1644+ 6B35 CD 51 40       CALL #4051              ; CALL 4051
1645+ 6B38 C3 8B 6B       JP L6011_146            ; Jump to L6011_146
1646+ 6B3B CD 7A 6B       CALL L6011_145          ; CALL L6011_145
1647+ 6B3E CD 54 40       CALL #4054              ; CALL 4054
1648+ 6B41 C3 8B 6B       JP L6011_146            ; Jump to L6011_146
1649+ 6B44 CD 7A 6B       CALL L6011_145          ; CALL L6011_145
1650+ 6B47 CD 52 6F       CALL L6011_228          ; CALL L6011_228
1651+ 6B4A C3 8B 6B       JP L6011_146            ; Jump to L6011_146
1652+ 6B4D CD 7A 6B       CALL L6011_145          ; CALL L6011_145
1653+ 6B50 CD 58 6F       CALL L6011_229          ; CALL L6011_229
1654+ 6B53 C3 8B 6B       JP L6011_146            ; Jump to L6011_146
1655+ 6B56 CD 7A 6B       CALL L6011_145          ; CALL L6011_145
1656+ 6B59 CD 5E 6F       CALL L6011_230          ; CALL L6011_230
1657+ 6B5C C3 8B 6B       JP L6011_146            ; Jump to L6011_146
1658+ 6B5F CD 7A 6B       CALL L6011_145          ; CALL L6011_145
1659+ 6B62 CD 7B 6F       CALL L6011_231          ; CALL L6011_231
1660+ 6B65 C3 8B 6B       JP L6011_146            ; Jump to L6011_146
1661+ 6B68 CD 7A 6B       CALL L6011_145          ; CALL L6011_145
1662+ 6B6B CD 42 40       CALL #4042              ; CALL 4042
1663+ 6B6E C3 8B 6B       JP L6011_146            ; Jump to L6011_146
1664+ 6B71 CD 7A 6B       CALL L6011_145          ; CALL L6011_145
1665+ 6B74 CD 81 6F       CALL L6011_232          ; CALL L6011_232
1666+ 6B77 C3 8B 6B       JP L6011_146            ; Jump to L6011_146
1667+ 6B7A              L6011_145:
1668+ 6B7A F5             PUSH AF                 ; Push AF onto the stack
1669+ 6B7B C5             PUSH BC                 ; Push BC onto the stack
1670+ 6B7C 3A 00 60       LD A,(#6000)            ; A=PEEK #6000
1671+ 6B7F 32 0C 60       LD (#600C),A            ; POKE #600C,A
1672+ 6B82 3A 0B 60       LD A,(#600B)            ; A=PEEK #600B
1673+ 6B85 CD 9C 68       CALL L6011_108          ; CALL L6011_108
1674+ 6B88 C1             POP BC                  ; Pop last item from stack into BC
1675+ 6B89 F1             POP AF                  ; Pop last item from stack into AF
1676+ 6B8A C9             RET                     ; Return
1677+ 6B8B              L6011_146:
1678+ 6B8B F5             PUSH AF                 ; Push AF onto the stack
1679+ 6B8C C5             PUSH BC                 ; Push BC onto the stack
1680+ 6B8D 3A 0C 60       LD A,(#600C)            ; A=PEEK #600C
1681+ 6B90 CD 9C 68       CALL L6011_108          ; CALL L6011_108
1682+ 6B93 C1             POP BC                  ; Pop last item from stack into BC
1683+ 6B94 F1             POP AF                  ; Pop last item from stack into AF
1684+ 6B95 C9             RET                     ; Return
1685+ 6B96              L6011_147:
1686+ 6B96 F5             PUSH AF                 ; Push AF onto the stack
1687+ 6B97 C5             PUSH BC                 ; Push BC onto the stack
1688+ 6B98 16 01          LD D,#01                ; D=#01
1689+ 6B9A 7C             LD A,H                  ; A=H
1690+ 6B9B FE 40          CP #40                  ; Set the zero flag if A=#40, or the carry flag if
1691+ 6B9D                                        ; A<#40
1692+ 6B9D 30 0F          JR NC,L6011_148         ; Jump to L6011_148 if A>=#40
1693+ 6B9F 15             DEC D                   ; D=D-1
1694+ 6BA0 3A 03 60       LD A,(#6003)            ; A=PEEK #6003
1695+ 6BA3 5F             LD E,A                  ; E=A
1696+ 6BA4 3A 0C 60       LD A,(#600C)            ; A=PEEK #600C
1697+ 6BA7 CD C1 68       CALL L6011_114          ; CALL L6011_114
1698+ 6BAA 01 00 C0       LD BC,LC000             ; BC=#C000
1699+ 6BAD 09             ADD HL,BC               ; HL=HL+BC
1700+ 6BAE              L6011_148:
1701+ 6BAE C1             POP BC                  ; Pop last item from stack into BC
1702+ 6BAF F1             POP AF                  ; Pop last item from stack into AF
1703+ 6BB0 C9             RET                     ; Return
1704+ 6BB1              L6011_149:
1705+ 6BB1 F5             PUSH AF                 ; Push AF onto the stack
1706+ 6BB2 C5             PUSH BC                 ; Push BC onto the stack
1707+ 6BB3 15             DEC D                   ; D=D-1
1708+ 6BB4 28 08          JR Z,L6011_150          ; Jump to L6011_150 if D=0
1709+ 6BB6 7B             LD A,E                  ; A=E
1710+ 6BB7 CD C1 68       CALL L6011_114          ; CALL L6011_114
1711+ 6BBA 01 00 40       LD BC,#4000             ; BC=#4000
1712+ 6BBD 09             ADD HL,BC               ; HL=HL+BC
1713+ 6BBE              L6011_150:
1714+ 6BBE C1             POP BC                  ; Pop last item from stack into BC
1715+ 6BBF F1             POP AF                  ; Pop last item from stack into AF
1716+ 6BC0 C9             RET                     ; Return
1717+ 6BC1 04             INC B                   ; B=B+1
1718+ 6BC2 28 29          JR Z,L6011_154          ; Jump to L6011_154 if B=0
1719+ 6BC4 05             DEC B                   ; B=B-1
1720+ 6BC5 20 18          JR NZ,L6011_153         ; Jump to L6011_153 if B>0
1721+ 6BC7 79             LD A,C                  ; A=C
1722+ 6BC8 E6 03          AND #03                 ; Keep only bits 0 and 1 of A
1723+ 6BCA 4F             LD C,A                  ; C=A
1724+ 6BCB 06 38          LD B,#38                ; B=#38
1725+ 6BCD              L6011_151:
1726+ 6BCD 3A 1F 7F       LD A,(#7F1F)            ; A=PEEK #7F1F
1727+ 6BD0 A0             AND B                   ; A=A&B
1728+ 6BD1 B1             OR C                    ; A=A|C
1729+ 6BD2              L6011_152:
1730+ 6BD2 01 AF 20       LD BC,#20AF             ; BC=#20AF
1731+ 6BD5 ED 79          OUT (C),A               ; OUT BC,A
1732+ 6BD7 3E 02          LD A,#02                ; A=#02
1733+ 6BD9 01 AF 2B       LD BC,#2BAF             ; BC=#2BAF
1734+ 6BDC ED 79          OUT (C),A               ; OUT BC,A
1735+ 6BDE C9             RET                     ; Return
1736+ 6BDF              L6011_153:
1737+ 6BDF 79             LD A,C                  ; A=C
1738+ 6BE0 E6 07          AND #07                 ; Keep only bits 0, 1 and 2 of A
1739+ 6BE2 CB 27          SLA A                   ; Shift A left (copying bit 7 into the carry flag,
1740+ 6BE4                                        ; and resetting bit 0)
1741+ 6BE4 CB 27          SLA A                   ; Shift A left (copying bit 7 into the carry flag,
1742+ 6BE6                                        ; and resetting bit 0)
1743+ 6BE6 CB 27          SLA A                   ; Shift A left (copying bit 7 into the carry flag,
1744+ 6BE8                                        ; and resetting bit 0)
1745+ 6BE8 4F             LD C,A                  ; C=A
1746+ 6BE9 06 03          LD B,#03                ; B=#03
1747+ 6BEB 18 E0          JR L6011_151            ; Jump to L6011_151
1748+ 6BED              L6011_154:
1749+ 6BED 3A 20 7F       LD A,(#7F20)            ; A=PEEK #7F20
1750+ 6BF0 E6 3B          AND #3B                 ; Reset bits 2, 6 and 7 of A
1751+ 6BF2 18 DE          JR L6011_152            ; Jump to L6011_152
1752+ 6BF4              L6011_155:
1753+ 6BF4 21 28 7F       LD HL,#7F28             ; HL=#7F28
1754+ 6BF7 C3 12 40       JP #4012                ; Jump to 4012
1755+ 6BFA              L6011_156:
1756+ 6BFA 21 6B 7F       LD HL,#7F6B             ; HL=#7F6B
1757+ 6BFD 01 20 00       LD BC,#0020             ; BC=#0020
1758+ 6C00 ED B0          LDIR                    ; POKE DE,PEEK HL; HL=HL+1; DE=DE+1; BC=BC-1; repeat
1759+ 6C02                                        ; until BC=0
1760+ 6C02 C9             RET                     ; Return
1761+ 6C03              L6011_157:
1762+ 6C03 21 28 7F       LD HL,#7F28             ; HL=#7F28
1763+ 6C06 C3 48 40       JP #4048                ; Jump to 4048
1764+ 6C09              L6011_158:
1765+ 6C09 3E 01          LD A,#01                ; A=#01
1766+ 6C0B 18 0E          JR L6011_163            ; Jump to L6011_163
1767+ 6C0D              L6011_159:
1768+ 6C0D 3E 81          LD A,#81                ; A=#81
1769+ 6C0F 18 0A          JR L6011_163            ; Jump to L6011_163
1770+ 6C11              L6011_160:
1771+ 6C11 3E 04          LD A,#04                ; A=#04
1772+ 6C13 18 06          JR L6011_163            ; Jump to L6011_163
1773+ 6C15              L6011_161:
1774+ 6C15 3E 84          LD A,#84                ; A=#84
1775+ 6C17 18 02          JR L6011_163            ; Jump to L6011_163
1776+ 6C19              L6011_162:
1777+ 6C19 3E 85          LD A,#85                ; A=#85
1778+ 6C1B              L6011_163:
1779+ 6C1B 21 21 7F       LD HL,#7F21             ; HL=#7F21
1780+ 6C1E B6             OR (HL)                 ; A=A|PEEK HL
1781+ 6C1F 23             INC HL                  ; HL=HL+1
1782+ 6C20 B6             OR (HL)                 ; A=A|PEEK HL
1783+ 6C21 23             INC HL                  ; HL=HL+1
1784+ 6C22 B6             OR (HL)                 ; A=A|PEEK HL
1785+ 6C23 08             EX AF,AF'               ; Exchange AF and AF'
1786+ 6C24 CD 84 6C       CALL L6011_166          ; CALL L6011_166
1787+ 6C27 C0             RET NZ                  ; Return if the zero flag is not set
1788+ 6C28 08             EX AF,AF'               ; Exchange AF and AF'
1789+ 6C29 01 AF 27       LD BC,#27AF             ; BC=#27AF
1790+ 6C2C ED 79          OUT (C),A               ; OUT BC,A
1791+ 6C2E 18 4A          JR L6011_164            ; Jump to L6011_164
1792+ 6C30 FE FC          CP #FC                  ; Set the zero flag if A=#FC, or the carry flag if
1793+ 6C32                                        ; A<#FC
1794+ 6C32 28 D5          JR Z,L6011_158          ; Jump to L6011_158 if A=#FC
1795+ 6C34 FE FB          CP #FB                  ; Set the zero flag if A=#FB, or the carry flag if
1796+ 6C36                                        ; A<#FB
1797+ 6C36 28 D5          JR Z,L6011_159          ; Jump to L6011_159 if A=#FB
1798+ 6C38 FE FA          CP #FA                  ; Set the zero flag if A=#FA, or the carry flag if
1799+ 6C3A                                        ; A<#FA
1800+ 6C3A 28 D5          JR Z,L6011_160          ; Jump to L6011_160 if A=#FA
1801+ 6C3C FE F9          CP #F9                  ; Set the zero flag if A=#F9, or the carry flag if
1802+ 6C3E                                        ; A<#F9
1803+ 6C3E 28 D5          JR Z,L6011_161          ; Jump to L6011_161 if A=#F9
1804+ 6C40 FE F8          CP #F8                  ; Set the zero flag if A=#F8, or the carry flag if
1805+ 6C42                                        ; A<#F8
1806+ 6C42 28 D5          JR Z,L6011_162          ; Jump to L6011_162 if A=#F8
1807+ 6C44 FE FF          CP #FF                  ; Set the zero flag if A=#FF, or the carry flag if
1808+ 6C46                                        ; A<#FF
1809+ 6C46 28 32          JR Z,L6011_164          ; Jump to L6011_164 if A=#FF
1810+ 6C48 FE FE          CP #FE                  ; Set the zero flag if A=#FE, or the carry flag if
1811+ 6C4A                                        ; A<#FE
1812+ 6C4A 28 45          JR Z,L6011_168          ; Jump to L6011_168 if A=#FE
1813+ 6C4C FE FD          CP #FD                  ; Set the zero flag if A=#FD, or the carry flag if
1814+ 6C4E                                        ; A<#FD
1815+ 6C4E 28 47          JR Z,L6011_169          ; Jump to L6011_169 if A=#FD
1816+ 6C50 B7             OR A                    ; Clear the carry flag and set the zero flag if A=0
1817+ 6C51 28 51          JR Z,L6011_170          ; Jump to L6011_170 if A=0
1818+ 6C53 3D             DEC A                   ; A=A-1
1819+ 6C54 28 55          JR Z,L6011_171          ; Jump to L6011_171 if A=0
1820+ 6C56 3D             DEC A                   ; A=A-1
1821+ 6C57 28 64          JR Z,L6011_173          ; Jump to L6011_173 if A=0
1822+ 6C59 3D             DEC A                   ; A=A-1
1823+ 6C5A 28 73          JR Z,L6011_175          ; Jump to L6011_175 if A=0
1824+ 6C5C 3D             DEC A                   ; A=A-1
1825+ 6C5D 28 75          JR Z,L6011_176          ; Jump to L6011_176 if A=0
1826+ 6C5F 3D             DEC A                   ; A=A-1
1827+ 6C60 28 77          JR Z,L6011_177          ; Jump to L6011_177 if A=0
1828+ 6C62 3D             DEC A                   ; A=A-1
1829+ 6C63 28 7B          JR Z,L6011_178          ; Jump to L6011_178 if A=0
1830+ 6C65 3D             DEC A                   ; A=A-1
1831+ 6C66 CA E7 6C       JP Z,L6011_179          ; Jump to L6011_179 if A=0
1832+ 6C69 3D             DEC A                   ; A=A-1
1833+ 6C6A CA FA 6C       JP Z,L6011_181          ; Jump to L6011_181 if A=0
1834+ 6C6D 3D             DEC A                   ; A=A-1
1835+ 6C6E CA 07 6D       JP Z,L6011_182          ; Jump to L6011_182 if A=0
1836+ 6C71 3D             DEC A                   ; A=A-1
1837+ 6C72 CA 16 6D       JP Z,L6011_183          ; Jump to L6011_183 if A=0
1838+ 6C75 3D             DEC A                   ; A=A-1
1839+ 6C76 CA EF 6C       JP Z,L6011_180          ; Jump to L6011_180 if A=0
1840+ 6C79 C9             RET                     ; Return
1841+ 6C7A              L6011_164:
1842+ 6C7A 01 AF 27       LD BC,#27AF             ; BC=#27AF
1843+ 6C7D              L6011_165:
1844+ 6C7D ED 70          DB #ED,#70
1845+ 6C7F FA 7D 6C       JP M,L6011_165          ; Jump to L6011_165 if the sign flag is set
1846+ 6C82                                        ; (negative)
1847+ 6C82 AF             XOR A                   ; A=0
1848+ 6C83 C9             RET                     ; Return
1849+ 6C84              L6011_166:
1850+ 6C84 01 AF 27       LD BC,#27AF             ; BC=#27AF
1851+ 6C87 ED 70          DB #ED,#70
1852+ 6C89 FA 8E 6C       JP M,L6011_167          ; Jump to L6011_167 if the sign flag is set
1853+ 6C8C                                        ; (negative)
1854+ 6C8C AF             XOR A                   ; A=0
1855+ 6C8D C9             RET                     ; Return
1856+ 6C8E              L6011_167:
1857+ 6C8E AF             XOR A                   ; A=0
1858+ 6C8F 3C             INC A                   ; A=A+1
1859+ 6C90 C9             RET                     ; Return
1860+ 6C91              L6011_168:
1861+ 6C91 CD 97 6C       CALL L6011_169          ; CALL L6011_169
1862+ 6C94 C0             RET NZ                  ; Return if the zero flag is not set
1863+ 6C95 18 E3          JR L6011_164            ; Jump to L6011_164
1864+ 6C97              L6011_169:
1865+ 6C97 CD 84 6C       CALL L6011_166          ; CALL L6011_166
1866+ 6C9A C0             RET NZ                  ; Return if the zero flag is not set
1867+ 6C9B 01 AF 27       LD BC,#27AF             ; BC=#27AF
1868+ 6C9E 3E 01          LD A,#01                ; A=#01
1869+ 6CA0 ED 79          OUT (C),A               ; OUT BC,A
1870+ 6CA2 AF             XOR A                   ; A=0
1871+ 6CA3 C9             RET                     ; Return
1872+ 6CA4              L6011_170:
1873+ 6CA4 C5             PUSH BC                 ; Push BC onto the stack
1874+ 6CA5 CD AB 6C       CALL L6011_171          ; CALL L6011_171
1875+ 6CA8 C1             POP BC                  ; Pop last item from stack into BC
1876+ 6CA9 18 12          JR L6011_173            ; Jump to L6011_173
1877+ 6CAB              L6011_171:
1878+ 6CAB 78             LD A,B                  ; A=B
1879+ 6CAC CD 23 6D       CALL L6011_184          ; CALL L6011_184
1880+ 6CAF              L6011_172:
1881+ 6CAF 01 AF 1A       LD BC,#1AAF             ; BC=#1AAF
1882+ 6CB2 ED 69          OUT (C),L               ; OUT BC,L
1883+ 6CB4 06 1B          LD B,#1B                ; B=#1B
1884+ 6CB6 ED 61          OUT (C),H               ; OUT BC,H
1885+ 6CB8 06 1C          LD B,#1C                ; B=#1C
1886+ 6CBA ED 79          OUT (C),A               ; OUT BC,A
1887+ 6CBC C9             RET                     ; Return
1888+ 6CBD              L6011_173:
1889+ 6CBD 79             LD A,C                  ; A=C
1890+ 6CBE CD 23 6D       CALL L6011_184          ; CALL L6011_184
1891+ 6CC1              L6011_174:
1892+ 6CC1 01 AF 1D       LD BC,#1DAF             ; BC=#1DAF
1893+ 6CC4 ED 59          OUT (C),E               ; OUT BC,E
1894+ 6CC6 06 1E          LD B,#1E                ; B=#1E
1895+ 6CC8 ED 51          OUT (C),D               ; OUT BC,D
1896+ 6CCA 06 1F          LD B,#1F                ; B=#1F
1897+ 6CCC ED 79          OUT (C),A               ; OUT BC,A
1898+ 6CCE C9             RET                     ; Return
1899+ 6CCF              L6011_175:
1900+ 6CCF CD 37 6D       CALL L6011_186          ; CALL L6011_186
1901+ 6CD2 18 DB          JR L6011_172            ; Jump to L6011_172
1902+ 6CD4              L6011_176:
1903+ 6CD4 CD 37 6D       CALL L6011_186          ; CALL L6011_186
1904+ 6CD7 18 E8          JR L6011_174            ; Jump to L6011_174
1905+ 6CD9              L6011_177:
1906+ 6CD9 78             LD A,B                  ; A=B
1907+ 6CDA 01 AF 28       LD BC,#28AF             ; BC=#28AF
1908+ 6CDD ED 79          OUT (C),A               ; OUT BC,A
1909+ 6CDF C9             RET                     ; Return
1910+ 6CE0              L6011_178:
1911+ 6CE0 78             LD A,B                  ; A=B
1912+ 6CE1 01 AF 26       LD BC,#26AF             ; BC=#26AF
1913+ 6CE4 ED 79          OUT (C),A               ; OUT BC,A
1914+ 6CE6 C9             RET                     ; Return
1915+ 6CE7              ; This entry point is used by the routine at L8531.
1916+ 6CE7              L6011_179:
1917+ 6CE7 C5             PUSH BC                 ; Push BC onto the stack
1918+ 6CE8 CD D9 6C       CALL L6011_177          ; CALL L6011_177
1919+ 6CEB C1             POP BC                  ; Pop last item from stack into BC
1920+ 6CEC 41             LD B,C                  ; B=C
1921+ 6CED 18 F1          JR L6011_178            ; Jump to L6011_178
1922+ 6CEF              L6011_180:
1923+ 6CEF 4B             LD C,E                  ; C=E
1924+ 6CF0 CD 16 6D       CALL L6011_183          ; CALL L6011_183
1925+ 6CF3 4C             LD C,H                  ; C=H
1926+ 6CF4 CD FA 6C       CALL L6011_181          ; CALL L6011_181
1927+ 6CF7 4D             LD C,L                  ; C=L
1928+ 6CF8 18 0D          JR L6011_182            ; Jump to L6011_182
1929+ 6CFA              L6011_181:
1930+ 6CFA 79             LD A,C                  ; A=C
1931+ 6CFB CB 0F          RRC A                   ; Rotate A right circular (copying bit 0 into bit 7
1932+ 6CFD                                        ; and into the carry flag)
1933+ 6CFD CB 0F          RRC A                   ; Rotate A right circular (copying bit 0 into bit 7
1934+ 6CFF                                        ; and into the carry flag)
1935+ 6CFF CB 0F          RRC A                   ; Rotate A right circular (copying bit 0 into bit 7
1936+ 6D01                                        ; and into the carry flag)
1937+ 6D01 E6 20          AND #20                 ; Keep only bit 5 of A
1938+ 6D03 32 21 7F       LD (#7F21),A            ; POKE #7F21,A
1939+ 6D06 C9             RET                     ; Return
1940+ 6D07              L6011_182:
1941+ 6D07 79             LD A,C                  ; A=C
1942+ 6D08 CB 0F          RRC A                   ; Rotate A right circular (copying bit 0 into bit 7
1943+ 6D0A                                        ; and into the carry flag)
1944+ 6D0A CB 0F          RRC A                   ; Rotate A right circular (copying bit 0 into bit 7
1945+ 6D0C                                        ; and into the carry flag)
1946+ 6D0C CB 0F          RRC A                   ; Rotate A right circular (copying bit 0 into bit 7
1947+ 6D0E                                        ; and into the carry flag)
1948+ 6D0E CB 0F          RRC A                   ; Rotate A right circular (copying bit 0 into bit 7
1949+ 6D10                                        ; and into the carry flag)
1950+ 6D10 E6 10          AND #10                 ; Keep only bit 4 of A
1951+ 6D12 32 22 7F       LD (#7F22),A            ; POKE #7F22,A
1952+ 6D15 C9             RET                     ; Return
1953+ 6D16              L6011_183:
1954+ 6D16 79             LD A,C                  ; A=C
1955+ 6D17 CB 27          SLA A                   ; Shift A left (copying bit 7 into the carry flag,
1956+ 6D19                                        ; and resetting bit 0)
1957+ 6D19 CB 27          SLA A                   ; Shift A left (copying bit 7 into the carry flag,
1958+ 6D1B                                        ; and resetting bit 0)
1959+ 6D1B CB 27          SLA A                   ; Shift A left (copying bit 7 into the carry flag,
1960+ 6D1D                                        ; and resetting bit 0)
1961+ 6D1D E6 08          AND #08                 ; Keep only bit 3 of A
1962+ 6D1F 32 23 7F       LD (#7F23),A            ; POKE #7F23,A
1963+ 6D22 C9             RET                     ; Return
1964+ 6D23              L6011_184:
1965+ 6D23 CB 7F          BIT 7,A                 ; Set the zero flag if bit 7 of A is 0
1966+ 6D25 20 05          JR NZ,L6011_185         ; Jump to L6011_185 if bit 7 of A is set
1967+ 6D27 E6 3F          AND #3F                 ; Reset bits 6 and 7 of A
1968+ 6D29 C6 20          ADD A,#20               ; A=A+#20
1969+ 6D2B C9             RET                     ; Return
1970+ 6D2C              L6011_185:
1971+ 6D2C E6 0F          AND #0F                 ; Keep only bits 0, 1, 2 and 3 of A
1972+ 6D2E C6 61          ADD A,#61               ; A=A+#61
1973+ 6D30 D9             EXX                     ; Exchange BC, DE and HL with BC', DE' and HL'
1974+ 6D31 21 15 7F       LD HL,#7F15             ; HL=#7F15
1975+ 6D34 86             ADD A,(HL)              ; A=A+PEEK HL
1976+ 6D35 D9             EXX                     ; Exchange BC, DE and HL with BC', DE' and HL'
1977+ 6D36 C9             RET                     ; Return
1978+ 6D37              L6011_186:
1979+ 6D37 78             LD A,B                  ; A=B
1980+ 6D38 E6 03          AND #03                 ; Keep only bits 0 and 1 of A
1981+ 6D3A D9             EXX                     ; Exchange BC, DE and HL with BC', DE' and HL'
1982+ 6D3B 26 60          LD H,#60                ; H=#60
1983+ 6D3D 6F             LD L,A                  ; L=A
1984+ 6D3E 7E             LD A,(HL)               ; A=PEEK HL
1985+ 6D3F D9             EXX                     ; Exchange BC, DE and HL with BC', DE' and HL'
1986+ 6D40 C9             RET                     ; Return
1987+ 6D41 B7             OR A                    ; Clear the carry flag and set the zero flag if A=0
1988+ 6D42 CA BA 73       JP Z,L7143_33           ; Jump to L7143_33 if A=0
1989+ 6D45 3D             DEC A                   ; A=A-1
1990+ 6D46 CA 2B 74       JP Z,L7143_44           ; Jump to L7143_44 if A=0
1991+ 6D49 C9             RET                     ; Return
1992+ 6D4A              L6011_187:
1993+ 6D4A C9             RET                     ; Return
1994+ 6D4B              L6011_188:
1995+ 6D4B 7C             LD A,H                  ; A=H
1996+ 6D4C B5             OR L                    ; A=A|L
1997+ 6D4D CA AB 6D       JP Z,L6011_197          ; Jump to L6011_197 if A=0
1998+ 6D50 CB 7C          BIT 7,H                 ; Set the zero flag if bit 7 of H is 0
1999+ 6D52 F5             PUSH AF                 ; Push AF onto the stack
2000+ 6D53 CB BC          RES 7,H                 ; Reset bit 7 of H
2001+ 6D55 D5             PUSH DE                 ; Push DE onto the stack
2002+ 6D56 E5             PUSH HL                 ; Push HL onto the stack
2003+ 6D57 21 00 00       LD HL,#0000             ; HL=#0000
2004+ 6D5A D9             EXX                     ; Exchange BC, DE and HL with BC', DE' and HL'
2005+ 6D5B D1             POP DE                  ; Pop last item from stack into DE
2006+ 6D5C 21 00 00       LD HL,#0000             ; HL=#0000
2007+ 6D5F              L6011_189:
2008+ 6D5F D9             EXX                     ; Exchange BC, DE and HL with BC', DE' and HL'
2009+ 6D60              L6011_190:
2010+ 6D60 22 46 7F       LD (#7F46),HL           ; POKE #7F46,L; POKE #7F47,H
2011+ 6D63 CD 4F 63       CALL L6011_36           ; CALL L6011_36
2012+ 6D66 28 3E          JR Z,L6011_196          ; Jump to L6011_196 if the zero flag is set
2013+ 6D68 01 10 00       LD BC,#0010             ; BC=#0010
2014+ 6D6B 09             ADD HL,BC               ; HL=HL+BC
2015+ 6D6C 7E             LD A,(HL)               ; A=PEEK HL
2016+ 6D6D B7             OR A                    ; Clear the carry flag and set the zero flag if A=0
2017+ 6D6E 28 05          JR Z,L6011_191          ; Jump to L6011_191 if A=0
2018+ 6D70 ED 42          SBC HL,BC               ; HL=HL-carry-BC
2019+ 6D72 7E             LD A,(HL)               ; A=PEEK HL
2020+ 6D73 CB 47          BIT 0,A                 ; Set the zero flag if bit 0 of A is 0
2021+ 6D75              L6011_191:
2022+ 6D75 2A 46 7F       LD HL,(#7F46)           ; L=PEEK #7F46; H=PEEK #7F47
2023+ 6D78 23             INC HL                  ; HL=HL+1
2024+ 6D79 28 E5          JR Z,L6011_190          ; Jump to L6011_190 if the zero flag is set
2025+ 6D7B D9             EXX                     ; Exchange BC, DE and HL with BC', DE' and HL'
2026+ 6D7C 23             INC HL                  ; HL=HL+1
2027+ 6D7D B7             OR A                    ; Clear the carry flag and set the zero flag if A=0
2028+ 6D7E ED 52          SBC HL,DE               ; HL=HL-carry-DE
2029+ 6D80 28 04          JR Z,L6011_192          ; Jump to L6011_192 if HL=0
2030+ 6D82 19             ADD HL,DE               ; HL=HL+DE
2031+ 6D83 C3 5F 6D       JP L6011_189            ; Jump to L6011_189
2032+ 6D86              L6011_192:
2033+ 6D86 D9             EXX                     ; Exchange BC, DE and HL with BC', DE' and HL'
2034+ 6D87 2B             DEC HL                  ; HL=HL-1
2035+ 6D88 CD 0B 63       CALL L6011_34           ; CALL L6011_34
2036+ 6D8B EB             EX DE,HL                ; Exchange DE and HL
2037+ 6D8C 23             INC HL                  ; HL=HL+1
2038+ 6D8D D1             POP DE                  ; Pop last item from stack into DE
2039+ 6D8E 01 FF FF       LD BC,#FFFF             ; BC=#FFFF
2040+ 6D91              L6011_193:
2041+ 6D91 7E             LD A,(HL)               ; A=PEEK HL
2042+ 6D92 B7             OR A                    ; Clear the carry flag and set the zero flag if A=0
2043+ 6D93 28 09          JR Z,L6011_194          ; Jump to L6011_194 if A=0
2044+ 6D95 7A             LD A,D                  ; A=D
2045+ 6D96 FE C0          CP #C0                  ; Set the zero flag if A=#C0, or the carry flag if
2046+ 6D98                                        ; A<#C0
2047+ 6D98 30 06          JR NC,L6011_195         ; Jump to L6011_195 if A>=#C0
2048+ 6D9A ED A0          LDI                     ; POKE DE,PEEK HL; HL=HL+1; DE=DE+1; BC=BC-1
2049+ 6D9C 10 F3          DJNZ L6011_193          ; Decrement B and jump to L6011_193 if B>0
2050+ 6D9E              L6011_194:
2051+ 6D9E AF             XOR A                   ; A=0
2052+ 6D9F 12             LD (DE),A               ; POKE DE,A
2053+ 6DA0              L6011_195:
2054+ 6DA0 F1             POP AF                  ; Pop last item from stack into AF
2055+ 6DA1 CC F4 6B       CALL Z,L6011_155        ; CALL L6011_155 if the zero flag is set
2056+ 6DA4 AF             XOR A                   ; A=0
2057+ 6DA5 C9             RET                     ; Return
2058+ 6DA6              L6011_196:
2059+ 6DA6 D1             POP DE                  ; Pop last item from stack into DE
2060+ 6DA7 F1             POP AF                  ; Pop last item from stack into AF
2061+ 6DA8 AF             XOR A                   ; A=0
2062+ 6DA9 3C             INC A                   ; A=A+1
2063+ 6DAA C9             RET                     ; Return
2064+ 6DAB              L6011_197:
2065+ 6DAB 21 00 00       LD HL,#0000             ; HL=#0000
2066+ 6DAE D9             EXX                     ; Exchange BC, DE and HL with BC', DE' and HL'
2067+ 6DAF 01 00 00       LD BC,#0000             ; BC=#0000
2068+ 6DB2              L6011_198:
2069+ 6DB2 D9             EXX                     ; Exchange BC, DE and HL with BC', DE' and HL'
2070+ 6DB3              L6011_199:
2071+ 6DB3 22 46 7F       LD (#7F46),HL           ; POKE #7F46,L; POKE #7F47,H
2072+ 6DB6 CD 4F 63       CALL L6011_36           ; CALL L6011_36
2073+ 6DB9 28 18          JR Z,L6011_201          ; Jump to L6011_201 if the zero flag is set
2074+ 6DBB 01 10 00       LD BC,#0010             ; BC=#0010
2075+ 6DBE 09             ADD HL,BC               ; HL=HL+BC
2076+ 6DBF 7E             LD A,(HL)               ; A=PEEK HL
2077+ 6DC0 B7             OR A                    ; Clear the carry flag and set the zero flag if A=0
2078+ 6DC1 28 05          JR Z,L6011_200          ; Jump to L6011_200 if A=0
2079+ 6DC3 ED 42          SBC HL,BC               ; HL=HL-carry-BC
2080+ 6DC5 7E             LD A,(HL)               ; A=PEEK HL
2081+ 6DC6 CB 47          BIT 0,A                 ; Set the zero flag if bit 0 of A is 0
2082+ 6DC8              L6011_200:
2083+ 6DC8 2A 46 7F       LD HL,(#7F46)           ; L=PEEK #7F46; H=PEEK #7F47
2084+ 6DCB 23             INC HL                  ; HL=HL+1
2085+ 6DCC 28 E5          JR Z,L6011_199          ; Jump to L6011_199 if the zero flag is set
2086+ 6DCE D9             EXX                     ; Exchange BC, DE and HL with BC', DE' and HL'
2087+ 6DCF 03             INC BC                  ; BC=BC+1
2088+ 6DD0 C3 B2 6D       JP L6011_198            ; Jump to L6011_198
2089+ 6DD3              L6011_201:
2090+ 6DD3 D9             EXX                     ; Exchange BC, DE and HL with BC', DE' and HL'
2091+ 6DD4 21 00 00       LD HL,#0000             ; HL=#0000
2092+ 6DD7 22 46 7F       LD (#7F46),HL           ; POKE #7F46,L; POKE #7F47,H
2093+ 6DDA ED 43 44 7F    LD (#7F44),BC           ; POKE #7F44,C; POKE #7F45,B
2094+ 6DDE 78             LD A,B                  ; A=B
2095+ 6DDF B1             OR C                    ; A=A|C
2096+ 6DE0 C9             RET                     ; Return
2097+ 6DE1              L6011_202:
2098+ 6DE1 C9             RET                     ; Return
2099+ 6DE2              L6011_203:
2100+ 6DE2 3E F2          LD A,#F2                ; A=#F2
2101+ 6DE4 CD 9C 68       CALL L6011_108          ; CALL L6011_108
2102+ 6DE7 CD 9F 6A       CALL L6011_144          ; CALL L6011_144
2103+ 6DEA CD 24 6E       CALL L6011_206          ; CALL L6011_206
2104+ 6DED 3E 01          LD A,#01                ; A=#01
2105+ 6DEF C0             RET NZ                  ; Return if the zero flag is not set
2106+ 6DF0 21 AB 7F       LD HL,#7FAB             ; HL=#7FAB
2107+ 6DF3 CD 4E 40       CALL #404E              ; CALL 404E
2108+ 6DF6 3E 02          LD A,#02                ; A=#02
2109+ 6DF8 28 0C          JR Z,L6011_204          ; Jump to L6011_204 if the zero flag is set
2110+ 6DFA 22 30 7F       LD (#7F30),HL           ; POKE #7F30,L; POKE #7F31,H
2111+ 6DFD ED 53 32 7F    LD (#7F32),DE           ; POKE #7F32,E; POKE #7F33,D
2112+ 6E01 CD 58 6F       CALL L6011_229          ; CALL L6011_229
2113+ 6E04 AF             XOR A                   ; A=0
2114+ 6E05 C9             RET                     ; Return
2115+ 6E06              L6011_204:
2116+ 6E06 B7             OR A                    ; Clear the carry flag and set the zero flag if A=0
2117+ 6E07 C9             RET                     ; Return
2118+ 6E08              L6011_205:
2119+ 6E08 7A             LD A,D                  ; A=D
2120+ 6E09 FE FF          CP #FF                  ; Set the zero flag if A=#FF, or the carry flag if
2121+ 6E0B                                        ; A<#FF
2122+ 6E0B 28 46          JR Z,L6011_209          ; Jump to L6011_209 if A=#FF
2123+ 6E0D FE FE          CP #FE                  ; Set the zero flag if A=#FE, or the carry flag if
2124+ 6E0F                                        ; A<#FE
2125+ 6E0F 28 4E          JR Z,L6011_210          ; Jump to L6011_210 if A=#FE
2126+ 6E11 FE FD          CP #FD                  ; Set the zero flag if A=#FD, or the carry flag if
2127+ 6E13                                        ; A<#FD
2128+ 6E13 28 CD          JR Z,L6011_203          ; Jump to L6011_203 if A=#FD
2129+ 6E15 C5             PUSH BC                 ; Push BC onto the stack
2130+ 6E16 E6 01          AND #01                 ; Keep only bit 0 of A
2131+ 6E18 C6 F3          ADD A,#F3               ; A=A+#F3
2132+ 6E1A CD 9C 68       CALL L6011_108          ; CALL L6011_108
2133+ 6E1D C1             POP BC                  ; Pop last item from stack into BC
2134+ 6E1E 58             LD E,B                  ; E=B
2135+ 6E1F 03             INC BC                  ; BC=BC+1
2136+ 6E20 78             LD A,B                  ; A=B
2137+ 6E21 B1             OR C                    ; A=A|C
2138+ 6E22 C8             RET Z                   ; Return if A=0
2139+ 6E23 7B             LD A,E                  ; A=E
2140+ 6E24              ; This entry point is used by the routine at L9B7C.
2141+ 6E24              L6011_206:
2142+ 6E24 B7             OR A                    ; Clear the carry flag and set the zero flag if A=0
2143+ 6E25 28 1C          JR Z,L6011_207          ; Jump to L6011_207 if A=0
2144+ 6E27 3D             DEC A                   ; A=A-1
2145+ 6E28 0E 00          LD C,#00                ; C=#00
2146+ 6E2A 28 19          JR Z,L6011_208          ; Jump to L6011_208 if the zero flag is set
2147+ 6E2C 3D             DEC A                   ; A=A-1
2148+ 6E2D 0E 05          LD C,#05                ; C=#05
2149+ 6E2F 28 14          JR Z,L6011_208          ; Jump to L6011_208 if the zero flag is set
2150+ 6E31 3D             DEC A                   ; A=A-1
2151+ 6E32 28 0F          JR Z,L6011_207          ; Jump to L6011_207 if A=0
2152+ 6E34 3D             DEC A                   ; A=A-1
2153+ 6E35 0E 03          LD C,#03                ; C=#03
2154+ 6E37 28 0C          JR Z,L6011_208          ; Jump to L6011_208 if the zero flag is set
2155+ 6E39 3D             DEC A                   ; A=A-1
2156+ 6E3A 0E 04          LD C,#04                ; C=#04
2157+ 6E3C 28 07          JR Z,L6011_208          ; Jump to L6011_208 if the zero flag is set
2158+ 6E3E 3D             DEC A                   ; A=A-1
2159+ 6E3F 0E 06          LD C,#06                ; C=#06
2160+ 6E41 28 02          JR Z,L6011_208          ; Jump to L6011_208 if the zero flag is set
2161+ 6E43              L6011_207:
2162+ 6E43 0E 01          LD C,#01                ; C=#01
2163+ 6E45              L6011_208:
2164+ 6E45 79             LD A,C                  ; A=C
2165+ 6E46 CD 1B 40       CALL #401B              ; CALL 401B
2166+ 6E49 CD 03 40       CALL #4003              ; CALL 4003
2167+ 6E4C C0             RET NZ                  ; Return if the zero flag is not set
2168+ 6E4D CD 09 40       CALL #4009              ; CALL 4009
2169+ 6E50 C0             RET NZ                  ; Return if the zero flag is not set
2170+ 6E51 AF             XOR A                   ; A=0
2171+ 6E52 C9             RET                     ; Return
2172+ 6E53              L6011_209:
2173+ 6E53 21 00 00       LD HL,#0000             ; HL=#0000
2174+ 6E56 22 30 7F       LD (#7F30),HL           ; POKE #7F30,L; POKE #7F31,H
2175+ 6E59 22 32 7F       LD (#7F32),HL           ; POKE #7F32,L; POKE #7F33,H
2176+ 6E5C C3 58 6F       JP L6011_229            ; Jump to L6011_229
2177+ 6E5F              L6011_210:
2178+ 6E5F 21 00 00       LD HL,#0000             ; HL=#0000
2179+ 6E62 54             LD D,H                  ; D=H
2180+ 6E63 5D             LD E,L                  ; E=L
2181+ 6E64 3A 18 60       LD A,(#6018)            ; A=PEEK #6018
2182+ 6E67 CD AF 6C       CALL L6011_172          ; CALL L6011_172
2183+ 6E6A 3E F4          LD A,#F4                ; A=#F4
2184+ 6E6C CD C1 6C       CALL L6011_174          ; CALL L6011_174
2185+ 6E6F 06 1F          LD B,#1F                ; B=#1F
2186+ 6E71 CD D9 6C       CALL L6011_177          ; CALL L6011_177
2187+ 6E74 06 FF          LD B,#FF                ; B=#FF
2188+ 6E76 CD E0 6C       CALL L6011_178          ; CALL L6011_178
2189+ 6E79 01 AF 27       LD BC,#27AF             ; BC=#27AF
2190+ 6E7C 3E 01          LD A,#01                ; A=#01
2191+ 6E7E ED 79          OUT (C),A               ; OUT BC,A
2192+ 6E80 CD 7A 6C       CALL L6011_164          ; CALL L6011_164
2193+ 6E83              ; This entry point is used by the routine at L8531.
2194+ 6E83              L6011_211:
2195+ 6E83 3A 18 60       LD A,(#6018)            ; A=PEEK #6018
2196+ 6E86 CD AF 6C       CALL L6011_172          ; CALL L6011_172
2197+ 6E89 3E F3          LD A,#F3                ; A=#F3
2198+ 6E8B CD C1 6C       CALL L6011_174          ; CALL L6011_174
2199+ 6E8E 01 AF 27       LD BC,#27AF             ; BC=#27AF
2200+ 6E91 3E 01          LD A,#01                ; A=#01
2201+ 6E93 ED 79          OUT (C),A               ; OUT BC,A
2202+ 6E95 CD 7A 6C       CALL L6011_164          ; CALL L6011_164
2203+ 6E98              ; This entry point is used by the routine at L8531.
2204+ 6E98              L6011_212:
2205+ 6E98 3E F3          LD A,#F3                ; A=#F3
2206+ 6E9A C3 9C 68       JP L6011_108            ; Jump to L6011_108
2207+ 6E9D              L6011_213:
2208+ 6E9D 06 FF          LD B,#FF                ; B=#FF
2209+ 6E9F 23             INC HL                  ; HL=HL+1
2210+ 6EA0              L6011_214:
2211+ 6EA0 7E             LD A,(HL)               ; A=PEEK HL
2212+ 6EA1 B7             OR A                    ; Clear the carry flag and set the zero flag if A=0
2213+ 6EA2 C8             RET Z                   ; Return if A=0
2214+ 6EA3 FE 5C          CP #5C                  ; Set the zero flag if A=#5C, or the carry flag if
2215+ 6EA5                                        ; A<#5C
2216+ 6EA5 37             SCF                     ; Set the carry flag
2217+ 6EA6 C8             RET Z                   ; Return if the zero flag is set
2218+ 6EA7 FE 2F          CP #2F                  ; Set the zero flag if A=#2F, or the carry flag if
2219+ 6EA9                                        ; A<#2F
2220+ 6EA9 37             SCF                     ; Set the carry flag
2221+ 6EAA C8             RET Z                   ; Return if the zero flag is set
2222+ 6EAB 23             INC HL                  ; HL=HL+1
2223+ 6EAC 10 F2          DJNZ L6011_214          ; Decrement B and jump to L6011_214 if B>0
2224+ 6EAE AF             XOR A                   ; A=0
2225+ 6EAF 3D             DEC A                   ; A=A-1
2226+ 6EB0 C9             RET                     ; Return
2227+ 6EB1              L6011_215:
2228+ 6EB1 11 00 5E       LD DE,#5E00             ; DE=#5E00
2229+ 6EB4 12             LD (DE),A               ; POKE DE,A
2230+ 6EB5 13             INC DE                  ; DE=DE+1
2231+ 6EB6 23             INC HL                  ; HL=HL+1
2232+ 6EB7 08             EX AF,AF'               ; Exchange AF and AF'
2233+ 6EB8 3E FF          LD A,#FF                ; A=#FF
2234+ 6EBA 90             SUB B                   ; A=A-B
2235+ 6EBB C8             RET Z                   ; Return if A=0
2236+ 6EBC 0E FF          LD C,#FF                ; C=#FF
2237+ 6EBE 47             LD B,A                  ; B=A
2238+ 6EBF              L6011_216:
2239+ 6EBF ED A0          LDI                     ; POKE DE,PEEK HL; HL=HL+1; DE=DE+1; BC=BC-1
2240+ 6EC1 10 FC          DJNZ L6011_216          ; Decrement B and jump to L6011_216 if B>0
2241+ 6EC3 22 4F 7F       LD (#7F4F),HL           ; POKE #7F4F,L; POKE #7F50,H
2242+ 6EC6 AF             XOR A                   ; A=0
2243+ 6EC7 12             LD (DE),A               ; POKE DE,A
2244+ 6EC8 08             EX AF,AF'               ; Exchange AF and AF'
2245+ 6EC9 3C             INC A                   ; A=A+1
2246+ 6ECA C9             RET                     ; Return
2247+ 6ECB              L6011_217:
2248+ 6ECB E5             PUSH HL                 ; Push HL onto the stack
2249+ 6ECC CD 9D 6E       CALL L6011_213          ; CALL L6011_213
2250+ 6ECF E1             POP HL                  ; Pop last item from stack into HL
2251+ 6ED0 38 02          JR C,L6011_218          ; Jump to L6011_218 if the carry flag is set
2252+ 6ED2 28 58          JR Z,L6011_226          ; Jump to L6011_226 if the zero flag is set
2253+ 6ED4              L6011_218:
2254+ 6ED4 3C             INC A                   ; A=A+1
2255+ 6ED5 C8             RET Z                   ; Return if A=0
2256+ 6ED6 3E 10          LD A,#10                ; A=#10
2257+ 6ED8 CD B1 6E       CALL L6011_215          ; CALL L6011_215
2258+ 6EDB C8             RET Z                   ; Return if the zero flag is set
2259+ 6EDC CD 20 6F       CALL L6011_224          ; CALL L6011_224
2260+ 6EDF              L6011_219:
2261+ 6EDF 21 00 5E       LD HL,#5E00             ; HL=#5E00
2262+ 6EE2 CD 4E 40       CALL #404E              ; CALL 404E
2263+ 6EE5 28 14          JR Z,L6011_220          ; Jump to L6011_220 if the zero flag is set
2264+ 6EE7 22 30 7F       LD (#7F30),HL           ; POKE #7F30,L; POKE #7F31,H
2265+ 6EEA ED 53 32 7F    LD (#7F32),DE           ; POKE #7F32,E; POKE #7F33,D
2266+ 6EEE CD 58 6F       CALL L6011_229          ; CALL L6011_229
2267+ 6EF1 2A 4F 7F       LD HL,(#7F4F)           ; L=PEEK #7F4F; H=PEEK #7F50
2268+ 6EF4 CD 9D 6E       CALL L6011_213          ; CALL L6011_213
2269+ 6EF7 38 07          JR C,L6011_221          ; Jump to L6011_221 if the carry flag is set
2270+ 6EF9 28 07          JR Z,L6011_222          ; Jump to L6011_222 if the zero flag is set
2271+ 6EFB              L6011_220:
2272+ 6EFB CD 16 6F       CALL L6011_223          ; CALL L6011_223
2273+ 6EFE AF             XOR A                   ; A=0
2274+ 6EFF C9             RET                     ; Return
2275+ 6F00              L6011_221:
2276+ 6F00 3E 10          LD A,#10                ; A=#10
2277+ 6F02              L6011_222:
2278+ 6F02 2A 4F 7F       LD HL,(#7F4F)           ; L=PEEK #7F4F; H=PEEK #7F50
2279+ 6F05 CD B1 6E       CALL L6011_215          ; CALL L6011_215
2280+ 6F08 28 F1          JR Z,L6011_220          ; Jump to L6011_220 if the zero flag is set
2281+ 6F0A FE 11          CP #11                  ; Set the zero flag if A=#11, or the carry flag if
2282+ 6F0C                                        ; A<#11
2283+ 6F0C 28 D1          JR Z,L6011_219          ; Jump to L6011_219 if A=#11
2284+ 6F0E 21 00 5E       LD HL,#5E00             ; HL=#5E00
2285+ 6F11 CD 2C 6F       CALL L6011_226          ; CALL L6011_226
2286+ 6F14 28 E5          JR Z,L6011_220          ; Jump to L6011_220 if the zero flag is set
2287+ 6F16              L6011_223:
2288+ 6F16 E5             PUSH HL                 ; Push HL onto the stack
2289+ 6F17 D5             PUSH DE                 ; Push DE onto the stack
2290+ 6F18 CD 26 6F       CALL L6011_225          ; CALL L6011_225
2291+ 6F1B D1             POP DE                  ; Pop last item from stack into DE
2292+ 6F1C E1             POP HL                  ; Pop last item from stack into HL
2293+ 6F1D AF             XOR A                   ; A=0
2294+ 6F1E 3C             INC A                   ; A=A+1
2295+ 6F1F C9             RET                     ; Return
2296+ 6F20              ; This entry point is used by the routine at L8531.
2297+ 6F20              L6011_224:
2298+ 6F20 11 34 7F       LD DE,#7F34             ; DE=#7F34
2299+ 6F23 C3 21 40       JP #4021                ; Jump to 4021
2300+ 6F26              ; This entry point is used by the routine at L8531.
2301+ 6F26              L6011_225:
2302+ 6F26 21 34 7F       LD HL,#7F34             ; HL=#7F34
2303+ 6F29 C3 1E 40       JP #401E                ; Jump to 401E
2304+ 6F2C              ; This entry point is used by the routines at L8531 and L9B7C.
2305+ 6F2C              L6011_226:
2306+ 6F2C CD 4E 40       CALL #404E              ; CALL 404E
2307+ 6F2F C8             RET Z                   ; Return if the zero flag is set
2308+ 6F30 22 30 7F       LD (#7F30),HL           ; POKE #7F30,L; POKE #7F31,H
2309+ 6F33 ED 53 32 7F    LD (#7F32),DE           ; POKE #7F32,E; POKE #7F33,D
2310+ 6F37 D9             EXX                     ; Exchange BC, DE and HL with BC', DE' and HL'
2311+ 6F38 11 6B 7F       LD DE,#7F6B             ; DE=#7F6B
2312+ 6F3B CD 36 40       CALL #4036              ; CALL 4036
2313+ 6F3E 2A 87 7F       LD HL,(#7F87)           ; L=PEEK #7F87; H=PEEK #7F88
2314+ 6F41 ED 5B 89 7F    LD DE,(#7F89)           ; E=PEEK #7F89; D=PEEK #7F8A
2315+ 6F45 C9             RET                     ; Return
2316+ 6F46              L6011_227:
2317+ 6F46 11 30 7F       LD DE,#7F30             ; DE=#7F30
2318+ 6F49 CD 21 40       CALL #4021              ; CALL 4021
2319+ 6F4C FE 01          CP #01                  ; Set the zero flag if A=#01, or the carry flag if
2320+ 6F4E                                        ; A<#01
2321+ 6F4E 28 08          JR Z,L6011_229          ; Jump to L6011_229 if A=#01
2322+ 6F50 B7             OR A                    ; Clear the carry flag and set the zero flag if A=0
2323+ 6F51 C0             RET NZ                  ; Return if A>0
2324+ 6F52              ; This entry point is used by the routine at L8531.
2325+ 6F52              L6011_228:
2326+ 6F52 21 30 7F       LD HL,#7F30             ; HL=#7F30
2327+ 6F55 C3 12 40       JP #4012                ; Jump to 4012
2328+ 6F58              ; This entry point is used by the routines at L8531 and L9B7C.
2329+ 6F58              L6011_229:
2330+ 6F58 21 30 7F       LD HL,#7F30             ; HL=#7F30
2331+ 6F5B C3 1E 40       JP #401E                ; Jump to 401E
2332+ 6F5E              ; This entry point is used by the routines at L8531 and L9B7C.
2333+ 6F5E              L6011_230:
2334+ 6F5E CD B7 6F       CALL L6011_238          ; CALL L6011_238
2335+ 6F61 CD 39 40       CALL #4039              ; CALL 4039
2336+ 6F64 C0             RET NZ                  ; Return if the zero flag is not set
2337+ 6F65 22 28 7F       LD (#7F28),HL           ; POKE #7F28,L; POKE #7F29,H
2338+ 6F68 ED 53 2A 7F    LD (#7F2A),DE           ; POKE #7F2A,E; POKE #7F2B,D
2339+ 6F6C E5             PUSH HL                 ; Push HL onto the stack
2340+ 6F6D D5             PUSH DE                 ; Push DE onto the stack
2341+ 6F6E 11 6B 7F       LD DE,#7F6B             ; DE=#7F6B
2342+ 6F71 CD 36 40       CALL #4036              ; CALL 4036
2343+ 6F74 CD F4 6B       CALL L6011_155          ; CALL L6011_155
2344+ 6F77 D1             POP DE                  ; Pop last item from stack into DE
2345+ 6F78 E1             POP HL                  ; Pop last item from stack into HL
2346+ 6F79 AF             XOR A                   ; A=0
2347+ 6F7A C9             RET                     ; Return
2348+ 6F7B              ; This entry point is used by the routines at L8531 and L9B7C.
2349+ 6F7B              L6011_231:
2350+ 6F7B CD B7 6F       CALL L6011_238          ; CALL L6011_238
2351+ 6F7E C3 3C 40       JP #403C                ; Jump to 403C
2352+ 6F81              ; This entry point is used by the routines at L8531 and L9B7C.
2353+ 6F81              L6011_232:
2354+ 6F81 CD 3F 40       CALL #403F              ; CALL 403F
2355+ 6F84 C8             RET Z                   ; Return if the zero flag is set
2356+ 6F85 C9             RET                     ; Return
2357+ 6F86              L6011_233:
2358+ 6F86 01 AF 12       LD BC,#12AF             ; BC=#12AF
2359+ 6F89 ED 78          IN A,(C)                ; A=IN BC
2360+ 6F8B ED 4B 02 60    LD BC,(#6002)           ; C=PEEK #6002; B=PEEK #6003
2361+ 6F8F B9             CP C                    ; Set the zero flag if A=C, or the carry flag if A<C
2362+ 6F90 C0             RET NZ                  ; Return if A<>C
2363+ 6F91 C3 00 00       JP #0000                ; Jump to 0000
2364+ 6F94              L6011_234:
2365+ 6F94 22 92 6F       LD (#6F92),HL           ; POKE #6F92,L; POKE #6F93,H
2366+ 6F97 32 4C 7F       LD (#7F4C),A            ; POKE #7F4C,A
2367+ 6F9A C9             RET                     ; Return
2368+ 6F9B FE FF          CP #FF                  ; Set the zero flag if A=#FF, or the carry flag if
2369+ 6F9D                                        ; A<#FF
2370+ 6F9D 28 F5          JR Z,L6011_234          ; Jump to L6011_234 if A=#FF
2371+ 6F9F B7             OR A                    ; Clear the carry flag and set the zero flag if A=0
2372+ 6FA0 28 07          JR Z,L6011_235          ; Jump to L6011_235 if A=0
2373+ 6FA2 3D             DEC A                   ; A=A-1
2374+ 6FA3 28 0A          JR Z,L6011_236          ; Jump to L6011_236 if A=0
2375+ 6FA5 3D             DEC A                   ; A=A-1
2376+ 6FA6 28 0B          JR Z,L6011_237          ; Jump to L6011_237 if A=0
2377+ 6FA8 C9             RET                     ; Return
2378+ 6FA9              L6011_235:
2379+ 6FA9 CD B3 6F       CALL L6011_237          ; CALL L6011_237
2380+ 6FAC 32 4C 7F       LD (#7F4C),A            ; POKE #7F4C,A
2381+ 6FAF              L6011_236:
2382+ 6FAF 32 4D 7F       LD (#7F4D),A            ; POKE #7F4D,A
2383+ 6FB2 C9             RET                     ; Return
2384+ 6FB3              L6011_237:
2385+ 6FB3 32 4E 7F       LD (#7F4E),A            ; POKE #7F4E,A
2386+ 6FB6 C9             RET                     ; Return
2387+ 6FB7              L6011_238:
2388+ 6FB7 E5             PUSH HL                 ; Push HL onto the stack
2389+ 6FB8 CD CB 67       CALL L6011_100          ; CALL L6011_100
2390+ 6FBB 21 6B 7F       LD HL,#7F6B             ; HL=#7F6B
2391+ 6FBE CD 33 40       CALL #4033              ; CALL 4033
2392+ 6FC1 E1             POP HL                  ; Pop last item from stack into HL
2393+ 6FC2 C9             RET                     ; Return
2394+ 6FC3 B7             OR A                    ; Clear the carry flag and set the zero flag if A=0
2395+ 6FC4 C8             RET Z                   ; Return if A=0
2396+ 6FC5 FE 09          CP #09                  ; Set the zero flag if A=#09, or the carry flag if
2397+ 6FC7                                        ; A<#09
2398+ 6FC7 D0             RET NC                  ; Return if A>=#09
2399+ 6FC8 F3             DI                      ; Disable interrupts
2400+ 6FC9 5F             LD E,A                  ; E=A
2401+ 6FCA 16 00          LD D,#00                ; D=#00
2402+ 6FCC 3E 60          LD A,#60                ; A=#60
2403+ 6FCE CD CC 68       CALL L6011_115          ; CALL L6011_115
2404+ 6FD1 2A 1A 7F       LD HL,(#7F1A)           ; L=PEEK #7F1A; H=PEEK #7F1B
2405+ 6FD4 19             ADD HL,DE               ; HL=HL+DE
2406+ 6FD5 4E             LD C,(HL)               ; C=PEEK HL
2407+ 6FD6 CD BE 68       CALL L6011_113          ; CALL L6011_113
2408+ 6FD9 79             LD A,C                  ; A=C
2409+ 6FDA B7             OR A                    ; Clear the carry flag and set the zero flag if A=0
2410+ 6FDB FB             EI                      ; Enable interrupts
2411+ 6FDC C9             RET                     ; Return
2412+ 6FDD D9             EXX                     ; Exchange BC, DE and HL with BC', DE' and HL'
2413+ 6FDE E5             PUSH HL                 ; Push HL onto the stack
2414+ 6FDF 21 EF 6F       LD HL,#6FEF             ; HL=#6FEF
2415+ 6FE2 06 00          LD B,#00                ; B=#00
2416+ 6FE4 4F             LD C,A                  ; C=A
2417+ 6FE5 09             ADD HL,BC               ; HL=HL+BC
2418+ 6FE6 09             ADD HL,BC               ; HL=HL+BC
2419+ 6FE7 4E             LD C,(HL)               ; C=PEEK HL
2420+ 6FE8 23             INC HL                  ; HL=HL+1
2421+ 6FE9 46             LD B,(HL)               ; B=PEEK HL
2422+ 6FEA E1             POP HL                  ; Pop last item from stack into HL
2423+ 6FEB C5             PUSH BC                 ; Push BC onto the stack
2424+ 6FEC D9             EXX                     ; Exchange BC, DE and HL with BC', DE' and HL'
2425+ 6FED 08             EX AF,AF'               ; Exchange AF and AF'
2426+ 6FEE C9             RET                     ; Return
2427+ 6FEF F9             LD SP,HL                ; SP=HL
2428+ 6FF0 68             LD L,B                  ; L=B
2429+ 6FF1 2C             INC L                   ; L=L+1
2430+ 6FF2 79             LD A,C                  ; A=C
2431+ 6FF3 CE 7A          ADC A,#7A               ; A=A+carry+#7A
2432+ 6FF5 25             DEC H                   ; H=H-1
2433+ 6FF6 7D             LD A,L                  ; A=L
2434+ 6FF7 39             ADD HL,SP               ; HL=HL+SP
2435+ 6FF8 7D             LD A,L                  ; A=L
2436+ 6FF9 45             LD B,L                  ; B=L
2437+ 6FFA 7D             LD A,L                  ; A=L
2438+ 6FFB D5             PUSH DE                 ; Push DE onto the stack
2439+ 6FFC 7C             LD A,H                  ; A=H
2440+ 6FFD F2 7C 73       JP P,#737C              ; Jump to 737C if the sign flag is not set (positive)
2441+ 7000 66             LD H,(HL)               ; H=PEEK HL
2442+ 7001 76             HALT                    ; Wait for the next interrupt
2443+ 7002 71             LD (HL),C               ; POKE HL,C
2444+ 7003 26 6A          LD H,#6A                ; H=#6A
2445+ 7005 81             ADD A,C                 ; A=A+C
2446+ 7006 7D             LD A,L                  ; A=L
2447+ 7007 6D             LD L,L                  ; Do nothing
2448+ 7008 7D             LD A,L                  ; A=L
2449+ 7009 30 6C          JR NC,L6011_239         ; Jump to L6011_239 if the carry flag is not set
2450+ 700B C1             POP BC                  ; Pop last item from stack into BC
2451+ 700C 6B             LD L,E                  ; L=E
2452+ 700D 9F             SBC A,A                 ; A=#FF if carry flag is set, 0 otherwise
2453+ 700E 69             LD L,C                  ; L=C
2454+ 700F 7C             LD A,H                  ; A=H
2455+ 7010 74             LD (HL),H               ; POKE HL,H
2456+ 7011 53             LD D,E                  ; D=E
2457+ 7012 74             LD (HL),H               ; POKE HL,H
2458+ 7013 59             LD E,C                  ; E=C
2459+ 7014 74             LD (HL),H               ; POKE HL,H
2460+ 7015 5F             LD E,A                  ; E=A
2461+ 7016 74             LD (HL),H               ; POKE HL,H
2462+ 7017 65             LD H,L                  ; H=L
2463+ 7018 74             LD (HL),H               ; POKE HL,H
2464+ 7019 DC 74 77       CALL C,L7143_125        ; CALL L7143_125 if the carry flag is set
2465+ 701C 74             LD (HL),H               ; POKE HL,H
2466+ 701D 9A             SBC A,D                 ; A=A-carry-D
2467+ 701E 74             LD (HL),H               ; POKE HL,H
2468+ 701F 81             ADD A,C                 ; A=A+C
2469+ 7020 74             LD (HL),H               ; POKE HL,H
2470+ 7021 6B             LD L,E                  ; L=E
2471+ 7022 74             LD (HL),H               ; POKE HL,H
2472+ 7023 71             LD (HL),C               ; POKE HL,C
2473+ 7024 74             LD (HL),H               ; POKE HL,H
2474+ 7025 86             ADD A,(HL)              ; A=A+PEEK HL
2475+ 7026 74             LD (HL),H               ; POKE HL,H
2476+ 7027 8B             ADC A,E                 ; A=A+carry+E
2477+ 7028 74             LD (HL),H               ; POKE HL,H
2478+ 7029 9E             SBC A,(HL)              ; A=A-carry-PEEK HL
2479+ 702A 74             LD (HL),H               ; POKE HL,H
2480+ 702B A2             AND D                   ; A=A&D
2481+ 702C 74             LD (HL),H               ; POKE HL,H
2482+ 702D A6             AND (HL)                ; A=A&PEEK HL
2483+ 702E 74             LD (HL),H               ; POKE HL,H
2484+ 702F AA             XOR D                   ; A=A^D
2485+ 7030 74             LD (HL),H               ; POKE HL,H
2486+ 7031 AE             XOR (HL)                ; A=A^PEEK HL
2487+ 7032 74             LD (HL),H               ; POKE HL,H
2488+ 7033 B2             OR D                    ; A=A|D
2489+ 7034 74             LD (HL),H               ; POKE HL,H
2490+ 7035 B6             OR (HL)                 ; A=A|PEEK HL
2491+ 7036 74             LD (HL),H               ; POKE HL,H
2492+ 7037 BA             CP D                    ; Set the zero flag if A=D, or the carry flag if A<D
2493+ 7038 74             LD (HL),H               ; POKE HL,H
2494+ 7039 BE             CP (HL)                 ; Set the zero flag if A=PEEK HL, or the carry flag
2495+ 703A                                        ; if A<PEEK HL
2496+ 703A 74             LD (HL),H               ; POKE HL,H
2497+ 703B C2 74 CB       JP NZ,LC069_112         ; Jump to LC069_112 if the zero flag is not set
2498+ 703E 74             LD (HL),H               ; POKE HL,H
2499+ 703F D1             POP DE                  ; Pop last item from stack into DE
2500+ 7040 74             LD (HL),H               ; POKE HL,H
2501+ 7041 D7             RST #10                 ; CALL 0010
2502+ 7042 74             LD (HL),H               ; POKE HL,H
2503+ 7043 41             LD B,C                  ; B=C
2504+ 7044 6D             LD L,L                  ; Do nothing
2505+ 7045 90             SUB B                   ; A=A-B
2506+ 7046 74             LD (HL),H               ; POKE HL,H
2507+ 7047 C6 74          ADD A,#74               ; A=A+#74
2508+ 7049 5B             LD E,E                  ; Do nothing
2509+ 704A 75             LD (HL),L               ; POKE HL,L
2510+ 704B 4B             LD C,E                  ; C=E
2511+ 704C 74             LD (HL),H               ; POKE HL,H
2512+ 704D 43             LD B,E                  ; B=E
2513+ 704E 74             LD (HL),H               ; POKE HL,H
2514+ 704F AB             XOR E                   ; A=A^E
2515+ 7050 6A             LD L,D                  ; L=D
2516+ 7051 BF             CP A                    ; Clear the carry flag and set the zero flag
2517+ 7052 6A             LD L,D                  ; L=D
2518+ 7053 D0             RET NC                  ; Return if the carry flag is not set
2519+ 7054 6A             LD L,D                  ; L=D
2520+ 7055 D9             EXX                     ; Exchange BC, DE and HL with BC', DE' and HL'
2521+ 7056 6A             LD L,D                  ; L=D
2522+ 7057 E2 6A EB       JP PO,#EB6A             ; Jump to EB6A if the parity/overflow flag is not set
2523+ 705A                                        ; (parity odd)
2524+ 705A 6A             LD L,D                  ; L=D
2525+ 705B F4 6A FD       CALL P,#FD6A            ; CALL FD6A if the sign flag is not set (positive)
2526+ 705E 6A             LD L,D                  ; L=D
2527+ 705F 06 6B          LD B,#6B                ; B=#6B
2528+ 7061 0F             RRCA                    ; Rotate A right circular (copying bit 0 into bit 7
2529+ 7062                                        ; and into the carry flag)
2530+ 7062 6B             LD L,E                  ; L=E
2531+ 7063 20 6B          JR NZ,#70D0             ; Jump to 70D0 if the zero flag is not set
2532+ 7065 29             ADD HL,HL               ; HL=HL+HL
2533+ 7066 6B             LD L,E                  ; L=E
2534+ 7067 32 6B 3B       LD (#3B6B),A            ; POKE #3B6B,A
2535+ 706A 6B             LD L,E                  ; L=E
2536+ 706B 44             LD B,H                  ; B=H
2537+ 706C 6B             LD L,E                  ; L=E
2538+ 706D 4D             LD C,L                  ; C=L
2539+ 706E 6B             LD L,E                  ; L=E
2540+ 706F 48             LD C,B                  ; C=B
2541+ 7070 69             LD L,C                  ; L=C
2542+ 7071 30 69          JR NC,#70DC             ; Jump to 70DC if the carry flag is not set
2543+ 7073 1A             LD A,(DE)               ; A=PEEK DE
2544+ 7074 6A             LD L,D                  ; L=D
2545+ 7075 1E 6A          LD E,#6A                ; E=#6A
2546+ 7077              L6011_239:
2547+ 7077 22 6A 6B       LD (#6B6A),HL           ; POKE #6B6A,L; POKE #6B6B,H
2548+ 707A 69             LD L,C                  ; L=C
2549+ 707B 77             LD (HL),A               ; POKE HL,A
2550+ 707C 69             LD L,C                  ; L=C
2551+ 707D 8D             ADC A,L                 ; A=A+carry+L
2552+ 707E 69             LD L,C                  ; L=C
2553+ 707F 56             LD D,(HL)               ; D=PEEK HL
2554+ 7080 6B             LD L,E                  ; L=E
2555+ 7081 5F             LD E,A                  ; E=A
2556+ 7082 6B             LD L,E                  ; L=E
2557+ 7083 68             LD L,B                  ; L=B
2558+ 7084 6B             LD L,E                  ; L=E
2559+ 7085 71             LD (HL),C               ; POKE HL,C
2560+ 7086 6B             LD L,E                  ; L=E
2561+ 7087 EE 6F          XOR #6F                 ; Flip bits 0, 1, 2, 3, 5 and 6 of A
2562+ 7089 EE 6F          XOR #6F                 ; Flip bits 0, 1, 2, 3, 5 and 6 of A
2563+ 708B 14             INC D                   ; D=D+1
2564+ 708C 69             LD L,C                  ; L=C
2565+ 708D 22 69 38       LD (#3869),HL           ; POKE #3869,L; POKE #386A,H
2566+ 7090 69             LD L,C                  ; L=C
2567+ 7091 40             LD B,B                  ; Do nothing
2568+ 7092 69             LD L,C                  ; L=C
2569+ 7093 EE 6F          XOR #6F                 ; Flip bits 0, 1, 2, 3, 5 and 6 of A
2570+ 7095 C3 6F E6       JP #E66F                ; Jump to E66F
2571+ 7098 7B             LD A,E                  ; A=E
2572+ 7099 95             SUB L                   ; A=A-L
2573+ 709A 74             LD (HL),H               ; POKE HL,H
2574+ 709B 9B             SBC A,E                 ; A=A-carry-E
2575+ 709C 6F             LD L,A                  ; L=A
2576+ 709D              ; This entry point is used by the routine at L9149.
2577+ 709D              L6011_240:
2578+ 709D C5             PUSH BC                 ; Push BC onto the stack
2579+ 709E CD B2 70       CALL L6011_241          ; CALL L6011_241
2580+ 70A1 E1             POP HL                  ; Pop last item from stack into HL
2581+ 70A2 3E 00          LD A,#00                ; A=#00
2582+ 70A4 CD D3 70       CALL L6011_244          ; CALL L6011_244
2583+ 70A7 F5             PUSH AF                 ; Push AF onto the stack
2584+ 70A8 3E 02          LD A,#02                ; A=#02
2585+ 70AA CD B1 68       CALL L6011_110          ; CALL L6011_110
2586+ 70AD CD F4 6B       CALL L6011_155          ; CALL L6011_155
2587+ 70B0 F1             POP AF                  ; Pop last item from stack into AF
2588+ 70B1 C9             RET                     ; Return
2589+ 70B2              L6011_241:
2590+ 70B2 3A 00 B0       LD A,(#B000)            ; A=PEEK #B000
2591+ 70B5 32 15 7F       LD (#7F15),A            ; POKE #7F15,A
2592+ 70B8 21 23 B0       LD HL,#B023             ; HL=#B023
2593+ 70BB 86             ADD A,(HL)              ; A=A+PEEK HL
2594+ 70BC C6 61          ADD A,#61               ; A=A+#61
2595+ 70BE C3 B1 68       JP L6011_110            ; Jump to L6011_110
2596+ 70C1              ; This entry point is used by the routine at L9149.
2597+ 70C1              L6011_242:
2598+ 70C1 3E 01          LD A,#01                ; A=#01
2599+ 70C3              ; This entry point is used by the routine at L9149.
2600+ 70C3              L6011_243:
2601+ 70C3 F5             PUSH AF                 ; Push AF onto the stack
2602+ 70C4 CD B2 70       CALL L6011_241          ; CALL L6011_241
2603+ 70C7 F1             POP AF                  ; Pop last item from stack into AF
2604+ 70C8 CD D3 70       CALL L6011_244          ; CALL L6011_244
2605+ 70CB F5             PUSH AF                 ; Push AF onto the stack
2606+ 70CC 3E 02          LD A,#02                ; A=#02
2607+ 70CE CD B1 68       CALL L6011_110          ; CALL L6011_110
2608+ 70D1 F1             POP AF                  ; Pop last item from stack into AF
2609+ 70D2 C9             RET                     ; Return
2610+ 70D3              L6011_244:
2611+ 70D3 F5             PUSH AF                 ; Push AF onto the stack
2612+ 70D4 AF             XOR A                   ; A=0
2613+ 70D5 32 21 7F       LD (#7F21),A            ; POKE #7F21,A
2614+ 70D8 32 22 7F       LD (#7F22),A            ; POKE #7F22,A
2615+ 70DB 32 23 7F       LD (#7F23),A            ; POKE #7F23,A
2616+ 70DE CD C1 68       CALL L6011_114          ; CALL L6011_114
2617+ 70E1 F1             POP AF                  ; Pop last item from stack into AF
2618+ 70E2 ED 4B 00 60    LD BC,(#6000)           ; C=PEEK #6000; B=PEEK #6001
2619+ 70E6 ED 43 0B 60    LD (#600B),BC           ; POKE #600B,C; POKE #600C,B
2620+ 70EA ED 43 18 60    LD (#6018),BC           ; POKE #6018,C; POKE #6019,B
2621+ 70EE C5             PUSH BC                 ; Push BC onto the stack
2622+ 70EF ED 4B 2A 7F    LD BC,(#7F2A)           ; C=PEEK #7F2A; B=PEEK #7F2B
2623+ 70F3 C5             PUSH BC                 ; Push BC onto the stack
2624+ 70F4 ED 4B 28 7F    LD BC,(#7F28)           ; C=PEEK #7F28; B=PEEK #7F29
2625+ 70F8 C5             PUSH BC                 ; Push BC onto the stack
2626+ 70F9 ED 4B 11 60    LD BC,(L6011)           ; C=PEEK #6011; B=PEEK #6012
2627+ 70FD ED 43 13 60    LD (#6013),BC           ; POKE #6013,C; POKE #6014,B
2628+ 7101 DD 22 24 7F    LD (#7F24),IX           ; POKE #7F24,IXL; POKE #7F25,IXH
2629+ 7105 08             EX AF,AF'               ; Exchange AF and AF'
2630+ 7106 3E 00          LD A,#00                ; A=#00
2631+ 7108 08             EX AF,AF'               ; Exchange AF and AF'
2632+ 7109 D9             EXX                     ; Exchange BC, DE and HL with BC', DE' and HL'
2633+ 710A DD 6E 10       LD L,(IX+#10)           ; L=PEEK (IX+#10)
2634+ 710D DD 66 11       LD H,(IX+#11)           ; H=PEEK (IX+#11)
2635+ 7110 DD 5E 0C       LD E,(IX+#0C)           ; E=PEEK (IX+#0C)
2636+ 7113 16 00          LD D,#00                ; D=#00
2637+ 7115 19             ADD HL,DE               ; HL=HL+DE
2638+ 7116 DD 5E 12       LD E,(IX+#12)           ; E=PEEK (IX+#12)
2639+ 7119 DD 56 13       LD D,(IX+#13)           ; D=PEEK (IX+#13)
2640+ 711C D9             EXX                     ; Exchange BC, DE and HL with BC', DE' and HL'
2641+ 711D 01 00 5E       LD BC,#5E00             ; BC=#5E00
2642+ 7120 CD 00 80       CALL L7EA0_0            ; CALL L7EA0_0
2643+ 7123 DD 2A 24 7F    LD IX,(#7F24)           ; IXL=PEEK #7F24; IXH=PEEK #7F25
2644+ 7127 2A 13 60       LD HL,(#6013)           ; L=PEEK #6013; H=PEEK #6014
2645+ 712A 22 11 60       LD (L6011),HL           ; POKE #6011,L; POKE #6012,H
2646+ 712D E1             POP HL                  ; Pop last item from stack into HL
2647+ 712E 22 28 7F       LD (#7F28),HL           ; POKE #7F28,L; POKE #7F29,H
2648+ 7131 E1             POP HL                  ; Pop last item from stack into HL
2649+ 7132 22 2A 7F       LD (#7F2A),HL           ; POKE #7F2A,L; POKE #7F2B,H
2650+ 7135 E1             POP HL                  ; Pop last item from stack into HL
2651+ 7136 F5             PUSH AF                 ; Push AF onto the stack
2652+ 7137 7D             LD A,L                  ; A=L
2653+ 7138 CD 9C 68       CALL L6011_108          ; CALL L6011_108
2654+ 713B CD ED 6B       CALL L6011_154          ; CALL L6011_154
2655+ 713E CD 7A 6A       CALL L6011_139          ; CALL L6011_139
2656+ 7141 F1             POP AF                  ; Pop last item from stack into AF
2657+ 7142 C9             RET                     ; Return
2658+ 7143
# file closed: MD20_DISASM.ASM
  14  7143                      ASSERT $ == #7143, MD20_DISASM.ASM boundary mismatch
  15  7143
  16  7143                      INCLUDE "PS2P_DISASM.ASM"
# file opened: PS2P_DISASM.ASM
   1+ 7143              ; PS2P: PS/2 keyboard and text input
   2+ 7143              ;
   3+ 7143              ; Used by the routine at L9149.
   4+ 7143              L7143:
   5+ 7143 2A B4 76       LD HL,(#76B4)           ; L=PEEK #76B4; H=PEEK #76B5
   6+ 7146 7C             LD A,H                  ; A=H
   7+ 7147 B5             OR L                    ; A=A|L
   8+ 7148 2A B6 76       LD HL,(#76B6)           ; L=PEEK #76B6; H=PEEK #76B7
   9+ 714B B4             OR H                    ; A=A|H
  10+ 714C B5             OR L                    ; A=A|L
  11+ 714D 2A B8 76       LD HL,(#76B8)           ; L=PEEK #76B8; H=PEEK #76B9
  12+ 7150 B4             OR H                    ; A=A|H
  13+ 7151 B5             OR L                    ; A=A|L
  14+ 7152 2A BA 76       LD HL,(#76BA)           ; L=PEEK #76BA; H=PEEK #76BB
  15+ 7155 B4             OR H                    ; A=A|H
  16+ 7156 B5             OR L                    ; A=A|L
  17+ 7157 2A BC 76       LD HL,(#76BC)           ; L=PEEK #76BC; H=PEEK #76BD
  18+ 715A B4             OR H                    ; A=A|H
  19+ 715B B5             OR L                    ; A=A|L
  20+ 715C 2A BE 76       LD HL,(#76BE)           ; L=PEEK #76BE; H=PEEK #76BF
  21+ 715F B4             OR H                    ; A=A|H
  22+ 7160 B5             OR L                    ; A=A|L
  23+ 7161 2A C0 76       LD HL,(#76C0)           ; L=PEEK #76C0; H=PEEK #76C1
  24+ 7164 B4             OR H                    ; A=A|H
  25+ 7165 B5             OR L                    ; A=A|L
  26+ 7166 2A C2 76       LD HL,(#76C2)           ; L=PEEK #76C2; H=PEEK #76C3
  27+ 7169 B4             OR H                    ; A=A|H
  28+ 716A B5             OR L                    ; A=A|L
  29+ 716B 2A C4 76       LD HL,(#76C4)           ; L=PEEK #76C4; H=PEEK #76C5
  30+ 716E B4             OR H                    ; A=A|H
  31+ 716F B5             OR L                    ; A=A|L
  32+ 7170 2A C6 76       LD HL,(#76C6)           ; L=PEEK #76C6; H=PEEK #76C7
  33+ 7173 B4             OR H                    ; A=A|H
  34+ 7174 B5             OR L                    ; A=A|L
  35+ 7175 C9             RET                     ; Return
  36+ 7176              ; This entry point is used by the routine at L8531.
  37+ 7176              L7143_0:
  38+ 7176 3C             INC A                   ; A=A+1
  39+ 7177 CA 59 72       JP Z,L7143_11           ; Jump to L7143_11 if A=0
  40+ 717A 3C             INC A                   ; A=A+1
  41+ 717B CA 2E 73       JP Z,L7143_23           ; Jump to L7143_23 if A=0
  42+ 717E 3C             INC A                   ; A=A+1
  43+ 717F CA 78 72       JP Z,L7143_13           ; Jump to L7143_13 if A=0
  44+ 7182 3C             INC A                   ; A=A+1
  45+ 7183 CA 96 73       JP Z,L7143_30           ; Jump to L7143_30 if A=0
  46+ 7186 FE 05          CP #05                  ; Set the zero flag if A=#05, or the carry flag if
  47+ 7188                                        ; A<#05
  48+ 7188 CA 71 72       JP Z,L7143_12           ; Jump to L7143_12 if A=#05
  49+ 718B FE 06          CP #06                  ; Set the zero flag if A=#06, or the carry flag if
  50+ 718D                                        ; A<#06
  51+ 718D CA 81 73       JP Z,L7143_29           ; Jump to L7143_29 if A=#06
  52+ 7190 FE 07          CP #07                  ; Set the zero flag if A=#07, or the carry flag if
  53+ 7192                                        ; A<#07
  54+ 7192 CA 3B 73       JP Z,L7143_25           ; Jump to L7143_25 if A=#07
  55+ 7195 CD 81 74       CALL L7143_57           ; CALL L7143_57
  56+ 7198 C4 24 72       CALL NZ,L7143_7         ; CALL L7143_7 if the zero flag is not set
  57+ 719B CD 90 74       CALL L7143_60           ; CALL L7143_60
  58+ 719E C4 40 72       CALL NZ,L7143_10        ; CALL L7143_10 if the zero flag is not set
  59+ 71A1 CD 65 74       CALL L7143_52           ; CALL L7143_52
  60+ 71A4 C4 D8 71       CALL NZ,L7143_3         ; CALL L7143_3 if the zero flag is not set
  61+ 71A7 CD 5F 74       CALL L7143_51           ; CALL L7143_51
  62+ 71AA C4 07 72       CALL NZ,L7143_5         ; CALL L7143_5 if the zero flag is not set
  63+ 71AD CD 95 74       CALL L7143_61           ; CALL L7143_61
  64+ 71B0 C4 25 73       CALL NZ,L7143_22        ; CALL L7143_22 if the zero flag is not set
  65+ 71B3 CD F8 72       CALL L7143_20           ; CALL L7143_20
  66+ 71B6 CD 0B 73       CALL L7143_21           ; CALL L7143_21
  67+ 71B9 CD BA 73       CALL L7143_33           ; CALL L7143_33
  68+ 71BC C8             RET Z                   ; Return if the zero flag is set
  69+ 71BD CD CF 72       CALL L7143_18           ; CALL L7143_18
  70+ 71C0 4F             LD C,A                  ; C=A
  71+ 71C1 3A 1B 78       LD A,(L7143_131)        ; A=PEEK #781B
  72+ 71C4 B7             OR A                    ; Clear the carry flag and set the zero flag if A=0
  73+ 71C5 20 10          JR NZ,L7143_2           ; Jump to L7143_2 if A>0
  74+ 71C7 E5             PUSH HL                 ; Push HL onto the stack
  75+ 71C8 C5             PUSH BC                 ; Push BC onto the stack
  76+ 71C9 CD DF 72       CALL L7143_19           ; CALL L7143_19
  77+ 71CC 28 07          JR Z,L7143_1            ; Jump to L7143_1 if the zero flag is set
  78+ 71CE 09             ADD HL,BC               ; HL=HL+BC
  79+ 71CF 2B             DEC HL                  ; HL=HL-1
  80+ 71D0 54             LD D,H                  ; D=H
  81+ 71D1 5D             LD E,L                  ; E=L
  82+ 71D2 13             INC DE                  ; DE=DE+1
  83+ 71D3 ED B8          LDDR                    ; POKE DE,PEEK HL; HL=HL-1; DE=DE-1; BC=BC-1; repeat
  84+ 71D5                                        ; until BC=0
  85+ 71D5              L7143_1:
  86+ 71D5 C1             POP BC                  ; Pop last item from stack into BC
  87+ 71D6 E1             POP HL                  ; Pop last item from stack into HL
  88+ 71D7              L7143_2:
  89+ 71D7 71             LD (HL),C               ; POKE HL,C
  90+ 71D8              L7143_3:
  91+ 71D8 ED 4B 24 78    LD BC,(#7824)           ; C=PEEK #7824; B=PEEK #7825
  92+ 71DC 79             LD A,C                  ; A=C
  93+ 71DD 3C             INC A                   ; A=A+1
  94+ 71DE B8             CP B                    ; Set the zero flag if A=B, or the carry flag if A<B
  95+ 71DF 30 09          JR NC,L7143_4           ; Jump to L7143_4 if A>=B
  96+ 71E1 CD 9D 72       CALL L7143_15           ; CALL L7143_15
  97+ 71E4 32 24 78       LD (#7824),A            ; POKE #7824,A
  98+ 71E7 C3 9D 72       JP L7143_15             ; Jump to L7143_15
  99+ 71EA              L7143_4:
 100+ 71EA 2A 20 78       LD HL,(#7820)           ; L=PEEK #7820; H=PEEK #7821
 101+ 71ED ED 5B 24 78    LD DE,(#7824)           ; E=PEEK #7824; D=PEEK #7825
 102+ 71F1 5A             LD E,D                  ; E=D
 103+ 71F2 16 00          LD D,#00                ; D=#00
 104+ 71F4 B7             OR A                    ; Clear the carry flag and set the zero flag if A=0
 105+ 71F5 ED 52          SBC HL,DE               ; HL=HL-carry-DE
 106+ 71F7 C8             RET Z                   ; Return if HL=0
 107+ 71F8 D8             RET C                   ; Return if the carry flag is set
 108+ 71F9 EB             EX DE,HL                ; Exchange DE and HL
 109+ 71FA 2A 1E 78       LD HL,(#781E)           ; L=PEEK #781E; H=PEEK #781F
 110+ 71FD ED 52          SBC HL,DE               ; HL=HL-carry-DE
 111+ 71FF D0             RET NC                  ; Return if the carry flag is not set
 112+ 7200 19             ADD HL,DE               ; HL=HL+DE
 113+ 7201 23             INC HL                  ; HL=HL+1
 114+ 7202 22 1E 78       LD (#781E),HL           ; POKE #781E,L; POKE #781F,H
 115+ 7205 AF             XOR A                   ; A=0
 116+ 7206 C9             RET                     ; Return
 117+ 7207              L7143_5:
 118+ 7207 ED 4B 24 78    LD BC,(#7824)           ; C=PEEK #7824; B=PEEK #7825
 119+ 720B 79             LD A,C                  ; A=C
 120+ 720C 3D             DEC A                   ; A=A-1
 121+ 720D B8             CP B                    ; Set the zero flag if A=B, or the carry flag if A<B
 122+ 720E 30 09          JR NC,L7143_6           ; Jump to L7143_6 if A>=B
 123+ 7210 CD 9D 72       CALL L7143_15           ; CALL L7143_15
 124+ 7213 32 24 78       LD (#7824),A            ; POKE #7824,A
 125+ 7216 C3 9D 72       JP L7143_15             ; Jump to L7143_15
 126+ 7219              L7143_6:
 127+ 7219 2A 1E 78       LD HL,(#781E)           ; L=PEEK #781E; H=PEEK #781F
 128+ 721C 7C             LD A,H                  ; A=H
 129+ 721D B5             OR L                    ; A=A|L
 130+ 721E C8             RET Z                   ; Return if A=0
 131+ 721F 2B             DEC HL                  ; HL=HL-1
 132+ 7220 22 1E 78       LD (#781E),HL           ; POKE #781E,L; POKE #781F,H
 133+ 7223 C9             RET                     ; Return
 134+ 7224              L7143_7:
 135+ 7224 CD 07 72       CALL L7143_5            ; CALL L7143_5
 136+ 7227 C8             RET Z                   ; Return if the zero flag is set
 137+ 7228 CD CF 72       CALL L7143_18           ; CALL L7143_18
 138+ 722B 3A 1B 78       LD A,(L7143_131)        ; A=PEEK #781B
 139+ 722E B7             OR A                    ; Clear the carry flag and set the zero flag if A=0
 140+ 722F 28 03          JR Z,L7143_9            ; Jump to L7143_9 if A=0
 141+ 7231              L7143_8:
 142+ 7231 36 20          LD (HL),#20             ; POKE HL,#20
 143+ 7233 C9             RET                     ; Return
 144+ 7234              L7143_9:
 145+ 7234 EB             EX DE,HL                ; Exchange DE and HL
 146+ 7235 62             LD H,D                  ; H=D
 147+ 7236 6B             LD L,E                  ; L=E
 148+ 7237 23             INC HL                  ; HL=HL+1
 149+ 7238 CD DF 72       CALL L7143_19           ; CALL L7143_19
 150+ 723B ED B0          LDIR                    ; POKE DE,PEEK HL; HL=HL+1; DE=DE+1; BC=BC-1; repeat
 151+ 723D                                        ; until BC=0
 152+ 723D EB             EX DE,HL                ; Exchange DE and HL
 153+ 723E 18 F1          JR L7143_8              ; Jump to L7143_8
 154+ 7240              L7143_10:
 155+ 7240 CD CF 72       CALL L7143_18           ; CALL L7143_18
 156+ 7243 EB             EX DE,HL                ; Exchange DE and HL
 157+ 7244 2A 20 78       LD HL,(#7820)           ; L=PEEK #7820; H=PEEK #7821
 158+ 7247 ED 4B 22 78    LD BC,(#7822)           ; C=PEEK #7822; B=PEEK #7823
 159+ 724B 09             ADD HL,BC               ; HL=HL+BC
 160+ 724C EB             EX DE,HL                ; Exchange DE and HL
 161+ 724D 23             INC HL                  ; HL=HL+1
 162+ 724E B7             OR A                    ; Clear the carry flag and set the zero flag if A=0
 163+ 724F ED 52          SBC HL,DE               ; HL=HL-carry-DE
 164+ 7251 08             EX AF,AF'               ; Exchange AF and AF'
 165+ 7252 19             ADD HL,DE               ; HL=HL+DE
 166+ 7253 2B             DEC HL                  ; HL=HL-1
 167+ 7254 08             EX AF,AF'               ; Exchange AF and AF'
 168+ 7255 30 DA          JR NC,L7143_8           ; Jump to L7143_8 if the carry flag is not set
 169+ 7257 18 DB          JR L7143_9              ; Jump to L7143_9
 170+ 7259              L7143_11:
 171+ 7259 22 22 78       LD (#7822),HL           ; POKE #7822,L; POKE #7823,H
 172+ 725C ED 53 24 78    LD (#7824),DE           ; POKE #7824,E; POKE #7825,D
 173+ 7260 21 00 00       LD HL,#0000             ; HL=#0000
 174+ 7263 22 1E 78       LD (#781E),HL           ; POKE #781E,L; POKE #781F,H
 175+ 7266 6A             LD L,D                  ; L=D
 176+ 7267 22 20 78       LD (#7820),HL           ; POKE #7820,L; POKE #7821,H
 177+ 726A AF             XOR A                   ; A=0
 178+ 726B 32 9F 72       LD (#729F),A            ; POKE #729F,A
 179+ 726E C3 9D 72       JP L7143_15             ; Jump to L7143_15
 180+ 7271              L7143_12:
 181+ 7271 CD 9D 72       CALL L7143_15           ; CALL L7143_15
 182+ 7274 2A 22 78       LD HL,(#7822)           ; L=PEEK #7822; H=PEEK #7823
 183+ 7277 C9             RET                     ; Return
 184+ 7278              L7143_13:
 185+ 7278 22 22 78       LD (#7822),HL           ; POKE #7822,L; POKE #7823,H
 186+ 727B ED 43 24 78    LD (#7824),BC           ; POKE #7824,C; POKE #7825,B
 187+ 727F ED 53 1C 78    LD (#781C),DE           ; POKE #781C,E; POKE #781D,D
 188+ 7283 D9             EXX                     ; Exchange BC, DE and HL with BC', DE' and HL'
 189+ 7284 7C             LD A,H                  ; A=H
 190+ 7285 B7             OR A                    ; Clear the carry flag and set the zero flag if A=0
 191+ 7286 20 07          JR NZ,L7143_14          ; Jump to L7143_14 if A>0
 192+ 7288 3A 25 78       LD A,(#7825)            ; A=PEEK #7825
 193+ 728B BD             CP L                    ; Set the zero flag if A=L, or the carry flag if A<L
 194+ 728C 38 01          JR C,L7143_14           ; Jump to L7143_14 if A<L
 195+ 728E 6F             LD L,A                  ; L=A
 196+ 728F              L7143_14:
 197+ 728F 22 20 78       LD (#7820),HL           ; POKE #7820,L; POKE #7821,H
 198+ 7292 21 00 00       LD HL,#0000             ; HL=#0000
 199+ 7295 22 1E 78       LD (#781E),HL           ; POKE #781E,L; POKE #781F,H
 200+ 7298 3E 01          LD A,#01                ; A=#01
 201+ 729A 32 9F 72       LD (#729F),A            ; POKE #729F,A
 202+ 729D              L7143_15:
 203+ 729D F5             PUSH AF                 ; Push AF onto the stack
 204+ 729E 3E 00          LD A,#00                ; A=#00
 205+ 72A0 B7             OR A                    ; Clear the carry flag and set the zero flag if A=0
 206+ 72A1 CC C3 72       CALL Z,L7143_17         ; CALL L7143_17 if A=0
 207+ 72A4 C4 AE 72       CALL NZ,L7143_16        ; CALL L7143_16 if the zero flag is not set
 208+ 72A7 CB FD          SET 7,L                 ; Set bit 7 of L
 209+ 72A9 7E             LD A,(HL)               ; A=PEEK HL
 210+ 72AA ED 67          RRD                     ; Rotate the low nibble of A and all of (HL) right 4
 211+ 72AC                                        ; bits
 212+ 72AC F1             POP AF                  ; Pop last item from stack into AF
 213+ 72AD C9             RET                     ; Return
 214+ 72AE              L7143_16:
 215+ 72AE CD 30 7B       CALL L7828_44           ; CALL L7828_44
 216+ 72B1 ED 4B 1C 78    LD BC,(#781C)           ; C=PEEK #781C; B=PEEK #781D
 217+ 72B5 7C             LD A,H                  ; A=H
 218+ 72B6 80             ADD A,B                 ; A=A+B
 219+ 72B7 67             LD H,A                  ; H=A
 220+ 72B8 7D             LD A,L                  ; A=L
 221+ 72B9 81             ADD A,C                 ; A=A+C
 222+ 72BA 6F             LD L,A                  ; L=A
 223+ 72BB ED 4B 24 78    LD BC,(#7824)           ; C=PEEK #7824; B=PEEK #7825
 224+ 72BF 06 00          LD B,#00                ; B=#00
 225+ 72C1 09             ADD HL,BC               ; HL=HL+BC
 226+ 72C2 C9             RET                     ; Return
 227+ 72C3              L7143_17:
 228+ 72C3 2A 22 78       LD HL,(#7822)           ; L=PEEK #7822; H=PEEK #7823
 229+ 72C6 ED 4B 24 78    LD BC,(#7824)           ; C=PEEK #7824; B=PEEK #7825
 230+ 72CA 06 00          LD B,#00                ; B=#00
 231+ 72CC 09             ADD HL,BC               ; HL=HL+BC
 232+ 72CD BF             CP A                    ; Clear the carry flag and set the zero flag
 233+ 72CE C9             RET                     ; Return
 234+ 72CF              L7143_18:
 235+ 72CF 2A 22 78       LD HL,(#7822)           ; L=PEEK #7822; H=PEEK #7823
 236+ 72D2 ED 4B 24 78    LD BC,(#7824)           ; C=PEEK #7824; B=PEEK #7825
 237+ 72D6 06 00          LD B,#00                ; B=#00
 238+ 72D8 09             ADD HL,BC               ; HL=HL+BC
 239+ 72D9 ED 4B 1E 78    LD BC,(#781E)           ; C=PEEK #781E; B=PEEK #781F
 240+ 72DD 09             ADD HL,BC               ; HL=HL+BC
 241+ 72DE C9             RET                     ; Return
 242+ 72DF              L7143_19:
 243+ 72DF E5             PUSH HL                 ; Push HL onto the stack
 244+ 72E0 2A 20 78       LD HL,(#7820)           ; L=PEEK #7820; H=PEEK #7821
 245+ 72E3 ED 4B 24 78    LD BC,(#7824)           ; C=PEEK #7824; B=PEEK #7825
 246+ 72E7 06 00          LD B,#00                ; B=#00
 247+ 72E9 0C             INC C                   ; C=C+1
 248+ 72EA B7             OR A                    ; Clear the carry flag and set the zero flag if A=0
 249+ 72EB ED 42          SBC HL,BC               ; HL=HL-carry-BC
 250+ 72ED ED 4B 1E 78    LD BC,(#781E)           ; C=PEEK #781E; B=PEEK #781F
 251+ 72F1 B7             OR A                    ; Clear the carry flag and set the zero flag if A=0
 252+ 72F2 ED 42          SBC HL,BC               ; HL=HL-carry-BC
 253+ 72F4 44             LD B,H                  ; B=H
 254+ 72F5 4D             LD C,L                  ; C=L
 255+ 72F6 E1             POP HL                  ; Pop last item from stack into HL
 256+ 72F7 C9             RET                     ; Return
 257+ 72F8              L7143_20:
 258+ 72F8 CD D7 74       CALL L7143_76           ; CALL L7143_76
 259+ 72FB C8             RET Z                   ; Return if the zero flag is set
 260+ 72FC CD D1 74       CALL L7143_75           ; CALL L7143_75
 261+ 72FF C8             RET Z                   ; Return if the zero flag is set
 262+ 7300 3A 1A 78       LD A,(#781A)            ; A=PEEK #781A
 263+ 7303 EE 01          XOR #01                 ; Flip bit 0 of A
 264+ 7305 32 1A 78       LD (#781A),A            ; POKE #781A,A
 265+ 7308 C3 4B 74       JP L7143_48             ; Jump to L7143_48
 266+ 730B              L7143_21:
 267+ 730B CD C6 74       CALL L7143_73           ; CALL L7143_73
 268+ 730E C8             RET Z                   ; Return if the zero flag is set
 269+ 730F 01 F7 DF       LD BC,#DFF7             ; BC=#DFF7
 270+ 7312 3E 0C          LD A,#0C                ; A=#0C
 271+ 7314 ED 79          OUT (C),A               ; OUT BC,A
 272+ 7316 06 BF          LD B,#BF                ; B=#BF
 273+ 7318 3A 19 78       LD A,(L7143_130)        ; A=PEEK #7819
 274+ 731B EE 01          XOR #01                 ; Flip bit 0 of A
 275+ 731D 32 19 78       LD (L7143_130),A        ; POKE #7819,A
 276+ 7320 CB 27          SLA A                   ; Shift A left (copying bit 7 into the carry flag,
 277+ 7322                                        ; and resetting bit 0)
 278+ 7322 ED 79          OUT (C),A               ; OUT BC,A
 279+ 7324 C9             RET                     ; Return
 280+ 7325              L7143_22:
 281+ 7325 3A 1B 78       LD A,(L7143_131)        ; A=PEEK #781B
 282+ 7328 EE 01          XOR #01                 ; Flip bit 0 of A
 283+ 732A 32 1B 78       LD (L7143_131),A        ; POKE #781B,A
 284+ 732D C9             RET                     ; Return
 285+ 732E              L7143_23:
 286+ 732E AF             XOR A                   ; A=0
 287+ 732F 25             DEC H                   ; H=H-1
 288+ 7330 20 04          JR NZ,L7143_24          ; Jump to L7143_24 if H>0
 289+ 7332 DD 7E 05       LD A,(IX+#05)           ; A=PEEK (IX+#05)
 290+ 7335 3D             DEC A                   ; A=A-1
 291+ 7336              L7143_24:
 292+ 7336 67             LD H,A                  ; H=A
 293+ 7337 22 26 78       LD (#7826),HL           ; POKE #7826,L; POKE #7827,H
 294+ 733A C9             RET                     ; Return
 295+ 733B              L7143_25:
 296+ 733B 3A 1A 78       LD A,(#781A)            ; A=PEEK #781A
 297+ 733E B7             OR A                    ; Clear the carry flag and set the zero flag if A=0
 298+ 733F 21 06 78       LD HL,#7806             ; HL=#7806
 299+ 7342 28 03          JR Z,L7143_26           ; Jump to L7143_26 if the zero flag is set
 300+ 7344 21 09 78       LD HL,#7809             ; HL=#7809
 301+ 7347              L7143_26:
 302+ 7347 11 F4 77       LD DE,#77F4             ; DE=#77F4
 303+ 734A 01 03 00       LD BC,#0003             ; BC=#0003
 304+ 734D ED B0          LDIR                    ; POKE DE,PEEK HL; HL=HL+1; DE=DE+1; BC=BC-1; repeat
 305+ 734F                                        ; until BC=0
 306+ 734F 3A 1B 78       LD A,(L7143_131)        ; A=PEEK #781B
 307+ 7352 B7             OR A                    ; Clear the carry flag and set the zero flag if A=0
 308+ 7353 21 0C 78       LD HL,#780C             ; HL=#780C
 309+ 7356 28 03          JR Z,L7143_27           ; Jump to L7143_27 if the zero flag is set
 310+ 7358 21 0F 78       LD HL,#780F             ; HL=#780F
 311+ 735B              L7143_27:
 312+ 735B 11 F8 77       LD DE,#77F8             ; DE=#77F8
 313+ 735E 01 03 00       LD BC,#0003             ; BC=#0003
 314+ 7361 ED B0          LDIR                    ; POKE DE,PEEK HL; HL=HL+1; DE=DE+1; BC=BC-1; repeat
 315+ 7363                                        ; until BC=0
 316+ 7363 3A 19 78       LD A,(L7143_130)        ; A=PEEK #7819
 317+ 7366 B7             OR A                    ; Clear the carry flag and set the zero flag if A=0
 318+ 7367 21 12 78       LD HL,#7812             ; HL=#7812
 319+ 736A 28 03          JR Z,L7143_28           ; Jump to L7143_28 if the zero flag is set
 320+ 736C 21 15 78       LD HL,#7815             ; HL=#7815
 321+ 736F              L7143_28:
 322+ 736F 11 02 78       LD DE,#7802             ; DE=#7802
 323+ 7372 01 03 00       LD BC,#0003             ; BC=#0003
 324+ 7375 ED B0          LDIR                    ; POKE DE,PEEK HL; HL=HL+1; DE=DE+1; BC=BC-1; repeat
 325+ 7377                                        ; until BC=0
 326+ 7377 21 F2 77       LD HL,#77F2             ; HL=#77F2
 327+ 737A ED 5B 26 78    LD DE,(#7826)           ; E=PEEK #7826; D=PEEK #7827
 328+ 737E C3 81 7D       JP L7828_80             ; Jump to L7828_80
 329+ 7381              L7143_29:
 330+ 7381 2A 22 78       LD HL,(#7822)           ; L=PEEK #7822; H=PEEK #7823
 331+ 7384 ED 4B 1E 78    LD BC,(#781E)           ; C=PEEK #781E; B=PEEK #781F
 332+ 7388 09             ADD HL,BC               ; HL=HL+BC
 333+ 7389 ED 5B 1C 78    LD DE,(#781C)           ; E=PEEK #781C; D=PEEK #781D
 334+ 738D 3A 25 78       LD A,(#7825)            ; A=PEEK #7825
 335+ 7390 06 00          LD B,#00                ; B=#00
 336+ 7392 4F             LD C,A                  ; C=A
 337+ 7393 C3 25 7D       JP L7828_72             ; Jump to L7828_72
 338+ 7396              L7143_30:
 339+ 7396 CD 95 74       CALL L7143_61           ; CALL L7143_61
 340+ 7399 C4 25 73       CALL NZ,L7143_22        ; CALL L7143_22 if the zero flag is not set
 341+ 739C CD F8 72       CALL L7143_20           ; CALL L7143_20
 342+ 739F CD 0B 73       CALL L7143_21           ; CALL L7143_21
 343+ 73A2 3A 1A 78       LD A,(#781A)            ; A=PEEK #781A
 344+ 73A5 E6 03          AND #03                 ; Keep only bits 0 and 1 of A
 345+ 73A7 4F             LD C,A                  ; C=A
 346+ 73A8 3A 1B 78       LD A,(L7143_131)        ; A=PEEK #781B
 347+ 73AB B7             OR A                    ; Clear the carry flag and set the zero flag if A=0
 348+ 73AC 28 02          JR Z,L7143_31           ; Jump to L7143_31 if A=0
 349+ 73AE CB F9          SET 7,C                 ; Set bit 7 of C
 350+ 73B0              L7143_31:
 351+ 73B0 3A 19 78       LD A,(L7143_130)        ; A=PEEK #7819
 352+ 73B3 B7             OR A                    ; Clear the carry flag and set the zero flag if A=0
 353+ 73B4 28 02          JR Z,L7143_32           ; Jump to L7143_32 if A=0
 354+ 73B6 CB F1          SET 6,C                 ; Set bit 6 of C
 355+ 73B8              L7143_32:
 356+ 73B8 79             LD A,C                  ; A=C
 357+ 73B9 C9             RET                     ; Return
 358+ 73BA              ; This entry point is used by the routine at L6011.
 359+ 73BA              L7143_33:
 360+ 73BA 21 C1 76       LD HL,#76C1             ; HL=#76C1
 361+ 73BD              L7143_34:
 362+ 73BD 7E             LD A,(HL)               ; A=PEEK HL
 363+ 73BE 23             INC HL                  ; HL=HL+1
 364+ 73BF B7             OR A                    ; Clear the carry flag and set the zero flag if A=0
 365+ 73C0 28 FB          JR Z,L7143_34           ; Jump to L7143_34 if A=0
 366+ 73C2 FE FF          CP #FF                  ; Set the zero flag if A=#FF, or the carry flag if
 367+ 73C4                                        ; A<#FF
 368+ 73C4 C8             RET Z                   ; Return if A=#FF
 369+ 73C5 CD 2E 75       CALL L7143_88           ; CALL L7143_88
 370+ 73C8 C8             RET Z                   ; Return if the zero flag is set
 371+ 73C9 7E             LD A,(HL)               ; A=PEEK HL
 372+ 73CA 21 CE 76       LD HL,#76CE             ; HL=#76CE
 373+ 73CD 06 33          LD B,#33                ; B=#33
 374+ 73CF              L7143_35:
 375+ 73CF BE             CP (HL)                 ; Set the zero flag if A=PEEK HL, or the carry flag
 376+ 73D0                                        ; if A<PEEK HL
 377+ 73D0 28 05          JR Z,L7143_36           ; Jump to L7143_36 if A=PEEK HL
 378+ 73D2 23             INC HL                  ; HL=HL+1
 379+ 73D3 10 FA          DJNZ L7143_35           ; Decrement B and jump to L7143_35 if B>0
 380+ 73D5 AF             XOR A                   ; A=0
 381+ 73D6 C9             RET                     ; Return
 382+ 73D7              L7143_36:
 383+ 73D7 01 32 89       LD BC,#8932             ; BC=#8932
 384+ 73DA 09             ADD HL,BC               ; HL=HL+BC
 385+ 73DB AF             XOR A                   ; A=0
 386+ 73DC 32 18 78       LD (#7818),A            ; POKE #7818,A
 387+ 73DF 3A 19 78       LD A,(L7143_130)        ; A=PEEK #7819
 388+ 73E2 B7             OR A                    ; Clear the carry flag and set the zero flag if A=0
 389+ 73E3 20 24          JR NZ,L7143_41          ; Jump to L7143_41 if A>0
 390+ 73E5              L7143_37:
 391+ 73E5 3A 1A 78       LD A,(#781A)            ; A=PEEK #781A
 392+ 73E8 01 01 77       LD BC,#7701             ; BC=#7701
 393+ 73EB B7             OR A                    ; Clear the carry flag and set the zero flag if A=0
 394+ 73EC 28 03          JR Z,L7143_38           ; Jump to L7143_38 if A=0
 395+ 73EE 01 8C 77       LD BC,#778C             ; BC=#778C
 396+ 73F1              L7143_38:
 397+ 73F1 09             ADD HL,BC               ; HL=HL+BC
 398+ 73F2 E5             PUSH HL                 ; Push HL onto the stack
 399+ 73F3 CD D1 74       CALL L7143_75           ; CALL L7143_75
 400+ 73F6 E1             POP HL                  ; Pop last item from stack into HL
 401+ 73F7 0E 00          LD C,#00                ; C=#00
 402+ 73F9 28 01          JR Z,L7143_39           ; Jump to L7143_39 if the zero flag is set
 403+ 73FB 0C             INC C                   ; C=C+1
 404+ 73FC              L7143_39:
 405+ 73FC 3A 18 78       LD A,(#7818)            ; A=PEEK #7818
 406+ 73FF A9             XOR C                   ; A=A^C
 407+ 7400 28 04          JR Z,L7143_40           ; Jump to L7143_40 if A=0
 408+ 7402 01 33 00       LD BC,#0033             ; BC=#0033
 409+ 7405 09             ADD HL,BC               ; HL=HL+BC
 410+ 7406              L7143_40:
 411+ 7406 7E             LD A,(HL)               ; A=PEEK HL
 412+ 7407 B7             OR A                    ; Clear the carry flag and set the zero flag if A=0
 413+ 7408 C9             RET                     ; Return
 414+ 7409              L7143_41:
 415+ 7409 3A 1A 78       LD A,(#781A)            ; A=PEEK #781A
 416+ 740C 01 67 77       LD BC,#7767             ; BC=#7767
 417+ 740F B7             OR A                    ; Clear the carry flag and set the zero flag if A=0
 418+ 7410 28 03          JR Z,L7143_42           ; Jump to L7143_42 if A=0
 419+ 7412 01 7D 77       LD BC,#777D             ; BC=#777D
 420+ 7415              L7143_42:
 421+ 7415 CD 21 74       CALL L7143_43           ; CALL L7143_43
 422+ 7418 20 CB          JR NZ,L7143_37          ; Jump to L7143_37 if the zero flag is not set
 423+ 741A 3E 01          LD A,#01                ; A=#01
 424+ 741C 32 18 78       LD (#7818),A            ; POKE #7818,A
 425+ 741F 18 C4          JR L7143_37             ; Jump to L7143_37
 426+ 7421              L7143_43:
 427+ 7421 0A             LD A,(BC)               ; A=PEEK BC
 428+ 7422 03             INC BC                  ; BC=BC+1
 429+ 7423 FE FF          CP #FF                  ; Set the zero flag if A=#FF, or the carry flag if
 430+ 7425                                        ; A<#FF
 431+ 7425 C8             RET Z                   ; Return if A=#FF
 432+ 7426 BD             CP L                    ; Set the zero flag if A=L, or the carry flag if A<L
 433+ 7427 20 F8          JR NZ,L7143_43          ; Jump to L7143_43 if A<>L
 434+ 7429 3C             INC A                   ; A=A+1
 435+ 742A C9             RET                     ; Return
 436+ 742B              ; This entry point is used by the routines at L6011 and L8531.
 437+ 742B              L7143_44:
 438+ 742B CD FA 74       CALL L7143_83           ; CALL L7143_83
 439+ 742E C8             RET Z                   ; Return if the zero flag is set
 440+ 742F 21 CE 76       LD HL,#76CE             ; HL=#76CE
 441+ 7432 06 33          LD B,#33                ; B=#33
 442+ 7434              L7143_45:
 443+ 7434 BE             CP (HL)                 ; Set the zero flag if A=PEEK HL, or the carry flag
 444+ 7435                                        ; if A<PEEK HL
 445+ 7435 28 05          JR Z,L7143_46           ; Jump to L7143_46 if A=PEEK HL
 446+ 7437 23             INC HL                  ; HL=HL+1
 447+ 7438 10 FA          DJNZ L7143_45           ; Decrement B and jump to L7143_45 if B>0
 448+ 743A AF             XOR A                   ; A=0
 449+ 743B C9             RET                     ; Return
 450+ 743C              L7143_46:
 451+ 743C 01 33 00       LD BC,#0033             ; BC=#0033
 452+ 743F 09             ADD HL,BC               ; HL=HL+BC
 453+ 7440 7E             LD A,(HL)               ; A=PEEK HL
 454+ 7441 B7             OR A                    ; Clear the carry flag and set the zero flag if A=0
 455+ 7442 C9             RET                     ; Return
 456+ 7443              ; This entry point is used by the routines at L8531, L9149 and L9B7C.
 457+ 7443              L7143_47:
 458+ 7443 FB             EI                      ; Enable interrupts
 459+ 7444 76             HALT                    ; Wait for the next interrupt
 460+ 7445 CD 5B 75       CALL L7143_93           ; CALL L7143_93
 461+ 7448 C0             RET NZ                  ; Return if the zero flag is not set
 462+ 7449 18 F8          JR L7143_47             ; Jump to L7143_47
 463+ 744B              ; This entry point is used by the routines at L8531, L9149 and L9B7C.
 464+ 744B              L7143_48:
 465+ 744B FB             EI                      ; Enable interrupts
 466+ 744C 76             HALT                    ; Wait for the next interrupt
 467+ 744D CD 5B 75       CALL L7143_93           ; CALL L7143_93
 468+ 7450 C8             RET Z                   ; Return if the zero flag is set
 469+ 7451 18 F8          JR L7143_48             ; Jump to L7143_48
 470+ 7453              ; This entry point is used by the routines at L6011, L8531, L9149 and L9B7C.
 471+ 7453              L7143_49:
 472+ 7453 21 B9 76       LD HL,#76B9             ; HL=#76B9
 473+ 7456 C3 39 75       JP L7143_89             ; Jump to L7143_89
 474+ 7459              ; This entry point is used by the routines at L6011, L8531, L9149 and L9B7C.
 475+ 7459              L7143_50:
 476+ 7459 21 BB 76       LD HL,#76BB             ; HL=#76BB
 477+ 745C C3 39 75       JP L7143_89             ; Jump to L7143_89
 478+ 745F              ; This entry point is used by the routines at L6011 and L9149.
 479+ 745F              L7143_51:
 480+ 745F 21 BA 76       LD HL,#76BA             ; HL=#76BA
 481+ 7462 C3 39 75       JP L7143_89             ; Jump to L7143_89
 482+ 7465              ; This entry point is used by the routines at L6011 and L9149.
 483+ 7465              L7143_52:
 484+ 7465 21 BC 76       LD HL,#76BC             ; HL=#76BC
 485+ 7468 C3 39 75       JP L7143_89             ; Jump to L7143_89
 486+ 746B              ; This entry point is used by the routine at L6011.
 487+ 746B              L7143_53:
 488+ 746B 21 BE 76       LD HL,#76BE             ; HL=#76BE
 489+ 746E C3 39 75       JP L7143_89             ; Jump to L7143_89
 490+ 7471              ; This entry point is used by the routine at L6011.
 491+ 7471              L7143_54:
 492+ 7471 21 C0 76       LD HL,#76C0             ; HL=#76C0
 493+ 7474 C3 39 75       JP L7143_89             ; Jump to L7143_89
 494+ 7477              ; This entry point is used by the routines at L6011, L8531, L9149 and L9B7C.
 495+ 7477              L7143_55:
 496+ 7477 3E 5A          LD A,#5A                ; A=#5A
 497+ 7479 C3 2E 75       JP L7143_88             ; Jump to L7143_88
 498+ 747C              ; This entry point is used by the routine at L6011.
 499+ 747C              L7143_56:
 500+ 747C 3E 29          LD A,#29                ; A=#29
 501+ 747E C3 2E 75       JP L7143_88             ; Jump to L7143_88
 502+ 7481              ; This entry point is used by the routine at L6011.
 503+ 7481              L7143_57:
 504+ 7481 3E 66          LD A,#66                ; A=#66
 505+ 7483 C3 2E 75       JP L7143_88             ; Jump to L7143_88
 506+ 7486              ; This entry point is used by the routine at L6011.
 507+ 7486              L7143_58:
 508+ 7486 3E 6C          LD A,#6C                ; A=#6C
 509+ 7488 C3 2E 75       JP L7143_88             ; Jump to L7143_88
 510+ 748B              ; This entry point is used by the routine at L6011.
 511+ 748B              L7143_59:
 512+ 748B 3E 69          LD A,#69                ; A=#69
 513+ 748D C3 2E 75       JP L7143_88             ; Jump to L7143_88
 514+ 7490              ; This entry point is used by the routines at L6011 and L9149.
 515+ 7490              L7143_60:
 516+ 7490 3E 71          LD A,#71                ; A=#71
 517+ 7492 C3 2E 75       JP L7143_88             ; Jump to L7143_88
 518+ 7495              ; This entry point is used by the routine at L6011.
 519+ 7495              L7143_61:
 520+ 7495 3E 70          LD A,#70                ; A=#70
 521+ 7497 C3 2E 75       JP L7143_88             ; Jump to L7143_88
 522+ 749A              ; This entry point is used by the routines at L8531, L9149 and L9B7C.
 523+ 749A              L7143_62:
 524+ 749A 3E 76          LD A,#76                ; A=#76
 525+ 749C 18 54          JR L7143_81             ; Jump to L7143_81
 526+ 749E              ; This entry point is used by the routines at L6011 and L8531.
 527+ 749E              L7143_63:
 528+ 749E 3E 05          LD A,#05                ; A=#05
 529+ 74A0 18 50          JR L7143_81             ; Jump to L7143_81
 530+ 74A2              ; This entry point is used by the routines at L6011 and L8531.
 531+ 74A2              L7143_64:
 532+ 74A2 3E 06          LD A,#06                ; A=#06
 533+ 74A4 18 4C          JR L7143_81             ; Jump to L7143_81
 534+ 74A6              ; This entry point is used by the routines at L6011 and L8531.
 535+ 74A6              L7143_65:
 536+ 74A6 3E 04          LD A,#04                ; A=#04
 537+ 74A8 18 48          JR L7143_81             ; Jump to L7143_81
 538+ 74AA              ; This entry point is used by the routines at L6011 and L8531.
 539+ 74AA              L7143_66:
 540+ 74AA 3E 0C          LD A,#0C                ; A=#0C
 541+ 74AC 18 44          JR L7143_81             ; Jump to L7143_81
 542+ 74AE              ; This entry point is used by the routine at L6011.
 543+ 74AE              L7143_67:
 544+ 74AE 3E 03          LD A,#03                ; A=#03
 545+ 74B0 18 40          JR L7143_81             ; Jump to L7143_81
 546+ 74B2              ; This entry point is used by the routines at L6011 and L8531.
 547+ 74B2              L7143_68:
 548+ 74B2 3E 0B          LD A,#0B                ; A=#0B
 549+ 74B4 18 3C          JR L7143_81             ; Jump to L7143_81
 550+ 74B6              ; This entry point is used by the routine at L6011.
 551+ 74B6              L7143_69:
 552+ 74B6 3E 83          LD A,#83                ; A=#83
 553+ 74B8 18 38          JR L7143_81             ; Jump to L7143_81
 554+ 74BA              ; This entry point is used by the routine at L6011.
 555+ 74BA              L7143_70:
 556+ 74BA 3E 0A          LD A,#0A                ; A=#0A
 557+ 74BC 18 34          JR L7143_81             ; Jump to L7143_81
 558+ 74BE              ; This entry point is used by the routine at L6011.
 559+ 74BE              L7143_71:
 560+ 74BE 3E 01          LD A,#01                ; A=#01
 561+ 74C0 18 30          JR L7143_81             ; Jump to L7143_81
 562+ 74C2              ; This entry point is used by the routine at L6011.
 563+ 74C2              L7143_72:
 564+ 74C2 3E 09          LD A,#09                ; A=#09
 565+ 74C4 18 2C          JR L7143_81             ; Jump to L7143_81
 566+ 74C6              L7143_73:
 567+ 74C6 21 B5 76       LD HL,#76B5             ; HL=#76B5
 568+ 74C9 18 6E          JR L7143_89             ; Jump to L7143_89
 569+ 74CB              ; This entry point is used by the routine at L6011.
 570+ 74CB              L7143_74:
 571+ 74CB 21 BD 76       LD HL,#76BD             ; HL=#76BD
 572+ 74CE C3 56 75       JP L7143_92             ; Jump to L7143_92
 573+ 74D1              ; This entry point is used by the routine at L6011.
 574+ 74D1              L7143_75:
 575+ 74D1 21 B6 76       LD HL,#76B6             ; HL=#76B6
 576+ 74D4 C3 56 75       JP L7143_92             ; Jump to L7143_92
 577+ 74D7              ; This entry point is used by the routine at L6011.
 578+ 74D7              L7143_76:
 579+ 74D7 21 B7 76       LD HL,#76B7             ; HL=#76B7
 580+ 74DA 18 7A          JR L7143_92             ; Jump to L7143_92
 581+ 74DC              ; This entry point is used by the routine at L6011.
 582+ 74DC              L7143_77:
 583+ 74DC 21 B4 76       LD HL,#76B4             ; HL=#76B4
 584+ 74DF 18 58          JR L7143_89             ; Jump to L7143_89
 585+ 74E1              ; This entry point is used by the routine at L6011.
 586+ 74E1              L7143_78:
 587+ 74E1 3E 5A          LD A,#5A                ; A=#5A
 588+ 74E3 21 C1 76       LD HL,#76C1             ; HL=#76C1
 589+ 74E6 18 05          JR L7143_80             ; Jump to L7143_80
 590+ 74E8              ; This entry point is used by the routine at L6011.
 591+ 74E8              L7143_79:
 592+ 74E8 3E 76          LD A,#76                ; A=#76
 593+ 74EA 21 B8 76       LD HL,#76B8             ; HL=#76B8
 594+ 74ED              L7143_80:
 595+ 74ED BE             CP (HL)                 ; Set the zero flag if A=PEEK HL, or the carry flag
 596+ 74EE                                        ; if A<PEEK HL
 597+ 74EE 20 08          JR NZ,L7143_82          ; Jump to L7143_82 if A<>PEEK HL
 598+ 74F0 18 5F          JR L7143_90             ; Jump to L7143_90
 599+ 74F2              L7143_81:
 600+ 74F2 21 B8 76       LD HL,#76B8             ; HL=#76B8
 601+ 74F5 BE             CP (HL)                 ; Set the zero flag if A=PEEK HL, or the carry flag
 602+ 74F6                                        ; if A<PEEK HL
 603+ 74F6 28 41          JR Z,L7143_89           ; Jump to L7143_89 if A=PEEK HL
 604+ 74F8              L7143_82:
 605+ 74F8 AF             XOR A                   ; A=0
 606+ 74F9 C9             RET                     ; Return
 607+ 74FA              L7143_83:
 608+ 74FA 21 C1 76       LD HL,#76C1             ; HL=#76C1
 609+ 74FD              L7143_84:
 610+ 74FD 7E             LD A,(HL)               ; A=PEEK HL
 611+ 74FE 23             INC HL                  ; HL=HL+1
 612+ 74FF B7             OR A                    ; Clear the carry flag and set the zero flag if A=0
 613+ 7500 28 FB          JR Z,L7143_84           ; Jump to L7143_84 if A=0
 614+ 7502 22 FB 74       LD (#74FB),HL           ; POKE #74FB,L; POKE #74FC,H
 615+ 7505 2B             DEC HL                  ; HL=HL-1
 616+ 7506 FE FF          CP #FF                  ; Set the zero flag if A=#FF, or the carry flag if
 617+ 7508                                        ; A<#FF
 618+ 7508 28 1D          JR Z,L7143_87           ; Jump to L7143_87 if A=#FF
 619+ 750A 7E             LD A,(HL)               ; A=PEEK HL
 620+ 750B B7             OR A                    ; Clear the carry flag and set the zero flag if A=0
 621+ 750C C8             RET Z                   ; Return if A=0
 622+ 750D 3A CC 76       LD A,(#76CC)            ; A=PEEK #76CC
 623+ 7510 BE             CP (HL)                 ; Set the zero flag if A=PEEK HL, or the carry flag
 624+ 7511                                        ; if A<PEEK HL
 625+ 7511 20 0F          JR NZ,L7143_85          ; Jump to L7143_85 if A<>PEEK HL
 626+ 7513 3A CB 76       LD A,(#76CB)            ; A=PEEK #76CB
 627+ 7516 B7             OR A                    ; Clear the carry flag and set the zero flag if A=0
 628+ 7517 28 09          JR Z,L7143_85           ; Jump to L7143_85 if A=0
 629+ 7519 FE FF          CP #FF                  ; Set the zero flag if A=#FF, or the carry flag if
 630+ 751B                                        ; A<#FF
 631+ 751B 20 08          JR NZ,L7143_86          ; Jump to L7143_86 if A<>#FF
 632+ 751D 3E 19          LD A,#19                ; A=#19
 633+ 751F 32 CB 76       LD (#76CB),A            ; POKE #76CB,A
 634+ 7522              L7143_85:
 635+ 7522 7E             LD A,(HL)               ; A=PEEK HL
 636+ 7523 B7             OR A                    ; Clear the carry flag and set the zero flag if A=0
 637+ 7524 C9             RET                     ; Return
 638+ 7525              L7143_86:
 639+ 7525 AF             XOR A                   ; A=0
 640+ 7526 C9             RET                     ; Return
 641+ 7527              L7143_87:
 642+ 7527 21 C1 76       LD HL,#76C1             ; HL=#76C1
 643+ 752A 22 FB 74       LD (#74FB),HL           ; POKE #74FB,L; POKE #74FC,H
 644+ 752D C9             RET                     ; Return
 645+ 752E              L7143_88:
 646+ 752E 21 C1 76       LD HL,#76C1             ; HL=#76C1
 647+ 7531 01 07 00       LD BC,#0007             ; BC=#0007
 648+ 7534 ED B1          CPIR                    ; Compare A with PEEK HL; HL=HL+1; BC=BC-1; repeat
 649+ 7536                                        ; until BC=0 or A=PEEK HL
 650+ 7536 20 C0          JR NZ,L7143_82          ; Jump to L7143_82 if A<>PEEK HL
 651+ 7538 2B             DEC HL                  ; HL=HL-1
 652+ 7539              L7143_89:
 653+ 7539 7E             LD A,(HL)               ; A=PEEK HL
 654+ 753A B7             OR A                    ; Clear the carry flag and set the zero flag if A=0
 655+ 753B C8             RET Z                   ; Return if A=0
 656+ 753C 3A CC 76       LD A,(#76CC)            ; A=PEEK #76CC
 657+ 753F BE             CP (HL)                 ; Set the zero flag if A=PEEK HL, or the carry flag
 658+ 7540                                        ; if A<PEEK HL
 659+ 7540 20 12          JR NZ,L7143_91          ; Jump to L7143_91 if A<>PEEK HL
 660+ 7542 3A CB 76       LD A,(#76CB)            ; A=PEEK #76CB
 661+ 7545 B7             OR A                    ; Clear the carry flag and set the zero flag if A=0
 662+ 7546 28 09          JR Z,L7143_90           ; Jump to L7143_90 if A=0
 663+ 7548 FE FF          CP #FF                  ; Set the zero flag if A=#FF, or the carry flag if
 664+ 754A                                        ; A<#FF
 665+ 754A 20 08          JR NZ,L7143_91          ; Jump to L7143_91 if A<>#FF
 666+ 754C 3E 19          LD A,#19                ; A=#19
 667+ 754E 32 CB 76       LD (#76CB),A            ; POKE #76CB,A
 668+ 7551              L7143_90:
 669+ 7551 AF             XOR A                   ; A=0
 670+ 7552 3C             INC A                   ; A=A+1
 671+ 7553 C9             RET                     ; Return
 672+ 7554              L7143_91:
 673+ 7554 AF             XOR A                   ; A=0
 674+ 7555 C9             RET                     ; Return
 675+ 7556              L7143_92:
 676+ 7556 7E             LD A,(HL)               ; A=PEEK HL
 677+ 7557 B7             OR A                    ; Clear the carry flag and set the zero flag if A=0
 678+ 7558 C8             RET Z                   ; Return if A=0
 679+ 7559 18 F6          JR L7143_90             ; Jump to L7143_90
 680+ 755B              L7143_93:
 681+ 755B 21 B4 76       LD HL,#76B4             ; HL=#76B4
 682+ 755E 06 14          LD B,#14                ; B=#14
 683+ 7560 AF             XOR A                   ; A=0
 684+ 7561              L7143_94:
 685+ 7561 BE             CP (HL)                 ; Set the zero flag if A=PEEK HL, or the carry flag
 686+ 7562                                        ; if A<PEEK HL
 687+ 7562 20 04          JR NZ,L7143_95          ; Jump to L7143_95 if A<>PEEK HL
 688+ 7564 23             INC HL                  ; HL=HL+1
 689+ 7565 10 FA          DJNZ L7143_94           ; Decrement B and jump to L7143_94 if B>0
 690+ 7567 C9             RET                     ; Return
 691+ 7568              L7143_95:
 692+ 7568 3E 19          LD A,#19                ; A=#19
 693+ 756A 32 CB 76       LD (#76CB),A            ; POKE #76CB,A
 694+ 756D C9             RET                     ; Return
 695+ 756E              L7143_96:
 696+ 756E 21 C1 76       LD HL,#76C1             ; HL=#76C1
 697+ 7571 01 07 00       LD BC,#0007             ; BC=#0007
 698+ 7574 ED B1          CPIR                    ; Compare A with PEEK HL; HL=HL+1; BC=BC-1; repeat
 699+ 7576                                        ; until BC=0 or A=PEEK HL
 700+ 7576 C8             RET Z                   ; Return if A=PEEK HL
 701+ 7577 5F             LD E,A                  ; E=A
 702+ 7578 AF             XOR A                   ; A=0
 703+ 7579 21 C1 76       LD HL,#76C1             ; HL=#76C1
 704+ 757C 01 07 00       LD BC,#0007             ; BC=#0007
 705+ 757F ED B1          CPIR                    ; Compare A with PEEK HL; HL=HL+1; BC=BC-1; repeat
 706+ 7581                                        ; until BC=0 or A=PEEK HL
 707+ 7581 C0             RET NZ                  ; Return if A<>PEEK HL
 708+ 7582 2B             DEC HL                  ; HL=HL-1
 709+ 7583 73             LD (HL),E               ; POKE HL,E
 710+ 7584 DD 73 18       LD (IX+#18),E           ; POKE (IX+#18),E
 711+ 7587 DD 36 17 FF    LD (IX+#17),#FF         ; POKE (IX+#17),255
 712+ 758B C9             RET                     ; Return
 713+ 758C              L7143_97:
 714+ 758C 01 F7 DF       LD BC,#DFF7             ; BC=#DFF7
 715+ 758F 3E 0C          LD A,#0C                ; A=#0C
 716+ 7591 ED 79          OUT (C),A               ; OUT BC,A
 717+ 7593 06 BF          LD B,#BF                ; B=#BF
 718+ 7595 3E 01          LD A,#01                ; A=#01
 719+ 7597 ED 79          OUT (C),A               ; OUT BC,A
 720+ 7599 06 DF          LD B,#DF                ; B=#DF
 721+ 759B 3E F0          LD A,#F0                ; A=#F0
 722+ 759D ED 79          OUT (C),A               ; OUT BC,A
 723+ 759F AF             XOR A                   ; A=0
 724+ 75A0 32 CD 76       LD (#76CD),A            ; POKE #76CD,A
 725+ 75A3 21 B4 76       LD HL,#76B4             ; HL=#76B4
 726+ 75A6 06 14          LD B,#14                ; B=#14
 727+ 75A8              L7143_98:
 728+ 75A8 77             LD (HL),A               ; POKE HL,A
 729+ 75A9 23             INC HL                  ; HL=HL+1
 730+ 75AA 10 FC          DJNZ L7143_98           ; Decrement B and jump to L7143_98 if B>0
 731+ 75AC AF             XOR A                   ; A=0
 732+ 75AD 3C             INC A                   ; A=A+1
 733+ 75AE C9             RET                     ; Return
 734+ 75AF              L7143_99:
 735+ 75AF 32 BD 76       LD (#76BD),A            ; POKE #76BD,A
 736+ 75B2 C9             RET                     ; Return
 737+ 75B3              L7143_100:
 738+ 75B3 32 CD 76       LD (#76CD),A            ; POKE #76CD,A
 739+ 75B6 18 1B          JR L7143_103            ; Jump to L7143_103
 740+ 75B8              ; This entry point is used by the routine at L6011.
 741+ 75B8              L7143_101:
 742+ 75B8 DD 21 B4 76    LD IX,#76B4             ; IX=#76B4
 743+ 75BC DD 7E 17       LD A,(IX+#17)           ; A=PEEK (IX+#17)
 744+ 75BF B7             OR A                    ; Clear the carry flag and set the zero flag if A=0
 745+ 75C0 28 07          JR Z,L7143_102          ; Jump to L7143_102 if A=0
 746+ 75C2 FE FF          CP #FF                  ; Set the zero flag if A=#FF, or the carry flag if
 747+ 75C4                                        ; A<#FF
 748+ 75C4 28 03          JR Z,L7143_102          ; Jump to L7143_102 if A=#FF
 749+ 75C6 DD 35 17       DEC (IX+#17)            ; POKE (IX+#17),(PEEK (IX+#17))-1
 750+ 75C9              L7143_102:
 751+ 75C9 01 F7 DF       LD BC,#DFF7             ; BC=#DFF7
 752+ 75CC 3E F0          LD A,#F0                ; A=#F0
 753+ 75CE ED 79          OUT (C),A               ; OUT BC,A
 754+ 75D0 01 F7 BF       LD BC,#BFF7             ; BC=#BFF7
 755+ 75D3              L7143_103:
 756+ 75D3 ED 78          IN A,(C)                ; A=IN BC
 757+ 75D5 B7             OR A                    ; Clear the carry flag and set the zero flag if A=0
 758+ 75D6 C8             RET Z                   ; Return if A=0
 759+ 75D7 FE E0          CP #E0                  ; Set the zero flag if A=#E0, or the carry flag if
 760+ 75D9                                        ; A<#E0
 761+ 75D9 28 D8          JR Z,L7143_100          ; Jump to L7143_100 if A=#E0
 762+ 75DB FE F0          CP #F0                  ; Set the zero flag if A=#F0, or the carry flag if
 763+ 75DD                                        ; A<#F0
 764+ 75DD CA 85 76       JP Z,L7143_118          ; Jump to L7143_118 if A=#F0
 765+ 75E0 FE FF          CP #FF                  ; Set the zero flag if A=#FF, or the carry flag if
 766+ 75E2                                        ; A<#FF
 767+ 75E2 28 A8          JR Z,L7143_97           ; Jump to L7143_97 if A=#FF
 768+ 75E4 CA 8A 76       JP Z,L7143_119          ; Jump to L7143_119 if the zero flag is set
 769+ 75E7 4F             LD C,A                  ; C=A
 770+ 75E8 3A CD 76       LD A,(#76CD)            ; A=PEEK #76CD
 771+ 75EB B7             OR A                    ; Clear the carry flag and set the zero flag if A=0
 772+ 75EC DD 36 19 00    LD (IX+#19),#00         ; POKE (IX+#19),0
 773+ 75F0 79             LD A,C                  ; A=C
 774+ 75F1 28 06          JR Z,L7143_104          ; Jump to L7143_104 if the zero flag is set
 775+ 75F3 FE 12          CP #12                  ; Set the zero flag if A=#12, or the carry flag if
 776+ 75F5                                        ; A<#12
 777+ 75F5 C8             RET Z                   ; Return if A=#12
 778+ 75F6 FE 59          CP #59                  ; Set the zero flag if A=#59, or the carry flag if
 779+ 75F8                                        ; A<#59
 780+ 75F8 C8             RET Z                   ; Return if A=#59
 781+ 75F9              L7143_104:
 782+ 75F9 FE 12          CP #12                  ; Set the zero flag if A=#12, or the carry flag if
 783+ 75FB                                        ; A<#12
 784+ 75FB 28 4D          JR Z,L7143_107          ; Jump to L7143_107 if A=#12
 785+ 75FD FE 59          CP #59                  ; Set the zero flag if A=#59, or the carry flag if
 786+ 75FF                                        ; A<#59
 787+ 75FF 28 49          JR Z,L7143_107          ; Jump to L7143_107 if A=#59
 788+ 7601 FE 11          CP #11                  ; Set the zero flag if A=#11, or the carry flag if
 789+ 7603                                        ; A<#11
 790+ 7603 28 AA          JR Z,L7143_99           ; Jump to L7143_99 if A=#11
 791+ 7605 FE 0D          CP #0D                  ; Set the zero flag if A=#0D, or the carry flag if
 792+ 7607                                        ; A<#0D
 793+ 7607 28 37          JR Z,L7143_105          ; Jump to L7143_105 if A=#0D
 794+ 7609 FE 58          CP #58                  ; Set the zero flag if A=#58, or the carry flag if
 795+ 760B                                        ; A<#58
 796+ 760B 28 38          JR Z,L7143_106          ; Jump to L7143_106 if A=#58
 797+ 760D FE 14          CP #14                  ; Set the zero flag if A=#14, or the carry flag if
 798+ 760F                                        ; A<#14
 799+ 760F 28 3E          JR Z,L7143_108          ; Jump to L7143_108 if A=#14
 800+ 7611 FE 0D          CP #0D                  ; Set the zero flag if A=#0D, or the carry flag if
 801+ 7613                                        ; A<#0D
 802+ 7613 38 3F          JR C,L7143_109          ; Jump to L7143_109 if A<#0D
 803+ 7615 FE 76          CP #76                  ; Set the zero flag if A=#76, or the carry flag if
 804+ 7617                                        ; A<#76
 805+ 7617 28 3B          JR Z,L7143_109          ; Jump to L7143_109 if A=#76
 806+ 7619 FE 78          CP #78                  ; Set the zero flag if A=#78, or the carry flag if
 807+ 761B                                        ; A<#78
 808+ 761B 28 37          JR Z,L7143_109          ; Jump to L7143_109 if A=#78
 809+ 761D FE 83          CP #83                  ; Set the zero flag if A=#83, or the carry flag if
 810+ 761F                                        ; A<#83
 811+ 761F 28 33          JR Z,L7143_109          ; Jump to L7143_109 if A=#83
 812+ 7621 FE 75          CP #75                  ; Set the zero flag if A=#75, or the carry flag if
 813+ 7623                                        ; A<#75
 814+ 7623 28 34          JR Z,L7143_110          ; Jump to L7143_110 if A=#75
 815+ 7625 FE 6B          CP #6B                  ; Set the zero flag if A=#6B, or the carry flag if
 816+ 7627                                        ; A<#6B
 817+ 7627 28 35          JR Z,L7143_111          ; Jump to L7143_111 if A=#6B
 818+ 7629 FE 72          CP #72                  ; Set the zero flag if A=#72, or the carry flag if
 819+ 762B                                        ; A<#72
 820+ 762B 28 36          JR Z,L7143_112          ; Jump to L7143_112 if A=#72
 821+ 762D FE 74          CP #74                  ; Set the zero flag if A=#74, or the carry flag if
 822+ 762F                                        ; A<#74
 823+ 762F 28 37          JR Z,L7143_113          ; Jump to L7143_113 if A=#74
 824+ 7631 FE 7D          CP #7D                  ; Set the zero flag if A=#7D, or the carry flag if
 825+ 7633                                        ; A<#7D
 826+ 7633 28 38          JR Z,L7143_114          ; Jump to L7143_114 if A=#7D
 827+ 7635 FE 7A          CP #7A                  ; Set the zero flag if A=#7A, or the carry flag if
 828+ 7637                                        ; A<#7A
 829+ 7637 28 3E          JR Z,L7143_116          ; Jump to L7143_116 if A=#7A
 830+ 7639 FE 77          CP #77                  ; Set the zero flag if A=#77, or the carry flag if
 831+ 763B                                        ; A<#77
 832+ 763B 28 35          JR Z,L7143_115          ; Jump to L7143_115 if A=#77
 833+ 763D C3 6E 75       JP L7143_96             ; Jump to L7143_96
 834+ 7640              L7143_105:
 835+ 7640 21 B4 76       LD HL,#76B4             ; HL=#76B4
 836+ 7643 18 35          JR L7143_117            ; Jump to L7143_117
 837+ 7645              L7143_106:
 838+ 7645 21 B5 76       LD HL,#76B5             ; HL=#76B5
 839+ 7648 18 30          JR L7143_117            ; Jump to L7143_117
 840+ 764A              L7143_107:
 841+ 764A 21 B6 76       LD HL,#76B6             ; HL=#76B6
 842+ 764D 18 2B          JR L7143_117            ; Jump to L7143_117
 843+ 764F              L7143_108:
 844+ 764F 21 B7 76       LD HL,#76B7             ; HL=#76B7
 845+ 7652 18 26          JR L7143_117            ; Jump to L7143_117
 846+ 7654              L7143_109:
 847+ 7654 21 B8 76       LD HL,#76B8             ; HL=#76B8
 848+ 7657 18 21          JR L7143_117            ; Jump to L7143_117
 849+ 7659              L7143_110:
 850+ 7659 21 B9 76       LD HL,#76B9             ; HL=#76B9
 851+ 765C 18 1C          JR L7143_117            ; Jump to L7143_117
 852+ 765E              L7143_111:
 853+ 765E 21 BA 76       LD HL,#76BA             ; HL=#76BA
 854+ 7661 18 17          JR L7143_117            ; Jump to L7143_117
 855+ 7663              L7143_112:
 856+ 7663 21 BB 76       LD HL,#76BB             ; HL=#76BB
 857+ 7666 18 12          JR L7143_117            ; Jump to L7143_117
 858+ 7668              L7143_113:
 859+ 7668 21 BC 76       LD HL,#76BC             ; HL=#76BC
 860+ 766B 18 0D          JR L7143_117            ; Jump to L7143_117
 861+ 766D              L7143_114:
 862+ 766D 21 BE 76       LD HL,#76BE             ; HL=#76BE
 863+ 7670 18 08          JR L7143_117            ; Jump to L7143_117
 864+ 7672              L7143_115:
 865+ 7672 21 BF 76       LD HL,#76BF             ; HL=#76BF
 866+ 7675 18 03          JR L7143_117            ; Jump to L7143_117
 867+ 7677              L7143_116:
 868+ 7677 21 C0 76       LD HL,#76C0             ; HL=#76C0
 869+ 767A              L7143_117:
 870+ 767A BE             CP (HL)                 ; Set the zero flag if A=PEEK HL, or the carry flag
 871+ 767B                                        ; if A<PEEK HL
 872+ 767B C8             RET Z                   ; Return if A=PEEK HL
 873+ 767C 77             LD (HL),A               ; POKE HL,A
 874+ 767D 32 CC 76       LD (#76CC),A            ; POKE #76CC,A
 875+ 7680 DD 36 17 FF    LD (IX+#17),#FF         ; POKE (IX+#17),255
 876+ 7684 C9             RET                     ; Return
 877+ 7685              L7143_118:
 878+ 7685 ED 78          IN A,(C)                ; A=IN BC
 879+ 7687 B7             OR A                    ; Clear the carry flag and set the zero flag if A=0
 880+ 7688 28 24          JR Z,L7143_121          ; Jump to L7143_121 if A=0
 881+ 768A              L7143_119:
 882+ 768A 4F             LD C,A                  ; C=A
 883+ 768B 3E CA          LD A,#CA                ; A=#CA
 884+ 768D 32 E4 75       LD (#75E4),A            ; POKE #75E4,A
 885+ 7690 3A CD 76       LD A,(#76CD)            ; A=PEEK #76CD
 886+ 7693 B7             OR A                    ; Clear the carry flag and set the zero flag if A=0
 887+ 7694 DD 36 19 00    LD (IX+#19),#00         ; POKE (IX+#19),0
 888+ 7698 79             LD A,C                  ; A=C
 889+ 7699 28 06          JR Z,L7143_120          ; Jump to L7143_120 if the zero flag is set
 890+ 769B FE 12          CP #12                  ; Set the zero flag if A=#12, or the carry flag if
 891+ 769D                                        ; A<#12
 892+ 769D C8             RET Z                   ; Return if A=#12
 893+ 769E FE 59          CP #59                  ; Set the zero flag if A=#59, or the carry flag if
 894+ 76A0                                        ; A<#59
 895+ 76A0 C8             RET Z                   ; Return if A=#59
 896+ 76A1              L7143_120:
 897+ 76A1 21 B4 76       LD HL,#76B4             ; HL=#76B4
 898+ 76A4 01 14 00       LD BC,#0014             ; BC=#0014
 899+ 76A7 ED B1          CPIR                    ; Compare A with PEEK HL; HL=HL+1; BC=BC-1; repeat
 900+ 76A9                                        ; until BC=0 or A=PEEK HL
 901+ 76A9 C0             RET NZ                  ; Return if A<>PEEK HL
 902+ 76AA 2B             DEC HL                  ; HL=HL-1
 903+ 76AB 36 00          LD (HL),#00             ; POKE HL,#00
 904+ 76AD C9             RET                     ; Return
 905+ 76AE              L7143_121:
 906+ 76AE 3E C3          LD A,#C3                ; A=#C3
 907+ 76B0 32 E4 75       LD (#75E4),A            ; POKE #75E4,A
 908+ 76B3 C9             RET                     ; Return
 909+ 76B4 00             NOP                     ; Do nothing
 910+ 76B5 00             NOP                     ; Do nothing
 911+ 76B6 00             NOP                     ; Do nothing
 912+ 76B7 00             NOP                     ; Do nothing
 913+ 76B8 00             NOP                     ; Do nothing
 914+ 76B9 00             NOP                     ; Do nothing
 915+ 76BA 00             NOP                     ; Do nothing
 916+ 76BB 00             NOP                     ; Do nothing
 917+ 76BC 00             NOP                     ; Do nothing
 918+ 76BD 00             NOP                     ; Do nothing
 919+ 76BE 00             NOP                     ; Do nothing
 920+ 76BF 00             NOP                     ; Do nothing
 921+ 76C0 00             NOP                     ; Do nothing
 922+ 76C1 00             NOP                     ; Do nothing
 923+ 76C2 00             NOP                     ; Do nothing
 924+ 76C3 00             NOP                     ; Do nothing
 925+ 76C4 00             NOP                     ; Do nothing
 926+ 76C5 00             NOP                     ; Do nothing
 927+ 76C6 00             NOP                     ; Do nothing
 928+ 76C7 00             NOP                     ; Do nothing
 929+ 76C8 FF             RST #38                 ; CALL 0038
 930+ 76C9 00             NOP                     ; Do nothing
 931+ 76CA 00             NOP                     ; Do nothing
 932+ 76CB 00             NOP                     ; Do nothing
 933+ 76CC 00             NOP                     ; Do nothing
 934+ 76CD 00             NOP                     ; Do nothing
 935+ 76CE 0E 16          LD C,#16                ; C=#16
 936+ 76D0 1E 26          LD E,#26                ; E=#26
 937+ 76D2 25             DEC H                   ; H=H-1
 938+ 76D3 2E 36          LD L,#36                ; L=#36
 939+ 76D5 3D             DEC A                   ; A=A-1
 940+ 76D6 3E 46          LD A,#46                ; A=#46
 941+ 76D8 45             LD B,L                  ; B=L
 942+ 76D9 4E             LD C,(HL)               ; C=PEEK HL
 943+ 76DA 55             LD D,L                  ; D=L
 944+ 76DB 15             DEC D                   ; D=D-1
 945+ 76DC 1D             DEC E                   ; E=E-1
 946+ 76DD 24             INC H                   ; H=H+1
 947+ 76DE 2D             DEC L                   ; L=L-1
 948+ 76DF 2C             INC L                   ; L=L+1
 949+ 76E0 35             DEC (HL)                ; POKE HL,(PEEK HL)-1
 950+ 76E1 3C             INC A                   ; A=A+1
 951+ 76E2 43             LD B,E                  ; B=E
 952+ 76E3 44             LD B,H                  ; B=H
 953+ 76E4 4D             LD C,L                  ; C=L
 954+ 76E5 54             LD D,H                  ; D=H
 955+ 76E6 5B             LD E,E                  ; Do nothing
 956+ 76E7 5D             LD E,L                  ; E=L
 957+ 76E8 1C             INC E                   ; E=E+1
 958+ 76E9 1B             DEC DE                  ; DE=DE-1
 959+ 76EA 23             INC HL                  ; HL=HL+1
 960+ 76EB 2B             DEC HL                  ; HL=HL-1
 961+ 76EC 34             INC (HL)                ; POKE HL,(PEEK HL)+1
 962+ 76ED 33             INC SP                  ; SP=SP+1
 963+ 76EE 3B             DEC SP                  ; SP=SP-1
 964+ 76EF 42             LD B,D                  ; B=D
 965+ 76F0 4B             LD C,E                  ; C=E
 966+ 76F1 4C             LD C,H                  ; C=H
 967+ 76F2 52             LD D,D                  ; Do nothing
 968+ 76F3 1A             LD A,(DE)               ; A=PEEK DE
 969+ 76F4 22 21 2A       LD (#2A21),HL           ; POKE #2A21,L; POKE #2A22,H
 970+ 76F7 32 31 3A       LD (#3A31),A            ; POKE #3A31,A
 971+ 76FA 41             LD B,C                  ; B=C
 972+ 76FB 49             LD C,C                  ; Do nothing
 973+ 76FC 4A             LD C,D                  ; C=D
 974+ 76FD 29             ADD HL,HL               ; HL=HL+HL
 975+ 76FE 79             LD A,C                  ; A=C
 976+ 76FF 7B             LD A,E                  ; A=E
 977+ 7700 7C             LD A,H                  ; A=H
 978+ 7701 27             DAA                     ; Decimal adjust A
 979+ 7702 31 32 33       LD SP,#3332             ; SP=#3332
 980+ 7705 34             INC (HL)                ; POKE HL,(PEEK HL)+1
 981+ 7706 35             DEC (HL)                ; POKE HL,(PEEK HL)-1
 982+ 7707 36 37          LD (HL),#37             ; POKE HL,#37
 983+ 7709 38 39          JR C,L7143_123          ; Jump to L7143_123 if the carry flag is set
 984+ 770B 30 2D          JR NC,L7143_122         ; Jump to L7143_122 if the carry flag is not set
 985+ 770D 3D             DEC A                   ; A=A-1
 986+ 770E 71             LD (HL),C               ; POKE HL,C
 987+ 770F 77             LD (HL),A               ; POKE HL,A
 988+ 7710 65             LD H,L                  ; H=L
 989+ 7711 72             LD (HL),D               ; POKE HL,D
 990+ 7712 74             LD (HL),H               ; POKE HL,H
 991+ 7713 79             LD A,C                  ; A=C
 992+ 7714 75             LD (HL),L               ; POKE HL,L
 993+ 7715 69             LD L,C                  ; L=C
 994+ 7716 6F             LD L,A                  ; L=A
 995+ 7717 70             LD (HL),B               ; POKE HL,B
 996+ 7718 5B             LD E,E                  ; Do nothing
 997+ 7719 5D             LD E,L                  ; E=L
 998+ 771A 5C             LD E,H                  ; E=H
 999+ 771B 61             LD H,C                  ; H=C
1000+ 771C 73             LD (HL),E               ; POKE HL,E
1001+ 771D 64             LD H,H                  ; Do nothing
1002+ 771E 66             LD H,(HL)               ; H=PEEK HL
1003+ 771F 67             LD H,A                  ; H=A
1004+ 7720 68             LD L,B                  ; L=B
1005+ 7721 6A             LD L,D                  ; L=D
1006+ 7722 6B             LD L,E                  ; L=E
1007+ 7723 6C             LD L,H                  ; L=H
1008+ 7724 3B             DEC SP                  ; SP=SP-1
1009+ 7725 27             DAA                     ; Decimal adjust A
1010+ 7726 7A             LD A,D                  ; A=D
1011+ 7727 78             LD A,B                  ; A=B
1012+ 7728 63             LD H,E                  ; H=E
1013+ 7729 76             HALT                    ; Wait for the next interrupt
1014+ 772A 62             LD H,D                  ; H=D
1015+ 772B 6E             LD L,(HL)               ; L=PEEK HL
1016+ 772C 6D             LD L,L                  ; Do nothing
1017+ 772D 2C             INC L                   ; L=L+1
1018+ 772E 2E 2F          LD L,#2F                ; L=#2F
1019+ 7730 20 2B          JR NZ,L7143_124         ; Jump to L7143_124 if the zero flag is not set
1020+ 7732 2D             DEC L                   ; L=L-1
1021+ 7733 2A 7E 21       LD HL,(#217E)           ; L=PEEK #217E; H=PEEK #217F
1022+ 7736 40             LD B,B                  ; Do nothing
1023+ 7737 23             INC HL                  ; HL=HL+1
1024+ 7738 24             INC H                   ; H=H+1
1025+ 7739 25             DEC H                   ; H=H-1
1026+ 773A              L7143_122:
1027+ 773A 5E             LD E,(HL)               ; E=PEEK HL
1028+ 773B 26 2A          LD H,#2A                ; H=#2A
1029+ 773D 28 29          JR Z,#7768              ; Jump to 7768 if the zero flag is set
1030+ 773F 5F             LD E,A                  ; E=A
1031+ 7740 2B             DEC HL                  ; HL=HL-1
1032+ 7741 51             LD D,C                  ; D=C
1033+ 7742 57             LD D,A                  ; D=A
1034+ 7743 45             LD B,L                  ; B=L
1035+ 7744              L7143_123:
1036+ 7744 52             LD D,D                  ; Do nothing
1037+ 7745 54             LD D,H                  ; D=H
1038+ 7746 59             LD E,C                  ; E=C
1039+ 7747 55             LD D,L                  ; D=L
1040+ 7748 49             LD C,C                  ; Do nothing
1041+ 7749 4F             LD C,A                  ; C=A
1042+ 774A 50             LD D,B                  ; D=B
1043+ 774B 7B             LD A,E                  ; A=E
1044+ 774C 7D             LD A,L                  ; A=L
1045+ 774D 7C             LD A,H                  ; A=H
1046+ 774E 41             LD B,C                  ; B=C
1047+ 774F 53             LD D,E                  ; D=E
1048+ 7750 44             LD B,H                  ; B=H
1049+ 7751 46             LD B,(HL)               ; B=PEEK HL
1050+ 7752 47             LD B,A                  ; B=A
1051+ 7753 48             LD C,B                  ; C=B
1052+ 7754 4A             LD C,D                  ; C=D
1053+ 7755 4B             LD C,E                  ; C=E
1054+ 7756 4C             LD C,H                  ; C=H
1055+ 7757 3A 22 5A       LD A,(#5A22)            ; A=PEEK #5A22
1056+ 775A 58             LD E,B                  ; E=B
1057+ 775B 43             LD B,E                  ; B=E
1058+ 775C 56             LD D,(HL)               ; D=PEEK HL
1059+ 775D              L7143_124:
1060+ 775D 42             LD B,D                  ; B=D
1061+ 775E 4E             LD C,(HL)               ; C=PEEK HL
1062+ 775F 4D             LD C,L                  ; C=L
1063+ 7760 3C             INC A                   ; A=A+1
1064+ 7761 3E 3F          LD A,#3F                ; A=#3F
1065+ 7763 20 2B          JR NZ,L7143_126         ; Jump to L7143_126 if the zero flag is not set
1066+ 7765 2D             DEC L                   ; L=L-1
1067+ 7766 2A 00 01       LD HL,(#0100)           ; L=PEEK #0100; H=PEEK #0101
1068+ 7769 02             LD (BC),A               ; POKE BC,A
1069+ 776A 03             INC BC                  ; BC=BC+1
1070+ 776B 04             INC B                   ; B=B+1
1071+ 776C 05             DEC B                   ; B=B-1
1072+ 776D 06 07          LD B,#07                ; B=#07
1073+ 776F 08             EX AF,AF'               ; Exchange AF and AF'
1074+ 7770 09             ADD HL,BC               ; HL=HL+BC
1075+ 7771 0A             LD A,(BC)               ; A=PEEK BC
1076+ 7772 0B             DEC BC                  ; BC=BC-1
1077+ 7773 0C             INC C                   ; C=C+1
1078+ 7774              ; This entry point is used by the routine at L6011.
1079+ 7774              L7143_125:
1080+ 7774 17             RLA                     ; Rotate A left through the carry flag
1081+ 7775 18 19          JR L7143_126            ; Jump to L7143_126
1082+ 7777 23             INC HL                  ; HL=HL+1
1083+ 7778 24             INC H                   ; H=H+1
1084+ 7779 2C             INC L                   ; L=L+1
1085+ 777A 2D             DEC L                   ; L=L-1
1086+ 777B 2E FF          LD L,#FF                ; L=#FF
1087+ 777D 01 02 03       LD BC,#0302             ; BC=#0302
1088+ 7780 04             INC B                   ; B=B+1
1089+ 7781 05             DEC B                   ; B=B-1
1090+ 7782 06 07          LD B,#07                ; B=#07
1091+ 7784 08             EX AF,AF'               ; Exchange AF and AF'
1092+ 7785 09             ADD HL,BC               ; HL=HL+BC
1093+ 7786 0A             LD A,(BC)               ; A=PEEK BC
1094+ 7787 0B             DEC BC                  ; BC=BC-1
1095+ 7788 0C             INC C                   ; C=C+1
1096+ 7789 19             ADD HL,DE               ; HL=HL+DE
1097+ 778A 2E FF          LD L,#FF                ; L=#FF
1098+ 778C F1             POP AF                  ; Pop last item from stack into AF
1099+ 778D 31 32 33       LD SP,#3332             ; SP=#3332
1100+ 7790              L7143_126:
1101+ 7790 34             INC (HL)                ; POKE HL,(PEEK HL)+1
1102+ 7791 35             DEC (HL)                ; POKE HL,(PEEK HL)-1
1103+ 7792 36 37          LD (HL),#37             ; POKE HL,#37
1104+ 7794 38 39          JR C,L7143_128          ; Jump to L7143_128 if the carry flag is set
1105+ 7796 30 2D          JR NC,L7143_127         ; Jump to L7143_127 if the carry flag is not set
1106+ 7798 3D             DEC A                   ; A=A-1
1107+ 7799 A9             XOR C                   ; A=A^C
1108+ 779A E6 E3          AND #E3                 ; Reset bits 2, 3 and 4 of A
1109+ 779C AA             XOR D                   ; A=A^D
1110+ 779D A5             AND L                   ; A=A&L
1111+ 779E AD             XOR L                   ; A=A^L
1112+ 779F A3             AND E                   ; A=A&E
1113+ 77A0 E8             RET PE                  ; Return if the parity of A is even
1114+ 77A1 E9             JP (HL)                 ; Jump to HL
1115+ 77A2 A7             AND A                   ; Clear the carry flag and set the zero flag if A=0
1116+ 77A3 E5             PUSH HL                 ; Push HL onto the stack
1117+ 77A4 EA 5C E4       JP PE,#E45C             ; Jump to E45C if the parity/overflow flag is set
1118+ 77A7                                        ; (parity even)
1119+ 77A7 EB             EX DE,HL                ; Exchange DE and HL
1120+ 77A8 A2             AND D                   ; A=A&D
1121+ 77A9 A0             AND B                   ; A=A&B
1122+ 77AA AF             XOR A                   ; A=0
1123+ 77AB E0             RET PO                  ; Return if the parity of A is odd
1124+ 77AC AE             XOR (HL)                ; A=A^PEEK HL
1125+ 77AD AB             XOR E                   ; A=A^E
1126+ 77AE A4             AND H                   ; A=A&H
1127+ 77AF A6             AND (HL)                ; A=A&PEEK HL
1128+ 77B0 ED EF          DB #ED,#EF
1129+ 77B2 E7             RST #20                 ; CALL 0020
1130+ 77B3 E1             POP HL                  ; Pop last item from stack into HL
1131+ 77B4 AC             XOR H                   ; A=A^H
1132+ 77B5 A8             XOR B                   ; A=A^B
1133+ 77B6 E2 EC A1       JP PO,#A1EC             ; Jump to A1EC if the parity of A is odd
1134+ 77B9 EE 2E          XOR #2E                 ; Flip bits 1, 2, 3 and 5 of A
1135+ 77BB 20 2B          JR NZ,L7143_129         ; Jump to L7143_129 if A>0
1136+ 77BD 2D             DEC L                   ; L=L-1
1137+ 77BE 2A F0 21       LD HL,(#21F0)           ; L=PEEK #21F0; H=PEEK #21F1
1138+ 77C1 22 FB 3B       LD (#3BFB),HL           ; POKE #3BFB,L; POKE #3BFC,H
1139+ 77C4 25             DEC H                   ; H=H-1
1140+ 77C5              L7143_127:
1141+ 77C5 3A 3F 2A       LD A,(#2A3F)            ; A=PEEK #2A3F
1142+ 77C8 28 29          JR Z,#77F3              ; Jump to 77F3 if the zero flag is set
1143+ 77CA 5F             LD E,A                  ; E=A
1144+ 77CB 2B             DEC HL                  ; HL=HL-1
1145+ 77CC 89             ADC A,C                 ; A=A+carry+C
1146+ 77CD 96             SUB (HL)                ; A=A-PEEK HL
1147+ 77CE 93             SUB E                   ; A=A-E
1148+ 77CF              L7143_128:
1149+ 77CF 8A             ADC A,D                 ; A=A+carry+D
1150+ 77D0 85             ADD A,L                 ; A=A+L
1151+ 77D1 8D             ADC A,L                 ; A=A+carry+L
1152+ 77D2 83             ADD A,E                 ; A=A+E
1153+ 77D3 98             SBC A,B                 ; A=A-carry-B
1154+ 77D4 99             SBC A,C                 ; A=A-carry-C
1155+ 77D5 87             ADD A,A                 ; A=A+A
1156+ 77D6 95             SUB L                   ; A=A-L
1157+ 77D7 9A             SBC A,D                 ; A=A-carry-D
1158+ 77D8 2F             CPL                     ; A=#FF-A
1159+ 77D9 94             SUB H                   ; A=A-H
1160+ 77DA 9B             SBC A,E                 ; A=A-carry-E
1161+ 77DB 82             ADD A,D                 ; A=A+D
1162+ 77DC 80             ADD A,B                 ; A=A+B
1163+ 77DD 8F             ADC A,A                 ; A=A+carry+A
1164+ 77DE 90             SUB B                   ; A=A-B
1165+ 77DF 8E             ADC A,(HL)              ; A=A+carry+PEEK HL
1166+ 77E0 8B             ADC A,E                 ; A=A+carry+E
1167+ 77E1 84             ADD A,H                 ; A=A+H
1168+ 77E2 86             ADD A,(HL)              ; A=A+PEEK HL
1169+ 77E3 9D             SBC A,L                 ; A=A-carry-L
1170+ 77E4 9F             SBC A,A                 ; A=#FF if carry flag is set, 0 otherwise
1171+ 77E5 97             SUB A                   ; A=0
1172+ 77E6 91             SUB C                   ; A=A-C
1173+ 77E7 8C             ADC A,H                 ; A=A+carry+H
1174+ 77E8              L7143_129:
1175+ 77E8 88             ADC A,B                 ; A=A+carry+B
1176+ 77E9 92             SUB D                   ; A=A-D
1177+ 77EA 9C             SBC A,H                 ; A=A-carry-H
1178+ 77EB 81             ADD A,C                 ; A=A+C
1179+ 77EC 9E             SBC A,(HL)              ; A=A-carry-PEEK HL
1180+ 77ED 2C             INC L                   ; L=L+1
1181+ 77EE 20 2B          JR NZ,L7143_131         ; Jump to L7143_131 if L>0
1182+ 77F0 2D             DEC L                   ; L=L-1
1183+ 77F1 2A 09 0E       LD HL,(#0E09)           ; L=PEEK #0E09; H=PEEK #0E0A
1184+ 77F4 45             LD B,L                  ; B=L
1185+ 77F5 4E             LD C,(HL)               ; C=PEEK HL
1186+ 77F6 47             LD B,A                  ; B=A
1187+ 77F7 2F             CPL                     ; A=#FF-A
1188+ 77F8 49             LD C,C                  ; Do nothing
1189+ 77F9 4E             LD C,(HL)               ; C=PEEK HL
1190+ 77FA 53             LD D,E                  ; D=E
1191+ 77FB 0B             DEC BC                  ; BC=BC-1
1192+ 77FC 01 43 41       LD BC,#4143             ; BC=#4143
1193+ 77FF 50             LD D,B                  ; D=B
1194+ 7800 53             LD D,E                  ; D=E
1195+ 7801 3A 4F 46       LD A,(#464F)            ; A=PEEK #464F
1196+ 7804 46             LD B,(HL)               ; B=PEEK HL
1197+ 7805 00             NOP                     ; Do nothing
1198+ 7806 45             LD B,L                  ; B=L
1199+ 7807 4E             LD C,(HL)               ; C=PEEK HL
1200+ 7808 47             LD B,A                  ; B=A
1201+ 7809 52             LD D,D                  ; Do nothing
1202+ 780A 55             LD D,L                  ; D=L
1203+ 780B 53             LD D,E                  ; D=E
1204+ 780C 49             LD C,C                  ; Do nothing
1205+ 780D 4E             LD C,(HL)               ; C=PEEK HL
1206+ 780E 53             LD D,E                  ; D=E
1207+ 780F 4F             LD C,A                  ; C=A
1208+ 7810 56             LD D,(HL)               ; D=PEEK HL
1209+ 7811 52             LD D,D                  ; Do nothing
1210+ 7812 4F             LD C,A                  ; C=A
1211+ 7813 46             LD B,(HL)               ; B=PEEK HL
1212+ 7814 46             LD B,(HL)               ; B=PEEK HL
1213+ 7815 4F             LD C,A                  ; C=A
1214+ 7816 4E             LD C,(HL)               ; C=PEEK HL
1215+ 7817 20 00          JR NZ,L7143_130         ; Jump to L7143_130 if the zero flag is not set
1216+ 7819              L7143_130:
1217+ 7819 00             NOP                     ; Do nothing
1218+ 781A 00             NOP                     ; Do nothing
1219+ 781B              L7143_131:
1220+ 781B 00             NOP                     ; Do nothing
1221+ 781C 00             NOP                     ; Do nothing
1222+ 781D 00             NOP                     ; Do nothing
1223+ 781E 00             NOP                     ; Do nothing
1224+ 781F 00             NOP                     ; Do nothing
1225+ 7820 00             NOP                     ; Do nothing
1226+ 7821 00             NOP                     ; Do nothing
1227+ 7822 00             NOP                     ; Do nothing
1228+ 7823 00             NOP                     ; Do nothing
1229+ 7824 00             NOP                     ; Do nothing
1230+ 7825 00             NOP                     ; Do nothing
1231+ 7826 00             NOP                     ; Do nothing
1232+ 7827 00             NOP                     ; Do nothing
1233+ 7828
# file closed: PS2P_DISASM.ASM
  17  7828                      ASSERT $ == #7828, PS2P_DISASM.ASM boundary mismatch
  18  7828
  19  7828                      INCLUDE "WCIF_DISASM.ASM"
# file opened: WCIF_DISASM.ASM
   1+ 7828              ; WCIF: panel and progress interface helpers
   2+ 7828              ;
   3+ 7828              ; Used by the routine at L8531.
   4+ 7828              L7828:
   5+ 7828 ED 53 6D 78    LD (#786D),DE           ; POKE #786D,E; POKE #786E,D
   6+ 782C 7A             LD A,D                  ; A=D
   7+ 782D B3             OR E                    ; A=A|E
   8+ 782E C8             RET Z                   ; Return if A=0
   9+ 782F DD 7E 0A       LD A,(IX+#0A)           ; A=PEEK (IX+#0A)
  10+ 7832 B7             OR A                    ; Clear the carry flag and set the zero flag if A=0
  11+ 7833 3E F6          LD A,#F6                ; A=#F6
  12+ 7835 20 02          JR NZ,L7828_0           ; Jump to L7828_0 if the zero flag is not set
  13+ 7837 3E DF          LD A,#DF                ; A=#DF
  14+ 7839              L7828_0:
  15+ 7839 32 9C 78       LD (#789C),A            ; POKE #789C,A
  16+ 783C DD 7E 05       LD A,(IX+#05)           ; A=PEEK (IX+#05)
  17+ 783F DD 96 0A       SUB (IX+#0A)            ; A=A-PEEK (IX+#0A)
  18+ 7842 D6 03          SUB #03                 ; A=A-#03
  19+ 7844 32 7D 78       LD (#787D),A            ; POKE #787D,A
  20+ 7847 06 00          LD B,#00                ; B=#00
  21+ 7849 26 00          LD H,#00                ; H=#00
  22+ 784B 6F             LD L,A                  ; L=A
  23+ 784C              L7828_1:
  24+ 784C 04             INC B                   ; B=B+1
  25+ 784D B7             OR A                    ; Clear the carry flag and set the zero flag if A=0
  26+ 784E ED 52          SBC HL,DE               ; HL=HL-carry-DE
  27+ 7850 28 02          JR Z,L7828_2            ; Jump to L7828_2 if HL=0
  28+ 7852 30 F8          JR NC,L7828_1           ; Jump to L7828_1 if the carry flag is not set
  29+ 7854              L7828_2:
  30+ 7854 32 64 78       LD (#7864),A            ; POKE #7864,A
  31+ 7857 78             LD A,B                  ; A=B
  32+ 7858 32 9F 78       LD (#789F),A            ; POKE #789F,A
  33+ 785B C9             RET                     ; Return
  34+ 785C              ; This entry point is used by the routine at L8531.
  35+ 785C              L7828_3:
  36+ 785C DD 5E 0C       LD E,(IX+#0C)           ; E=PEEK (IX+#0C)
  37+ 785F 16 00          LD D,#00                ; D=#00
  38+ 7861 1D             DEC E                   ; E=E-1
  39+ 7862 19             ADD HL,DE               ; HL=HL+DE
  40+ 7863 06 00          LD B,#00                ; B=#00
  41+ 7865 EB             EX DE,HL                ; Exchange DE and HL
  42+ 7866 21 00 00       LD HL,#0000             ; HL=#0000
  43+ 7869              L7828_4:
  44+ 7869 19             ADD HL,DE               ; HL=HL+DE
  45+ 786A 10 FD          DJNZ L7828_4            ; Decrement B and jump to L7828_4 if B>0
  46+ 786C 11 00 00       LD DE,#0000             ; DE=#0000
  47+ 786F 7A             LD A,D                  ; A=D
  48+ 7870 B3             OR E                    ; A=A|E
  49+ 7871 C8             RET Z                   ; Return if A=0
  50+ 7872 AF             XOR A                   ; A=0
  51+ 7873              L7828_5:
  52+ 7873 3C             INC A                   ; A=A+1
  53+ 7874 ED 52          SBC HL,DE               ; HL=HL-carry-DE
  54+ 7876 28 03          JR Z,L7828_6            ; Jump to L7828_6 if HL=0
  55+ 7878 30 F9          JR NC,L7828_5           ; Jump to L7828_5 if the carry flag is not set
  56+ 787A 3D             DEC A                   ; A=A-1
  57+ 787B              L7828_6:
  58+ 787B 4F             LD C,A                  ; C=A
  59+ 787C 06 00          LD B,#00                ; B=#00
  60+ 787E 78             LD A,B                  ; A=B
  61+ 787F 91             SUB C                   ; A=A-C
  62+ 7880 4F             LD C,A                  ; C=A
  63+ 7881 16 01          LD D,#01                ; D=#01
  64+ 7883 DD 5E 04       LD E,(IX+#04)           ; E=PEEK (IX+#04)
  65+ 7886 1D             DEC E                   ; E=E-1
  66+ 7887 CD 45 7D       CALL L7828_75           ; CALL L7828_75
  67+ 788A 36 DC          LD (HL),#DC             ; POKE HL,#DC
  68+ 788C 24             INC H                   ; H=H+1
  69+ 788D 11 DB B0       LD DE,#B0DB             ; DE=#B0DB
  70+ 7890 79             LD A,C                  ; A=C
  71+ 7891              L7828_7:
  72+ 7891 B8             CP B                    ; Set the zero flag if A=B, or the carry flag if A<B
  73+ 7892 CC 9E 78       CALL Z,L7828_9          ; CALL L7828_9 if A=B
  74+ 7895 28 04          JR Z,L7828_8            ; Jump to L7828_8 if the zero flag is set
  75+ 7897 72             LD (HL),D               ; POKE HL,D
  76+ 7898 24             INC H                   ; H=H+1
  77+ 7899 10 F6          DJNZ L7828_7            ; Decrement B and jump to L7828_7 if B>0
  78+ 789B              L7828_8:
  79+ 789B 36 F6          LD (HL),#F6             ; POKE HL,#F6
  80+ 789D C9             RET                     ; Return
  81+ 789E              L7828_9:
  82+ 789E 3E 00          LD A,#00                ; A=#00
  83+ 78A0              L7828_10:
  84+ 78A0 73             LD (HL),E               ; POKE HL,E
  85+ 78A1 24             INC H                   ; H=H+1
  86+ 78A2 05             DEC B                   ; B=B-1
  87+ 78A3 C8             RET Z                   ; Return if B=0
  88+ 78A4 3D             DEC A                   ; A=A-1
  89+ 78A5 20 F9          JR NZ,L7828_10          ; Jump to L7828_10 if A>0
  90+ 78A7 78             LD A,B                  ; A=B
  91+ 78A8 B7             OR A                    ; Clear the carry flag and set the zero flag if A=0
  92+ 78A9 3E FF          LD A,#FF                ; A=#FF
  93+ 78AB C9             RET                     ; Return
  94+ 78AC              L7828_11:
  95+ 78AC DD CB 00 7E    BIT 7,(IX+#00)          ; Set the zero flag if bit 7 of (IX+#00) is 0
  96+ 78B0 C8             RET Z                   ; Return if bit 7 of PEEK (IX+#00) is reset
  97+ 78B1 CD 30 7B       CALL L7828_44           ; CALL L7828_44
  98+ 78B4 3A 1D 7F       LD A,(#7F1D)            ; A=PEEK #7F1D
  99+ 78B7 47             LD B,A                  ; B=A
 100+ 78B8 DD 7E 04       LD A,(IX+#04)           ; A=PEEK (IX+#04)
 101+ 78BB FE 02          CP #02                  ; Set the zero flag if A=#02, or the carry flag if
 102+ 78BD                                        ; A<#02
 103+ 78BD D8             RET C                   ; Return if A<#02
 104+ 78BE 85             ADD A,L                 ; A=A+L
 105+ 78BF 6F             LD L,A                  ; L=A
 106+ 78C0 B8             CP B                    ; Set the zero flag if A=B, or the carry flag if A<B
 107+ 78C1 D0             RET NC                  ; Return if A>=B
 108+ 78C2 CB FD          SET 7,L                 ; Set bit 7 of L
 109+ 78C4 DD 7E 05       LD A,(IX+#05)           ; A=PEEK (IX+#05)
 110+ 78C7 FE 02          CP #02                  ; Set the zero flag if A=#02, or the carry flag if
 111+ 78C9                                        ; A<#02
 112+ 78C9 D8             RET C                   ; Return if A<#02
 113+ 78CA 47             LD B,A                  ; B=A
 114+ 78CB              L7828_12:
 115+ 78CB 24             INC H                   ; H=H+1
 116+ 78CC 7E             LD A,(HL)               ; A=PEEK HL
 117+ 78CD E6 00          AND #00                 ; A=0
 118+ 78CF 77             LD (HL),A               ; POKE HL,A
 119+ 78D0 10 F9          DJNZ L7828_12           ; Decrement B and jump to L7828_12 if B>0
 120+ 78D2 DD 46 04       LD B,(IX+#04)           ; B=PEEK (IX+#04)
 121+ 78D5 05             DEC B                   ; B=B-1
 122+ 78D6              L7828_13:
 123+ 78D6 2D             DEC L                   ; L=L-1
 124+ 78D7 7E             LD A,(HL)               ; A=PEEK HL
 125+ 78D8 E6 00          AND #00                 ; A=0
 126+ 78DA 77             LD (HL),A               ; POKE HL,A
 127+ 78DB 10 F9          DJNZ L7828_13           ; Decrement B and jump to L7828_13 if B>0
 128+ 78DD C9             RET                     ; Return
 129+ 78DE              L7828_14:
 130+ 78DE DD CB 00 66    BIT 4,(IX+#00)          ; Set the zero flag if bit 4 of (IX+#00) is 0
 131+ 78E2 28 1B          JR Z,L7828_15           ; Jump to L7828_15 if bit 4 of PEEK (IX+#00) is reset
 132+ 78E4 F5             PUSH AF                 ; Push AF onto the stack
 133+ 78E5 07             RLCA                    ; Rotate A left circular (copying bit 7 into bit 0
 134+ 78E6                                        ; and into the carry flag)
 135+ 78E6 07             RLCA                    ; Rotate A left circular (copying bit 7 into bit 0
 136+ 78E7                                        ; and into the carry flag)
 137+ 78E7 07             RLCA                    ; Rotate A left circular (copying bit 7 into bit 0
 138+ 78E8                                        ; and into the carry flag)
 139+ 78E8 07             RLCA                    ; Rotate A left circular (copying bit 7 into bit 0
 140+ 78E9                                        ; and into the carry flag)
 141+ 78E9 32 2E 7A       LD (#7A2E),A            ; POKE #7A2E,A
 142+ 78EC 32 36 7A       LD (#7A36),A            ; POKE #7A36,A
 143+ 78EF 11 20 20       LD DE,#2020             ; DE=#2020
 144+ 78F2 0E 20          LD C,#20                ; C=#20
 145+ 78F4 CD 27 7A       CALL L7828_28           ; CALL L7828_28
 146+ 78F7 F1             POP AF                  ; Pop last item from stack into AF
 147+ 78F8 32 2E 7A       LD (#7A2E),A            ; POKE #7A2E,A
 148+ 78FB 32 36 7A       LD (#7A36),A            ; POKE #7A36,A
 149+ 78FE C9             RET                     ; Return
 150+ 78FF              L7828_15:
 151+ 78FF 32 2E 7A       LD (#7A2E),A            ; POKE #7A2E,A
 152+ 7902 32 36 7A       LD (#7A36),A            ; POKE #7A36,A
 153+ 7905 11 BF DA       LD DE,#DABF             ; DE=#DABF
 154+ 7908 0E C4          LD C,#C4                ; C=#C4
 155+ 790A CD 27 7A       CALL L7828_28           ; CALL L7828_28
 156+ 790D C9             RET                     ; Return
 157+ 790E BB             CP E                    ; Set the zero flag if A=E, or the carry flag if A<E
 158+ 790F C9             RET                     ; Return
 159+ 7910 CD BA BA       CALL #BABA              ; CALL BABA
 160+ 7913 B6             OR (HL)                 ; A=A|PEEK HL
 161+ 7914 C7             RST #00                 ; CALL 0000
 162+ 7915 BC             CP H                    ; Set the zero flag if A=H, or the carry flag if A<H
 163+ 7916 C8             RET Z                   ; Return if A=H
 164+ 7917 CD F9 F8       CALL #F8F9              ; CALL F8F9
 165+ 791A F7             RST #30                 ; CALL 0030
 166+ 791B FF             RST #38                 ; CALL 0038
 167+ 791C FE FB          CP #FB                  ; Set the zero flag if A=#FB, or the carry flag if
 168+ 791E                                        ; A<#FB
 169+ 791E FA FD FC       JP M,#FCFD              ; Jump to FCFD if the sign flag is set (negative)
 170+ 7921 5F             LD E,A                  ; E=A
 171+ 7922 BF             CP A                    ; Clear the carry flag and set the zero flag
 172+ 7923 DA C4 B3       JP C,#B3C4              ; Jump to B3C4 if the carry flag is set
 173+ 7926 B3             OR E                    ; A=A|E
 174+ 7927 B4             OR H                    ; A=A|H
 175+ 7928 C3 D9 C0       JP LC069_5              ; Jump to LC069_5
 176+ 792B C4 06 03       CALL NZ,#0306           ; CALL 0306 if the zero flag is not set
 177+ 792E DD 7E 00       LD A,(IX+#00)           ; A=PEEK (IX+#00)
 178+ 7931 E6 0F          AND #0F                 ; Keep only bits 0, 1, 2 and 3 of A
 179+ 7933 21 0E 79       LD HL,#790E             ; HL=#790E
 180+ 7936 11 0A 00       LD DE,#000A             ; DE=#000A
 181+ 7939              L7828_16:
 182+ 7939 28 75          JR Z,L7828_23           ; Jump to L7828_23 if the zero flag is set
 183+ 793B 3D             DEC A                   ; A=A-1
 184+ 793C 28 3D          JR Z,L7828_20           ; Jump to L7828_20 if A=0
 185+ 793E 3D             DEC A                   ; A=A-1
 186+ 793F 28 05          JR Z,L7828_17           ; Jump to L7828_17 if A=0
 187+ 7941 19             ADD HL,DE               ; HL=HL+DE
 188+ 7942 3D             DEC A                   ; A=A-1
 189+ 7943 10 F4          DJNZ L7828_16           ; Decrement B and jump to L7828_16 if B>0
 190+ 7945 C9             RET                     ; Return
 191+ 7946              L7828_17:
 192+ 7946 CD B0 79       CALL L7828_23           ; CALL L7828_23
 193+ 7949 DD 7E 11       LD A,(IX+#11)           ; A=PEEK (IX+#11)
 194+ 794C B7             OR A                    ; Clear the carry flag and set the zero flag if A=0
 195+ 794D 28 0A          JR Z,L7828_18           ; Jump to L7828_18 if A=0
 196+ 794F DD 6E 10       LD L,(IX+#10)           ; L=PEEK (IX+#10)
 197+ 7952 67             LD H,A                  ; H=A
 198+ 7953 11 00 00       LD DE,#0000             ; DE=#0000
 199+ 7956 CD 81 7D       CALL L7828_80           ; CALL L7828_80
 200+ 7959              L7828_18:
 201+ 7959 DD 7E 13       LD A,(IX+#13)           ; A=PEEK (IX+#13)
 202+ 795C B7             OR A                    ; Clear the carry flag and set the zero flag if A=0
 203+ 795D 28 0D          JR Z,L7828_19           ; Jump to L7828_19 if A=0
 204+ 795F DD 6E 12       LD L,(IX+#12)           ; L=PEEK (IX+#12)
 205+ 7962 67             LD H,A                  ; H=A
 206+ 7963 DD 56 05       LD D,(IX+#05)           ; D=PEEK (IX+#05)
 207+ 7966 15             DEC D                   ; D=D-1
 208+ 7967 1E 00          LD E,#00                ; E=#00
 209+ 7969 CD 81 7D       CALL L7828_80           ; CALL L7828_80
 210+ 796C              L7828_19:
 211+ 796C DD 7E 15       LD A,(IX+#15)           ; A=PEEK (IX+#15)
 212+ 796F B7             OR A                    ; Clear the carry flag and set the zero flag if A=0
 213+ 7970 C8             RET Z                   ; Return if A=0
 214+ 7971 DD 6E 14       LD L,(IX+#14)           ; L=PEEK (IX+#14)
 215+ 7974 67             LD H,A                  ; H=A
 216+ 7975 11 01 01       LD DE,#0101             ; DE=#0101
 217+ 7978 C3 81 7D       JP L7828_80             ; Jump to L7828_80
 218+ 797B              L7828_20:
 219+ 797B CD B0 79       CALL L7828_23           ; CALL L7828_23
 220+ 797E DD 7E 0D       LD A,(IX+#0D)           ; A=PEEK (IX+#0D)
 221+ 7981 B7             OR A                    ; Clear the carry flag and set the zero flag if A=0
 222+ 7982 28 0A          JR Z,L7828_21           ; Jump to L7828_21 if A=0
 223+ 7984 DD 6E 0C       LD L,(IX+#0C)           ; L=PEEK (IX+#0C)
 224+ 7987 67             LD H,A                  ; H=A
 225+ 7988 11 00 00       LD DE,#0000             ; DE=#0000
 226+ 798B CD 81 7D       CALL L7828_80           ; CALL L7828_80
 227+ 798E              L7828_21:
 228+ 798E DD 7E 0F       LD A,(IX+#0F)           ; A=PEEK (IX+#0F)
 229+ 7991 B7             OR A                    ; Clear the carry flag and set the zero flag if A=0
 230+ 7992 28 0D          JR Z,L7828_22           ; Jump to L7828_22 if A=0
 231+ 7994 DD 6E 0E       LD L,(IX+#0E)           ; L=PEEK (IX+#0E)
 232+ 7997 67             LD H,A                  ; H=A
 233+ 7998 DD 56 05       LD D,(IX+#05)           ; D=PEEK (IX+#05)
 234+ 799B 15             DEC D                   ; D=D-1
 235+ 799C 1E 00          LD E,#00                ; E=#00
 236+ 799E CD 81 7D       CALL L7828_80           ; CALL L7828_80
 237+ 79A1              L7828_22:
 238+ 79A1 DD 7E 11       LD A,(IX+#11)           ; A=PEEK (IX+#11)
 239+ 79A4 B7             OR A                    ; Clear the carry flag and set the zero flag if A=0
 240+ 79A5 C8             RET Z                   ; Return if A=0
 241+ 79A6 DD 6E 10       LD L,(IX+#10)           ; L=PEEK (IX+#10)
 242+ 79A9 67             LD H,A                  ; H=A
 243+ 79AA 11 01 01       LD DE,#0101             ; DE=#0101
 244+ 79AD C3 81 7D       JP L7828_80             ; Jump to L7828_80
 245+ 79B0              L7828_23:
 246+ 79B0 7E             LD A,(HL)               ; A=PEEK HL
 247+ 79B1 23             INC HL                  ; HL=HL+1
 248+ 79B2 32 06 79       LD (#7906),A            ; POKE #7906,A
 249+ 79B5 7E             LD A,(HL)               ; A=PEEK HL
 250+ 79B6 23             INC HL                  ; HL=HL+1
 251+ 79B7 32 07 79       LD (#7907),A            ; POKE #7907,A
 252+ 79BA 7E             LD A,(HL)               ; A=PEEK HL
 253+ 79BB 23             INC HL                  ; HL=HL+1
 254+ 79BC 32 09 79       LD (#7909),A            ; POKE #7909,A
 255+ 79BF 7E             LD A,(HL)               ; A=PEEK HL
 256+ 79C0 23             INC HL                  ; HL=HL+1
 257+ 79C1 32 FA 79       LD (#79FA),A            ; POKE #79FA,A
 258+ 79C4 7E             LD A,(HL)               ; A=PEEK HL
 259+ 79C5 23             INC HL                  ; HL=HL+1
 260+ 79C6 32 FB 79       LD (#79FB),A            ; POKE #79FB,A
 261+ 79C9 7E             LD A,(HL)               ; A=PEEK HL
 262+ 79CA 23             INC HL                  ; HL=HL+1
 263+ 79CB 32 1C 7A       LD (#7A1C),A            ; POKE #7A1C,A
 264+ 79CE 7E             LD A,(HL)               ; A=PEEK HL
 265+ 79CF 23             INC HL                  ; HL=HL+1
 266+ 79D0 32 1D 7A       LD (#7A1D),A            ; POKE #7A1D,A
 267+ 79D3 7E             LD A,(HL)               ; A=PEEK HL
 268+ 79D4 23             INC HL                  ; HL=HL+1
 269+ 79D5 32 0F 7A       LD (#7A0F),A            ; POKE #7A0F,A
 270+ 79D8 7E             LD A,(HL)               ; A=PEEK HL
 271+ 79D9 23             INC HL                  ; HL=HL+1
 272+ 79DA 32 10 7A       LD (#7A10),A            ; POKE #7A10,A
 273+ 79DD 7E             LD A,(HL)               ; A=PEEK HL
 274+ 79DE 23             INC HL                  ; HL=HL+1
 275+ 79DF 32 12 7A       LD (#7A12),A            ; POKE #7A12,A
 276+ 79E2 CD 3F 7A       CALL L7828_30           ; CALL L7828_30
 277+ 79E5 DD 7E 04       LD A,(IX+#04)           ; A=PEEK (IX+#04)
 278+ 79E8 3D             DEC A                   ; A=A-1
 279+ 79E9 32 28 7A       LD (#7A28),A            ; POKE #7A28,A
 280+ 79EC DD 7E 06       LD A,(IX+#06)           ; A=PEEK (IX+#06)
 281+ 79EF CD DE 78       CALL L7828_14           ; CALL L7828_14
 282+ 79F2 DD 7E 05       LD A,(IX+#05)           ; A=PEEK (IX+#05)
 283+ 79F5 D6 02          SUB #02                 ; A=A-#02
 284+ 79F7 28 15          JR Z,L7828_26           ; Jump to L7828_26 if A=0
 285+ 79F9 11 B3 B3       LD DE,#B3B3             ; DE=#B3B3
 286+ 79FC 0E 20          LD C,#20                ; C=#20
 287+ 79FE              L7828_24:
 288+ 79FE DD BE 0A       CP (IX+#0A)             ; Set the zero flag if A=PEEK (IX+#0A), or the carry
 289+ 7A01                                        ; flag if A<PEEK (IX+#0A)
 290+ 7A01 28 16          JR Z,L7828_27           ; Jump to L7828_27 if A=PEEK (IX+#0A)
 291+ 7A03 DD BE 0B       CP (IX+#0B)             ; Set the zero flag if A=PEEK (IX+#0B), or the carry
 292+ 7A06                                        ; flag if A<PEEK (IX+#0B)
 293+ 7A06 28 11          JR Z,L7828_27           ; Jump to L7828_27 if A=PEEK (IX+#0B)
 294+ 7A08 CD 27 7A       CALL L7828_28           ; CALL L7828_28
 295+ 7A0B              L7828_25:
 296+ 7A0B 3D             DEC A                   ; A=A-1
 297+ 7A0C 20 F0          JR NZ,L7828_24          ; Jump to L7828_24 if A>0
 298+ 7A0E              L7828_26:
 299+ 7A0E 11 D9 C0       LD DE,LC069_5           ; DE=#C0D9
 300+ 7A11 0E C4          LD C,#C4                ; C=#C4
 301+ 7A13 CD 27 7A       CALL L7828_28           ; CALL L7828_28
 302+ 7A16 C3 AC 78       JP L7828_11             ; Jump to L7828_11
 303+ 7A19              L7828_27:
 304+ 7A19 D5             PUSH DE                 ; Push DE onto the stack
 305+ 7A1A C5             PUSH BC                 ; Push BC onto the stack
 306+ 7A1B 11 B4 C3       LD DE,#C3B4             ; DE=#C3B4
 307+ 7A1E 0E C4          LD C,#C4                ; C=#C4
 308+ 7A20 CD 27 7A       CALL L7828_28           ; CALL L7828_28
 309+ 7A23 C1             POP BC                  ; Pop last item from stack into BC
 310+ 7A24 D1             POP DE                  ; Pop last item from stack into DE
 311+ 7A25 18 E4          JR L7828_25             ; Jump to L7828_25
 312+ 7A27              L7828_28:
 313+ 7A27 06 00          LD B,#00                ; B=#00
 314+ 7A29 E5             PUSH HL                 ; Push HL onto the stack
 315+ 7A2A 72             LD (HL),D               ; POKE HL,D
 316+ 7A2B CB FD          SET 7,L                 ; Set bit 7 of L
 317+ 7A2D 36 00          LD (HL),#00             ; POKE HL,#00
 318+ 7A2F CB BD          RES 7,L                 ; Reset bit 7 of L
 319+ 7A31              L7828_29:
 320+ 7A31 23             INC HL                  ; HL=HL+1
 321+ 7A32 71             LD (HL),C               ; POKE HL,C
 322+ 7A33 CB FD          SET 7,L                 ; Set bit 7 of L
 323+ 7A35 36 00          LD (HL),#00             ; POKE HL,#00
 324+ 7A37 CB BD          RES 7,L                 ; Reset bit 7 of L
 325+ 7A39 10 F6          DJNZ L7828_29           ; Decrement B and jump to L7828_29 if B>0
 326+ 7A3B 73             LD (HL),E               ; POKE HL,E
 327+ 7A3C E1             POP HL                  ; Pop last item from stack into HL
 328+ 7A3D 24             INC H                   ; H=H+1
 329+ 7A3E C9             RET                     ; Return
 330+ 7A3F              L7828_30:
 331+ 7A3F DD 7E 04       LD A,(IX+#04)           ; A=PEEK (IX+#04)
 332+ 7A42 B7             OR A                    ; Clear the carry flag and set the zero flag if A=0
 333+ 7A43 20 06          JR NZ,L7828_31          ; Jump to L7828_31 if A>0
 334+ 7A45 3A 1D 7F       LD A,(#7F1D)            ; A=PEEK #7F1D
 335+ 7A48 DD 77 04       LD (IX+#04),A           ; POKE (IX+#04),A
 336+ 7A4B              L7828_31:
 337+ 7A4B DD 7E 05       LD A,(IX+#05)           ; A=PEEK (IX+#05)
 338+ 7A4E B7             OR A                    ; Clear the carry flag and set the zero flag if A=0
 339+ 7A4F 20 06          JR NZ,L7828_32          ; Jump to L7828_32 if A>0
 340+ 7A51 3A 0E 60       LD A,(#600E)            ; A=PEEK #600E
 341+ 7A54 DD 77 05       LD (IX+#05),A           ; POKE (IX+#05),A
 342+ 7A57              L7828_32:
 343+ 7A57 DD 7E 02       LD A,(IX+#02)           ; A=PEEK (IX+#02)
 344+ 7A5A FE FF          CP #FF                  ; Set the zero flag if A=#FF, or the carry flag if
 345+ 7A5C                                        ; A<#FF
 346+ 7A5C 20 0B          JR NZ,L7828_33          ; Jump to L7828_33 if A<>#FF
 347+ 7A5E 3A 1D 7F       LD A,(#7F1D)            ; A=PEEK #7F1D
 348+ 7A61 DD 96 04       SUB (IX+#04)            ; A=A-PEEK (IX+#04)
 349+ 7A64 CB 3F          SRL A                   ; Shift A right (copying bit 0 into the carry flag,
 350+ 7A66                                        ; and resetting bit 7)
 351+ 7A66 DD 77 02       LD (IX+#02),A           ; POKE (IX+#02),A
 352+ 7A69              L7828_33:
 353+ 7A69 DD 7E 03       LD A,(IX+#03)           ; A=PEEK (IX+#03)
 354+ 7A6C FE FF          CP #FF                  ; Set the zero flag if A=#FF, or the carry flag if
 355+ 7A6E                                        ; A<#FF
 356+ 7A6E 20 0B          JR NZ,L7828_34          ; Jump to L7828_34 if A<>#FF
 357+ 7A70 3A 0E 60       LD A,(#600E)            ; A=PEEK #600E
 358+ 7A73 DD 96 05       SUB (IX+#05)            ; A=A-PEEK (IX+#05)
 359+ 7A76 CB 3F          SRL A                   ; Shift A right (copying bit 0 into the carry flag,
 360+ 7A78                                        ; and resetting bit 7)
 361+ 7A78 DD 77 03       LD (IX+#03),A           ; POKE (IX+#03),A
 362+ 7A7B              L7828_34:
 363+ 7A7B CD 30 7B       CALL L7828_44           ; CALL L7828_44
 364+ 7A7E DD 7E 08       LD A,(IX+#08)           ; A=PEEK (IX+#08)
 365+ 7A81 DD B6 09       OR (IX+#09)             ; A=A|PEEK (IX+#09)
 366+ 7A84 C0             RET NZ                  ; Return if A>0
 367+ 7A85 E5             PUSH HL                 ; Push HL onto the stack
 368+ 7A86 ED 5B 11 60    LD DE,(L6011)           ; E=PEEK #6011; D=PEEK #6012
 369+ 7A8A DD 73 08       LD (IX+#08),E           ; POKE (IX+#08),E
 370+ 7A8D DD 72 09       LD (IX+#09),D           ; POKE (IX+#09),D
 371+ 7A90 DD 7E 04       LD A,(IX+#04)           ; A=PEEK (IX+#04)
 372+ 7A93 DD CB 00 7E    BIT 7,(IX+#00)          ; Set the zero flag if bit 7 of (IX+#00) is 0
 373+ 7A97 28 01          JR Z,L7828_35           ; Jump to L7828_35 if bit 7 of PEEK (IX+#00) is reset
 374+ 7A99 3C             INC A                   ; A=A+1
 375+ 7A9A              L7828_35:
 376+ 7A9A 32 B6 7A       LD (#7AB6),A            ; POKE #7AB6,A
 377+ 7A9D 32 BD 7A       LD (#7ABD),A            ; POKE #7ABD,A
 378+ 7AA0 DD 7E 05       LD A,(IX+#05)           ; A=PEEK (IX+#05)
 379+ 7AA3 DD CB 00 7E    BIT 7,(IX+#00)          ; Set the zero flag if bit 7 of (IX+#00) is 0
 380+ 7AA7 28 01          JR Z,L7828_36           ; Jump to L7828_36 if bit 7 of PEEK (IX+#00) is reset
 381+ 7AA9 3C             INC A                   ; A=A+1
 382+ 7AAA              L7828_36:
 383+ 7AAA 08             EX AF,AF'               ; Exchange AF and AF'
 384+ 7AAB 3E 1D          LD A,#1D                ; A=#1D
 385+ 7AAD CD B4 68       CALL L6011_111          ; CALL L6011_111
 386+ 7AB0 7D             LD A,L                  ; A=L
 387+ 7AB1 08             EX AF,AF'               ; Exchange AF and AF'
 388+ 7AB2 06 00          LD B,#00                ; B=#00
 389+ 7AB4              L7828_37:
 390+ 7AB4 08             EX AF,AF'               ; Exchange AF and AF'
 391+ 7AB5 0E 00          LD C,#00                ; C=#00
 392+ 7AB7 ED B0          LDIR                    ; POKE DE,PEEK HL; HL=HL+1; DE=DE+1; BC=BC-1; repeat
 393+ 7AB9                                        ; until BC=0
 394+ 7AB9 6F             LD L,A                  ; L=A
 395+ 7ABA CB FD          SET 7,L                 ; Set bit 7 of L
 396+ 7ABC 0E 00          LD C,#00                ; C=#00
 397+ 7ABE ED B0          LDIR                    ; POKE DE,PEEK HL; HL=HL+1; DE=DE+1; BC=BC-1; repeat
 398+ 7AC0                                        ; until BC=0
 399+ 7AC0 6F             LD L,A                  ; L=A
 400+ 7AC1 24             INC H                   ; H=H+1
 401+ 7AC2 08             EX AF,AF'               ; Exchange AF and AF'
 402+ 7AC3 3D             DEC A                   ; A=A-1
 403+ 7AC4 20 EE          JR NZ,L7828_37          ; Jump to L7828_37 if A>0
 404+ 7AC6 ED 53 11 60    LD (L6011),DE           ; POKE #6011,E; POKE #6012,D
 405+ 7ACA E1             POP HL                  ; Pop last item from stack into HL
 406+ 7ACB C3 AE 68       JP L6011_109            ; Jump to L6011_109
 407+ 7ACE              ; This entry point is used by the routines at L6011, L8531, L9149 and L9B7C.
 408+ 7ACE              L7828_38:
 409+ 7ACE CD 30 7B       CALL L7828_44           ; CALL L7828_44
 410+ 7AD1 EB             EX DE,HL                ; Exchange DE and HL
 411+ 7AD2 DD 6E 08       LD L,(IX+#08)           ; L=PEEK (IX+#08)
 412+ 7AD5 DD 66 09       LD H,(IX+#09)           ; H=PEEK (IX+#09)
 413+ 7AD8 7C             LD A,H                  ; A=H
 414+ 7AD9 FE BF          CP #BF                  ; Set the zero flag if A=#BF, or the carry flag if
 415+ 7ADB                                        ; A<#BF
 416+ 7ADB D0             RET NC                  ; Return if A>=#BF
 417+ 7ADC B5             OR L                    ; A=A|L
 418+ 7ADD C8             RET Z                   ; Return if A=0
 419+ 7ADE E5             PUSH HL                 ; Push HL onto the stack
 420+ 7ADF DD 7E 04       LD A,(IX+#04)           ; A=PEEK (IX+#04)
 421+ 7AE2 DD CB 00 7E    BIT 7,(IX+#00)          ; Set the zero flag if bit 7 of (IX+#00) is 0
 422+ 7AE6 28 01          JR Z,L7828_39           ; Jump to L7828_39 if bit 7 of PEEK (IX+#00) is reset
 423+ 7AE8 3C             INC A                   ; A=A+1
 424+ 7AE9              L7828_39:
 425+ 7AE9 32 05 7B       LD (#7B05),A            ; POKE #7B05,A
 426+ 7AEC 32 0C 7B       LD (#7B0C),A            ; POKE #7B0C,A
 427+ 7AEF DD 7E 05       LD A,(IX+#05)           ; A=PEEK (IX+#05)
 428+ 7AF2 DD CB 00 7E    BIT 7,(IX+#00)          ; Set the zero flag if bit 7 of (IX+#00) is 0
 429+ 7AF6 28 01          JR Z,L7828_40           ; Jump to L7828_40 if bit 7 of PEEK (IX+#00) is reset
 430+ 7AF8 3C             INC A                   ; A=A+1
 431+ 7AF9              L7828_40:
 432+ 7AF9 08             EX AF,AF'               ; Exchange AF and AF'
 433+ 7AFA 3E 1D          LD A,#1D                ; A=#1D
 434+ 7AFC CD B4 68       CALL L6011_111          ; CALL L6011_111
 435+ 7AFF 7B             LD A,E                  ; A=E
 436+ 7B00 08             EX AF,AF'               ; Exchange AF and AF'
 437+ 7B01 06 00          LD B,#00                ; B=#00
 438+ 7B03              L7828_41:
 439+ 7B03 08             EX AF,AF'               ; Exchange AF and AF'
 440+ 7B04 0E 00          LD C,#00                ; C=#00
 441+ 7B06 ED B0          LDIR                    ; POKE DE,PEEK HL; HL=HL+1; DE=DE+1; BC=BC-1; repeat
 442+ 7B08                                        ; until BC=0
 443+ 7B08 5F             LD E,A                  ; E=A
 444+ 7B09 CB FB          SET 7,E                 ; Set bit 7 of E
 445+ 7B0B 0E 00          LD C,#00                ; C=#00
 446+ 7B0D ED B0          LDIR                    ; POKE DE,PEEK HL; HL=HL+1; DE=DE+1; BC=BC-1; repeat
 447+ 7B0F                                        ; until BC=0
 448+ 7B0F 5F             LD E,A                  ; E=A
 449+ 7B10 14             INC D                   ; D=D+1
 450+ 7B11 08             EX AF,AF'               ; Exchange AF and AF'
 451+ 7B12 3D             DEC A                   ; A=A-1
 452+ 7B13 20 EE          JR NZ,L7828_41          ; Jump to L7828_41 if A>0
 453+ 7B15 C1             POP BC                  ; Pop last item from stack into BC
 454+ 7B16 EB             EX DE,HL                ; Exchange DE and HL
 455+ 7B17 2A 11 60       LD HL,(L6011)           ; L=PEEK #6011; H=PEEK #6012
 456+ 7B1A B7             OR A                    ; Clear the carry flag and set the zero flag if A=0
 457+ 7B1B ED 52          SBC HL,DE               ; HL=HL-carry-DE
 458+ 7B1D 28 02          JR Z,L7828_42           ; Jump to L7828_42 if HL=0
 459+ 7B1F 18 04          JR L7828_43             ; Jump to L7828_43
 460+ 7B21              L7828_42:
 461+ 7B21 ED 43 11 60    LD (L6011),BC           ; POKE #6011,C; POKE #6012,B
 462+ 7B25              L7828_43:
 463+ 7B25 CD AE 68       CALL L6011_109          ; CALL L6011_109
 464+ 7B28 AF             XOR A                   ; A=0
 465+ 7B29 DD 77 08       LD (IX+#08),A           ; POKE (IX+#08),A
 466+ 7B2C DD 77 09       LD (IX+#09),A           ; POKE (IX+#09),A
 467+ 7B2F C9             RET                     ; Return
 468+ 7B30              ; This entry point is used by the routine at L7143.
 469+ 7B30              L7828_44:
 470+ 7B30 AF             XOR A                   ; A=0
 471+ 7B31 CD C1 68       CALL L6011_114          ; CALL L6011_114
 472+ 7B34 21 00 C0       LD HL,LC000             ; HL=#C000
 473+ 7B37 DD 7E 02       LD A,(IX+#02)           ; A=PEEK (IX+#02)
 474+ 7B3A 85             ADD A,L                 ; A=A+L
 475+ 7B3B 6F             LD L,A                  ; L=A
 476+ 7B3C DD 7E 03       LD A,(IX+#03)           ; A=PEEK (IX+#03)
 477+ 7B3F 84             ADD A,H                 ; A=A+H
 478+ 7B40 67             LD H,A                  ; H=A
 479+ 7B41 C9             RET                     ; Return
 480+ 7B42              L7828_45:
 481+ 7B42 7C             LD A,H                  ; A=H
 482+ 7B43 B7             OR A                    ; Clear the carry flag and set the zero flag if A=0
 483+ 7B44 28 4D          JR Z,L7828_48           ; Jump to L7828_48 if A=0
 484+ 7B46 3D             DEC A                   ; A=A-1
 485+ 7B47 28 01          JR Z,L7828_46           ; Jump to L7828_46 if A=0
 486+ 7B49 C9             RET                     ; Return
 487+ 7B4A              L7828_46:
 488+ 7B4A CD A6 7C       CALL L7828_64           ; CALL L7828_64
 489+ 7B4D DA EC 7B       JP C,L7828_51           ; Jump to L7828_51 if the carry flag is set
 490+ 7B50 21 00 00       LD HL,#0000             ; HL=#0000
 491+ 7B53 DD 7E 02       LD A,(IX+#02)           ; A=PEEK (IX+#02)
 492+ 7B56 85             ADD A,L                 ; A=A+L
 493+ 7B57 83             ADD A,E                 ; A=A+E
 494+ 7B58 6F             LD L,A                  ; L=A
 495+ 7B59 DD 7E 03       LD A,(IX+#03)           ; A=PEEK (IX+#03)
 496+ 7B5C 84             ADD A,H                 ; A=A+H
 497+ 7B5D 82             ADD A,D                 ; A=A+D
 498+ 7B5E 67             LD H,A                  ; H=A
 499+ 7B5F 50             LD D,B                  ; D=B
 500+ 7B60 59             LD E,C                  ; E=C
 501+ 7B61 15             DEC D                   ; D=D-1
 502+ 7B62 15             DEC D                   ; D=D-1
 503+ 7B63 1D             DEC E                   ; E=E-1
 504+ 7B64 AF             XOR A                   ; A=0
 505+ 7B65 01 AF 1D       LD BC,#1DAF             ; BC=#1DAF
 506+ 7B68 ED 69          OUT (C),L               ; OUT BC,L
 507+ 7B6A 06 1E          LD B,#1E                ; B=#1E
 508+ 7B6C ED 61          OUT (C),H               ; OUT BC,H
 509+ 7B6E 06 1F          LD B,#1F                ; B=#1F
 510+ 7B70 ED 79          OUT (C),A               ; OUT BC,A
 511+ 7B72 06 1C          LD B,#1C                ; B=#1C
 512+ 7B74 ED 79          OUT (C),A               ; OUT BC,A
 513+ 7B76 24             INC H                   ; H=H+1
 514+ 7B77 06 1A          LD B,#1A                ; B=#1A
 515+ 7B79 ED 69          OUT (C),L               ; OUT BC,L
 516+ 7B7B 06 1B          LD B,#1B                ; B=#1B
 517+ 7B7D ED 61          OUT (C),H               ; OUT BC,H
 518+ 7B7F 06 26          LD B,#26                ; B=#26
 519+ 7B81 ED 59          OUT (C),E               ; OUT BC,E
 520+ 7B83 06 28          LD B,#28                ; B=#28
 521+ 7B85 ED 51          OUT (C),D               ; OUT BC,D
 522+ 7B87 06 27          LD B,#27                ; B=#27
 523+ 7B89 3E 31          LD A,#31                ; A=#31
 524+ 7B8B ED 79          OUT (C),A               ; OUT BC,A
 525+ 7B8D              L7828_47:
 526+ 7B8D ED 70          DB #ED,#70
 527+ 7B8F FA 8D 7B       JP M,L7828_47           ; Jump to L7828_47 if the sign flag is set (negative)
 528+ 7B92 C9             RET                     ; Return
 529+ 7B93              L7828_48:
 530+ 7B93 CD A6 7C       CALL L7828_64           ; CALL L7828_64
 531+ 7B96 38 54          JR C,L7828_51           ; Jump to L7828_51 if the carry flag is set
 532+ 7B98 21 00 00       LD HL,#0000             ; HL=#0000
 533+ 7B9B DD 7E 02       LD A,(IX+#02)           ; A=PEEK (IX+#02)
 534+ 7B9E 85             ADD A,L                 ; A=A+L
 535+ 7B9F 83             ADD A,E                 ; A=A+E
 536+ 7BA0 5F             LD E,A                  ; E=A
 537+ 7BA1 DD 7E 03       LD A,(IX+#03)           ; A=PEEK (IX+#03)
 538+ 7BA4 84             ADD A,H                 ; A=A+H
 539+ 7BA5 82             ADD A,D                 ; A=A+D
 540+ 7BA6 80             ADD A,B                 ; A=A+B
 541+ 7BA7 57             LD D,A                  ; D=A
 542+ 7BA8 15             DEC D                   ; D=D-1
 543+ 7BA9 62             LD H,D                  ; H=D
 544+ 7BAA 6B             LD L,E                  ; L=E
 545+ 7BAB 25             DEC H                   ; H=H-1
 546+ 7BAC 78             LD A,B                  ; A=B
 547+ 7BAD 3D             DEC A                   ; A=A-1
 548+ 7BAE 08             EX AF,AF'               ; Exchange AF and AF'
 549+ 7BAF 79             LD A,C                  ; A=C
 550+ 7BB0 01 AF 26       LD BC,#26AF             ; BC=#26AF
 551+ 7BB3 ED 79          OUT (C),A               ; OUT BC,A
 552+ 7BB5 AF             XOR A                   ; A=0
 553+ 7BB6 06 1F          LD B,#1F                ; B=#1F
 554+ 7BB8 ED 79          OUT (C),A               ; OUT BC,A
 555+ 7BBA 06 1C          LD B,#1C                ; B=#1C
 556+ 7BBC ED 79          OUT (C),A               ; OUT BC,A
 557+ 7BBE 06 28          LD B,#28                ; B=#28
 558+ 7BC0 ED 79          OUT (C),A               ; OUT BC,A
 559+ 7BC2 08             EX AF,AF'               ; Exchange AF and AF'
 560+ 7BC3              L7828_49:
 561+ 7BC3 08             EX AF,AF'               ; Exchange AF and AF'
 562+ 7BC4 06 1D          LD B,#1D                ; B=#1D
 563+ 7BC6 ED 59          OUT (C),E               ; OUT BC,E
 564+ 7BC8 06 1E          LD B,#1E                ; B=#1E
 565+ 7BCA ED 51          OUT (C),D               ; OUT BC,D
 566+ 7BCC 15             DEC D                   ; D=D-1
 567+ 7BCD 06 1A          LD B,#1A                ; B=#1A
 568+ 7BCF ED 69          OUT (C),L               ; OUT BC,L
 569+ 7BD1 06 1B          LD B,#1B                ; B=#1B
 570+ 7BD3 ED 61          OUT (C),H               ; OUT BC,H
 571+ 7BD5 25             DEC H                   ; H=H-1
 572+ 7BD6 06 27          LD B,#27                ; B=#27
 573+ 7BD8 3E 01          LD A,#01                ; A=#01
 574+ 7BDA ED 79          OUT (C),A               ; OUT BC,A
 575+ 7BDC              L7828_50:
 576+ 7BDC ED 70          DB #ED,#70
 577+ 7BDE FA DC 7B       JP M,L7828_50           ; Jump to L7828_50 if the sign flag is set (negative)
 578+ 7BE1 08             EX AF,AF'               ; Exchange AF and AF'
 579+ 7BE2 3D             DEC A                   ; A=A-1
 580+ 7BE3 20 DE          JR NZ,L7828_49          ; Jump to L7828_49 if A>0
 581+ 7BE5 C9             RET                     ; Return
 582+ 7BE6 67             LD H,A                  ; H=A
 583+ 7BE7 E6 FC          AND #FC                 ; Reset bits 0 and 1 of A
 584+ 7BE9 CA 42 7B       JP Z,L7828_45           ; Jump to L7828_45 if A=0
 585+ 7BEC              L7828_51:
 586+ 7BEC 7C             LD A,H                  ; A=H
 587+ 7BED 21 39 7C       LD HL,#7C39             ; HL=#7C39
 588+ 7BF0 36 00          LD (HL),#00             ; POKE HL,#00
 589+ 7BF2 CB 7F          BIT 7,A                 ; Set the zero flag if bit 7 of A is 0
 590+ 7BF4 28 02          JR Z,L7828_52           ; Jump to L7828_52 if bit 7 of A is reset
 591+ 7BF6 36 01          LD (HL),#01             ; POKE HL,#01
 592+ 7BF8              L7828_52:
 593+ 7BF8 21 50 7C       LD HL,#7C50             ; HL=#7C50
 594+ 7BFB 36 00          LD (HL),#00             ; POKE HL,#00
 595+ 7BFD CB 77          BIT 6,A                 ; Set the zero flag if bit 6 of A is 0
 596+ 7BFF 28 02          JR Z,L7828_53           ; Jump to L7828_53 if bit 6 of A is reset
 597+ 7C01 36 01          LD (HL),#01             ; POKE HL,#01
 598+ 7C03              L7828_53:
 599+ 7C03 6F             LD L,A                  ; L=A
 600+ 7C04 E6 3C          AND #3C                 ; Keep only bits 2, 3, 4 and 5 of A
 601+ 7C06 1F             RRA                     ; Rotate A right through the carry flag
 602+ 7C07 1F             RRA                     ; Rotate A right through the carry flag
 603+ 7C08 3C             INC A                   ; A=A+1
 604+ 7C09 32 2C 7C       LD (#7C2C),A            ; POKE #7C2C,A
 605+ 7C0C 7D             LD A,L                  ; A=L
 606+ 7C0D E6 03          AND #03                 ; Keep only bits 0 and 1 of A
 607+ 7C0F B7             OR A                    ; Clear the carry flag and set the zero flag if A=0
 608+ 7C10 28 57          JR Z,L7828_61           ; Jump to L7828_61 if A=0
 609+ 7C12 3D             DEC A                   ; A=A-1
 610+ 7C13 28 05          JR Z,L7828_55           ; Jump to L7828_55 if A=0
 611+ 7C15 3D             DEC A                   ; A=A-1
 612+ 7C16 28 01          JR Z,L7828_54           ; Jump to L7828_54 if A=0
 613+ 7C18 C9             RET                     ; Return
 614+ 7C19              L7828_54:
 615+ 7C19 C9             RET                     ; Return
 616+ 7C1A              L7828_55:
 617+ 7C1A CD 30 7B       CALL L7828_44           ; CALL L7828_44
 618+ 7C1D 7A             LD A,D                  ; A=D
 619+ 7C1E 84             ADD A,H                 ; A=A+H
 620+ 7C1F 67             LD H,A                  ; H=A
 621+ 7C20 7B             LD A,E                  ; A=E
 622+ 7C21 85             ADD A,L                 ; A=A+L
 623+ 7C22 6F             LD L,A                  ; L=A
 624+ 7C23 54             LD D,H                  ; D=H
 625+ 7C24 5D             LD E,L                  ; E=L
 626+ 7C25 3A 2C 7C       LD A,(#7C2C)            ; A=PEEK #7C2C
 627+ 7C28 84             ADD A,H                 ; A=A+H
 628+ 7C29 67             LD H,A                  ; H=A
 629+ 7C2A 78             LD A,B                  ; A=B
 630+ 7C2B D6 00          SUB #00                 ; A=A-#00
 631+ 7C2D D8             RET C                   ; Return if the carry flag is set
 632+ 7C2E 47             LD B,A                  ; B=A
 633+ 7C2F              L7828_56:
 634+ 7C2F C5             PUSH BC                 ; Push BC onto the stack
 635+ 7C30 E5             PUSH HL                 ; Push HL onto the stack
 636+ 7C31 D5             PUSH DE                 ; Push DE onto the stack
 637+ 7C32 79             LD A,C                  ; A=C
 638+ 7C33 08             EX AF,AF'               ; Exchange AF and AF'
 639+ 7C34 06 00          LD B,#00                ; B=#00
 640+ 7C36 ED B0          LDIR                    ; POKE DE,PEEK HL; HL=HL+1; DE=DE+1; BC=BC-1; repeat
 641+ 7C38                                        ; until BC=0
 642+ 7C38 3E 00          LD A,#00                ; A=#00
 643+ 7C3A B7             OR A                    ; Clear the carry flag and set the zero flag if A=0
 644+ 7C3B 28 0A          JR Z,L7828_57           ; Jump to L7828_57 if A=0
 645+ 7C3D CB FD          SET 7,L                 ; Set bit 7 of L
 646+ 7C3F CB FB          SET 7,E                 ; Set bit 7 of E
 647+ 7C41 2D             DEC L                   ; L=L-1
 648+ 7C42 1D             DEC E                   ; E=E-1
 649+ 7C43 08             EX AF,AF'               ; Exchange AF and AF'
 650+ 7C44 4F             LD C,A                  ; C=A
 651+ 7C45 ED B8          LDDR                    ; POKE DE,PEEK HL; HL=HL-1; DE=DE-1; BC=BC-1; repeat
 652+ 7C47                                        ; until BC=0
 653+ 7C47              L7828_57:
 654+ 7C47 D1             POP DE                  ; Pop last item from stack into DE
 655+ 7C48 E1             POP HL                  ; Pop last item from stack into HL
 656+ 7C49 24             INC H                   ; H=H+1
 657+ 7C4A 14             INC D                   ; D=D+1
 658+ 7C4B C1             POP BC                  ; Pop last item from stack into BC
 659+ 7C4C 10 E1          DJNZ L7828_56           ; Decrement B and jump to L7828_56 if B>0
 660+ 7C4E 25             DEC H                   ; H=H-1
 661+ 7C4F              L7828_58:
 662+ 7C4F 3E 00          LD A,#00                ; A=#00
 663+ 7C51 B7             OR A                    ; Clear the carry flag and set the zero flag if A=0
 664+ 7C52 C8             RET Z                   ; Return if A=0
 665+ 7C53 AF             XOR A                   ; A=0
 666+ 7C54 41             LD B,C                  ; B=C
 667+ 7C55              L7828_59:
 668+ 7C55 77             LD (HL),A               ; POKE HL,A
 669+ 7C56 2C             INC L                   ; L=L+1
 670+ 7C57 10 FC          DJNZ L7828_59           ; Decrement B and jump to L7828_59 if B>0
 671+ 7C59 3A 39 7C       LD A,(#7C39)            ; A=PEEK #7C39
 672+ 7C5C B7             OR A                    ; Clear the carry flag and set the zero flag if A=0
 673+ 7C5D C8             RET Z                   ; Return if A=0
 674+ 7C5E CB FD          SET 7,L                 ; Set bit 7 of L
 675+ 7C60 DD 7E 06       LD A,(IX+#06)           ; A=PEEK (IX+#06)
 676+ 7C63 41             LD B,C                  ; B=C
 677+ 7C64              L7828_60:
 678+ 7C64 2D             DEC L                   ; L=L-1
 679+ 7C65 77             LD (HL),A               ; POKE HL,A
 680+ 7C66 10 FC          DJNZ L7828_60           ; Decrement B and jump to L7828_60 if B>0
 681+ 7C68 C9             RET                     ; Return
 682+ 7C69              L7828_61:
 683+ 7C69 CD 30 7B       CALL L7828_44           ; CALL L7828_44
 684+ 7C6C 7A             LD A,D                  ; A=D
 685+ 7C6D 84             ADD A,H                 ; A=A+H
 686+ 7C6E 80             ADD A,B                 ; A=A+B
 687+ 7C6F 67             LD H,A                  ; H=A
 688+ 7C70 25             DEC H                   ; H=H-1
 689+ 7C71 7B             LD A,E                  ; A=E
 690+ 7C72 85             ADD A,L                 ; A=A+L
 691+ 7C73 6F             LD L,A                  ; L=A
 692+ 7C74 54             LD D,H                  ; D=H
 693+ 7C75 5D             LD E,L                  ; E=L
 694+ 7C76 C5             PUSH BC                 ; Push BC onto the stack
 695+ 7C77 3A 2C 7C       LD A,(#7C2C)            ; A=PEEK #7C2C
 696+ 7C7A 4F             LD C,A                  ; C=A
 697+ 7C7B 7C             LD A,H                  ; A=H
 698+ 7C7C 91             SUB C                   ; A=A-C
 699+ 7C7D 67             LD H,A                  ; H=A
 700+ 7C7E 78             LD A,B                  ; A=B
 701+ 7C7F 91             SUB C                   ; A=A-C
 702+ 7C80 C1             POP BC                  ; Pop last item from stack into BC
 703+ 7C81 D8             RET C                   ; Return if the carry flag is set
 704+ 7C82 47             LD B,A                  ; B=A
 705+ 7C83              L7828_62:
 706+ 7C83 C5             PUSH BC                 ; Push BC onto the stack
 707+ 7C84 E5             PUSH HL                 ; Push HL onto the stack
 708+ 7C85 D5             PUSH DE                 ; Push DE onto the stack
 709+ 7C86 79             LD A,C                  ; A=C
 710+ 7C87 08             EX AF,AF'               ; Exchange AF and AF'
 711+ 7C88 06 00          LD B,#00                ; B=#00
 712+ 7C8A ED B0          LDIR                    ; POKE DE,PEEK HL; HL=HL+1; DE=DE+1; BC=BC-1; repeat
 713+ 7C8C                                        ; until BC=0
 714+ 7C8C 3A 39 7C       LD A,(#7C39)            ; A=PEEK #7C39
 715+ 7C8F B7             OR A                    ; Clear the carry flag and set the zero flag if A=0
 716+ 7C90 28 0A          JR Z,L7828_63           ; Jump to L7828_63 if A=0
 717+ 7C92 CB FD          SET 7,L                 ; Set bit 7 of L
 718+ 7C94 CB FB          SET 7,E                 ; Set bit 7 of E
 719+ 7C96 2D             DEC L                   ; L=L-1
 720+ 7C97 1D             DEC E                   ; E=E-1
 721+ 7C98 08             EX AF,AF'               ; Exchange AF and AF'
 722+ 7C99 4F             LD C,A                  ; C=A
 723+ 7C9A ED B8          LDDR                    ; POKE DE,PEEK HL; HL=HL-1; DE=DE-1; BC=BC-1; repeat
 724+ 7C9C                                        ; until BC=0
 725+ 7C9C              L7828_63:
 726+ 7C9C D1             POP DE                  ; Pop last item from stack into DE
 727+ 7C9D E1             POP HL                  ; Pop last item from stack into HL
 728+ 7C9E 25             DEC H                   ; H=H-1
 729+ 7C9F 15             DEC D                   ; D=D-1
 730+ 7CA0 C1             POP BC                  ; Pop last item from stack into BC
 731+ 7CA1 10 E0          DJNZ L7828_62           ; Decrement B and jump to L7828_62 if B>0
 732+ 7CA3 24             INC H                   ; H=H+1
 733+ 7CA4 18 A9          JR L7828_58             ; Jump to L7828_58
 734+ 7CA6              L7828_64:
 735+ 7CA6 DD 7E 02       LD A,(IX+#02)           ; A=PEEK (IX+#02)
 736+ 7CA9 83             ADD A,E                 ; A=A+E
 737+ 7CAA 1F             RRA                     ; Rotate A right through the carry flag
 738+ 7CAB D8             RET C                   ; Return if the carry flag is set
 739+ 7CAC 79             LD A,C                  ; A=C
 740+ 7CAD 1F             RRA                     ; Rotate A right through the carry flag
 741+ 7CAE C9             RET                     ; Return
 742+ 7CAF              L7828_65:
 743+ 7CAF 05             DEC B                   ; B=B-1
 744+ 7CB0 05             DEC B                   ; B=B-1
 745+ 7CB1 2D             DEC L                   ; L=L-1
 746+ 7CB2 3E 0F          LD A,#0F                ; A=#0F
 747+ 7CB4 A7             AND A                   ; Clear the carry flag and set the zero flag if A=0
 748+ 7CB5 A6             AND (HL)                ; A=A&PEEK HL
 749+ 7CB6 4F             LD C,A                  ; C=A
 750+ 7CB7 3E F0          LD A,#F0                ; A=#F0
 751+ 7CB9 DD A6 0E       AND (IX+#0E)            ; A=A&PEEK (IX+#0E)
 752+ 7CBC B1             OR C                    ; A=A|C
 753+ 7CBD 77             LD (HL),A               ; POKE HL,A
 754+ 7CBE 2C             INC L                   ; L=L+1
 755+ 7CBF F5             PUSH AF                 ; Push AF onto the stack
 756+ 7CC0 DD 7E 01       LD A,(IX+#01)           ; A=PEEK (IX+#01)
 757+ 7CC3 A7             AND A                   ; Clear the carry flag and set the zero flag if A=0
 758+ 7CC4 A6             AND (HL)                ; A=A&PEEK HL
 759+ 7CC5 DD B6 0E       OR (IX+#0E)             ; A=A|PEEK (IX+#0E)
 760+ 7CC8 BE             CP (HL)                 ; Set the zero flag if A=PEEK HL, or the carry flag
 761+ 7CC9                                        ; if A<PEEK HL
 762+ 7CC9 28 04          JR Z,L7828_66           ; Jump to L7828_66 if A=PEEK HL
 763+ 7CCB 4E             LD C,(HL)               ; C=PEEK HL
 764+ 7CCC DD 71 0F       LD (IX+#0F),C           ; POKE (IX+#0F),C
 765+ 7CCF              L7828_66:
 766+ 7CCF CD ED 7C       CALL L7828_68           ; CALL L7828_68
 767+ 7CD2 F1             POP AF                  ; Pop last item from stack into AF
 768+ 7CD3 77             LD (HL),A               ; POKE HL,A
 769+ 7CD4 C9             RET                     ; Return
 770+ 7CD5              ; This entry point is used by the routines at L6011, L8531, L9149 and L9B7C.
 771+ 7CD5              L7828_67:
 772+ 7CD5 CD 12 7D       CALL L7828_71           ; CALL L7828_71
 773+ 7CD8 20 D5          JR NZ,L7828_65          ; Jump to L7828_65 if the zero flag is not set
 774+ 7CDA 05             DEC B                   ; B=B-1
 775+ 7CDB C8             RET Z                   ; Return if B=0
 776+ 7CDC 05             DEC B                   ; B=B-1
 777+ 7CDD C8             RET Z                   ; Return if B=0
 778+ 7CDE DD 7E 01       LD A,(IX+#01)           ; A=PEEK (IX+#01)
 779+ 7CE1 A7             AND A                   ; Clear the carry flag and set the zero flag if A=0
 780+ 7CE2 A6             AND (HL)                ; A=A&PEEK HL
 781+ 7CE3 DD B6 0E       OR (IX+#0E)             ; A=A|PEEK (IX+#0E)
 782+ 7CE6 BE             CP (HL)                 ; Set the zero flag if A=PEEK HL, or the carry flag
 783+ 7CE7                                        ; if A<PEEK HL
 784+ 7CE7 28 04          JR Z,L7828_68           ; Jump to L7828_68 if A=PEEK HL
 785+ 7CE9 4E             LD C,(HL)               ; C=PEEK HL
 786+ 7CEA DD 71 0F       LD (IX+#0F),C           ; POKE (IX+#0F),C
 787+ 7CED              L7828_68:
 788+ 7CED 77             LD (HL),A               ; POKE HL,A
 789+ 7CEE 2C             INC L                   ; L=L+1
 790+ 7CEF 10 FC          DJNZ L7828_68           ; Decrement B and jump to L7828_68 if B>0
 791+ 7CF1 C9             RET                     ; Return
 792+ 7CF2              ; This entry point is used by the routines at L6011, L8531 and L9B7C.
 793+ 7CF2              L7828_69:
 794+ 7CF2 CD 12 7D       CALL L7828_71           ; CALL L7828_71
 795+ 7CF5 20 09          JR NZ,L7828_70          ; Jump to L7828_70 if the zero flag is not set
 796+ 7CF7 05             DEC B                   ; B=B-1
 797+ 7CF8 C8             RET Z                   ; Return if B=0
 798+ 7CF9 05             DEC B                   ; B=B-1
 799+ 7CFA C8             RET Z                   ; Return if B=0
 800+ 7CFB DD 7E 0F       LD A,(IX+#0F)           ; A=PEEK (IX+#0F)
 801+ 7CFE 18 ED          JR L7828_68             ; Jump to L7828_68
 802+ 7D00              L7828_70:
 803+ 7D00 2D             DEC L                   ; L=L-1
 804+ 7D01 DD 7E 06       LD A,(IX+#06)           ; A=PEEK (IX+#06)
 805+ 7D04 77             LD (HL),A               ; POKE HL,A
 806+ 7D05 2C             INC L                   ; L=L+1
 807+ 7D06 05             DEC B                   ; B=B-1
 808+ 7D07 05             DEC B                   ; B=B-1
 809+ 7D08 F5             PUSH AF                 ; Push AF onto the stack
 810+ 7D09 DD 7E 0F       LD A,(IX+#0F)           ; A=PEEK (IX+#0F)
 811+ 7D0C CD ED 7C       CALL L7828_68           ; CALL L7828_68
 812+ 7D0F F1             POP AF                  ; Pop last item from stack into AF
 813+ 7D10 77             LD (HL),A               ; POKE HL,A
 814+ 7D11 C9             RET                     ; Return
 815+ 7D12              L7828_71:
 816+ 7D12 CD 30 7B       CALL L7828_44           ; CALL L7828_44
 817+ 7D15 DD 46 04       LD B,(IX+#04)           ; B=PEEK (IX+#04)
 818+ 7D18 CB FD          SET 7,L                 ; Set bit 7 of L
 819+ 7D1A 2C             INC L                   ; L=L+1
 820+ 7D1B DD 7E 0C       LD A,(IX+#0C)           ; A=PEEK (IX+#0C)
 821+ 7D1E 84             ADD A,H                 ; A=A+H
 822+ 7D1F 67             LD H,A                  ; H=A
 823+ 7D20 DD CB 00 76    BIT 6,(IX+#00)          ; Set the zero flag if bit 6 of (IX+#00) is 0
 824+ 7D24 C9             RET                     ; Return
 825+ 7D25              ; This entry point is used by the routines at L6011, L7143, L8531, L9149 and
 826+ 7D25              ; L9B7C.
 827+ 7D25              L7828_72:
 828+ 7D25 D5             PUSH DE                 ; Push DE onto the stack
 829+ 7D26 E5             PUSH HL                 ; Push HL onto the stack
 830+ 7D27 CD 30 7B       CALL L7828_44           ; CALL L7828_44
 831+ 7D2A 7A             LD A,D                  ; A=D
 832+ 7D2B 84             ADD A,H                 ; A=A+H
 833+ 7D2C 67             LD H,A                  ; H=A
 834+ 7D2D 7B             LD A,E                  ; A=E
 835+ 7D2E 85             ADD A,L                 ; A=A+L
 836+ 7D2F 6F             LD L,A                  ; L=A
 837+ 7D30 EB             EX DE,HL                ; Exchange DE and HL
 838+ 7D31 E1             POP HL                  ; Pop last item from stack into HL
 839+ 7D32 79             LD A,C                  ; A=C
 840+ 7D33 ED B0          LDIR                    ; POKE DE,PEEK HL; HL=HL+1; DE=DE+1; BC=BC-1; repeat
 841+ 7D35                                        ; until BC=0
 842+ 7D35 47             LD B,A                  ; B=A
 843+ 7D36 EB             EX DE,HL                ; Exchange DE and HL
 844+ 7D37 D1             POP DE                  ; Pop last item from stack into DE
 845+ 7D38 C9             RET                     ; Return
 846+ 7D39              ; This entry point is used by the routines at L6011, L8531, L9149 and L9B7C.
 847+ 7D39              L7828_73:
 848+ 7D39 CD 51 7D       CALL L7828_76           ; CALL L7828_76
 849+ 7D3C D8             RET C                   ; Return if the carry flag is set
 850+ 7D3D CB FD          SET 7,L                 ; Set bit 7 of L
 851+ 7D3F 2D             DEC L                   ; L=L-1
 852+ 7D40              L7828_74:
 853+ 7D40 77             LD (HL),A               ; POKE HL,A
 854+ 7D41 2D             DEC L                   ; L=L-1
 855+ 7D42 10 FC          DJNZ L7828_74           ; Decrement B and jump to L7828_74 if B>0
 856+ 7D44 C9             RET                     ; Return
 857+ 7D45              ; This entry point is used by the routines at L8531 and L9B7C.
 858+ 7D45              L7828_75:
 859+ 7D45 D5             PUSH DE                 ; Push DE onto the stack
 860+ 7D46 CD 30 7B       CALL L7828_44           ; CALL L7828_44
 861+ 7D49 7A             LD A,D                  ; A=D
 862+ 7D4A 84             ADD A,H                 ; A=A+H
 863+ 7D4B 67             LD H,A                  ; H=A
 864+ 7D4C 7B             LD A,E                  ; A=E
 865+ 7D4D 85             ADD A,L                 ; A=A+L
 866+ 7D4E 6F             LD L,A                  ; L=A
 867+ 7D4F D1             POP DE                  ; Pop last item from stack into DE
 868+ 7D50 C9             RET                     ; Return
 869+ 7D51              L7828_76:
 870+ 7D51 F5             PUSH AF                 ; Push AF onto the stack
 871+ 7D52 78             LD A,B                  ; A=B
 872+ 7D53 FE 5B          CP #5B                  ; Set the zero flag if A=#5B, or the carry flag if
 873+ 7D55                                        ; A<#5B
 874+ 7D55 30 13          JR NC,L7828_77          ; Jump to L7828_77 if A>=#5B
 875+ 7D57 7C             LD A,H                  ; A=H
 876+ 7D58 FE C0          CP #C0                  ; Set the zero flag if A=#C0, or the carry flag if
 877+ 7D5A                                        ; A<#C0
 878+ 7D5A 38 0E          JR C,L7828_77           ; Jump to L7828_77 if A<#C0
 879+ 7D5C CB 7D          BIT 7,L                 ; Set the zero flag if bit 7 of L is 0
 880+ 7D5E 20 0A          JR NZ,L7828_77          ; Jump to L7828_77 if bit 7 of L is set
 881+ 7D60 3A 03 60       LD A,(#6003)            ; A=PEEK #6003
 882+ 7D63 FE 00          CP #00                  ; Set the zero flag if A=0, and reset the carry flag
 883+ 7D65 20 03          JR NZ,L7828_77          ; Jump to L7828_77 if A<>#00
 884+ 7D67 F1             POP AF                  ; Pop last item from stack into AF
 885+ 7D68 B7             OR A                    ; Clear the carry flag and set the zero flag if A=0
 886+ 7D69 C9             RET                     ; Return
 887+ 7D6A              L7828_77:
 888+ 7D6A F1             POP AF                  ; Pop last item from stack into AF
 889+ 7D6B 37             SCF                     ; Set the carry flag
 890+ 7D6C C9             RET                     ; Return
 891+ 7D6D B7             OR A                    ; Clear the carry flag and set the zero flag if A=0
 892+ 7D6E 28 11          JR Z,L7828_80           ; Jump to L7828_80 if A=0
 893+ 7D70 D5             PUSH DE                 ; Push DE onto the stack
 894+ 7D71 5F             LD E,A                  ; E=A
 895+ 7D72 01 00 20       LD BC,#2000             ; BC=#2000
 896+ 7D75              L7828_78:
 897+ 7D75 AF             XOR A                   ; A=0
 898+ 7D76              L7828_79:
 899+ 7D76 ED B1          CPIR                    ; Compare A with PEEK HL; HL=HL+1; BC=BC-1; repeat
 900+ 7D78                                        ; until BC=0 or A=PEEK HL
 901+ 7D78 7E             LD A,(HL)               ; A=PEEK HL
 902+ 7D79 23             INC HL                  ; HL=HL+1
 903+ 7D7A B7             OR A                    ; Clear the carry flag and set the zero flag if A=0
 904+ 7D7B 20 F8          JR NZ,L7828_78          ; Jump to L7828_78 if A>0
 905+ 7D7D 1D             DEC E                   ; E=E-1
 906+ 7D7E 20 F6          JR NZ,L7828_79          ; Jump to L7828_79 if E>0
 907+ 7D80 D1             POP DE                  ; Pop last item from stack into DE
 908+ 7D81              ; This entry point is used by the routines at L7143, L8531 and L9B7C.
 909+ 7D81              L7828_80:
 910+ 7D81 AF             XOR A                   ; A=0
 911+ 7D82 CD C1 68       CALL L6011_114          ; CALL L6011_114
 912+ 7D85 ED 53 54 7F    LD (#7F54),DE           ; POKE #7F54,E; POKE #7F55,D
 913+ 7D89 DD 7E 06       LD A,(IX+#06)           ; A=PEEK (IX+#06)
 914+ 7D8C 32 53 7F       LD (#7F53),A            ; POKE #7F53,A
 915+ 7D8F              L7828_81:
 916+ 7D8F 7E             LD A,(HL)               ; A=PEEK HL
 917+ 7D90 B7             OR A                    ; Clear the carry flag and set the zero flag if A=0
 918+ 7D91 28 25          JR Z,L7828_82           ; Jump to L7828_82 if A=0
 919+ 7D93 FE 0B          CP #0B                  ; Set the zero flag if A=#0B, or the carry flag if
 920+ 7D95                                        ; A<#0B
 921+ 7D95 28 27          JR Z,L7828_83           ; Jump to L7828_83 if A=#0B
 922+ 7D97 FE 0C          CP #0C                  ; Set the zero flag if A=#0C, or the carry flag if
 923+ 7D99                                        ; A<#0C
 924+ 7D99 28 2A          JR Z,L7828_84           ; Jump to L7828_84 if A=#0C
 925+ 7D9B FE 0D          CP #0D                  ; Set the zero flag if A=#0D, or the carry flag if
 926+ 7D9D                                        ; A<#0D
 927+ 7D9D CA 2E 7E       JP Z,L7828_93           ; Jump to L7828_93 if A=#0D
 928+ 7DA0 FE 0E          CP #0E                  ; Set the zero flag if A=#0E, or the carry flag if
 929+ 7DA2                                        ; A<#0E
 930+ 7DA2 28 28          JR Z,L7828_85           ; Jump to L7828_85 if A=#0E
 931+ 7DA4 FE FE          CP #FE                  ; Set the zero flag if A=#FE, or the carry flag if
 932+ 7DA6                                        ; A<#FE
 933+ 7DA6 CC 37 7E       CALL Z,L7828_94         ; CALL L7828_94 if A=#FE
 934+ 7DA9 28 E4          JR Z,L7828_81           ; Jump to L7828_81 if the zero flag is set
 935+ 7DAB FE 0A          CP #0A                  ; Set the zero flag if A=#0A, or the carry flag if
 936+ 7DAD                                        ; A<#0A
 937+ 7DAD DC 5A 7E       CALL C,L7828_96         ; CALL L7828_96 if A<#0A
 938+ 7DB0 38 DD          JR C,L7828_81           ; Jump to L7828_81 if the carry flag is set
 939+ 7DB2 CD 0C 7E       CALL L7828_92           ; CALL L7828_92
 940+ 7DB5 C3 8F 7D       JP L7828_81             ; Jump to L7828_81
 941+ 7DB8              L7828_82:
 942+ 7DB8 ED 5B 54 7F    LD DE,(#7F54)           ; E=PEEK #7F54; D=PEEK #7F55
 943+ 7DBC 14             INC D                   ; D=D+1
 944+ 7DBD C9             RET                     ; Return
 945+ 7DBE              L7828_83:
 946+ 7DBE 23             INC HL                  ; HL=HL+1
 947+ 7DBF 7B             LD A,E                  ; A=E
 948+ 7DC0 86             ADD A,(HL)              ; A=A+PEEK HL
 949+ 7DC1 5F             LD E,A                  ; E=A
 950+ 7DC2 23             INC HL                  ; HL=HL+1
 951+ 7DC3 18 CA          JR L7828_81             ; Jump to L7828_81
 952+ 7DC5              L7828_84:
 953+ 7DC5 23             INC HL                  ; HL=HL+1
 954+ 7DC6 7A             LD A,D                  ; A=D
 955+ 7DC7 86             ADD A,(HL)              ; A=A+PEEK HL
 956+ 7DC8 57             LD D,A                  ; D=A
 957+ 7DC9 23             INC HL                  ; HL=HL+1
 958+ 7DCA 18 C3          JR L7828_81             ; Jump to L7828_81
 959+ 7DCC              L7828_85:
 960+ 7DCC E5             PUSH HL                 ; Push HL onto the stack
 961+ 7DCD 01 00 50       LD BC,#5000             ; BC=#5000
 962+ 7DD0 CD E8 7D       CALL L7828_87           ; CALL L7828_87
 963+ 7DD3 20 0F          JR NZ,L7828_86          ; Jump to L7828_86 if the zero flag is not set
 964+ 7DD5 79             LD A,C                  ; A=C
 965+ 7DD6 B7             OR A                    ; Clear the carry flag and set the zero flag if A=0
 966+ 7DD7 28 0B          JR Z,L7828_86           ; Jump to L7828_86 if A=0
 967+ 7DD9 DD 7E 04       LD A,(IX+#04)           ; A=PEEK (IX+#04)
 968+ 7DDC 91             SUB C                   ; A=A-C
 969+ 7DDD 38 05          JR C,L7828_86           ; Jump to L7828_86 if the carry flag is set
 970+ 7DDF 28 03          JR Z,L7828_86           ; Jump to L7828_86 if the zero flag is set
 971+ 7DE1 CB 3F          SRL A                   ; Shift A right (copying bit 0 into the carry flag,
 972+ 7DE3                                        ; and resetting bit 7)
 973+ 7DE3 5F             LD E,A                  ; E=A
 974+ 7DE4              L7828_86:
 975+ 7DE4 E1             POP HL                  ; Pop last item from stack into HL
 976+ 7DE5 23             INC HL                  ; HL=HL+1
 977+ 7DE6 18 A7          JR L7828_81             ; Jump to L7828_81
 978+ 7DE8              L7828_87:
 979+ 7DE8 23             INC HL                  ; HL=HL+1
 980+ 7DE9 7E             LD A,(HL)               ; A=PEEK HL
 981+ 7DEA B7             OR A                    ; Clear the carry flag and set the zero flag if A=0
 982+ 7DEB C8             RET Z                   ; Return if A=0
 983+ 7DEC FE 0D          CP #0D                  ; Set the zero flag if A=#0D, or the carry flag if
 984+ 7DEE                                        ; A<#0D
 985+ 7DEE C8             RET Z                   ; Return if A=#0D
 986+ 7DEF FE 0E          CP #0E                  ; Set the zero flag if A=#0E, or the carry flag if
 987+ 7DF1                                        ; A<#0E
 988+ 7DF1 28 15          JR Z,L7828_91           ; Jump to L7828_91 if A=#0E
 989+ 7DF3 FE FE          CP #FE                  ; Set the zero flag if A=#FE, or the carry flag if
 990+ 7DF5                                        ; A<#FE
 991+ 7DF5 30 11          JR NC,L7828_91          ; Jump to L7828_91 if A>=#FE
 992+ 7DF7 FE 10          CP #10                  ; Set the zero flag if A=#10, or the carry flag if
 993+ 7DF9                                        ; A<#10
 994+ 7DF9 38 01          JR C,L7828_88           ; Jump to L7828_88 if A<#10
 995+ 7DFB 0C             INC C                   ; C=C+1
 996+ 7DFC              L7828_88:
 997+ 7DFC FE 0B          CP #0B                  ; Set the zero flag if A=#0B, or the carry flag if
 998+ 7DFE                                        ; A<#0B
 999+ 7DFE 20 01          JR NZ,L7828_89          ; Jump to L7828_89 if A<>#0B
1000+ 7E00 23             INC HL                  ; HL=HL+1
1001+ 7E01              L7828_89:
1002+ 7E01 FE 0C          CP #0C                  ; Set the zero flag if A=#0C, or the carry flag if
1003+ 7E03                                        ; A<#0C
1004+ 7E03 20 01          JR NZ,L7828_90          ; Jump to L7828_90 if A<>#0C
1005+ 7E05 23             INC HL                  ; HL=HL+1
1006+ 7E06              L7828_90:
1007+ 7E06 10 E0          DJNZ L7828_87           ; Decrement B and jump to L7828_87 if B>0
1008+ 7E08              L7828_91:
1009+ 7E08 3E FE          LD A,#FE                ; A=#FE
1010+ 7E0A B7             OR A                    ; Clear the carry flag and set the zero flag if A=0
1011+ 7E0B C9             RET                     ; Return
1012+ 7E0C              L7828_92:
1013+ 7E0C E5             PUSH HL                 ; Push HL onto the stack
1014+ 7E0D 7E             LD A,(HL)               ; A=PEEK HL
1015+ 7E0E 08             EX AF,AF'               ; Exchange AF and AF'
1016+ 7E0F 21 00 C0       LD HL,LC000             ; HL=#C000
1017+ 7E12 DD 7E 02       LD A,(IX+#02)           ; A=PEEK (IX+#02)
1018+ 7E15 85             ADD A,L                 ; A=A+L
1019+ 7E16 6F             LD L,A                  ; L=A
1020+ 7E17 DD 7E 03       LD A,(IX+#03)           ; A=PEEK (IX+#03)
1021+ 7E1A 84             ADD A,H                 ; A=A+H
1022+ 7E1B 67             LD H,A                  ; H=A
1023+ 7E1C 7A             LD A,D                  ; A=D
1024+ 7E1D 84             ADD A,H                 ; A=A+H
1025+ 7E1E 67             LD H,A                  ; H=A
1026+ 7E1F 7B             LD A,E                  ; A=E
1027+ 7E20 85             ADD A,L                 ; A=A+L
1028+ 7E21 6F             LD L,A                  ; L=A
1029+ 7E22 08             EX AF,AF'               ; Exchange AF and AF'
1030+ 7E23 77             LD (HL),A               ; POKE HL,A
1031+ 7E24 CB FD          SET 7,L                 ; Set bit 7 of L
1032+ 7E26 3A 53 7F       LD A,(#7F53)            ; A=PEEK #7F53
1033+ 7E29 77             LD (HL),A               ; POKE HL,A
1034+ 7E2A E1             POP HL                  ; Pop last item from stack into HL
1035+ 7E2B 1C             INC E                   ; E=E+1
1036+ 7E2C 23             INC HL                  ; HL=HL+1
1037+ 7E2D C9             RET                     ; Return
1038+ 7E2E              L7828_93:
1039+ 7E2E ED 5B 54 7F    LD DE,(#7F54)           ; E=PEEK #7F54; D=PEEK #7F55
1040+ 7E32 14             INC D                   ; D=D+1
1041+ 7E33 23             INC HL                  ; HL=HL+1
1042+ 7E34 C3 81 7D       JP L7828_80             ; Jump to L7828_80
1043+ 7E37              L7828_94:
1044+ 7E37 23             INC HL                  ; HL=HL+1
1045+ 7E38 7E             LD A,(HL)               ; A=PEEK HL
1046+ 7E39 23             INC HL                  ; HL=HL+1
1047+ 7E3A 08             EX AF,AF'               ; Exchange AF and AF'
1048+ 7E3B 7E             LD A,(HL)               ; A=PEEK HL
1049+ 7E3C 23             INC HL                  ; HL=HL+1
1050+ 7E3D E5             PUSH HL                 ; Push HL onto the stack
1051+ 7E3E 67             LD H,A                  ; H=A
1052+ 7E3F 08             EX AF,AF'               ; Exchange AF and AF'
1053+ 7E40 6F             LD L,A                  ; L=A
1054+ 7E41 CD 47 7E       CALL L7828_95           ; CALL L7828_95
1055+ 7E44 E1             POP HL                  ; Pop last item from stack into HL
1056+ 7E45 AF             XOR A                   ; A=0
1057+ 7E46 C9             RET                     ; Return
1058+ 7E47              L7828_95:
1059+ 7E47 7E             LD A,(HL)               ; A=PEEK HL
1060+ 7E48 B7             OR A                    ; Clear the carry flag and set the zero flag if A=0
1061+ 7E49 C8             RET Z                   ; Return if A=0
1062+ 7E4A FE 0D          CP #0D                  ; Set the zero flag if A=#0D, or the carry flag if
1063+ 7E4C                                        ; A<#0D
1064+ 7E4C C8             RET Z                   ; Return if A=#0D
1065+ 7E4D FE 0A          CP #0A                  ; Set the zero flag if A=#0A, or the carry flag if
1066+ 7E4F                                        ; A<#0A
1067+ 7E4F DC 5A 7E       CALL C,L7828_96         ; CALL L7828_96 if A<#0A
1068+ 7E52 38 F3          JR C,L7828_95           ; Jump to L7828_95 if the carry flag is set
1069+ 7E54 CD 0C 7E       CALL L7828_92           ; CALL L7828_92
1070+ 7E57 C3 47 7E       JP L7828_95             ; Jump to L7828_95
1071+ 7E5A              L7828_96:
1072+ 7E5A FE 09          CP #09                  ; Set the zero flag if A=#09, or the carry flag if
1073+ 7E5C                                        ; A<#09
1074+ 7E5C 20 0D          JR NZ,L7828_97          ; Jump to L7828_97 if A<>#09
1075+ 7E5E 3A 53 7F       LD A,(#7F53)            ; A=PEEK #7F53
1076+ 7E61 0F             RRCA                    ; Rotate A right circular (copying bit 0 into bit 7
1077+ 7E62                                        ; and into the carry flag)
1078+ 7E62 0F             RRCA                    ; Rotate A right circular (copying bit 0 into bit 7
1079+ 7E63                                        ; and into the carry flag)
1080+ 7E63 0F             RRCA                    ; Rotate A right circular (copying bit 0 into bit 7
1081+ 7E64                                        ; and into the carry flag)
1082+ 7E64 0F             RRCA                    ; Rotate A right circular (copying bit 0 into bit 7
1083+ 7E65                                        ; and into the carry flag)
1084+ 7E65 32 53 7F       LD (#7F53),A            ; POKE #7F53,A
1085+ 7E68 23             INC HL                  ; HL=HL+1
1086+ 7E69 37             SCF                     ; Set the carry flag
1087+ 7E6A C9             RET                     ; Return
1088+ 7E6B              L7828_97:
1089+ 7E6B 08             EX AF,AF'               ; Exchange AF and AF'
1090+ 7E6C 23             INC HL                  ; HL=HL+1
1091+ 7E6D 7E             LD A,(HL)               ; A=PEEK HL
1092+ 7E6E FE 09          CP #09                  ; Set the zero flag if A=#09, or the carry flag if
1093+ 7E70                                        ; A<#09
1094+ 7E70 38 0F          JR C,L7828_98           ; Jump to L7828_98 if A<#09
1095+ 7E72 08             EX AF,AF'               ; Exchange AF and AF'
1096+ 7E73 E6 07          AND #07                 ; Keep only bits 0, 1 and 2 of A
1097+ 7E75 4F             LD C,A                  ; C=A
1098+ 7E76 DD 7E 06       LD A,(IX+#06)           ; A=PEEK (IX+#06)
1099+ 7E79 E6 F0          AND #F0                 ; Keep only bits 4, 5, 6 and 7 of A
1100+ 7E7B B1             OR C                    ; A=A|C
1101+ 7E7C 32 53 7F       LD (#7F53),A            ; POKE #7F53,A
1102+ 7E7F 37             SCF                     ; Set the carry flag
1103+ 7E80 C9             RET                     ; Return
1104+ 7E81              L7828_98:
1105+ 7E81 D9             EXX                     ; Exchange BC, DE and HL with BC', DE' and HL'
1106+ 7E82 4F             LD C,A                  ; C=A
1107+ 7E83 08             EX AF,AF'               ; Exchange AF and AF'
1108+ 7E84 B9             CP C                    ; Set the zero flag if A=C, or the carry flag if A<C
1109+ 7E85 28 0E          JR Z,L7828_100          ; Jump to L7828_100 if A=C
1110+ 7E87 3D             DEC A                   ; A=A-1
1111+ 7E88 0D             DEC C                   ; C=C-1
1112+ 7E89 87             ADD A,A                 ; A=A+A
1113+ 7E8A 87             ADD A,A                 ; A=A+A
1114+ 7E8B 87             ADD A,A                 ; A=A+A
1115+ 7E8C 87             ADD A,A                 ; A=A+A
1116+ 7E8D B1             OR C                    ; A=A|C
1117+ 7E8E              L7828_99:
1118+ 7E8E 32 53 7F       LD (#7F53),A            ; POKE #7F53,A
1119+ 7E91 37             SCF                     ; Set the carry flag
1120+ 7E92 D9             EXX                     ; Exchange BC, DE and HL with BC', DE' and HL'
1121+ 7E93 23             INC HL                  ; HL=HL+1
1122+ 7E94 C9             RET                     ; Return
1123+ 7E95              L7828_100:
1124+ 7E95 F6 08          OR #08                  ; Set bit 3 of A
1125+ 7E97 4F             LD C,A                  ; C=A
1126+ 7E98 DD 7E 06       LD A,(IX+#06)           ; A=PEEK (IX+#06)
1127+ 7E9B E6 F0          AND #F0                 ; Keep only bits 4, 5, 6 and 7 of A
1128+ 7E9D B1             OR C                    ; A=A|C
1129+ 7E9E 18 EE          JR L7828_99             ; Jump to L7828_99
1130+ 7EA0
# file closed: WCIF_DISASM.ASM
  20  7EA0                      ASSERT $ == #7EA0, WCIF_DISASM.ASM boundary mismatch
  21  7EA0
  22  7EA0                      INCLUDE "WCVLS_DATA.ASM"
# file opened: WCVLS_DATA.ASM
   1+ 7EA0              ; WCVLS: UI state, window descriptors and text tables
   2+ 7EA0              L7EA0:
   3+ 7EA0 16 07 00 00    DB #16,#07,#00,#00,#28,#02,#1F,#00
   3+ 7EA4 28 02 1F 00
   4+ 7EA8 FF FF 02 00    DB #FF,#FF,#02,#00,#01,#00,#58,#17
   4+ 7EAC 01 00 58 17
   5+ 7EB0 00 00 00 00    DB #00,#00,#00,#00,#00,#00,#1E,#00
   5+ 7EB4 00 00 1E 00
   6+ 7EB8 00 00 00 00    DB #00,#00,#00,#00,#00,#01,#00,#10
   6+ 7EBC 00 01 00 10
   7+ 7EC0 00 10 00 00    DB #00,#10,#00,#00,#16,#07,#28,#00
   7+ 7EC4 16 07 28 00
   8+ 7EC8 28 02 1F 00    DB #28,#02,#1F,#00,#FF,#FF,#02,#00
   8+ 7ECC FF FF 02 00
   9+ 7ED0 01 00 58 17    DB #01,#00,#58,#17,#00,#00,#00,#00
   9+ 7ED4 00 00 00 00
  10+ 7ED8 00 00 1F 00    DB #00,#00,#1F,#00,#00,#09,#00,#01
  10+ 7EDC 00 09 00 01
  11+ 7EE0 00 01 00 20    DB #00,#01,#00,#20,#00,#20,#00,#00
  11+ 7EE4 00 20 00 00
  12+ 7EE8 00 00 10 00    DB #00,#00,#10,#00,#00,#40,#10,#40
  12+ 7EEC 00 40 10 40
  13+ 7EF0 00 02 10 02    DB #00,#02,#10,#02,#00,#42,#10,#42
  13+ 7EF4 00 42 10 42
  14+ 7EF8 00 00 18 00    DB #00,#00,#18,#00,#00,#60,#18,#60
  14+ 7EFC 00 60 18 60
  15+ 7F00 00 03 18 03    DB #00,#03,#18,#03,#00,#63,#18,#63
  15+ 7F04 00 63 18 63
  16+ 7F08 3C 44 49 52    DB #3C,#44,#49,#52,#3E,#20,#46,#49
  16+ 7F0C 3E 20 46 49
  17+ 7F10 4C 45 00 00    DB #4C,#45,#00,#00,#00,#00,#00,#00
  17+ 7F14 00 00 00 00
  18+ 7F18 00 00 00 00    DB #00,#00,#00,#00,#00,#50,#00,#01
  18+ 7F1C 00 50 00 01
  19+ 7F20 01 00 00 00    DB #01,#00,#00,#00,#00,#00,#00,#00
  19+ 7F24 00 00 00 00
  20+ 7F28 00 00 00 00    DB #00,#00,#00,#00,#00,#00,#00,#00
  20+ 7F2C 00 00 00 00
  21+ 7F30 00 00 00 00    DB #00,#00,#00,#00,#00,#00,#00,#00
  21+ 7F34 00 00 00 00
  22+ 7F38 00 00 00 00    DB #00,#00,#00,#00,#00,#00,#00,#00
  22+ 7F3C 00 00 00 00
  23+ 7F40 00 00 00 00    DB #00,#00,#00,#00,#00,#00,#00,#00
  23+ 7F44 00 00 00 00
  24+ 7F48 00 00 00 00    DB #00,#00,#00,#00,#00,#00,#00,#00
  24+ 7F4C 00 00 00 00
  25+ 7F50 00 00 00 00    DB #00,#00,#00,#00,#00,#00,#00,#00
  25+ 7F54 00 00 00 00
  26+ 7F58 00 00 00 00    DB #00,#00,#00,#00,#00,#00,#00,#08
  26+ 7F5C 00 00 00 08
  27+ 7F60 03 06 2E 58    DB #03,#06,#2E,#58,#58,#3A,#58,#58
  27+ 7F64 58 3A 58 58
  28+ 7F68 2E 58 58 00    DB #2E,#58,#58,#00,#00,#00,#00,#00
  28+ 7F6C 00 00 00 00
  29+ 7F70 00 00 00 00    DB #00,#00,#00,#00,#00,#00,#00,#00
  29+ 7F74 00 00 00 00
  30+ 7F78 00 00 00 00    DB #00,#00,#00,#00,#00,#00,#00,#00
  30+ 7F7C 00 00 00 00
  31+ 7F80 00 00 00 00    DB #00,#00,#00,#00,#00,#00,#00,#00
  31+ 7F84 00 00 00 00
  32+ 7F88 00 00 00 5B    DB #00,#00,#00,#5B,#20,#20,#4F,#4B
  32+ 7F8C 20 20 4F 4B
  33+ 7F90 20 20 5D 5B    DB #20,#20,#5D,#5B,#43,#41,#4E,#43
  33+ 7F94 43 41 4E 43
  34+ 7F98 45 4C 5D 5B    DB #45,#4C,#5D,#5B,#20,#59,#45,#53
  34+ 7F9C 20 59 45 53
  35+ 7FA0 20 20 5D 5B    DB #20,#20,#5D,#5B,#20,#20,#4E,#4F
  35+ 7FA4 20 20 4E 4F
  36+ 7FA8 20 20 5D 10    DB #20,#20,#5D,#10,#77,#63,#00,#00
  36+ 7FAC 77 63 00 00
  37+ 7FB0 77 63 2E 69    DB #77,#63,#2E,#69,#6E,#69,#00,#94
  37+ 7FB4 6E 69 00 94
  38+ 7FB8 00 FF FF 3E    DB #00,#FF,#FF,#3E,#05,#2F,#00,#00
  38+ 7FBC 05 2F 00 00
  39+ 7FC0 00 00 00 C9    DB #00,#00,#00,#C9,#7F,#D2,#7F,#00
  39+ 7FC4 7F D2 7F 00
  40+ 7FC8 00 0E 09 45    DB #00,#0E,#09,#45,#52,#52,#4F,#52
  40+ 7FCC 52 52 4F 52
  41+ 7FD0 3A 00 0E 09    DB #3A,#00,#0E,#09,#70,#72,#65,#73
  41+ 7FD4 70 72 65 73
  42+ 7FD8 73 20 61 6E    DB #73,#20,#61,#6E,#79,#20,#6B,#65
  42+ 7FDC 79 20 6B 65
  43+ 7FE0 79 00 84 00    DB #79,#00,#84,#00,#FF,#FF,#42,#04
  43+ 7FE4 FF FF 42 04
  44+ 7FE8 5F 00 00 00    DB #5F,#00,#00,#00,#00,#00,#00,#00
  44+ 7FEC 00 00 00 00
  45+ 7FF0 00 00 00 00    DB #00,#00,#00,#00,#93,#00,#FF,#FF
  45+ 7FF4 93 00 FF FF
  46+ 7FF8 28 03 5F 00    DB #28,#03,#5F,#00,#00,#00,#00,#00
  46+ 7FFC 00 00 00 00
  47+ 8000              L7EA0_0:
  48+ 8000 93 00 FF FF    DB #93,#00,#FF,#FF,#28,#06,#7F,#00
  48+ 8004 28 06 7F 00
  49+ 8008 00 00 02 00    DB #00,#00,#02,#00,#93,#00,#FF,#FF
  49+ 800C 93 00 FF FF
  50+ 8010 28 06 7F 00    DB #28,#06,#7F,#00,#00,#00,#02,#00
  50+ 8014 00 00 02 00
  51+ 8018 94 00 FF FF    DB #94,#00,#FF,#FF,#28,#08,#7F,#00
  51+ 801C 28 08 7F 00
  52+ 8020 00 00 02 05    DB #00,#00,#02,#05,#CB,#83,#00,#00
  52+ 8024 CB 83 00 00
  53+ 8028 D3 83 93 00    DB #D3,#83,#93,#00,#FF,#FF,#22,#04
  53+ 802C FF FF 22 04
  54+ 8030 7F 00 00 00    DB #7F,#00,#00,#00,#00,#00,#D5,#00
  54+ 8034 00 00 D5 00
  55+ 8038 FF FF 22 02    DB #FF,#FF,#22,#02,#5F,#00,#00,#00
  55+ 803C 5F 00 00 00
  56+ 8040 00 00 01 00    DB #00,#00,#01,#00,#E1,#00,#4C,#80
  56+ 8044 E1 00 4C 80
  57+ 8048 59 80 00 00    DB #59,#80,#00,#00,#0E,#09,#52,#55
  57+ 804C 0E 09 52 55
  58+ 8050 4E 20 50 4C    DB #4E,#20,#50,#4C,#55,#47,#49,#4E
  58+ 8054 55 47 49 4E
  59+ 8058 00 0B 0E 09    DB #00,#0B,#0E,#09,#44,#45,#4C,#20
  59+ 805C 44 45 4C 20
  60+ 8060 2D 20 64 65    DB #2D,#20,#64,#65,#6C,#65,#74,#65
  60+ 8064 6C 65 74 65
  61+ 8068 20 70 6C 75    DB #20,#70,#6C,#75,#67,#69,#6E,#00
  61+ 806C 67 69 6E 00
  62+ 8070 94 00 FF FF    DB #94,#00,#FF,#FF,#1A,#03,#7F,#00
  62+ 8074 1A 03 7F 00
  63+ 8078 00 00 00 00    DB #00,#00,#00,#00,#00,#00,#00,#00
  63+ 807C 00 00 00 00
  64+ 8080 F0 83 D5 00    DB #F0,#83,#D5,#00,#00,#00,#20,#09
  64+ 8084 00 00 20 09
  65+ 8088 7F 00 00 00    DB #7F,#00,#00,#00,#00,#00,#01,#07
  65+ 808C 00 00 01 07
  66+ 8090 E0 00 01 84    DB #E0,#00,#01,#84,#00,#00,#12,#84
  66+ 8094 00 00 12 84
  67+ 8098 C5 07 00 00    DB #C5,#07,#00,#00,#1A,#02,#4F,#00
  67+ 809C 1A 02 4F 00
  68+ 80A0 00 00 00 00    DB #00,#00,#00,#00,#01,#00,#F0,#00
  68+ 80A4 01 00 F0 00
  69+ 80A8 00 00 00 00    DB #00,#00,#00,#00,#00,#00,#D5,#00
  69+ 80AC 00 00 D5 00
  70+ 80B0 FF FF 14 08    DB #FF,#FF,#14,#08,#7F,#00,#00,#00
  70+ 80B4 7F 00 00 00
  71+ 80B8 02 00 01 04    DB #02,#00,#01,#04,#E0,#00,#C4,#80
  71+ 80BC E0 00 C4 80
  72+ 80C0 00 00 D3 80    DB #00,#00,#D3,#80,#0E,#09,#52,#55
  72+ 80C4 0E 09 52 55
  73+ 80C8 4E 20 46 69    DB #4E,#20,#46,#69,#6C,#65,#20,#41
  73+ 80CC 6C 65 20 41
  74+ 80D0 54 3A 00 0E    DB #54,#3A,#00,#0E,#33,#2E,#35,#20
  74+ 80D4 33 2E 35 20
  75+ 80D8 4D 48 7A 0D    DB #4D,#48,#7A,#0D,#0E,#37,#2E,#30
  75+ 80DC 0E 37 2E 30
  76+ 80E0 20 4D 48 7A    DB #20,#4D,#48,#7A,#0D,#0E,#31,#34
  76+ 80E4 0D 0E 31 34
  77+ 80E8 20 4D 48 7A    DB #20,#4D,#48,#7A,#0D,#0E,#31,#34
  77+ 80EC 0D 0E 31 34
  78+ 80F0 2B 4D 48 7A    DB #2B,#4D,#48,#7A,#00,#53,#50,#47
  78+ 80F4 00 53 50 47
  79+ 80F8 7B 95 24 43    DB #7B,#95,#24,#43,#20,#67,#93,#57
  79+ 80FC 20 67 93 57
  80+ 8100 4D 46 3A 97    DB #4D,#46,#3A,#97,#00,#0E,#09,#4D
  80+ 8104 00 0E 09 4D
  81+ 8108 61 6B 65 20    DB #61,#6B,#65,#20,#44,#69,#72,#65
  81+ 810C 44 69 72 65
  82+ 8110 63 74 6F 72    DB #63,#74,#6F,#72,#79,#00,#0E,#09
  82+ 8114 79 00 0E 09
  83+ 8118 52 65 4E 61    DB #52,#65,#4E,#61,#6D,#65,#00,#0E
  83+ 811C 6D 65 00 0E
  84+ 8120 09 43 6F 70    DB #09,#43,#6F,#70,#79,#00,#43,#6F
  84+ 8124 79 00 43 6F
  85+ 8128 70 79 20 FE    DB #70,#79,#20,#FE,#50,#81,#00,#0E
  85+ 812C 50 81 00 0E
  86+ 8130 3C 30 30 30    DB #3C,#30,#30,#30,#30,#20,#6F,#66
  86+ 8134 30 20 6F 66
  87+ 8138 20 30 30 30    DB #20,#30,#30,#30,#30,#3E,#00,#0E
  87+ 813C 30 3E 00 0E
  88+ 8140 09 44 65 6C    DB #09,#44,#65,#6C,#65,#74,#65,#00
  88+ 8144 65 74 65 00
  89+ 8148 0E 44 65 6C    DB #0E,#44,#65,#6C,#65,#74,#65,#20
  89+ 814C 65 74 65 20
  90+ 8150 20 20 20 20    DB #20,#20,#20,#20,#20,#66,#69,#6C
  90+ 8154 20 66 69 6C
  91+ 8158 65 73 2F 64    DB #65,#73,#2F,#64,#69,#72,#73,#3F
  91+ 815C 69 72 73 3F
  92+ 8160 00 02 0E 44    DB #00,#02,#0E,#44,#65,#6C,#65,#74
  92+ 8164 65 6C 65 74
  93+ 8168 69 6E 67 20    DB #69,#6E,#67,#20,#69,#73,#20,#69
  93+ 816C 69 73 20 69
  94+ 8170 6E 20 50 72    DB #6E,#20,#50,#72,#6F,#67,#72,#65
  94+ 8174 6F 67 72 65
  95+ 8178 73 73 21 00    DB #73,#73,#21,#00,#0E,#09,#41,#62
  95+ 817C 0E 09 41 62
  96+ 8180 6F 72 74 69    DB #6F,#72,#74,#69,#6E,#67,#00,#0E
  96+ 8184 6E 67 00 0E
  97+ 8188 41 62 6F 72    DB #41,#62,#6F,#72,#74,#20,#6F,#70
  97+ 818C 74 20 6F 70
  98+ 8190 65 72 61 74    DB #65,#72,#61,#74,#69,#6F,#6E,#3F
  98+ 8194 69 6F 6E 3F
  99+ 8198 00 0E 44 45    DB #00,#0E,#44,#45,#4C,#45,#54,#45
  99+ 819C 4C 45 54 45
 100+ 81A0 20 50 4C 55    DB #20,#50,#4C,#55,#47,#49,#4E,#3F
 100+ 81A4 47 49 4E 3F
 101+ 81A8 00 0E 50 6C    DB #00,#0E,#50,#6C,#75,#67,#69,#6E
 101+ 81AC 75 67 69 6E
 102+ 81B0 20 61 6C 72    DB #20,#61,#6C,#72,#65,#61,#64,#79
 102+ 81B4 65 61 64 79
 103+ 81B8 20 65 78 69    DB #20,#65,#78,#69,#73,#74,#73,#21
 103+ 81BC 73 74 73 21
 104+ 81C0 0D 0E 52 45    DB #0D,#0E,#52,#45,#4C,#4F,#41,#44
 104+ 81C4 4C 4F 41 44
 105+ 81C8 20 49 54 3F    DB #20,#49,#54,#3F,#00,#4E,#61,#6D
 105+ 81CC 00 4E 61 6D
 106+ 81D0 65 3A 00 0E    DB #65,#3A,#00,#0E,#44,#65,#76,#69
 106+ 81D4 44 65 76 69
 107+ 81D8 63 65 20 4E    DB #63,#65,#20,#4E,#6F,#74,#20,#46
 107+ 81DC 6F 74 20 46
 108+ 81E0 6F 75 6E 64    DB #6F,#75,#6E,#64,#21,#00,#0E,#46
 108+ 81E4 21 00 0E 46
 109+ 81E8 41 54 33 32    DB #41,#54,#33,#32,#20,#4E,#6F,#74
 109+ 81EC 20 4E 6F 74
 110+ 81F0 20 46 6F 75    DB #20,#46,#6F,#75,#6E,#64,#21,#00
 110+ 81F4 6E 64 21 00
 111+ 81F8 0E 4E 6F 74    DB #0E,#4E,#6F,#74,#20,#45,#6E,#6F
 111+ 81FC 20 45 6E 6F
 112+ 8200 75 67 68 20    DB #75,#67,#68,#20,#53,#70,#61,#63
 112+ 8204 53 70 61 63
 113+ 8208 65 21 00 0E    DB #65,#21,#00,#0E,#53,#6F,#75,#72
 113+ 820C 53 6F 75 72
 114+ 8210 63 65 20 66    DB #63,#65,#20,#66,#69,#6C,#65,#20
 114+ 8214 69 6C 65 20
 115+ 8218 69 73 20 6E    DB #69,#73,#20,#6E,#6F,#74,#20,#66
 115+ 821C 6F 74 20 66
 116+ 8220 6F 75 6E 64    DB #6F,#75,#6E,#64,#21,#00,#0E,#4C
 116+ 8224 21 00 0E 4C
 117+ 8228 6F 6E 67 20    DB #6F,#6E,#67,#20,#4E,#61,#6D,#65
 117+ 822C 4E 61 6D 65
 118+ 8230 20 69 73 20    DB #20,#69,#73,#20,#6E,#6F,#74,#20
 118+ 8234 6E 6F 74 20
 119+ 8238 76 61 6C 69    DB #76,#61,#6C,#69,#64,#21,#00,#0E
 119+ 823C 64 21 00 0E
 120+ 8240 53 68 6F 72    DB #53,#68,#6F,#72,#74,#20,#4E,#61
 120+ 8244 74 20 4E 61
 121+ 8248 6D 65 20 69    DB #6D,#65,#20,#69,#6E,#64,#65,#78
 121+ 824C 6E 64 65 78
 122+ 8250 20 46 41 54    DB #20,#46,#41,#54,#41,#4C,#49,#54
 122+ 8254 41 4C 49 54
 123+ 8258 59 00 0E 4E    DB #59,#00,#0E,#4E,#61,#6D,#65,#20
 123+ 825C 61 6D 65 20
 124+ 8260 61 6C 72 65    DB #61,#6C,#72,#65,#61,#64,#79,#20
 124+ 8264 61 64 79 20
 125+ 8268 65 78 69 73    DB #65,#78,#69,#73,#74,#73,#21,#00
 125+ 826C 74 73 21 00
 126+ 8270 0E 44 49 52    DB #0E,#44,#49,#52,#20,#77,#69,#74
 126+ 8274 20 77 69 74
 127+ 8278 68 20 73 61    DB #68,#20,#73,#61,#6D,#65,#20,#6E
 127+ 827C 6D 65 20 6E
 128+ 8280 61 6D 65 20    DB #61,#6D,#65,#20,#61,#6C,#72,#65
 128+ 8284 61 6C 72 65
 129+ 8288 61 64 79 20    DB #61,#64,#79,#20,#65,#78,#69,#73
 129+ 828C 65 78 69 73
 130+ 8290 74 73 21 00    DB #74,#73,#21,#00,#0E,#44,#49,#52
 130+ 8294 0E 44 49 52
 131+ 8298 20 69 73 20    DB #20,#69,#73,#20,#6E,#6F,#74,#20
 131+ 829C 6E 6F 74 20
 132+ 82A0 65 6D 70 74    DB #65,#6D,#70,#74,#79,#21,#00,#0E
 132+ 82A4 79 21 00 0E
 133+ 82A8 55 4E 4B 4E    DB #55,#4E,#4B,#4E,#4F,#57,#4E,#20
 133+ 82AC 4F 57 4E 20
 134+ 82B0 45 52 52 4F    DB #45,#52,#52,#4F,#52,#21,#21,#21
 134+ 82B4 52 21 21 21
 135+ 82B8 00 0E 44 49    DB #00,#0E,#44,#49,#52,#20,#6E,#6F
 135+ 82BC 52 20 6E 6F
 136+ 82C0 74 20 66 6F    DB #74,#20,#66,#6F,#75,#6E,#64,#20
 136+ 82C4 75 6E 64 20
 137+ 82C8 28 73 72 63    DB #28,#73,#72,#63,#29,#00,#0E,#4D
 137+ 82CC 29 00 0E 4D
 138+ 82D0 61 6B 65 20    DB #61,#6B,#65,#20,#44,#49,#52,#20
 138+ 82D4 44 49 52 20
 139+ 82D8 66 61 69 6C    DB #66,#61,#69,#6C,#65,#64,#20,#28
 139+ 82DC 65 64 20 28
 140+ 82E0 64 73 74 29    DB #64,#73,#74,#29,#00,#0E,#44,#49
 140+ 82E4 00 0E 44 49
 141+ 82E8 52 20 6E 6F    DB #52,#20,#6E,#6F,#74,#20,#66,#6F
 141+ 82EC 74 20 66 6F
 142+ 82F0 75 6E 64 20    DB #75,#6E,#64,#20,#28,#64,#73,#74
 142+ 82F4 28 64 73 74
 143+ 82F8 29 00 0E 55    DB #29,#00,#0E,#55,#50,#44,#49,#52
 143+ 82FC 50 44 49 52
 144+ 8300 20 6E 6F 74    DB #20,#6E,#6F,#74,#20,#66,#6F,#75
 144+ 8304 20 66 6F 75
 145+ 8308 6E 64 20 28    DB #6E,#64,#20,#28,#73,#72,#63,#29
 145+ 830C 73 72 63 29
 146+ 8310 00 0E 55 50    DB #00,#0E,#55,#50,#44,#49,#52,#20
 146+ 8314 44 49 52 20
 147+ 8318 6E 6F 74 20    DB #6E,#6F,#74,#20,#66,#6F,#75,#6E
 147+ 831C 66 6F 75 6E
 148+ 8320 64 20 28 64    DB #64,#20,#28,#64,#73,#74,#29,#00
 148+ 8324 73 74 29 00
 149+ 8328 0E 49 4E 44    DB #0E,#49,#4E,#44,#45,#58,#20,#6F
 149+ 832C 45 58 20 6F
 150+ 8330 75 74 20 6F    DB #75,#74,#20,#6F,#66,#20,#44,#49
 150+ 8334 66 20 44 49
 151+ 8338 52 00 0E 44    DB #52,#00,#0E,#44,#49,#52,#20,#6E
 151+ 833C 49 52 20 6E
 152+ 8340 61 6D 65 20    DB #61,#6D,#65,#20,#74,#6F,#6F,#20
 152+ 8344 74 6F 6F 20
 153+ 8348 6C 6F 6E 67    DB #6C,#6F,#6E,#67,#2F,#45,#4E,#44
 153+ 834C 2F 45 4E 44
 154+ 8350 20 6F 66 20    DB #20,#6F,#66,#20,#62,#75,#66,#66
 154+ 8354 62 75 66 66
 155+ 8358 65 72 00 0E    DB #65,#72,#00,#0E,#46,#69,#6C,#65
 155+ 835C 46 69 6C 65
 156+ 8360 20 6E 6F 74    DB #20,#6E,#6F,#74,#20,#66,#6F,#75
 156+ 8364 20 66 6F 75
 157+ 8368 6E 64 00 0E    DB #6E,#64,#00,#0E,#41,#62,#6F,#72
 157+ 836C 41 62 6F 72
 158+ 8370 74 65 64 20    DB #74,#65,#64,#20,#62,#79,#20,#75
 158+ 8374 62 79 20 75
 159+ 8378 73 65 72 21    DB #73,#65,#72,#21,#00,#0E,#54,#68
 159+ 837C 00 0E 54 68
 160+ 8380 69 73 20 50    DB #69,#73,#20,#50,#4C,#55,#47,#49
 160+ 8384 4C 55 47 49
 161+ 8388 4E 20 63 61    DB #4E,#20,#63,#61,#6E,#27,#74,#20
 161+ 838C 6E 27 74 20
 162+ 8390 62 65 20 72    DB #62,#65,#20,#72,#75,#6E,#20,#66
 162+ 8394 75 6E 20 66
 163+ 8398 72 6F 6D 20    DB #72,#6F,#6D,#20,#6D,#65,#6E,#75
 163+ 839C 6D 65 6E 75
 164+ 83A0 21 21 21 00    DB #21,#21,#21,#00,#0E,#57,#72,#6F
 164+ 83A4 0E 57 72 6F
 165+ 83A8 6E 67 20 76    DB #6E,#67,#20,#76,#65,#72,#73,#69
 165+ 83AC 65 72 73 69
 166+ 83B0 6F 6E 20 6F    DB #6F,#6E,#20,#6F,#66,#20,#50,#6C
 166+ 83B4 66 20 50 6C
 167+ 83B8 75 67 69 6E    DB #75,#67,#69,#6E,#21,#00,#4C,#4F
 167+ 83BC 21 00 4C 4F
 168+ 83C0 41 44 45 44    DB #41,#44,#45,#44,#21,#21,#21,#42
 168+ 83C4 21 21 21 42
 169+ 83C8 65 74 61 0E    DB #65,#74,#61,#0E,#09,#41,#42,#4F
 169+ 83CC 09 41 42 4F
 170+ 83D0 55 54 00 0B    DB #55,#54,#00,#0B,#09,#FE,#91,#84
 170+ 83D4 09 FE 91 84
 171+ 83D8 0D 0C 04 0E    DB #0D,#0C,#04,#0E,#28,#43,#29,#20
 171+ 83DC 28 43 29 20
 172+ 83E0 4B 4F 53 48    DB #4B,#4F,#53,#48,#49,#2F,#4D,#47
 172+ 83E4 49 2F 4D 47
 173+ 83E8 4E 20 01 32    DB #4E,#20,#01,#32,#30,#32,#35,#00
 173+ 83EC 30 32 35 00
 174+ 83F0 0E 20 20 53    DB #0E,#20,#20,#53,#6F,#72,#74,#69
 174+ 83F4 6F 72 74 69
 175+ 83F8 6E 67 2E 2E    DB #6E,#67,#2E,#2E,#2E,#20,#3B,#50
 175+ 83FC 2E 20 3B 50
 176+ 8400 00 0E 09 53    DB #00,#0E,#09,#53,#65,#6C,#65,#63
 176+ 8404 65 6C 65 63
 177+ 8408 74 20 44 65    DB #74,#20,#44,#65,#76,#69,#63,#65
 177+ 840C 76 69 63 65
 178+ 8410 3A 00 49 44    DB #3A,#00,#49,#44,#45,#20,#4E,#45
 178+ 8414 45 20 4E 45
 179+ 8418 4D 4F 3A 20    DB #4D,#4F,#3A,#20,#4D,#61,#73,#74
 179+ 841C 4D 61 73 74
 180+ 8420 65 72 0D 0B    DB #65,#72,#0D,#0B,#06,#53,#44,#3A
 180+ 8424 06 53 44 3A
 181+ 8428 20 5A 2D 43    DB #20,#5A,#2D,#43,#6F,#6E,#74,#72
 181+ 842C 6F 6E 74 72
 182+ 8430 6F 6C 6C 65    DB #6F,#6C,#6C,#65,#72,#0D,#0B,#05
 182+ 8434 72 0D 0B 05
 183+ 8438 53 44 32 3A    DB #53,#44,#32,#3A,#20,#5A,#2D,#43
 183+ 843C 20 5A 2D 43
 184+ 8440 6F 6E 74 72    DB #6F,#6E,#74,#72,#6F,#6C,#6C,#65
 184+ 8444 6F 6C 6C 65
 185+ 8448 72 0D 0B 06    DB #72,#0D,#0B,#06,#53,#44,#3A,#20
 185+ 844C 53 44 3A 20
 186+ 8450 4E 65 6F 47    DB #4E,#65,#6F,#47,#53,#0D,#49,#44
 186+ 8454 53 0D 49 44
 187+ 8458 45 20 53 4D    DB #45,#20,#53,#4D,#55,#43,#3A,#20
 187+ 845C 55 43 3A 20
 188+ 8460 4D 61 73 74    DB #4D,#61,#73,#74,#65,#72,#0D,#49
 188+ 8464 65 72 0D 49
 189+ 8468 44 45 20 53    DB #44,#45,#20,#53,#4D,#55,#43,#3A
 189+ 846C 4D 55 43 3A
 190+ 8470 20 53 6C 61    DB #20,#53,#6C,#61,#76,#65,#0D,#49
 190+ 8474 76 65 0D 49
 191+ 8478 44 45 20 4E    DB #44,#45,#20,#4E,#45,#4D,#4F,#3A
 191+ 847C 45 4D 4F 3A
 192+ 8480 20 53 6C 61    DB #20,#53,#6C,#61,#76,#65,#00,#0F
 192+ 8484 76 65 00 0F
 193+ 8488 00 00 00 50    DB #00,#00,#00,#50,#24,#00,#0E,#05
 193+ 848C 24 00 0E 05
 194+ 8490 05 57 69 6C    DB #05,#57,#69,#6C,#64,#20,#43,#6F
 194+ 8494 64 20 43 6F
 195+ 8498 6D 6D 61 6E    DB #6D,#6D,#61,#6E,#64,#65,#72,#20
 195+ 849C 64 65 72 20
 196+ 84A0 76 31 2E 31    DB #76,#31,#2E,#31,#30,#00,#07,#07
 196+ 84A4 30 00 07 07
 197+ 84A8 46 31 06 01    DB #46,#31,#06,#01,#48,#65,#6C,#70
 197+ 84AC 48 65 6C 70
 198+ 84B0 20 20 07 07    DB #20,#20,#07,#07,#46,#32,#08,#01
 198+ 84B4 46 32 08 01
 199+ 84B8 20 20 20 20    DB #20,#20,#20,#20,#20,#20,#07,#07
 199+ 84BC 20 20 07 07
 200+ 84C0 46 33 06 01    DB #46,#33,#06,#01,#56,#69,#65,#77
 200+ 84C4 56 69 65 77
 201+ 84C8 20 20 07 07    DB #20,#20,#07,#07,#46,#34,#08,#01
 201+ 84CC 46 34 08 01
 202+ 84D0 20 20 20 20    DB #20,#20,#20,#20,#20,#20,#07,#07
 202+ 84D4 20 20 07 07
 203+ 84D8 46 35 06 01    DB #46,#35,#06,#01,#43,#6F,#70,#79
 203+ 84DC 43 6F 70 79
 204+ 84E0 20 20 07 07    DB #20,#20,#07,#07,#46,#36,#08,#01
 204+ 84E4 46 36 08 01
 205+ 84E8 52 65 4E 61    DB #52,#65,#4E,#61,#6D,#65,#07,#07
 205+ 84EC 6D 65 07 07
 206+ 84F0 46 37 06 01    DB #46,#37,#06,#01,#4D,#6B,#44,#69
 206+ 84F4 4D 6B 44 69
 207+ 84F8 72 20 07 07    DB #72,#20,#07,#07,#46,#38,#08,#01
 207+ 84FC 46 38 08 01
 208+ 8500 44 65 6C 65    DB #44,#65,#6C,#65,#74,#65,#07,#07
 208+ 8504 74 65 07 07
 209+ 8508 46 39 06 01    DB #46,#39,#06,#01,#53,#65,#74,#55
 209+ 850C 53 65 74 55
 210+ 8510 50 20 07 07    DB #50,#20,#07,#07,#31,#30,#08,#01
 210+ 8514 31 30 08 01
 211+ 8518 50 6C 75 67    DB #50,#6C,#75,#67,#69,#6E,#07,#07
 211+ 851C 69 6E 07 07
 212+ 8520 20 06 01 4B    DB #20,#06,#01,#4B,#4F,#53,#48,#49
 212+ 8524 4F 53 48 49
 213+ 8528 2F 4D 47 4E    DB #2F,#4D,#47,#4E,#00,#10,#2E,#2E
 213+ 852C 00 10 2E 2E
 214+ 8530 00             DB #00
 215+ 8531
# file closed: WCVLS_DATA.ASM
  23  8531                      ASSERT $ == #8531, WCVLS_DATA.ASM boundary mismatch
  24  8531
  25  8531                      INCLUDE "WCFX_DISASM.ASM"
# file opened: WCFX_DISASM.ASM
   1+ 8531              ; WCFX: function-key actions and file operations
   2+ 8531              ;
   3+ 8531              ; Used by the routine at L6011.
   4+ 8531              L8531:
   5+ 8531 CD A6 74       CALL L7143_65           ; CALL L7143_65
   6+ 8534 3E 01          LD A,#01                ; A=#01
   7+ 8536 20 21          JR NZ,L8531_1           ; Jump to L8531_1 if the zero flag is not set
   8+ 8538 CD AA 74       CALL L7143_66           ; CALL L7143_66
   9+ 853B 3E 02          LD A,#02                ; A=#02
  10+ 853D 20 1A          JR NZ,L8531_1           ; Jump to L8531_1 if the zero flag is not set
  11+ 853F CD B2 74       CALL L7143_68           ; CALL L7143_68
  12+ 8542 3E 03          LD A,#03                ; A=#03
  13+ 8544 20 13          JR NZ,L8531_1           ; Jump to L8531_1 if the zero flag is not set
  14+ 8546 CD 2B 74       CALL L7143_44           ; CALL L7143_44
  15+ 8549 28 0A          JR Z,L8531_0            ; Jump to L8531_0 if the zero flag is set
  16+ 854B FE 72          CP #72                  ; Set the zero flag if A=#72, or the carry flag if
  17+ 854D                                        ; A<#72
  18+ 854D CC 39 8D       CALL Z,L8531_94         ; CALL L8531_94 if A=#72
  19+ 8550 FE 61          CP #61                  ; Set the zero flag if A=#61, or the carry flag if
  20+ 8552                                        ; A<#61
  21+ 8552 CC 67 85       CALL Z,L8531_3          ; CALL L8531_3 if A=#61
  22+ 8555              L8531_0:
  23+ 8555 3E 01          LD A,#01                ; A=#01
  24+ 8557 B7             OR A                    ; Clear the carry flag and set the zero flag if A=0
  25+ 8558 C9             RET                     ; Return
  26+ 8559              L8531_1:
  27+ 8559 DD BE 23       CP (IX+#23)             ; Set the zero flag if A=PEEK (IX+#23), or the carry
  28+ 855C                                        ; flag if A<PEEK (IX+#23)
  29+ 855C 20 01          JR NZ,L8531_2           ; Jump to L8531_2 if A<>PEEK (IX+#23)
  30+ 855E AF             XOR A                   ; A=0
  31+ 855F              L8531_2:
  32+ 855F DD 77 23       LD (IX+#23),A           ; POKE (IX+#23),A
  33+ 8562 CD 39 8D       CALL L8531_94           ; CALL L8531_94
  34+ 8565 18 EE          JR L8531_0              ; Jump to L8531_0
  35+ 8567              L8531_3:
  36+ 8567 3E F6          LD A,#F6                ; A=#F6
  37+ 8569 32 92 85       LD (#8592),A            ; POKE #8592,A
  38+ 856C CD 75 85       CALL L8531_4            ; CALL L8531_4
  39+ 856F 3E EE          LD A,#EE                ; A=#EE
  40+ 8571 32 92 85       LD (#8592),A            ; POKE #8592,A
  41+ 8574 C9             RET                     ; Return
  42+ 8575              ; This entry point is used by the routine at L6011.
  43+ 8575              L8531_4:
  44+ 8575 21 FF FF       LD HL,#FFFF             ; HL=#FFFF
  45+ 8578 22 7C 85       LD (#857C),HL           ; POKE #857C,L; POKE #857D,H
  46+ 857B              L8531_5:
  47+ 857B 21 00 00       LD HL,#0000             ; HL=#0000
  48+ 857E 23             INC HL                  ; HL=HL+1
  49+ 857F 22 7C 85       LD (#857C),HL           ; POKE #857C,L; POKE #857D,H
  50+ 8582 CD 0B 63       CALL L6011_34           ; CALL L6011_34
  51+ 8585 CD 9D 85       CALL L8531_7            ; CALL L8531_7
  52+ 8588 38 0D          JR C,L8531_6            ; Jump to L8531_6 if the carry flag is set
  53+ 858A 28 EF          JR Z,L8531_5            ; Jump to L8531_5 if the zero flag is set
  54+ 858C EB             EX DE,HL                ; Exchange DE and HL
  55+ 858D 11 F0 FF       LD DE,#FFF0             ; DE=#FFF0
  56+ 8590 19             ADD HL,DE               ; HL=HL+DE
  57+ 8591 7E             LD A,(HL)               ; A=PEEK HL
  58+ 8592 EE 01          XOR #01                 ; Flip bit 0 of A
  59+ 8594 77             LD (HL),A               ; POKE HL,A
  60+ 8595 18 E4          JR L8531_5              ; Jump to L8531_5
  61+ 8597              L8531_6:
  62+ 8597 CD BB 65       CALL L6011_78           ; CALL L6011_78
  63+ 859A C3 D5 7C       JP L7828_67             ; Jump to L7828_67
  64+ 859D              L8531_7:
  65+ 859D 08             EX AF,AF'               ; Exchange AF and AF'
  66+ 859E 7C             LD A,H                  ; A=H
  67+ 859F B5             OR L                    ; A=A|L
  68+ 85A0 37             SCF                     ; Set the carry flag
  69+ 85A1 C8             RET Z                   ; Return if the zero flag is set
  70+ 85A2 08             EX AF,AF'               ; Exchange AF and AF'
  71+ 85A3 C0             RET NZ                  ; Return if the zero flag is not set
  72+ 85A4 D5             PUSH DE                 ; Push DE onto the stack
  73+ 85A5 E1             POP HL                  ; Pop last item from stack into HL
  74+ 85A6 23             INC HL                  ; HL=HL+1
  75+ 85A7 7E             LD A,(HL)               ; A=PEEK HL
  76+ 85A8 EE 2E          XOR #2E                 ; Flip bits 1, 2, 3 and 5 of A
  77+ 85AA C0             RET NZ                  ; Return if A>0
  78+ 85AB 23             INC HL                  ; HL=HL+1
  79+ 85AC 7E             LD A,(HL)               ; A=PEEK HL
  80+ 85AD EE 2E          XOR #2E                 ; Flip bits 1, 2, 3 and 5 of A
  81+ 85AF C0             RET NZ                  ; Return if A>0
  82+ 85B0 23             INC HL                  ; HL=HL+1
  83+ 85B1 7E             LD A,(HL)               ; A=PEEK HL
  84+ 85B2 B7             OR A                    ; Clear the carry flag and set the zero flag if A=0
  85+ 85B3 C9             RET                     ; Return
  86+ 85B4              ; This entry point is used by the routine at L6011.
  87+ 85B4              L8531_8:
  88+ 85B4 CD FE 62       CALL L6011_33           ; CALL L6011_33
  89+ 85B7 CD 9D 85       CALL L8531_7            ; CALL L8531_7
  90+ 85BA C8             RET Z                   ; Return if the zero flag is set
  91+ 85BB EB             EX DE,HL                ; Exchange DE and HL
  92+ 85BC 11 F0 FF       LD DE,#FFF0             ; DE=#FFF0
  93+ 85BF 19             ADD HL,DE               ; HL=HL+DE
  94+ 85C0 7E             LD A,(HL)               ; A=PEEK HL
  95+ 85C1 EE 01          XOR #01                 ; Flip bit 0 of A
  96+ 85C3 77             LD (HL),A               ; POKE HL,A
  97+ 85C4 DD 6E 10       LD L,(IX+#10)           ; L=PEEK (IX+#10)
  98+ 85C7 DD 66 11       LD H,(IX+#11)           ; H=PEEK (IX+#11)
  99+ 85CA E5             PUSH HL                 ; Push HL onto the stack
 100+ 85CB CD 1C 62       CALL L6011_14           ; CALL L6011_14
 101+ 85CE E1             POP HL                  ; Pop last item from stack into HL
 102+ 85CF DD 5E 10       LD E,(IX+#10)           ; E=PEEK (IX+#10)
 103+ 85D2 DD 56 11       LD D,(IX+#11)           ; D=PEEK (IX+#11)
 104+ 85D5 B7             OR A                    ; Clear the carry flag and set the zero flag if A=0
 105+ 85D6 ED 52          SBC HL,DE               ; HL=HL-carry-DE
 106+ 85D8 C0             RET NZ                  ; Return if HL>0
 107+ 85D9 CD F2 7C       CALL L7828_69           ; CALL L7828_69
 108+ 85DC CD BB 65       CALL L6011_78           ; CALL L6011_78
 109+ 85DF C3 D5 7C       JP L7828_67             ; Jump to L7828_67
 110+ 85E2              L8531_9:
 111+ 85E2 CD FE 62       CALL L6011_33           ; CALL L6011_33
 112+ 85E5 CD 9D 85       CALL L8531_7            ; CALL L8531_7
 113+ 85E8 C8             RET Z                   ; Return if the zero flag is set
 114+ 85E9 EB             EX DE,HL                ; Exchange DE and HL
 115+ 85EA 11 F0 FF       LD DE,#FFF0             ; DE=#FFF0
 116+ 85ED 19             ADD HL,DE               ; HL=HL+DE
 117+ 85EE 7E             LD A,(HL)               ; A=PEEK HL
 118+ 85EF EE 01          XOR #01                 ; Flip bit 0 of A
 119+ 85F1 77             LD (HL),A               ; POKE HL,A
 120+ 85F2 CD BB 65       CALL L6011_78           ; CALL L6011_78
 121+ 85F5 AF             XOR A                   ; A=0
 122+ 85F6 32 45 7F       LD (#7F45),A            ; POKE #7F45,A
 123+ 85F9 3C             INC A                   ; A=A+1
 124+ 85FA 32 44 7F       LD (#7F44),A            ; POKE #7F44,A
 125+ 85FD C9             RET                     ; Return
 126+ 85FE              L8531_10:
 127+ 85FE 21 00 00       LD HL,#0000             ; HL=#0000
 128+ 8601 AF             XOR A                   ; A=0
 129+ 8602 32 04 60       LD (#6004),A            ; POKE #6004,A
 130+ 8605 D9             EXX                     ; Exchange BC, DE and HL with BC', DE' and HL'
 131+ 8606 01 00 00       LD BC,#0000             ; BC=#0000
 132+ 8609              L8531_11:
 133+ 8609 D9             EXX                     ; Exchange BC, DE and HL with BC', DE' and HL'
 134+ 860A              L8531_12:
 135+ 860A 22 46 7F       LD (#7F46),HL           ; POKE #7F46,L; POKE #7F47,H
 136+ 860D CD 4F 63       CALL L6011_36           ; CALL L6011_36
 137+ 8610 28 0E          JR Z,L8531_13           ; Jump to L8531_13 if the zero flag is set
 138+ 8612 7E             LD A,(HL)               ; A=PEEK HL
 139+ 8613 CB 47          BIT 0,A                 ; Set the zero flag if bit 0 of A is 0
 140+ 8615 2A 46 7F       LD HL,(#7F46)           ; L=PEEK #7F46; H=PEEK #7F47
 141+ 8618 23             INC HL                  ; HL=HL+1
 142+ 8619 28 EF          JR Z,L8531_12           ; Jump to L8531_12 if the zero flag is set
 143+ 861B D9             EXX                     ; Exchange BC, DE and HL with BC', DE' and HL'
 144+ 861C 03             INC BC                  ; BC=BC+1
 145+ 861D C3 09 86       JP L8531_11             ; Jump to L8531_11
 146+ 8620              L8531_13:
 147+ 8620 D9             EXX                     ; Exchange BC, DE and HL with BC', DE' and HL'
 148+ 8621 21 00 00       LD HL,#0000             ; HL=#0000
 149+ 8624 22 46 7F       LD (#7F46),HL           ; POKE #7F46,L; POKE #7F47,H
 150+ 8627 ED 43 44 7F    LD (#7F44),BC           ; POKE #7F44,C; POKE #7F45,B
 151+ 862B 78             LD A,B                  ; A=B
 152+ 862C B1             OR C                    ; A=A|C
 153+ 862D C9             RET                     ; Return
 154+ 862E              L8531_14:
 155+ 862E CB 3A          SRL D                   ; Shift D right (copying bit 0 into the carry flag,
 156+ 8630                                        ; and resetting bit 7)
 157+ 8630 CB 1B          RR E                    ; Rotate E right through the carry flag
 158+ 8632 CB 1C          RR H                    ; Rotate H right through the carry flag
 159+ 8634 CB 1D          RR L                    ; Rotate L right through the carry flag
 160+ 8636 CB 3A          SRL D                   ; Shift D right (copying bit 0 into the carry flag,
 161+ 8638                                        ; and resetting bit 7)
 162+ 8638 CB 1B          RR E                    ; Rotate E right through the carry flag
 163+ 863A CB 1C          RR H                    ; Rotate H right through the carry flag
 164+ 863C CB 1D          RR L                    ; Rotate L right through the carry flag
 165+ 863E CB 3A          SRL D                   ; Shift D right (copying bit 0 into the carry flag,
 166+ 8640                                        ; and resetting bit 7)
 167+ 8640 CB 1B          RR E                    ; Rotate E right through the carry flag
 168+ 8642 CB 1C          RR H                    ; Rotate H right through the carry flag
 169+ 8644 CB 1D          RR L                    ; Rotate L right through the carry flag
 170+ 8646 CB 3A          SRL D                   ; Shift D right (copying bit 0 into the carry flag,
 171+ 8648                                        ; and resetting bit 7)
 172+ 8648 CB 1B          RR E                    ; Rotate E right through the carry flag
 173+ 864A CB 1C          RR H                    ; Rotate H right through the carry flag
 174+ 864C CB 1D          RR L                    ; Rotate L right through the carry flag
 175+ 864E CB 3A          SRL D                   ; Shift D right (copying bit 0 into the carry flag,
 176+ 8650                                        ; and resetting bit 7)
 177+ 8650 CB 1B          RR E                    ; Rotate E right through the carry flag
 178+ 8652 CB 1C          RR H                    ; Rotate H right through the carry flag
 179+ 8654 CB 1D          RR L                    ; Rotate L right through the carry flag
 180+ 8656 CB 3A          SRL D                   ; Shift D right (copying bit 0 into the carry flag,
 181+ 8658                                        ; and resetting bit 7)
 182+ 8658 CB 1B          RR E                    ; Rotate E right through the carry flag
 183+ 865A CB 1C          RR H                    ; Rotate H right through the carry flag
 184+ 865C CB 1D          RR L                    ; Rotate L right through the carry flag
 185+ 865E C9             RET                     ; Return
 186+ 865F              L8531_15:
 187+ 865F ED 4B 72 86    LD BC,(#8672)           ; C=PEEK #8672; B=PEEK #8673
 188+ 8663 78             LD A,B                  ; A=B
 189+ 8664 B1             OR C                    ; A=A|C
 190+ 8665 ED 4B 7C 86    LD BC,(#867C)           ; C=PEEK #867C; B=PEEK #867D
 191+ 8669 B0             OR B                    ; A=A|B
 192+ 866A B1             OR C                    ; A=A|C
 193+ 866B C8             RET Z                   ; Return if A=0
 194+ 866C              L8531_16:
 195+ 866C DD 21 FF FF    LD IX,#FFFF             ; IX=#FFFF
 196+ 8670              L8531_17:
 197+ 8670 B7             OR A                    ; Clear the carry flag and set the zero flag if A=0
 198+ 8671              L8531_18:
 199+ 8671 01 00 00       LD BC,#0000             ; BC=#0000
 200+ 8674 DD 23          INC IX                  ; IX=IX+1
 201+ 8676 EB             EX DE,HL                ; Exchange DE and HL
 202+ 8677 ED 42          SBC HL,BC               ; HL=HL-carry-BC
 203+ 8679 38 18          JR C,L8531_19           ; Jump to L8531_19 if the carry flag is set
 204+ 867B 01 00 00       LD BC,#0000             ; BC=#0000
 205+ 867E EB             EX DE,HL                ; Exchange DE and HL
 206+ 867F ED 42          SBC HL,BC               ; HL=HL-carry-BC
 207+ 8681 30 EE          JR NC,L8531_18          ; Jump to L8531_18 if the carry flag is not set
 208+ 8683 1B             DEC DE                  ; DE=DE-1
 209+ 8684 7A             LD A,D                  ; A=D
 210+ 8685 3C             INC A                   ; A=A+1
 211+ 8686 20 E8          JR NZ,L8531_17          ; Jump to L8531_17 if A>0
 212+ 8688 7B             LD A,E                  ; A=E
 213+ 8689 3C             INC A                   ; A=A+1
 214+ 868A 20 E4          JR NZ,L8531_17          ; Jump to L8531_17 if A>0
 215+ 868C 13             INC DE                  ; DE=DE+1
 216+ 868D 09             ADD HL,BC               ; HL=HL+BC
 217+ 868E EB             EX DE,HL                ; Exchange DE and HL
 218+ 868F ED 4B 72 86    LD BC,(#8672)           ; C=PEEK #8672; B=PEEK #8673
 219+ 8693              L8531_19:
 220+ 8693 09             ADD HL,BC               ; HL=HL+BC
 221+ 8694 EB             EX DE,HL                ; Exchange DE and HL
 222+ 8695 DD E5          PUSH IX                 ; Push IX onto the stack
 223+ 8697 C1             POP BC                  ; Pop last item from stack into BC
 224+ 8698 79             LD A,C                  ; A=C
 225+ 8699 C6 30          ADD A,#30               ; A=A+#30
 226+ 869B C9             RET                     ; Return
 227+ 869C              L8531_20:
 228+ 869C 01 00 CA       LD BC,#CA00             ; BC=#CA00
 229+ 869F ED 43 7C 86    LD (#867C),BC           ; POKE #867C,C; POKE #867D,B
 230+ 86A3 01 9A 3B       LD BC,#3B9A             ; BC=#3B9A
 231+ 86A6 ED 43 72 86    LD (#8672),BC           ; POKE #8672,C; POKE #8673,B
 232+ 86AA CD 6C 86       CALL L8531_16           ; CALL L8531_16
 233+ 86AD D9             EXX                     ; Exchange BC, DE and HL with BC', DE' and HL'
 234+ 86AE 12             LD (DE),A               ; POKE DE,A
 235+ 86AF 13             INC DE                  ; DE=DE+1
 236+ 86B0 D9             EXX                     ; Exchange BC, DE and HL with BC', DE' and HL'
 237+ 86B1 01 00 E1       LD BC,#E100             ; BC=#E100
 238+ 86B4 ED 43 7C 86    LD (#867C),BC           ; POKE #867C,C; POKE #867D,B
 239+ 86B8 01 F5 05       LD BC,#05F5             ; BC=#05F5
 240+ 86BB ED 43 72 86    LD (#8672),BC           ; POKE #8672,C; POKE #8673,B
 241+ 86BF CD 6C 86       CALL L8531_16           ; CALL L8531_16
 242+ 86C2 D9             EXX                     ; Exchange BC, DE and HL with BC', DE' and HL'
 243+ 86C3 12             LD (DE),A               ; POKE DE,A
 244+ 86C4 13             INC DE                  ; DE=DE+1
 245+ 86C5 D9             EXX                     ; Exchange BC, DE and HL with BC', DE' and HL'
 246+ 86C6 01 80 96       LD BC,#9680             ; BC=#9680
 247+ 86C9 ED 43 7C 86    LD (#867C),BC           ; POKE #867C,C; POKE #867D,B
 248+ 86CD 01 98 00       LD BC,#0098             ; BC=#0098
 249+ 86D0 ED 43 72 86    LD (#8672),BC           ; POKE #8672,C; POKE #8673,B
 250+ 86D4 CD 6C 86       CALL L8531_16           ; CALL L8531_16
 251+ 86D7 D9             EXX                     ; Exchange BC, DE and HL with BC', DE' and HL'
 252+ 86D8 12             LD (DE),A               ; POKE DE,A
 253+ 86D9 13             INC DE                  ; DE=DE+1
 254+ 86DA D9             EXX                     ; Exchange BC, DE and HL with BC', DE' and HL'
 255+ 86DB 01 40 42       LD BC,#4240             ; BC=#4240
 256+ 86DE ED 43 7C 86    LD (#867C),BC           ; POKE #867C,C; POKE #867D,B
 257+ 86E2 01 0F 00       LD BC,#000F             ; BC=#000F
 258+ 86E5 ED 43 72 86    LD (#8672),BC           ; POKE #8672,C; POKE #8673,B
 259+ 86E9 CD 6C 86       CALL L8531_16           ; CALL L8531_16
 260+ 86EC D9             EXX                     ; Exchange BC, DE and HL with BC', DE' and HL'
 261+ 86ED 12             LD (DE),A               ; POKE DE,A
 262+ 86EE 13             INC DE                  ; DE=DE+1
 263+ 86EF D9             EXX                     ; Exchange BC, DE and HL with BC', DE' and HL'
 264+ 86F0 01 A0 86       LD BC,#86A0             ; BC=#86A0
 265+ 86F3 ED 43 7C 86    LD (#867C),BC           ; POKE #867C,C; POKE #867D,B
 266+ 86F7 01 01 00       LD BC,#0001             ; BC=#0001
 267+ 86FA ED 43 72 86    LD (#8672),BC           ; POKE #8672,C; POKE #8673,B
 268+ 86FE CD 6C 86       CALL L8531_16           ; CALL L8531_16
 269+ 8701 D9             EXX                     ; Exchange BC, DE and HL with BC', DE' and HL'
 270+ 8702 12             LD (DE),A               ; POKE DE,A
 271+ 8703 13             INC DE                  ; DE=DE+1
 272+ 8704 D9             EXX                     ; Exchange BC, DE and HL with BC', DE' and HL'
 273+ 8705 01 10 27       LD BC,#2710             ; BC=#2710
 274+ 8708 ED 43 7C 86    LD (#867C),BC           ; POKE #867C,C; POKE #867D,B
 275+ 870C 01 00 00       LD BC,#0000             ; BC=#0000
 276+ 870F ED 43 72 86    LD (#8672),BC           ; POKE #8672,C; POKE #8673,B
 277+ 8713 CD 6C 86       CALL L8531_16           ; CALL L8531_16
 278+ 8716 E5             PUSH HL                 ; Push HL onto the stack
 279+ 8717 D9             EXX                     ; Exchange BC, DE and HL with BC', DE' and HL'
 280+ 8718 12             LD (DE),A               ; POKE DE,A
 281+ 8719 13             INC DE                  ; DE=DE+1
 282+ 871A E1             POP HL                  ; Pop last item from stack into HL
 283+ 871B              L8531_21:
 284+ 871B 01 E8 03       LD BC,#03E8             ; BC=#03E8
 285+ 871E CD 3A 87       CALL L8531_23           ; CALL L8531_23
 286+ 8721 12             LD (DE),A               ; POKE DE,A
 287+ 8722 13             INC DE                  ; DE=DE+1
 288+ 8723 01 64 00       LD BC,#0064             ; BC=#0064
 289+ 8726 CD 3A 87       CALL L8531_23           ; CALL L8531_23
 290+ 8729 12             LD (DE),A               ; POKE DE,A
 291+ 872A 13             INC DE                  ; DE=DE+1
 292+ 872B              L8531_22:
 293+ 872B 0E 0A          LD C,#0A                ; C=#0A
 294+ 872D CD 3A 87       CALL L8531_23           ; CALL L8531_23
 295+ 8730 12             LD (DE),A               ; POKE DE,A
 296+ 8731 13             INC DE                  ; DE=DE+1
 297+ 8732 0E 01          LD C,#01                ; C=#01
 298+ 8734 CD 3A 87       CALL L8531_23           ; CALL L8531_23
 299+ 8737 12             LD (DE),A               ; POKE DE,A
 300+ 8738 13             INC DE                  ; DE=DE+1
 301+ 8739 C9             RET                     ; Return
 302+ 873A              L8531_23:
 303+ 873A 3E FF          LD A,#FF                ; A=#FF
 304+ 873C B7             OR A                    ; Clear the carry flag and set the zero flag if A=0
 305+ 873D              L8531_24:
 306+ 873D 3C             INC A                   ; A=A+1
 307+ 873E ED 42          SBC HL,BC               ; HL=HL-carry-BC
 308+ 8740 D2 3D 87       JP NC,L8531_24          ; Jump to L8531_24 if the carry flag is not set
 309+ 8743 09             ADD HL,BC               ; HL=HL+BC
 310+ 8744 C6 30          ADD A,#30               ; A=A+#30
 311+ 8746 C9             RET                     ; Return
 312+ 8747              ; This entry point is used by the routines at L6011 and L9149.
 313+ 8747              L8531_25:
 314+ 8747 AF             XOR A                   ; A=0
 315+ 8748 21 43 7F       LD HL,#7F43             ; HL=#7F43
 316+ 874B BE             CP (HL)                 ; Set the zero flag if A=PEEK HL, or the carry flag
 317+ 874C                                        ; if A<PEEK HL
 318+ 874C C8             RET Z                   ; Return if A=PEEK HL
 319+ 874D 77             LD (HL),A               ; POKE HL,A
 320+ 874E DD 5E 12       LD E,(IX+#12)           ; E=PEEK (IX+#12)
 321+ 8751 DD 56 13       LD D,(IX+#13)           ; D=PEEK (IX+#13)
 322+ 8754 CD 28 78       CALL L7828              ; CALL L7828
 323+ 8757 DD 6E 10       LD L,(IX+#10)           ; L=PEEK (IX+#10)
 324+ 875A DD 66 11       LD H,(IX+#11)           ; H=PEEK (IX+#11)
 325+ 875D CD 5C 78       CALL L7828_3            ; CALL L7828_3
 326+ 8760 CD 32 9F       CALL L9B7C_42           ; CALL L9B7C_42
 327+ 8763 DD 7E 0A       LD A,(IX+#0A)           ; A=PEEK (IX+#0A)
 328+ 8766 FE 02          CP #02                  ; Set the zero flag if A=#02, or the carry flag if
 329+ 8768                                        ; A<#02
 330+ 8768 C0             RET NZ                  ; Return if A<>#02
 331+ 8769 CD FE 62       CALL L6011_33           ; CALL L6011_33
 332+ 876C 08             EX AF,AF'               ; Exchange AF and AF'
 333+ 876D 1A             LD A,(DE)               ; A=PEEK DE
 334+ 876E B7             OR A                    ; Clear the carry flag and set the zero flag if A=0
 335+ 876F 3E 20          LD A,#20                ; A=#20
 336+ 8771 28 02          JR Z,L8531_26           ; Jump to L8531_26 if the zero flag is set
 337+ 8773 3E 2E          LD A,#2E                ; A=#2E
 338+ 8775              L8531_26:
 339+ 8775 23             INC HL                  ; HL=HL+1
 340+ 8776 E5             PUSH HL                 ; Push HL onto the stack
 341+ 8777 21 6B 7F       LD HL,#7F6B             ; HL=#7F6B
 342+ 877A 11 00 B0       LD DE,#B000             ; DE=#B000
 343+ 877D 01 08 00       LD BC,#0008             ; BC=#0008
 344+ 8780 ED B0          LDIR                    ; POKE DE,PEEK HL; HL=HL+1; DE=DE+1; BC=BC-1; repeat
 345+ 8782                                        ; until BC=0
 346+ 8782 12             LD (DE),A               ; POKE DE,A
 347+ 8783 13             INC DE                  ; DE=DE+1
 348+ 8784 E1             POP HL                  ; Pop last item from stack into HL
 349+ 8785 0E 03          LD C,#03                ; C=#03
 350+ 8787 ED B0          LDIR                    ; POKE DE,PEEK HL; HL=HL+1; DE=DE+1; BC=BC-1; repeat
 351+ 8789                                        ; until BC=0
 352+ 8789 3E 20          LD A,#20                ; A=#20
 353+ 878B 12             LD (DE),A               ; POKE DE,A
 354+ 878C 13             INC DE                  ; DE=DE+1
 355+ 878D 08             EX AF,AF'               ; Exchange AF and AF'
 356+ 878E 21 08 7F       LD HL,#7F08             ; HL=#7F08
 357+ 8791 28 03          JR Z,L8531_27           ; Jump to L8531_27 if the zero flag is set
 358+ 8793 21 0D 7F       LD HL,#7F0D             ; HL=#7F0D
 359+ 8796              L8531_27:
 360+ 8796 0E 05          LD C,#05                ; C=#05
 361+ 8798 ED B0          LDIR                    ; POKE DE,PEEK HL; HL=HL+1; DE=DE+1; BC=BC-1; repeat
 362+ 879A                                        ; until BC=0
 363+ 879A 3E 20          LD A,#20                ; A=#20
 364+ 879C 12             LD (DE),A               ; POKE DE,A
 365+ 879D 13             INC DE                  ; DE=DE+1
 366+ 879E 12             LD (DE),A               ; POKE DE,A
 367+ 879F 13             INC DE                  ; DE=DE+1
 368+ 87A0 12             LD (DE),A               ; POKE DE,A
 369+ 87A1 13             INC DE                  ; DE=DE+1
 370+ 87A2 12             LD (DE),A               ; POKE DE,A
 371+ 87A3 13             INC DE                  ; DE=DE+1
 372+ 87A4 12             LD (DE),A               ; POKE DE,A
 373+ 87A5 13             INC DE                  ; DE=DE+1
 374+ 87A6 12             LD (DE),A               ; POKE DE,A
 375+ 87A7 13             INC DE                  ; DE=DE+1
 376+ 87A8 12             LD (DE),A               ; POKE DE,A
 377+ 87A9 13             INC DE                  ; DE=DE+1
 378+ 87AA D9             EXX                     ; Exchange BC, DE and HL with BC', DE' and HL'
 379+ 87AB 2A 2C 7F       LD HL,(#7F2C)           ; L=PEEK #7F2C; H=PEEK #7F2D
 380+ 87AE ED 5B 2E 7F    LD DE,(#7F2E)           ; E=PEEK #7F2E; D=PEEK #7F2F
 381+ 87B2 DD E5          PUSH IX                 ; Push IX onto the stack
 382+ 87B4 CD 9C 86       CALL L8531_20           ; CALL L8531_20
 383+ 87B7 DD E1          POP IX                  ; Pop last item from stack into IX
 384+ 87B9 1B             DEC DE                  ; DE=DE-1
 385+ 87BA 62             LD H,D                  ; H=D
 386+ 87BB 6B             LD L,E                  ; L=E
 387+ 87BC 01 F7 FF       LD BC,#FFF7             ; BC=#FFF7
 388+ 87BF 09             ADD HL,BC               ; HL=HL+BC
 389+ 87C0 06 0A          LD B,#0A                ; B=#0A
 390+ 87C2 3E 30          LD A,#30                ; A=#30
 391+ 87C4              L8531_28:
 392+ 87C4 BE             CP (HL)                 ; Set the zero flag if A=PEEK HL, or the carry flag
 393+ 87C5                                        ; if A<PEEK HL
 394+ 87C5 20 05          JR NZ,L8531_29          ; Jump to L8531_29 if A<>PEEK HL
 395+ 87C7 36 20          LD (HL),#20             ; POKE HL,#20
 396+ 87C9 23             INC HL                  ; HL=HL+1
 397+ 87CA 10 F8          DJNZ L8531_28           ; Decrement B and jump to L8531_28 if B>0
 398+ 87CC              L8531_29:
 399+ 87CC 62             LD H,D                  ; H=D
 400+ 87CD 6B             LD L,E                  ; L=E
 401+ 87CE 13             INC DE                  ; DE=DE+1
 402+ 87CF 13             INC DE                  ; DE=DE+1
 403+ 87D0 13             INC DE                  ; DE=DE+1
 404+ 87D1 3E 20          LD A,#20                ; A=#20
 405+ 87D3 01 03 00       LD BC,#0003             ; BC=#0003
 406+ 87D6 ED B8          LDDR                    ; POKE DE,PEEK HL; HL=HL-1; DE=DE-1; BC=BC-1; repeat
 407+ 87D8                                        ; until BC=0
 408+ 87D8 12             LD (DE),A               ; POKE DE,A
 409+ 87D9 1B             DEC DE                  ; DE=DE-1
 410+ 87DA 0E 03          LD C,#03                ; C=#03
 411+ 87DC ED B8          LDDR                    ; POKE DE,PEEK HL; HL=HL-1; DE=DE-1; BC=BC-1; repeat
 412+ 87DE                                        ; until BC=0
 413+ 87DE 12             LD (DE),A               ; POKE DE,A
 414+ 87DF 1B             DEC DE                  ; DE=DE-1
 415+ 87E0 0E 03          LD C,#03                ; C=#03
 416+ 87E2 ED B8          LDDR                    ; POKE DE,PEEK HL; HL=HL-1; DE=DE-1; BC=BC-1; repeat
 417+ 87E4                                        ; until BC=0
 418+ 87E4 12             LD (DE),A               ; POKE DE,A
 419+ 87E5 1B             DEC DE                  ; DE=DE-1
 420+ 87E6 7E             LD A,(HL)               ; A=PEEK HL
 421+ 87E7 12             LD (DE),A               ; POKE DE,A
 422+ 87E8 DD 7E 05       LD A,(IX+#05)           ; A=PEEK (IX+#05)
 423+ 87EB D6 02          SUB #02                 ; A=A-#02
 424+ 87ED 21 00 B0       LD HL,#B000             ; HL=#B000
 425+ 87F0 57             LD D,A                  ; D=A
 426+ 87F1 1E 01          LD E,#01                ; E=#01
 427+ 87F3 01 26 00       LD BC,#0026             ; BC=#0026
 428+ 87F6 C3 25 7D       JP L7828_72             ; Jump to L7828_72
 429+ 87F9              ; This entry point is used by the routine at L6011.
 430+ 87F9              L8531_30:
 431+ 87F9 CD 77 74       CALL L7143_55           ; CALL L7143_55
 432+ 87FC C2 5B 91       JP NZ,L9149_1           ; Jump to L9149_1 if the zero flag is not set
 433+ 87FF CD A6 74       CALL L7143_65           ; CALL L7143_65
 434+ 8802 C2 5B 91       JP NZ,L9149_1           ; Jump to L9149_1 if the zero flag is not set
 435+ 8805 3E 01          LD A,#01                ; A=#01
 436+ 8807 B7             OR A                    ; Clear the carry flag and set the zero flag if A=0
 437+ 8808 C9             RET                     ; Return
 438+ 8809              ; This entry point is used by the routine at L6011.
 439+ 8809              L8531_31:
 440+ 8809 CD 9E 74       CALL L7143_63           ; CALL L7143_63
 441+ 880C 20 07          JR NZ,L8531_32          ; Jump to L8531_32 if the zero flag is not set
 442+ 880E CD A2 74       CALL L7143_64           ; CALL L7143_64
 443+ 8811 20 07          JR NZ,L8531_33          ; Jump to L8531_33 if the zero flag is not set
 444+ 8813 18 26          JR L8531_35             ; Jump to L8531_35
 445+ 8815              L8531_32:
 446+ 8815 21 A0 7E       LD HL,L7EA0             ; HL=#7EA0
 447+ 8818 18 03          JR L8531_34             ; Jump to L8531_34
 448+ 881A              L8531_33:
 449+ 881A 21 C4 7E       LD HL,#7EC4             ; HL=#7EC4
 450+ 881D              L8531_34:
 451+ 881D CD 3F 88       CALL L8531_36           ; CALL L8531_36
 452+ 8820 04             INC B                   ; B=B+1
 453+ 8821 28 18          JR Z,L8531_35           ; Jump to L8531_35 if B=0
 454+ 8823 DD E5          PUSH IX                 ; Push IX onto the stack
 455+ 8825 DD 2A 3C 7F    LD IX,(#7F3C)           ; IXL=PEEK #7F3C; IXH=PEEK #7F3D
 456+ 8829 DD 77 1D       LD (IX+#1D),A           ; POKE (IX+#1D),A
 457+ 882C DD 36 1C 00    LD (IX+#1C),#00         ; POKE (IX+#1C),0
 458+ 8830 CD 68 68       CALL L6011_104          ; CALL L6011_104
 459+ 8833 CD ED 63       CALL L6011_46           ; CALL L6011_46
 460+ 8836 DD E1          POP IX                  ; Pop last item from stack into IX
 461+ 8838 CD 68 68       CALL L6011_104          ; CALL L6011_104
 462+ 883B              L8531_35:
 463+ 883B 3E 01          LD A,#01                ; A=#01
 464+ 883D B7             OR A                    ; Clear the carry flag and set the zero flag if A=0
 465+ 883E C9             RET                     ; Return
 466+ 883F              ; This entry point is used by the routine at L6011.
 467+ 883F              L8531_36:
 468+ 883F DD E5          PUSH IX                 ; Push IX onto the stack
 469+ 8841 E5             PUSH HL                 ; Push HL onto the stack
 470+ 8842 CD F2 7C       CALL L7828_69           ; CALL L7828_69
 471+ 8845 E1             POP HL                  ; Pop last item from stack into HL
 472+ 8846 22 3C 7F       LD (#7F3C),HL           ; POKE #7F3C,L; POKE #7F3D,H
 473+ 8849 E5             PUSH HL                 ; Push HL onto the stack
 474+ 884A FD E1          POP IY                  ; Pop last item from stack into IY
 475+ 884C DD 21 82 80    LD IX,#8082             ; IX=#8082
 476+ 8850 FD 7E 02       LD A,(IY+#02)           ; A=PEEK (IY+#02)
 477+ 8853 C6 02          ADD A,#02               ; A=A+#02
 478+ 8855 DD 77 02       LD (IX+#02),A           ; POKE (IX+#02),A
 479+ 8858 FD 7E 03       LD A,(IY+#03)           ; A=PEEK (IY+#03)
 480+ 885B C6 02          ADD A,#02               ; A=A+#02
 481+ 885D DD 77 03       LD (IX+#03),A           ; POKE (IX+#03),A
 482+ 8860 FD 7E 1D       LD A,(IY+#1D)           ; A=PEEK (IY+#1D)
 483+ 8863 FE 06          CP #06                  ; Set the zero flag if A=#06, or the carry flag if
 484+ 8865                                        ; A<#06
 485+ 8865 20 04          JR NZ,L8531_37          ; Jump to L8531_37 if A<>#06
 486+ 8867 3E 02          LD A,#02                ; A=#02
 487+ 8869 18 05          JR L8531_38             ; Jump to L8531_38
 488+ 886B              L8531_37:
 489+ 886B FE 02          CP #02                  ; Set the zero flag if A=#02, or the carry flag if
 490+ 886D                                        ; A<#02
 491+ 886D 38 01          JR C,L8531_38           ; Jump to L8531_38 if A<#02
 492+ 886F 3C             INC A                   ; A=A+1
 493+ 8870              L8531_38:
 494+ 8870 3C             INC A                   ; A=A+1
 495+ 8871 DD 77 0C       LD (IX+#0C),A           ; POKE (IX+#0C),A
 496+ 8874 CD 2C 79       CALL #792C              ; CALL 792C
 497+ 8877              L8531_39:
 498+ 8877 FB             EI                      ; Enable interrupts
 499+ 8878 76             HALT                    ; Wait for the next interrupt
 500+ 8879 CD D5 7C       CALL L7828_67           ; CALL L7828_67
 501+ 887C CD 53 74       CALL L7143_49           ; CALL L7143_49
 502+ 887F C4 8E 62       CALL NZ,L6011_26        ; CALL L6011_26 if the zero flag is not set
 503+ 8882 CD 59 74       CALL L7143_50           ; CALL L7143_50
 504+ 8885 C4 85 62       CALL NZ,L6011_25        ; CALL L6011_25 if the zero flag is not set
 505+ 8888 CD 9A 74       CALL L7143_62           ; CALL L7143_62
 506+ 888B 06 FF          LD B,#FF                ; B=#FF
 507+ 888D 20 07          JR NZ,L8531_40          ; Jump to L8531_40 if the zero flag is not set
 508+ 888F CD 77 74       CALL L7143_55           ; CALL L7143_55
 509+ 8892 28 E3          JR Z,L8531_39           ; Jump to L8531_39 if the zero flag is set
 510+ 8894 06 00          LD B,#00                ; B=#00
 511+ 8896              L8531_40:
 512+ 8896 C5             PUSH BC                 ; Push BC onto the stack
 513+ 8897 CD CE 7A       CALL L7828_38           ; CALL L7828_38
 514+ 889A C1             POP BC                  ; Pop last item from stack into BC
 515+ 889B DD 7E 0C       LD A,(IX+#0C)           ; A=PEEK (IX+#0C)
 516+ 889E 3D             DEC A                   ; A=A-1
 517+ 889F FE 02          CP #02                  ; Set the zero flag if A=#02, or the carry flag if
 518+ 88A1                                        ; A<#02
 519+ 88A1 20 02          JR NZ,L8531_41          ; Jump to L8531_41 if A<>#02
 520+ 88A3 3E 07          LD A,#07                ; A=#07
 521+ 88A5              L8531_41:
 522+ 88A5 38 01          JR C,L8531_42           ; Jump to L8531_42 if the carry flag is set
 523+ 88A7 3D             DEC A                   ; A=A-1
 524+ 88A8              L8531_42:
 525+ 88A8 DD E1          POP IX                  ; Pop last item from stack into IX
 526+ 88AA C9             RET                     ; Return
 527+ 88AB              ; This entry point is used by the routine at L6011.
 528+ 88AB              L8531_43:
 529+ 88AB DD E5          PUSH IX                 ; Push IX onto the stack
 530+ 88AD DD 21 18 80    LD IX,#8018             ; IX=#8018
 531+ 88B1 CD 2C 79       CALL #792C              ; CALL 792C
 532+ 88B4 CD C3 88       CALL L8531_44           ; CALL L8531_44
 533+ 88B7 CD 4B 74       CALL L7143_48           ; CALL L7143_48
 534+ 88BA CD 43 74       CALL L7143_47           ; CALL L7143_47
 535+ 88BD CD CE 7A       CALL L7828_38           ; CALL L7828_38
 536+ 88C0 DD E1          POP IX                  ; Pop last item from stack into IX
 537+ 88C2 C9             RET                     ; Return
 538+ 88C3              L8531_44:
 539+ 88C3 CD 5F 89       CALL L8531_47           ; CALL L8531_47
 540+ 88C6 21 10 B0       LD HL,#B010             ; HL=#B010
 541+ 88C9 06 20          LD B,#20                ; B=#20
 542+ 88CB CD 99 69       CALL L6011_129          ; CALL L6011_129
 543+ 88CE 21 00 B0       LD HL,#B000             ; HL=#B000
 544+ 88D1 11 10 B0       LD DE,#B010             ; DE=#B010
 545+ 88D4 0E 0C          LD C,#0C                ; C=#0C
 546+ 88D6 ED B0          LDIR                    ; POKE DE,PEEK HL; HL=HL+1; DE=DE+1; BC=BC-1; repeat
 547+ 88D8                                        ; until BC=0
 548+ 88D8 CD 18 89       CALL L8531_46           ; CALL L8531_46
 549+ 88DB 21 10 B0       LD HL,#B010             ; HL=#B010
 550+ 88DE 11 07 03       LD DE,#0307             ; DE=#0307
 551+ 88E1 01 1C 00       LD BC,#001C             ; BC=#001C
 552+ 88E4 CD 25 7D       CALL L7828_72           ; CALL L7828_72
 553+ 88E7 3E 71          LD A,#71                ; A=#71
 554+ 88E9 CD 39 7D       CALL L7828_73           ; CALL L7828_73
 555+ 88EC 21 53 AB       LD HL,#AB53             ; HL=#AB53
 556+ 88EF 11 00 B0       LD DE,#B000             ; DE=#B000
 557+ 88F2 01 0E 00       LD BC,#000E             ; BC=#000E
 558+ 88F5 ED B0          LDIR                    ; POKE DE,PEEK HL; HL=HL+1; DE=DE+1; BC=BC-1; repeat
 559+ 88F7                                        ; until BC=0
 560+ 88F7 3A 0D 60       LD A,(#600D)            ; A=PEEK #600D
 561+ 88FA 21 61 AB       LD HL,#AB61             ; HL=#AB61
 562+ 88FD B7             OR A                    ; Clear the carry flag and set the zero flag if A=0
 563+ 88FE 20 03          JR NZ,L8531_45          ; Jump to L8531_45 if A>0
 564+ 8900 21 69 AB       LD HL,#AB69             ; HL=#AB69
 565+ 8903              L8531_45:
 566+ 8903 0E 08          LD C,#08                ; C=#08
 567+ 8905 ED B0          LDIR                    ; POKE DE,PEEK HL; HL=HL+1; DE=DE+1; BC=BC-1; repeat
 568+ 8907                                        ; until BC=0
 569+ 8907 21 00 B0       LD HL,#B000             ; HL=#B000
 570+ 890A 11 0B 04       LD DE,#040B             ; DE=#040B
 571+ 890D 01 16 00       LD BC,#0016             ; BC=#0016
 572+ 8910 CD 25 7D       CALL L7828_72           ; CALL L7828_72
 573+ 8913 3E 70          LD A,#70                ; A=#70
 574+ 8915 C3 39 7D       JP L7828_73             ; Jump to L7828_73
 575+ 8918              L8531_46:
 576+ 8918 7E             LD A,(HL)               ; A=PEEK HL
 577+ 8919 E6 1F          AND #1F                 ; Reset bits 5, 6 and 7 of A
 578+ 891B E5             PUSH HL                 ; Push HL onto the stack
 579+ 891C 6F             LD L,A                  ; L=A
 580+ 891D 26 00          LD H,#00                ; H=#00
 581+ 891F CD 2B 87       CALL L8531_22           ; CALL L8531_22
 582+ 8922 3E 2E          LD A,#2E                ; A=#2E
 583+ 8924 12             LD (DE),A               ; POKE DE,A
 584+ 8925 13             INC DE                  ; DE=DE+1
 585+ 8926 E1             POP HL                  ; Pop last item from stack into HL
 586+ 8927 7E             LD A,(HL)               ; A=PEEK HL
 587+ 8928 23             INC HL                  ; HL=HL+1
 588+ 8929 CB 3E          SRL (HL)                ; Shift (HL) right (copying bit 0 into the carry
 589+ 892B                                        ; flag, and resetting bit 7)
 590+ 892B 1F             RRA                     ; Rotate A right through the carry flag
 591+ 892C CB 3F          SRL A                   ; Shift A right (copying bit 0 into the carry flag,
 592+ 892E                                        ; and resetting bit 7)
 593+ 892E CB 3F          SRL A                   ; Shift A right (copying bit 0 into the carry flag,
 594+ 8930                                        ; and resetting bit 7)
 595+ 8930 CB 3F          SRL A                   ; Shift A right (copying bit 0 into the carry flag,
 596+ 8932                                        ; and resetting bit 7)
 597+ 8932 CB 3F          SRL A                   ; Shift A right (copying bit 0 into the carry flag,
 598+ 8934                                        ; and resetting bit 7)
 599+ 8934 E5             PUSH HL                 ; Push HL onto the stack
 600+ 8935 6F             LD L,A                  ; L=A
 601+ 8936 26 00          LD H,#00                ; H=#00
 602+ 8938 CD 2B 87       CALL L8531_22           ; CALL L8531_22
 603+ 893B E1             POP HL                  ; Pop last item from stack into HL
 604+ 893C EB             EX DE,HL                ; Exchange DE and HL
 605+ 893D 36 2E          LD (HL),#2E             ; POKE HL,#2E
 606+ 893F 23             INC HL                  ; HL=HL+1
 607+ 8940 36 32          LD (HL),#32             ; POKE HL,#32
 608+ 8942 23             INC HL                  ; HL=HL+1
 609+ 8943 36 30          LD (HL),#30             ; POKE HL,#30
 610+ 8945 23             INC HL                  ; HL=HL+1
 611+ 8946 EB             EX DE,HL                ; Exchange DE and HL
 612+ 8947 7E             LD A,(HL)               ; A=PEEK HL
 613+ 8948 E6 3F          AND #3F                 ; Reset bits 6 and 7 of A
 614+ 894A E5             PUSH HL                 ; Push HL onto the stack
 615+ 894B 6F             LD L,A                  ; L=A
 616+ 894C 26 00          LD H,#00                ; H=#00
 617+ 894E CD 2B 87       CALL L8531_22           ; CALL L8531_22
 618+ 8951 E1             POP HL                  ; Pop last item from stack into HL
 619+ 8952 CB 76          BIT 6,(HL)              ; Set the zero flag if bit 6 of (HL) is 0
 620+ 8954 C0             RET NZ                  ; Return if bit 6 of PEEK HL is set
 621+ 8955 13             INC DE                  ; DE=DE+1
 622+ 8956 21 C7 83       LD HL,#83C7             ; HL=#83C7
 623+ 8959 01 04 00       LD BC,#0004             ; BC=#0004
 624+ 895C ED B0          LDIR                    ; POKE DE,PEEK HL; HL=HL+1; DE=DE+1; BC=BC-1; repeat
 625+ 895E                                        ; until BC=0
 626+ 895E C9             RET                     ; Return
 627+ 895F              L8531_47:
 628+ 895F 01 F7 DF       LD BC,#DFF7             ; BC=#DFF7
 629+ 8962 3E F0          LD A,#F0                ; A=#F0
 630+ 8964 5F             LD E,A                  ; E=A
 631+ 8965 ED 79          OUT (C),A               ; OUT BC,A
 632+ 8967 06 BF          LD B,#BF                ; B=#BF
 633+ 8969 AF             XOR A                   ; A=0
 634+ 896A ED 79          OUT (C),A               ; OUT BC,A
 635+ 896C 21 00 B0       LD HL,#B000             ; HL=#B000
 636+ 896F              L8531_48:
 637+ 896F 06 BF          LD B,#BF                ; B=#BF
 638+ 8971 ED A2          INI                     ; POKE HL,IN BC; HL=HL+1; B=B-1
 639+ 8973 1C             INC E                   ; E=E+1
 640+ 8974 28 06          JR Z,L8531_49           ; Jump to L8531_49 if E=0
 641+ 8976 06 DF          LD B,#DF                ; B=#DF
 642+ 8978 ED 59          OUT (C),E               ; OUT BC,E
 643+ 897A 18 F3          JR L8531_48             ; Jump to L8531_48
 644+ 897C              L8531_49:
 645+ 897C 06 BF          LD B,#BF                ; B=#BF
 646+ 897E 3E 02          LD A,#02                ; A=#02
 647+ 8980 ED 79          OUT (C),A               ; OUT BC,A
 648+ 8982 C9             RET                     ; Return
 649+ 8983              ; This entry point is used by the routine at L6011.
 650+ 8983              L8531_50:
 651+ 8983 CD F2 7C       CALL L7828_69           ; CALL L7828_69
 652+ 8986 CD FE 85       CALL L8531_10           ; CALL L8531_10
 653+ 8989 CC E2 85       CALL Z,L8531_9          ; CALL L8531_9 if the zero flag is set
 654+ 898C C8             RET Z                   ; Return if the zero flag is set
 655+ 898D CD A3 89       CALL L8531_51           ; CALL L8531_51
 656+ 8990 CD 9F 8C       CALL L8531_85           ; CALL L8531_85
 657+ 8993 11 28 7F       LD DE,#7F28             ; DE=#7F28
 658+ 8996 CD 21 40       CALL #4021              ; CALL 4021
 659+ 8999 CD EB 62       CALL L6011_32           ; CALL L6011_32
 660+ 899C CD F0 63       CALL L6011_47           ; CALL L6011_47
 661+ 899F CD 9F 8C       CALL L8531_85           ; CALL L8531_85
 662+ 89A2 C9             RET                     ; Return
 663+ 89A3              L8531_51:
 664+ 89A3 DD E5          PUSH IX                 ; Push IX onto the stack
 665+ 89A5 DD 21 00 80    LD IX,L7EA0_0           ; IX=#8000
 666+ 89A9 CD 2C 79       CALL #792C              ; CALL 792C
 667+ 89AC 21 1F 81       LD HL,#811F             ; HL=#811F
 668+ 89AF 11 00 00       LD DE,#0000             ; DE=#0000
 669+ 89B2 CD 81 7D       CALL L7828_80           ; CALL L7828_80
 670+ 89B5 2A 44 7F       LD HL,(#7F44)           ; L=PEEK #7F44; H=PEEK #7F45
 671+ 89B8 11 50 81       LD DE,#8150             ; DE=#8150
 672+ 89BB CD 1B 87       CALL L8531_21           ; CALL L8531_21
 673+ 89BE 21 26 81       LD HL,#8126             ; HL=#8126
 674+ 89C1 11 0A 02       LD DE,#020A             ; DE=#020A
 675+ 89C4 CD 81 7D       CALL L7828_80           ; CALL L7828_80
 676+ 89C7 3E 01          LD A,#01                ; A=#01
 677+ 89C9 CD 73 66       CALL L6011_87           ; CALL L6011_87
 678+ 89CC              L8531_52:
 679+ 89CC FB             EI                      ; Enable interrupts
 680+ 89CD 76             HALT                    ; Wait for the next interrupt
 681+ 89CE AF             XOR A                   ; A=0
 682+ 89CF CD 73 66       CALL L6011_87           ; CALL L6011_87
 683+ 89D2 CD 77 74       CALL L7143_55           ; CALL L7143_55
 684+ 89D5 20 0B          JR NZ,L8531_54          ; Jump to L8531_54 if the zero flag is not set
 685+ 89D7 CD 9A 74       CALL L7143_62           ; CALL L7143_62
 686+ 89DA 28 F0          JR Z,L8531_52           ; Jump to L8531_52 if the zero flag is set
 687+ 89DC              L8531_53:
 688+ 89DC CD CE 7A       CALL L7828_38           ; CALL L7828_38
 689+ 89DF DD E1          POP IX                  ; Pop last item from stack into IX
 690+ 89E1 C9             RET                     ; Return
 691+ 89E2              L8531_54:
 692+ 89E2 3E FF          LD A,#FF                ; A=#FF
 693+ 89E4 CD 73 66       CALL L6011_87           ; CALL L6011_87
 694+ 89E7 20 F3          JR NZ,L8531_53          ; Jump to L8531_53 if the zero flag is not set
 695+ 89E9 DD E1          POP IX                  ; Pop last item from stack into IX
 696+ 89EB 21 00 00       LD HL,#0000             ; HL=#0000
 697+ 89EE              L8531_55:
 698+ 89EE E5             PUSH HL                 ; Push HL onto the stack
 699+ 89EF CD 0B 63       CALL L6011_34           ; CALL L6011_34
 700+ 89F2 08             EX AF,AF'               ; Exchange AF and AF'
 701+ 89F3 7C             LD A,H                  ; A=H
 702+ 89F4 B5             OR L                    ; A=A|L
 703+ 89F5 28 0E          JR Z,L8531_56           ; Jump to L8531_56 if A=0
 704+ 89F7 08             EX AF,AF'               ; Exchange AF and AF'
 705+ 89F8 CB 46          BIT 0,(HL)              ; Set the zero flag if bit 0 of (HL) is 0
 706+ 89FA 36 00          LD (HL),#00             ; POKE HL,#00
 707+ 89FC C4 CC 8A       CALL NZ,L8531_67        ; CALL L8531_67 if the zero flag is not set
 708+ 89FF 20 04          JR NZ,L8531_56          ; Jump to L8531_56 if the zero flag is not set
 709+ 8A01 E1             POP HL                  ; Pop last item from stack into HL
 710+ 8A02 23             INC HL                  ; HL=HL+1
 711+ 8A03 18 E9          JR L8531_55             ; Jump to L8531_55
 712+ 8A05              L8531_56:
 713+ 8A05 E1             POP HL                  ; Pop last item from stack into HL
 714+ 8A06 DD E5          PUSH IX                 ; Push IX onto the stack
 715+ 8A08 DD 21 00 80    LD IX,L7EA0_0           ; IX=#8000
 716+ 8A0C CD CE 7A       CALL L7828_38           ; CALL L7828_38
 717+ 8A0F DD E1          POP IX                  ; Pop last item from stack into IX
 718+ 8A11 C3 BB 65       JP L6011_78             ; Jump to L6011_78
 719+ 8A14              L8531_57:
 720+ 8A14 CD 7B 8A       CALL L8531_60           ; CALL L8531_60
 721+ 8A17 AF             XOR A                   ; A=0
 722+ 8A18 11 00 B2       LD DE,#B200             ; DE=#B200
 723+ 8A1B 01 FF 26       LD BC,#26FF             ; BC=#26FF
 724+ 8A1E              L8531_58:
 725+ 8A1E ED A0          LDI                     ; POKE DE,PEEK HL; HL=HL+1; DE=DE+1; BC=BC-1
 726+ 8A20 BE             CP (HL)                 ; Set the zero flag if A=PEEK HL, or the carry flag
 727+ 8A21                                        ; if A<PEEK HL
 728+ 8A21 28 02          JR Z,L8531_59           ; Jump to L8531_59 if A=PEEK HL
 729+ 8A23 10 F9          DJNZ L8531_58           ; Decrement B and jump to L8531_58 if B>0
 730+ 8A25              L8531_59:
 731+ 8A25 78             LD A,B                  ; A=B
 732+ 8A26 B7             OR A                    ; Clear the carry flag and set the zero flag if A=0
 733+ 8A27 EB             EX DE,HL                ; Exchange DE and HL
 734+ 8A28 C4 99 69       CALL NZ,L6011_129       ; CALL L6011_129 if the zero flag is not set
 735+ 8A2B DD E5          PUSH IX                 ; Push IX onto the stack
 736+ 8A2D DD 21 00 80    LD IX,L7EA0_0           ; IX=#8000
 737+ 8A31 2A 46 7F       LD HL,(#7F46)           ; L=PEEK #7F46; H=PEEK #7F47
 738+ 8A34 23             INC HL                  ; HL=HL+1
 739+ 8A35 22 46 7F       LD (#7F46),HL           ; POKE #7F46,L; POKE #7F47,H
 740+ 8A38 11 31 81       LD DE,#8131             ; DE=#8131
 741+ 8A3B CD 1B 87       CALL L8531_21           ; CALL L8531_21
 742+ 8A3E 2A 44 7F       LD HL,(#7F44)           ; L=PEEK #7F44; H=PEEK #7F45
 743+ 8A41 11 39 81       LD DE,#8139             ; DE=#8139
 744+ 8A44 CD 1B 87       CALL L8531_21           ; CALL L8531_21
 745+ 8A47 21 A0 5E       LD HL,#5EA0             ; HL=#5EA0
 746+ 8A4A 06 20          LD B,#20                ; B=#20
 747+ 8A4C E5             PUSH HL                 ; Push HL onto the stack
 748+ 8A4D CD 99 69       CALL L6011_129          ; CALL L6011_129
 749+ 8A50 E1             POP HL                  ; Pop last item from stack into HL
 750+ 8A51 11 01 02       LD DE,#0201             ; DE=#0201
 751+ 8A54 01 20 00       LD BC,#0020             ; BC=#0020
 752+ 8A57 CD 25 7D       CALL L7828_72           ; CALL L7828_72
 753+ 8A5A 21 2F 81       LD HL,#812F             ; HL=#812F
 754+ 8A5D 11 00 02       LD DE,#0200             ; DE=#0200
 755+ 8A60 CD 81 7D       CALL L7828_80           ; CALL L7828_80
 756+ 8A63 21 00 B2       LD HL,#B200             ; HL=#B200
 757+ 8A66 11 01 01       LD DE,#0101             ; DE=#0101
 758+ 8A69 01 26 00       LD BC,#0026             ; BC=#0026
 759+ 8A6C CD 25 7D       CALL L7828_72           ; CALL L7828_72
 760+ 8A6F 3E 70          LD A,#70                ; A=#70
 761+ 8A71 CD 39 7D       CALL L7828_73           ; CALL L7828_73
 762+ 8A74 DD E1          POP IX                  ; Pop last item from stack into IX
 763+ 8A76 3A 04 60       LD A,(#6004)            ; A=PEEK #6004
 764+ 8A79 B7             OR A                    ; Clear the carry flag and set the zero flag if A=0
 765+ 8A7A C9             RET                     ; Return
 766+ 8A7B              L8531_60:
 767+ 8A7B EB             EX DE,HL                ; Exchange DE and HL
 768+ 8A7C 11 04 B0       LD DE,#B004             ; DE=#B004
 769+ 8A7F 7E             LD A,(HL)               ; A=PEEK HL
 770+ 8A80 E6 10          AND #10                 ; Keep only bit 4 of A
 771+ 8A82 EE 10          XOR #10                 ; Flip bit 4 of A
 772+ 8A84 12             LD (DE),A               ; POKE DE,A
 773+ 8A85 23             INC HL                  ; HL=HL+1
 774+ 8A86 13             INC DE                  ; DE=DE+1
 775+ 8A87 E5             PUSH HL                 ; Push HL onto the stack
 776+ 8A88 01 00 01       LD BC,#0100             ; BC=#0100
 777+ 8A8B ED B0          LDIR                    ; POKE DE,PEEK HL; HL=HL+1; DE=DE+1; BC=BC-1; repeat
 778+ 8A8D                                        ; until BC=0
 779+ 8A8D E1             POP HL                  ; Pop last item from stack into HL
 780+ 8A8E C9             RET                     ; Return
 781+ 8A8F              L8531_61:
 782+ 8A8F 3D             DEC A                   ; A=A-1
 783+ 8A90 21 26 82       LD HL,#8226             ; HL=#8226
 784+ 8A93 C8             RET Z                   ; Return if the zero flag is set
 785+ 8A94 3D             DEC A                   ; A=A-1
 786+ 8A95 21 3F 82       LD HL,#823F             ; HL=#823F
 787+ 8A98 C8             RET Z                   ; Return if the zero flag is set
 788+ 8A99 3D             DEC A                   ; A=A-1
 789+ 8A9A 21 5A 82       LD HL,#825A             ; HL=#825A
 790+ 8A9D C8             RET Z                   ; Return if the zero flag is set
 791+ 8A9E 3D             DEC A                   ; A=A-1
 792+ 8A9F 21 5A 82       LD HL,#825A             ; HL=#825A
 793+ 8AA2 C8             RET Z                   ; Return if the zero flag is set
 794+ 8AA3 FE 04          CP #04                  ; Set the zero flag if A=#04, or the carry flag if
 795+ 8AA5                                        ; A<#04
 796+ 8AA5 21 0B 82       LD HL,#820B             ; HL=#820B
 797+ 8AA8 C8             RET Z                   ; Return if the zero flag is set
 798+ 8AA9 FE 0C          CP #0C                  ; Set the zero flag if A=#0C, or the carry flag if
 799+ 8AAB                                        ; A<#0C
 800+ 8AAB 21 F8 81       LD HL,#81F8             ; HL=#81F8
 801+ 8AAE C8             RET Z                   ; Return if the zero flag is set
 802+ 8AAF 21 A7 82       LD HL,#82A7             ; HL=#82A7
 803+ 8AB2 C9             RET                     ; Return
 804+ 8AB3              L8531_62:
 805+ 8AB3 CD 8F 8A       CALL L8531_61           ; CALL L8531_61
 806+ 8AB6 C3 DE 90       JP L8531_149            ; Jump to L8531_149
 807+ 8AB9              L8531_63:
 808+ 8AB9 21 0B 82       LD HL,#820B             ; HL=#820B
 809+ 8ABC 18 08          JR L8531_65             ; Jump to L8531_65
 810+ 8ABE              L8531_64:
 811+ 8ABE CD 8F 8A       CALL L8531_61           ; CALL L8531_61
 812+ 8AC1 E5             PUSH HL                 ; Push HL onto the stack
 813+ 8AC2 CD 9F 8C       CALL L8531_85           ; CALL L8531_85
 814+ 8AC5 E1             POP HL                  ; Pop last item from stack into HL
 815+ 8AC6              L8531_65:
 816+ 8AC6 CD DE 90       CALL L8531_149          ; CALL L8531_149
 817+ 8AC9              L8531_66:
 818+ 8AC9 AF             XOR A                   ; A=0
 819+ 8ACA 3C             INC A                   ; A=A+1
 820+ 8ACB C9             RET                     ; Return
 821+ 8ACC              L8531_67:
 822+ 8ACC B7             OR A                    ; Clear the carry flag and set the zero flag if A=0
 823+ 8ACD CA 79 8B       JP Z,L8531_74           ; Jump to L8531_74 if A=0
 824+ 8AD0 CD 14 8A       CALL L8531_57           ; CALL L8531_57
 825+ 8AD3 C4 E0 8F       CALL NZ,L8531_132       ; CALL L8531_132 if the zero flag is not set
 826+ 8AD6 20 F1          JR NZ,L8531_66          ; Jump to L8531_66 if the zero flag is not set
 827+ 8AD8 21 00 00       LD HL,#0000             ; HL=#0000
 828+ 8ADB 3E 03          LD A,#03                ; A=#03
 829+ 8ADD              L8531_68:
 830+ 8ADD 32 E7 7F       LD (#7FE7),A            ; POKE #7FE7,A
 831+ 8AE0 22 F2 7F       LD (#7FF2),HL           ; POKE #7FF2,L; POKE #7FF3,H
 832+ 8AE3 21 04 B0       LD HL,#B004             ; HL=#B004
 833+ 8AE6 CD 2C 6F       CALL L6011_226          ; CALL L6011_226
 834+ 8AE9 28 CE          JR Z,L8531_63           ; Jump to L8531_63 if the zero flag is set
 835+ 8AEB 3A 04 B0       LD A,(#B004)            ; A=PEEK #B004
 836+ 8AEE 32 00 B0       LD (#B000),A            ; POKE #B000,A
 837+ 8AF1 22 01 B0       LD (#B001),HL           ; POKE #B001,L; POKE #B002,H
 838+ 8AF4 ED 53 03 B0    LD (#B003),DE           ; POKE #B003,E; POKE #B004,D
 839+ 8AF8 CD 52 6F       CALL L6011_228          ; CALL L6011_228
 840+ 8AFB CD 9F 8C       CALL L8531_85           ; CALL L8531_85
 841+ 8AFE 21 00 B0       LD HL,#B000             ; HL=#B000
 842+ 8B01 CD 5E 6F       CALL L6011_230          ; CALL L6011_230
 843+ 8B04 20 B8          JR NZ,L8531_64          ; Jump to L8531_64 if the zero flag is not set
 844+ 8B06 3E 08          LD A,#08                ; A=#08
 845+ 8B08 CD C1 68       CALL L6011_114          ; CALL L6011_114
 846+ 8B0B CD 43 90       CALL L8531_139          ; CALL L8531_139
 847+ 8B0E              L8531_69:
 848+ 8B0E CD 7D 90       CALL L8531_141          ; CALL L8531_141
 849+ 8B11 CD 9F 8C       CALL L8531_85           ; CALL L8531_85
 850+ 8B14 21 00 C0       LD HL,LC000             ; HL=#C000
 851+ 8B17 06 20          LD B,#20                ; B=#20
 852+ 8B19 CD 15 40       CALL #4015              ; CALL 4015
 853+ 8B1C CD 9F 8C       CALL L8531_85           ; CALL L8531_85
 854+ 8B1F 21 00 C0       LD HL,LC000             ; HL=#C000
 855+ 8B22 06 20          LD B,#20                ; B=#20
 856+ 8B24 CD 18 40       CALL #4018              ; CALL 4018
 857+ 8B27 FE 0F          CP #0F                  ; Set the zero flag if A=#0F, or the carry flag if
 858+ 8B29                                        ; A<#0F
 859+ 8B29 20 E3          JR NZ,L8531_69          ; Jump to L8531_69 if A<>#0F
 860+ 8B2B CD 71 90       CALL L8531_140          ; CALL L8531_140
 861+ 8B2E CD 9F 8C       CALL L8531_85           ; CALL L8531_85
 862+ 8B31 AF             XOR A                   ; A=0
 863+ 8B32 C9             RET                     ; Return
 864+ 8B33              L8531_70:
 865+ 8B33 05             DEC B                   ; B=B-1
 866+ 8B34 21 B9 82       LD HL,#82B9             ; HL=#82B9
 867+ 8B37 C8             RET Z                   ; Return if the zero flag is set
 868+ 8B38 05             DEC B                   ; B=B-1
 869+ 8B39 21 CE 82       LD HL,#82CE             ; HL=#82CE
 870+ 8B3C C8             RET Z                   ; Return if the zero flag is set
 871+ 8B3D 05             DEC B                   ; B=B-1
 872+ 8B3E 21 E5 82       LD HL,#82E5             ; HL=#82E5
 873+ 8B41 C8             RET Z                   ; Return if the zero flag is set
 874+ 8B42 05             DEC B                   ; B=B-1
 875+ 8B43 21 FA 82       LD HL,#82FA             ; HL=#82FA
 876+ 8B46 C8             RET Z                   ; Return if the zero flag is set
 877+ 8B47 05             DEC B                   ; B=B-1
 878+ 8B48 21 11 83       LD HL,#8311             ; HL=#8311
 879+ 8B4B C8             RET Z                   ; Return if the zero flag is set
 880+ 8B4C 05             DEC B                   ; B=B-1
 881+ 8B4D 21 28 83       LD HL,#8328             ; HL=#8328
 882+ 8B50 C8             RET Z                   ; Return if the zero flag is set
 883+ 8B51 05             DEC B                   ; B=B-1
 884+ 8B52 21 3A 83       LD HL,#833A             ; HL=#833A
 885+ 8B55 C8             RET Z                   ; Return if the zero flag is set
 886+ 8B56 05             DEC B                   ; B=B-1
 887+ 8B57 21 5B 83       LD HL,#835B             ; HL=#835B
 888+ 8B5A C8             RET Z                   ; Return if the zero flag is set
 889+ 8B5B 21 6B 83       LD HL,#836B             ; HL=#836B
 890+ 8B5E C9             RET                     ; Return
 891+ 8B5F              L8531_71:
 892+ 8B5F F5             PUSH AF                 ; Push AF onto the stack
 893+ 8B60 C5             PUSH BC                 ; Push BC onto the stack
 894+ 8B61 CD AB 8C       CALL L8531_87           ; CALL L8531_87
 895+ 8B64 CD 9F 8C       CALL L8531_85           ; CALL L8531_85
 896+ 8B67 CD 26 6F       CALL L6011_225          ; CALL L6011_225
 897+ 8B6A C1             POP BC                  ; Pop last item from stack into BC
 898+ 8B6B F1             POP AF                  ; Pop last item from stack into AF
 899+ 8B6C              L8531_72:
 900+ 8B6C 04             INC B                   ; B=B+1
 901+ 8B6D 28 07          JR Z,L8531_73           ; Jump to L8531_73 if B=0
 902+ 8B6F 05             DEC B                   ; B=B-1
 903+ 8B70 CD 33 8B       CALL L8531_70           ; CALL L8531_70
 904+ 8B73 CD DE 90       CALL L8531_149          ; CALL L8531_149
 905+ 8B76              L8531_73:
 906+ 8B76 AF             XOR A                   ; A=0
 907+ 8B77 3C             INC A                   ; A=A+1
 908+ 8B78 C9             RET                     ; Return
 909+ 8B79              L8531_74:
 910+ 8B79 CD 14 8A       CALL L8531_57           ; CALL L8531_57
 911+ 8B7C CD 20 6F       CALL L6011_224          ; CALL L6011_224
 912+ 8B7F CD 9F 8C       CALL L8531_85           ; CALL L8531_85
 913+ 8B82 CD A5 8C       CALL L8531_86           ; CALL L8531_86
 914+ 8B85 CD 9F 8C       CALL L8531_85           ; CALL L8531_85
 915+ 8B88 21 00 C0       LD HL,LC000             ; HL=#C000
 916+ 8B8B 22 71 8F       LD (#8F71),HL           ; POKE #8F71,L; POKE #8F72,H
 917+ 8B8E              L8531_75:
 918+ 8B8E CD 9A 8C       CALL L8531_84           ; CALL L8531_84
 919+ 8B91 11 02 00       LD DE,#0002             ; DE=#0002
 920+ 8B94 73             LD (HL),E               ; POKE HL,E
 921+ 8B95 2C             INC L                   ; L=L+1
 922+ 8B96 72             LD (HL),D               ; POKE HL,D
 923+ 8B97 21 04 B0       LD HL,#B004             ; HL=#B004
 924+ 8B9A CD 2C 6F       CALL L6011_226          ; CALL L6011_226
 925+ 8B9D 06 01          LD B,#01                ; B=#01
 926+ 8B9F CA 90 8C       JP Z,L8531_83           ; Jump to L8531_83 if the zero flag is set
 927+ 8BA2 CD 58 6F       CALL L6011_229          ; CALL L6011_229
 928+ 8BA5 CD 9F 8C       CALL L8531_85           ; CALL L8531_85
 929+ 8BA8 21 04 B0       LD HL,#B004             ; HL=#B004
 930+ 8BAB E5             PUSH HL                 ; Push HL onto the stack
 931+ 8BAC 23             INC HL                  ; HL=HL+1
 932+ 8BAD CD 7B 6F       CALL L6011_231          ; CALL L6011_231
 933+ 8BB0 E1             POP HL                  ; Pop last item from stack into HL
 934+ 8BB1 06 02          LD B,#02                ; B=#02
 935+ 8BB3 20 AA          JR NZ,L8531_71          ; Jump to L8531_71 if the zero flag is not set
 936+ 8BB5 CD 2C 6F       CALL L6011_226          ; CALL L6011_226
 937+ 8BB8 06 03          LD B,#03                ; B=#03
 938+ 8BBA 28 A3          JR Z,L8531_71           ; Jump to L8531_71 if the zero flag is set
 939+ 8BBC CD 58 6F       CALL L6011_229          ; CALL L6011_229
 940+ 8BBF CD 9F 8C       CALL L8531_85           ; CALL L8531_85
 941+ 8BC2 CD B1 8C       CALL L8531_88           ; CALL L8531_88
 942+ 8BC5 11 00 B4       LD DE,#B400             ; DE=#B400
 943+ 8BC8 D5             PUSH DE                 ; Push DE onto the stack
 944+ 8BC9 AF             XOR A                   ; A=0
 945+ 8BCA CD 5A 40       CALL #405A              ; CALL 405A
 946+ 8BCD D1             POP DE                  ; Pop last item from stack into DE
 947+ 8BCE AF             XOR A                   ; A=0
 948+ 8BCF CD 5A 40       CALL #405A              ; CALL 405A
 949+ 8BD2              L8531_76:
 950+ 8BD2 CD 9A 8C       CALL L8531_84           ; CALL L8531_84
 951+ 8BD5 2A 71 8F       LD HL,(#8F71)           ; L=PEEK #8F71; H=PEEK #8F72
 952+ 8BD8 5E             LD E,(HL)               ; E=PEEK HL
 953+ 8BD9 2C             INC L                   ; L=L+1
 954+ 8BDA 56             LD D,(HL)               ; D=PEEK HL
 955+ 8BDB 13             INC DE                  ; DE=DE+1
 956+ 8BDC 72             LD (HL),D               ; POKE HL,D
 957+ 8BDD 2D             DEC L                   ; L=L-1
 958+ 8BDE 73             LD (HL),E               ; POKE HL,E
 959+ 8BDF CD 98 6E       CALL L6011_212          ; CALL L6011_212
 960+ 8BE2 11 04 B0       LD DE,#B004             ; DE=#B004
 961+ 8BE5 AF             XOR A                   ; A=0
 962+ 8BE6 CD 5A 40       CALL #405A              ; CALL 405A
 963+ 8BE9 CD C5 8C       CALL L8531_89           ; CALL L8531_89
 964+ 8BEC 28 3A          JR Z,L8531_78           ; Jump to L8531_78 if the zero flag is set
 965+ 8BEE 21 04 B0       LD HL,#B004             ; HL=#B004
 966+ 8BF1 7E             LD A,(HL)               ; A=PEEK HL
 967+ 8BF2 E6 10          AND #10                 ; Keep only bit 4 of A
 968+ 8BF4 77             LD (HL),A               ; POKE HL,A
 969+ 8BF5 20 26          JR NZ,L8531_77          ; Jump to L8531_77 if the zero flag is not set
 970+ 8BF7 21 05 B0       LD HL,#B005             ; HL=#B005
 971+ 8BFA 11 A0 5E       LD DE,#5EA0             ; DE=#5EA0
 972+ 8BFD D5             PUSH DE                 ; Push DE onto the stack
 973+ 8BFE 01 40 00       LD BC,#0040             ; BC=#0040
 974+ 8C01 ED B0          LDIR                    ; POKE DE,PEEK HL; HL=HL+1; DE=DE+1; BC=BC-1; repeat
 975+ 8C03                                        ; until BC=0
 976+ 8C03 AF             XOR A                   ; A=0
 977+ 8C04 12             LD (DE),A               ; POKE DE,A
 978+ 8C05 E1             POP HL                  ; Pop last item from stack into HL
 979+ 8C06 3E 04          LD A,#04                ; A=#04
 980+ 8C08 CD DD 8A       CALL L8531_68           ; CALL L8531_68
 981+ 8C0B 06 FF          LD B,#FF                ; B=#FF
 982+ 8C0D C2 90 8C       JP NZ,L8531_83          ; Jump to L8531_83 if the zero flag is not set
 983+ 8C10 3A 04 60       LD A,(#6004)            ; A=PEEK #6004
 984+ 8C13 B7             OR A                    ; Clear the carry flag and set the zero flag if A=0
 985+ 8C14 C4 E0 8F       CALL NZ,L8531_132       ; CALL L8531_132 if A>0
 986+ 8C17 06 FE          LD B,#FE                ; B=#FE
 987+ 8C19 20 75          JR NZ,L8531_83          ; Jump to L8531_83 if the zero flag is not set
 988+ 8C1B 18 B5          JR L8531_76             ; Jump to L8531_76
 989+ 8C1D              L8531_77:
 990+ 8C1D 2A 71 8F       LD HL,(#8F71)           ; L=PEEK #8F71; H=PEEK #8F72
 991+ 8C20 23             INC HL                  ; HL=HL+1
 992+ 8C21 23             INC HL                  ; HL=HL+1
 993+ 8C22 22 71 8F       LD (#8F71),HL           ; POKE #8F71,L; POKE #8F72,H
 994+ 8C25 C3 8E 8B       JP L8531_75             ; Jump to L8531_75
 995+ 8C28              L8531_78:
 996+ 8C28 2A 71 8F       LD HL,(#8F71)           ; L=PEEK #8F71; H=PEEK #8F72
 997+ 8C2B 7D             LD A,L                  ; A=L
 998+ 8C2C B7             OR A                    ; Clear the carry flag and set the zero flag if A=0
 999+ 8C2D 20 05          JR NZ,L8531_79          ; Jump to L8531_79 if A>0
1000+ 8C2F 7C             LD A,H                  ; A=H
1001+ 8C30 FE C0          CP #C0                  ; Set the zero flag if A=#C0, or the carry flag if
1002+ 8C32                                        ; A<#C0
1003+ 8C32 28 4C          JR Z,L8531_81           ; Jump to L8531_81 if A=#C0
1004+ 8C34              L8531_79:
1005+ 8C34 2B             DEC HL                  ; HL=HL-1
1006+ 8C35 2B             DEC HL                  ; HL=HL-1
1007+ 8C36 22 71 8F       LD (#8F71),HL           ; POKE #8F71,L; POKE #8F72,H
1008+ 8C39 21 2D 85       LD HL,#852D             ; HL=#852D
1009+ 8C3C CD 2C 6F       CALL L6011_226          ; CALL L6011_226
1010+ 8C3F 06 04          LD B,#04                ; B=#04
1011+ 8C41 28 4D          JR Z,L8531_83           ; Jump to L8531_83 if the zero flag is set
1012+ 8C43 CD 58 6F       CALL L6011_229          ; CALL L6011_229
1013+ 8C46 CD 9F 8C       CALL L8531_85           ; CALL L8531_85
1014+ 8C49 21 2D 85       LD HL,#852D             ; HL=#852D
1015+ 8C4C CD 2C 6F       CALL L6011_226          ; CALL L6011_226
1016+ 8C4F 06 05          LD B,#05                ; B=#05
1017+ 8C51 CA 5F 8B       JP Z,L8531_71           ; Jump to L8531_71 if the zero flag is set
1018+ 8C54 CD 58 6F       CALL L6011_229          ; CALL L6011_229
1019+ 8C57 CD 9F 8C       CALL L8531_85           ; CALL L8531_85
1020+ 8C5A CD B1 8C       CALL L8531_88           ; CALL L8531_88
1021+ 8C5D CD 9A 8C       CALL L8531_84           ; CALL L8531_84
1022+ 8C60 2A 71 8F       LD HL,(#8F71)           ; L=PEEK #8F71; H=PEEK #8F72
1023+ 8C63 4E             LD C,(HL)               ; C=PEEK HL
1024+ 8C64 2C             INC L                   ; L=L+1
1025+ 8C65 46             LD B,(HL)               ; B=PEEK HL
1026+ 8C66              L8531_80:
1027+ 8C66 11 00 B4       LD DE,#B400             ; DE=#B400
1028+ 8C69 C5             PUSH BC                 ; Push BC onto the stack
1029+ 8C6A CD 98 6E       CALL L6011_212          ; CALL L6011_212
1030+ 8C6D AF             XOR A                   ; A=0
1031+ 8C6E CD 5A 40       CALL #405A              ; CALL 405A
1032+ 8C71 CD C5 8C       CALL L8531_89           ; CALL L8531_89
1033+ 8C74 C1             POP BC                  ; Pop last item from stack into BC
1034+ 8C75 28 17          JR Z,L8531_82           ; Jump to L8531_82 if the zero flag is set
1035+ 8C77 0B             DEC BC                  ; BC=BC-1
1036+ 8C78 78             LD A,B                  ; A=B
1037+ 8C79 B1             OR C                    ; A=A|C
1038+ 8C7A CA D2 8B       JP Z,L8531_76           ; Jump to L8531_76 if A=0
1039+ 8C7D C3 66 8C       JP L8531_80             ; Jump to L8531_80
1040+ 8C80              L8531_81:
1041+ 8C80 CD 26 6F       CALL L6011_225          ; CALL L6011_225
1042+ 8C83 CD 9F 8C       CALL L8531_85           ; CALL L8531_85
1043+ 8C86 CD AB 8C       CALL L8531_87           ; CALL L8531_87
1044+ 8C89 CD 9F 8C       CALL L8531_85           ; CALL L8531_85
1045+ 8C8C AF             XOR A                   ; A=0
1046+ 8C8D C9             RET                     ; Return
1047+ 8C8E              L8531_82:
1048+ 8C8E 06 06          LD B,#06                ; B=#06
1049+ 8C90              L8531_83:
1050+ 8C90 F5             PUSH AF                 ; Push AF onto the stack
1051+ 8C91 C5             PUSH BC                 ; Push BC onto the stack
1052+ 8C92 CD 80 8C       CALL L8531_81           ; CALL L8531_81
1053+ 8C95 C1             POP BC                  ; Pop last item from stack into BC
1054+ 8C96 F1             POP AF                  ; Pop last item from stack into AF
1055+ 8C97 C3 6C 8B       JP L8531_72             ; Jump to L8531_72
1056+ 8C9A              L8531_84:
1057+ 8C9A 3E 20          LD A,#20                ; A=#20
1058+ 8C9C C3 C1 68       JP L6011_114            ; Jump to L6011_114
1059+ 8C9F              L8531_85:
1060+ 8C9F CD 53 68       CALL L6011_102          ; CALL L6011_102
1061+ 8CA2 C3 68 68       JP L6011_104            ; Jump to L6011_104
1062+ 8CA5              L8531_86:
1063+ 8CA5 11 38 7F       LD DE,#7F38             ; DE=#7F38
1064+ 8CA8 C3 21 40       JP #4021                ; Jump to 4021
1065+ 8CAB              L8531_87:
1066+ 8CAB 21 38 7F       LD HL,#7F38             ; HL=#7F38
1067+ 8CAE C3 1E 40       JP #401E                ; Jump to 401E
1068+ 8CB1              L8531_88:
1069+ 8CB1 3A 00 60       LD A,(#6000)            ; A=PEEK #6000
1070+ 8CB4 32 18 60       LD (#6018),A            ; POKE #6018,A
1071+ 8CB7 21 00 30       LD HL,#3000             ; HL=#3000
1072+ 8CBA 54             LD D,H                  ; D=H
1073+ 8CBB 5D             LD E,L                  ; E=L
1074+ 8CBC 01 FF 07       LD BC,#07FF             ; BC=#07FF
1075+ 8CBF CD E7 6C       CALL L6011_179          ; CALL L6011_179
1076+ 8CC2 C3 83 6E       JP L6011_211            ; Jump to L6011_211
1077+ 8CC5              L8531_89:
1078+ 8CC5 3A 18 60       LD A,(#6018)            ; A=PEEK #6018
1079+ 8CC8 C3 9C 68       JP L6011_108            ; Jump to L6011_108
1080+ 8CCB              ; This entry point is used by the routine at L6011.
1081+ 8CCB              L8531_90:
1082+ 8CCB CD F2 7C       CALL L7828_69           ; CALL L7828_69
1083+ 8CCE DD E5          PUSH IX                 ; Push IX onto the stack
1084+ 8CD0 DD 21 F4 7F    LD IX,#7FF4             ; IX=#7FF4
1085+ 8CD4 CD 2C 79       CALL #792C              ; CALL 792C
1086+ 8CD7 21 05 81       LD HL,#8105             ; HL=#8105
1087+ 8CDA 11 00 00       LD DE,#0000             ; DE=#0000
1088+ 8CDD CD 81 7D       CALL L7828_80           ; CALL L7828_80
1089+ 8CE0 21 CD 81       LD HL,#81CD             ; HL=#81CD
1090+ 8CE3 11 01 01       LD DE,#0101             ; DE=#0101
1091+ 8CE6 CD 81 7D       CALL L7828_80           ; CALL L7828_80
1092+ 8CE9 11 06 01       LD DE,#0106             ; DE=#0106
1093+ 8CEC CD 45 7D       CALL L7828_75           ; CALL L7828_75
1094+ 8CEF 22 1A 8D       LD (#8D1A),HL           ; POKE #8D1A,L; POKE #8D1B,H
1095+ 8CF2 11 00 21       LD DE,#2100             ; DE=#2100
1096+ 8CF5 3E FF          LD A,#FF                ; A=#FF
1097+ 8CF7 CD 76 71       CALL L7143_0            ; CALL L7143_0
1098+ 8CFA 21 00 01       LD HL,#0100             ; HL=#0100
1099+ 8CFD 3E FE          LD A,#FE                ; A=#FE
1100+ 8CFF CD 76 71       CALL L7143_0            ; CALL L7143_0
1101+ 8D02              L8531_91:
1102+ 8D02 FB             EI                      ; Enable interrupts
1103+ 8D03 76             HALT                    ; Wait for the next interrupt
1104+ 8D04 CD 9A 74       CALL L7143_62           ; CALL L7143_62
1105+ 8D07 20 3E          JR NZ,L8531_95          ; Jump to L8531_95 if the zero flag is not set
1106+ 8D09 CD 77 74       CALL L7143_55           ; CALL L7143_55
1107+ 8D0C 20 0B          JR NZ,L8531_92          ; Jump to L8531_92 if the zero flag is not set
1108+ 8D0E AF             XOR A                   ; A=0
1109+ 8D0F CD 76 71       CALL L7143_0            ; CALL L7143_0
1110+ 8D12 3E 03          LD A,#03                ; A=#03
1111+ 8D14 CD 76 71       CALL L7143_0            ; CALL L7143_0
1112+ 8D17 18 E9          JR L8531_91             ; Jump to L8531_91
1113+ 8D19              L8531_92:
1114+ 8D19 21 00 00       LD HL,#0000             ; HL=#0000
1115+ 8D1C 11 00 B0       LD DE,#B000             ; DE=#B000
1116+ 8D1F 01 21 00       LD BC,#0021             ; BC=#0021
1117+ 8D22 ED B0          LDIR                    ; POKE DE,PEEK HL; HL=HL+1; DE=DE+1; BC=BC-1; repeat
1118+ 8D24                                        ; until BC=0
1119+ 8D24 AF             XOR A                   ; A=0
1120+ 8D25 12             LD (DE),A               ; POKE DE,A
1121+ 8D26 21 00 B0       LD HL,#B000             ; HL=#B000
1122+ 8D29 CD 7B 6F       CALL L6011_231          ; CALL L6011_231
1123+ 8D2C 28 06          JR Z,L8531_93           ; Jump to L8531_93 if the zero flag is set
1124+ 8D2E 21 70 82       LD HL,#8270             ; HL=#8270
1125+ 8D31 CD DE 90       CALL L8531_149          ; CALL L8531_149
1126+ 8D34              L8531_93:
1127+ 8D34 CD CE 7A       CALL L7828_38           ; CALL L7828_38
1128+ 8D37 DD E1          POP IX                  ; Pop last item from stack into IX
1129+ 8D39              ; This entry point is used by the routine at L9149.
1130+ 8D39              L8531_94:
1131+ 8D39 11 28 7F       LD DE,#7F28             ; DE=#7F28
1132+ 8D3C CD 21 40       CALL #4021              ; CALL 4021
1133+ 8D3F CD EB 62       CALL L6011_32           ; CALL L6011_32
1134+ 8D42 CD F0 63       CALL L6011_47           ; CALL L6011_47
1135+ 8D45 AF             XOR A                   ; A=0
1136+ 8D46 C9             RET                     ; Return
1137+ 8D47              L8531_95:
1138+ 8D47 CD CE 7A       CALL L7828_38           ; CALL L7828_38
1139+ 8D4A DD E1          POP IX                  ; Pop last item from stack into IX
1140+ 8D4C C9             RET                     ; Return
1141+ 8D4D              ; This entry point is used by the routine at L6011.
1142+ 8D4D              L8531_96:
1143+ 8D4D CD FE 62       CALL L6011_33           ; CALL L6011_33
1144+ 8D50 7C             LD A,H                  ; A=H
1145+ 8D51 B5             OR L                    ; A=A|L
1146+ 8D52 C8             RET Z                   ; Return if A=0
1147+ 8D53 13             INC DE                  ; DE=DE+1
1148+ 8D54 1A             LD A,(DE)               ; A=PEEK DE
1149+ 8D55 FE 2E          CP #2E                  ; Set the zero flag if A=#2E, or the carry flag if
1150+ 8D57                                        ; A<#2E
1151+ 8D57 20 0C          JR NZ,L8531_98          ; Jump to L8531_98 if A<>#2E
1152+ 8D59 13             INC DE                  ; DE=DE+1
1153+ 8D5A 1A             LD A,(DE)               ; A=PEEK DE
1154+ 8D5B FE 2E          CP #2E                  ; Set the zero flag if A=#2E, or the carry flag if
1155+ 8D5D                                        ; A<#2E
1156+ 8D5D 20 05          JR NZ,L8531_97          ; Jump to L8531_97 if A<>#2E
1157+ 8D5F 13             INC DE                  ; DE=DE+1
1158+ 8D60 1A             LD A,(DE)               ; A=PEEK DE
1159+ 8D61 B7             OR A                    ; Clear the carry flag and set the zero flag if A=0
1160+ 8D62 C8             RET Z                   ; Return if A=0
1161+ 8D63 1B             DEC DE                  ; DE=DE-1
1162+ 8D64              L8531_97:
1163+ 8D64 1B             DEC DE                  ; DE=DE-1
1164+ 8D65              L8531_98:
1165+ 8D65 1B             DEC DE                  ; DE=DE-1
1166+ 8D66 CD 7B 8A       CALL L8531_60           ; CALL L8531_60
1167+ 8D69 CD F2 7C       CALL L7828_69           ; CALL L7828_69
1168+ 8D6C CD 7F 8D       CALL L8531_99           ; CALL L8531_99
1169+ 8D6F C8             RET Z                   ; Return if the zero flag is set
1170+ 8D70 21 04 B0       LD HL,#B004             ; HL=#B004
1171+ 8D73 11 00 B2       LD DE,#B200             ; DE=#B200
1172+ 8D76 CD 42 40       CALL #4042              ; CALL 4042
1173+ 8D79 CC B3 8A       CALL Z,L8531_62         ; CALL L8531_62 if the zero flag is set
1174+ 8D7C C3 39 8D       JP L8531_94             ; Jump to L8531_94
1175+ 8D7F              L8531_99:
1176+ 8D7F DD E5          PUSH IX                 ; Push IX onto the stack
1177+ 8D81 D5             PUSH DE                 ; Push DE onto the stack
1178+ 8D82 21 F4 7F       LD HL,#7FF4             ; HL=#7FF4
1179+ 8D85 11 80 5E       LD DE,#5E80             ; DE=#5E80
1180+ 8D88 01 0C 00       LD BC,#000C             ; BC=#000C
1181+ 8D8B ED B0          LDIR                    ; POKE DE,PEEK HL; HL=HL+1; DE=DE+1; BC=BC-1; repeat
1182+ 8D8D                                        ; until BC=0
1183+ 8D8D DD 5E 02       LD E,(IX+#02)           ; E=PEEK (IX+#02)
1184+ 8D90 DD 56 03       LD D,(IX+#03)           ; D=PEEK (IX+#03)
1185+ 8D93 DD 7E 0C       LD A,(IX+#0C)           ; A=PEEK (IX+#0C)
1186+ 8D96 3D             DEC A                   ; A=A-1
1187+ 8D97 DD 21 80 5E    LD IX,#5E80             ; IX=#5E80
1188+ 8D9B DD 36 01 00    LD (IX+#01),#00         ; POKE (IX+#01),0
1189+ 8D9F DD 73 02       LD (IX+#02),E           ; POKE (IX+#02),E
1190+ 8DA2 82             ADD A,D                 ; A=A+D
1191+ 8DA3 DD 77 03       LD (IX+#03),A           ; POKE (IX+#03),A
1192+ 8DA6 CD 2C 79       CALL #792C              ; CALL 792C
1193+ 8DA9 21 16 81       LD HL,#8116             ; HL=#8116
1194+ 8DAC 11 00 00       LD DE,#0000             ; DE=#0000
1195+ 8DAF CD 81 7D       CALL L7828_80           ; CALL L7828_80
1196+ 8DB2 CD F3 8D       CALL L8531_102          ; CALL L8531_102
1197+ 8DB5 3E FF          LD A,#FF                ; A=#FF
1198+ 8DB7 91             SUB C                   ; A=A-C
1199+ 8DB8 FE 27          CP #27                  ; Set the zero flag if A=#27, or the carry flag if
1200+ 8DBA                                        ; A<#27
1201+ 8DBA 38 01          JR C,L8531_100          ; Jump to L8531_100 if A<#27
1202+ 8DBC AF             XOR A                   ; A=0
1203+ 8DBD              L8531_100:
1204+ 8DBD 21 FF 00       LD HL,#00FF             ; HL=#00FF
1205+ 8DC0 D9             EXX                     ; Exchange BC, DE and HL with BC', DE' and HL'
1206+ 8DC1 21 00 B2       LD HL,#B200             ; HL=#B200
1207+ 8DC4 11 01 01       LD DE,#0101             ; DE=#0101
1208+ 8DC7 06 26          LD B,#26                ; B=#26
1209+ 8DC9 4F             LD C,A                  ; C=A
1210+ 8DCA 3E FD          LD A,#FD                ; A=#FD
1211+ 8DCC CD 76 71       CALL L7143_0            ; CALL L7143_0
1212+ 8DCF 21 00 01       LD HL,#0100             ; HL=#0100
1213+ 8DD2 3E FE          LD A,#FE                ; A=#FE
1214+ 8DD4 CD 76 71       CALL L7143_0            ; CALL L7143_0
1215+ 8DD7              L8531_101:
1216+ 8DD7 FB             EI                      ; Enable interrupts
1217+ 8DD8 76             HALT                    ; Wait for the next interrupt
1218+ 8DD9 CD 9A 74       CALL L7143_62           ; CALL L7143_62
1219+ 8DDC 20 55          JR NZ,L8531_110         ; Jump to L8531_110 if the zero flag is not set
1220+ 8DDE CD 77 74       CALL L7143_55           ; CALL L7143_55
1221+ 8DE1 20 31          JR NZ,L8531_107         ; Jump to L8531_107 if the zero flag is not set
1222+ 8DE3 AF             XOR A                   ; A=0
1223+ 8DE4 CD 76 71       CALL L7143_0            ; CALL L7143_0
1224+ 8DE7 3E 02          LD A,#02                ; A=#02
1225+ 8DE9 CD 76 71       CALL L7143_0            ; CALL L7143_0
1226+ 8DEC 3E 03          LD A,#03                ; A=#03
1227+ 8DEE CD 76 71       CALL L7143_0            ; CALL L7143_0
1228+ 8DF1 18 E4          JR L8531_101            ; Jump to L8531_101
1229+ 8DF3              L8531_102:
1230+ 8DF3 21 05 B0       LD HL,#B005             ; HL=#B005
1231+ 8DF6 11 00 B2       LD DE,#B200             ; DE=#B200
1232+ 8DF9 AF             XOR A                   ; A=0
1233+ 8DFA 01 FF FF       LD BC,#FFFF             ; BC=#FFFF
1234+ 8DFD              L8531_103:
1235+ 8DFD ED A0          LDI                     ; POKE DE,PEEK HL; HL=HL+1; DE=DE+1; BC=BC-1
1236+ 8DFF BE             CP (HL)                 ; Set the zero flag if A=PEEK HL, or the carry flag
1237+ 8E00                                        ; if A<PEEK HL
1238+ 8E00 28 08          JR Z,L8531_105          ; Jump to L8531_105 if A=PEEK HL
1239+ 8E02 10 F9          DJNZ L8531_103          ; Decrement B and jump to L8531_103 if B>0
1240+ 8E04              L8531_104:
1241+ 8E04 EB             EX DE,HL                ; Exchange DE and HL
1242+ 8E05 3E 20          LD A,#20                ; A=#20
1243+ 8E07 C3 9A 69       JP L6011_130            ; Jump to L6011_130
1244+ 8E0A              L8531_105:
1245+ 8E0A 1B             DEC DE                  ; DE=DE-1
1246+ 8E0B 1A             LD A,(DE)               ; A=PEEK DE
1247+ 8E0C FE 20          CP #20                  ; Set the zero flag if A=#20, or the carry flag if
1248+ 8E0E                                        ; A<#20
1249+ 8E0E 20 01          JR NZ,L8531_106         ; Jump to L8531_106 if A<>#20
1250+ 8E10 0C             INC C                   ; C=C+1
1251+ 8E11              L8531_106:
1252+ 8E11 13             INC DE                  ; DE=DE+1
1253+ 8E12 18 F0          JR L8531_104            ; Jump to L8531_104
1254+ 8E14              L8531_107:
1255+ 8E14 3E 01          LD A,#01                ; A=#01
1256+ 8E16 CD 76 71       CALL L7143_0            ; CALL L7143_0
1257+ 8E19 11 FF B2       LD DE,#B2FF             ; DE=#B2FF
1258+ 8E1C 06 FF          LD B,#FF                ; B=#FF
1259+ 8E1E              L8531_108:
1260+ 8E1E 1B             DEC DE                  ; DE=DE-1
1261+ 8E1F 1A             LD A,(DE)               ; A=PEEK DE
1262+ 8E20 FE 20          CP #20                  ; Set the zero flag if A=#20, or the carry flag if
1263+ 8E22                                        ; A<#20
1264+ 8E22 20 02          JR NZ,L8531_109         ; Jump to L8531_109 if A<>#20
1265+ 8E24 10 F8          DJNZ L8531_108          ; Decrement B and jump to L8531_108 if B>0
1266+ 8E26              L8531_109:
1267+ 8E26 13             INC DE                  ; DE=DE+1
1268+ 8E27 AF             XOR A                   ; A=0
1269+ 8E28 12             LD (DE),A               ; POKE DE,A
1270+ 8E29 CD CE 7A       CALL L7828_38           ; CALL L7828_38
1271+ 8E2C D1             POP DE                  ; Pop last item from stack into DE
1272+ 8E2D DD E1          POP IX                  ; Pop last item from stack into IX
1273+ 8E2F 3E 01          LD A,#01                ; A=#01
1274+ 8E31 B7             OR A                    ; Clear the carry flag and set the zero flag if A=0
1275+ 8E32 C9             RET                     ; Return
1276+ 8E33              L8531_110:
1277+ 8E33 3E 01          LD A,#01                ; A=#01
1278+ 8E35 CD 76 71       CALL L7143_0            ; CALL L7143_0
1279+ 8E38 CD CE 7A       CALL L7828_38           ; CALL L7828_38
1280+ 8E3B D1             POP DE                  ; Pop last item from stack into DE
1281+ 8E3C DD E1          POP IX                  ; Pop last item from stack into IX
1282+ 8E3E AF             XOR A                   ; A=0
1283+ 8E3F C9             RET                     ; Return
1284+ 8E40              ; This entry point is used by the routine at L6011.
1285+ 8E40              L8531_111:
1286+ 8E40 CD F2 7C       CALL L7828_69           ; CALL L7828_69
1287+ 8E43 CD FE 85       CALL L8531_10           ; CALL L8531_10
1288+ 8E46 CC E2 85       CALL Z,L8531_9          ; CALL L8531_9 if the zero flag is set
1289+ 8E49 C8             RET Z                   ; Return if the zero flag is set
1290+ 8E4A CD 92 8E       CALL L8531_114          ; CALL L8531_114
1291+ 8E4D C8             RET Z                   ; Return if the zero flag is set
1292+ 8E4E 11 28 7F       LD DE,#7F28             ; DE=#7F28
1293+ 8E51 CD 21 40       CALL #4021              ; CALL 4021
1294+ 8E54 CD EB 62       CALL L6011_32           ; CALL L6011_32
1295+ 8E57 CD F0 63       CALL L6011_47           ; CALL L6011_47
1296+ 8E5A C9             RET                     ; Return
1297+ 8E5B              L8531_112:
1298+ 8E5B CD 20 6F       CALL L6011_224          ; CALL L6011_224
1299+ 8E5E 21 04 B0       LD HL,#B004             ; HL=#B004
1300+ 8E61 CD 2C 6F       CALL L6011_226          ; CALL L6011_226
1301+ 8E64 CA 0D 8F       JP Z,L8531_120          ; Jump to L8531_120 if the zero flag is set
1302+ 8E67 CD 58 6F       CALL L6011_229          ; CALL L6011_229
1303+ 8E6A 11 00 B4       LD DE,#B400             ; DE=#B400
1304+ 8E6D CD 57 40       CALL #4057              ; CALL 4057
1305+ 8E70 28 15          JR Z,L8531_113          ; Jump to L8531_113 if the zero flag is set
1306+ 8E72 CD 57 40       CALL #4057              ; CALL 4057
1307+ 8E75 28 10          JR Z,L8531_113          ; Jump to L8531_113 if the zero flag is set
1308+ 8E77 CD 57 40       CALL #4057              ; CALL 4057
1309+ 8E7A 20 0B          JR NZ,L8531_113         ; Jump to L8531_113 if the zero flag is not set
1310+ 8E7C CD 26 6F       CALL L6011_225          ; CALL L6011_225
1311+ 8E7F 21 04 B0       LD HL,#B004             ; HL=#B004
1312+ 8E82 CD 81 6F       CALL L6011_232          ; CALL L6011_232
1313+ 8E85 AF             XOR A                   ; A=0
1314+ 8E86 C9             RET                     ; Return
1315+ 8E87              L8531_113:
1316+ 8E87 21 94 82       LD HL,#8294             ; HL=#8294
1317+ 8E8A CD DE 90       CALL L8531_149          ; CALL L8531_149
1318+ 8E8D CD 26 6F       CALL L6011_225          ; CALL L6011_225
1319+ 8E90 AF             XOR A                   ; A=0
1320+ 8E91 C9             RET                     ; Return
1321+ 8E92              L8531_114:
1322+ 8E92 DD E5          PUSH IX                 ; Push IX onto the stack
1323+ 8E94 CD 4B 74       CALL L7143_48           ; CALL L7143_48
1324+ 8E97 DD 21 00 80    LD IX,L7EA0_0           ; IX=#8000
1325+ 8E9B CD 2C 79       CALL #792C              ; CALL 792C
1326+ 8E9E 21 3F 81       LD HL,#813F             ; HL=#813F
1327+ 8EA1 11 00 00       LD DE,#0000             ; DE=#0000
1328+ 8EA4 CD 81 7D       CALL L7828_80           ; CALL L7828_80
1329+ 8EA7 2A 44 7F       LD HL,(#7F44)           ; L=PEEK #7F44; H=PEEK #7F45
1330+ 8EAA 11 50 81       LD DE,#8150             ; DE=#8150
1331+ 8EAD CD 1B 87       CALL L8531_21           ; CALL L8531_21
1332+ 8EB0 21 48 81       LD HL,#8148             ; HL=#8148
1333+ 8EB3 11 00 02       LD DE,#0200             ; DE=#0200
1334+ 8EB6 CD 81 7D       CALL L7828_80           ; CALL L7828_80
1335+ 8EB9 3E 01          LD A,#01                ; A=#01
1336+ 8EBB CD 73 66       CALL L6011_87           ; CALL L6011_87
1337+ 8EBE              L8531_115:
1338+ 8EBE FB             EI                      ; Enable interrupts
1339+ 8EBF 76             HALT                    ; Wait for the next interrupt
1340+ 8EC0 AF             XOR A                   ; A=0
1341+ 8EC1 CD 73 66       CALL L6011_87           ; CALL L6011_87
1342+ 8EC4 CD 77 74       CALL L7143_55           ; CALL L7143_55
1343+ 8EC7 20 0C          JR NZ,L8531_117         ; Jump to L8531_117 if the zero flag is not set
1344+ 8EC9 CD 9A 74       CALL L7143_62           ; CALL L7143_62
1345+ 8ECC 28 F0          JR Z,L8531_115          ; Jump to L8531_115 if the zero flag is set
1346+ 8ECE              L8531_116:
1347+ 8ECE CD CE 7A       CALL L7828_38           ; CALL L7828_38
1348+ 8ED1 DD E1          POP IX                  ; Pop last item from stack into IX
1349+ 8ED3 AF             XOR A                   ; A=0
1350+ 8ED4 C9             RET                     ; Return
1351+ 8ED5              L8531_117:
1352+ 8ED5 3E FF          LD A,#FF                ; A=#FF
1353+ 8ED7 CD 73 66       CALL L6011_87           ; CALL L6011_87
1354+ 8EDA 20 F2          JR NZ,L8531_116         ; Jump to L8531_116 if the zero flag is not set
1355+ 8EDC 21 61 81       LD HL,#8161             ; HL=#8161
1356+ 8EDF 11 00 04       LD DE,#0400             ; DE=#0400
1357+ 8EE2 CD 81 7D       CALL L7828_80           ; CALL L7828_80
1358+ 8EE5 DD E1          POP IX                  ; Pop last item from stack into IX
1359+ 8EE7 21 00 00       LD HL,#0000             ; HL=#0000
1360+ 8EEA              L8531_118:
1361+ 8EEA E5             PUSH HL                 ; Push HL onto the stack
1362+ 8EEB CD 0B 63       CALL L6011_34           ; CALL L6011_34
1363+ 8EEE 08             EX AF,AF'               ; Exchange AF and AF'
1364+ 8EEF 7C             LD A,H                  ; A=H
1365+ 8EF0 B5             OR L                    ; A=A|L
1366+ 8EF1 28 0E          JR Z,L8531_119          ; Jump to L8531_119 if A=0
1367+ 8EF3 08             EX AF,AF'               ; Exchange AF and AF'
1368+ 8EF4 CB 46          BIT 0,(HL)              ; Set the zero flag if bit 0 of (HL) is 0
1369+ 8EF6 36 00          LD (HL),#00             ; POKE HL,#00
1370+ 8EF8 C4 10 8F       CALL NZ,L8531_121       ; CALL L8531_121 if the zero flag is not set
1371+ 8EFB 20 04          JR NZ,L8531_119         ; Jump to L8531_119 if the zero flag is not set
1372+ 8EFD E1             POP HL                  ; Pop last item from stack into HL
1373+ 8EFE 23             INC HL                  ; HL=HL+1
1374+ 8EFF 18 E9          JR L8531_118            ; Jump to L8531_118
1375+ 8F01              L8531_119:
1376+ 8F01 E1             POP HL                  ; Pop last item from stack into HL
1377+ 8F02 DD E5          PUSH IX                 ; Push IX onto the stack
1378+ 8F04 DD 21 00 80    LD IX,L7EA0_0           ; IX=#8000
1379+ 8F08 CD CE 7A       CALL L7828_38           ; CALL L7828_38
1380+ 8F0B DD E1          POP IX                  ; Pop last item from stack into IX
1381+ 8F0D              L8531_120:
1382+ 8F0D AF             XOR A                   ; A=0
1383+ 8F0E 3C             INC A                   ; A=A+1
1384+ 8F0F C9             RET                     ; Return
1385+ 8F10              L8531_121:
1386+ 8F10 B7             OR A                    ; Clear the carry flag and set the zero flag if A=0
1387+ 8F11 28 12          JR Z,L8531_122          ; Jump to L8531_122 if A=0
1388+ 8F13 CD 14 8A       CALL L8531_57           ; CALL L8531_57
1389+ 8F16 C4 E0 8F       CALL NZ,L8531_132       ; CALL L8531_132 if the zero flag is not set
1390+ 8F19 20 F2          JR NZ,L8531_120         ; Jump to L8531_120 if the zero flag is not set
1391+ 8F1B 21 04 B0       LD HL,#B004             ; HL=#B004
1392+ 8F1E CD 3F 40       CALL #403F              ; CALL 403F
1393+ 8F21 28 EA          JR Z,L8531_120          ; Jump to L8531_120 if the zero flag is set
1394+ 8F23 AF             XOR A                   ; A=0
1395+ 8F24 C9             RET                     ; Return
1396+ 8F25              L8531_122:
1397+ 8F25 CD 14 8A       CALL L8531_57           ; CALL L8531_57
1398+ 8F28 CD 20 6F       CALL L6011_224          ; CALL L6011_224
1399+ 8F2B 21 00 C0       LD HL,LC000             ; HL=#C000
1400+ 8F2E 22 71 8F       LD (#8F71),HL           ; POKE #8F71,L; POKE #8F72,H
1401+ 8F31 21 04 B0       LD HL,#B004             ; HL=#B004
1402+ 8F34              L8531_123:
1403+ 8F34 CD 2C 6F       CALL L6011_226          ; CALL L6011_226
1404+ 8F37 06 01          LD B,#01                ; B=#01
1405+ 8F39 CA D8 8F       JP Z,L8531_131          ; Jump to L8531_131 if the zero flag is set
1406+ 8F3C CD 58 6F       CALL L6011_229          ; CALL L6011_229
1407+ 8F3F CD B1 8C       CALL L8531_88           ; CALL L8531_88
1408+ 8F42              L8531_124:
1409+ 8F42 CD 98 6E       CALL L6011_212          ; CALL L6011_212
1410+ 8F45 11 00 B4       LD DE,#B400             ; DE=#B400
1411+ 8F48 3E 01          LD A,#01                ; A=#01
1412+ 8F4A CD 5A 40       CALL #405A              ; CALL 405A
1413+ 8F4D CD C5 8C       CALL L8531_89           ; CALL L8531_89
1414+ 8F50 28 1B          JR Z,L8531_125          ; Jump to L8531_125 if the zero flag is set
1415+ 8F52 21 00 B4       LD HL,#B400             ; HL=#B400
1416+ 8F55 7E             LD A,(HL)               ; A=PEEK HL
1417+ 8F56 E6 10          AND #10                 ; Keep only bit 4 of A
1418+ 8F58 77             LD (HL),A               ; POKE HL,A
1419+ 8F59 CD 3F 40       CALL #403F              ; CALL 403F
1420+ 8F5C 06 08          LD B,#08                ; B=#08
1421+ 8F5E 28 78          JR Z,L8531_131          ; Jump to L8531_131 if the zero flag is set
1422+ 8F60 3A 04 60       LD A,(#6004)            ; A=PEEK #6004
1423+ 8F63 B7             OR A                    ; Clear the carry flag and set the zero flag if A=0
1424+ 8F64 C4 E0 8F       CALL NZ,L8531_132       ; CALL L8531_132 if A>0
1425+ 8F67 06 FE          LD B,#FE                ; B=#FE
1426+ 8F69 20 6D          JR NZ,L8531_131         ; Jump to L8531_131 if the zero flag is not set
1427+ 8F6B 18 D5          JR L8531_124            ; Jump to L8531_124
1428+ 8F6D              L8531_125:
1429+ 8F6D CD 9A 8C       CALL L8531_84           ; CALL L8531_84
1430+ 8F70              L8531_126:
1431+ 8F70 11 00 00       LD DE,#0000             ; DE=#0000
1432+ 8F73 3E 02          LD A,#02                ; A=#02
1433+ 8F75 D5             PUSH DE                 ; Push DE onto the stack
1434+ 8F76 CD 5A 40       CALL #405A              ; CALL 405A
1435+ 8F79 D1             POP DE                  ; Pop last item from stack into DE
1436+ 8F7A 3E 02          LD A,#02                ; A=#02
1437+ 8F7C D5             PUSH DE                 ; Push DE onto the stack
1438+ 8F7D CD 5A 40       CALL #405A              ; CALL 405A
1439+ 8F80 D1             POP DE                  ; Pop last item from stack into DE
1440+ 8F81 3E 02          LD A,#02                ; A=#02
1441+ 8F83 D5             PUSH DE                 ; Push DE onto the stack
1442+ 8F84 CD 5A 40       CALL #405A              ; CALL 405A
1443+ 8F87 E1             POP HL                  ; Pop last item from stack into HL
1444+ 8F88 28 1A          JR Z,L8531_127          ; Jump to L8531_127 if the zero flag is set
1445+ 8F8A EB             EX DE,HL                ; Exchange DE and HL
1446+ 8F8B E5             PUSH HL                 ; Push HL onto the stack
1447+ 8F8C B7             OR A                    ; Clear the carry flag and set the zero flag if A=0
1448+ 8F8D ED 52          SBC HL,DE               ; HL=HL-carry-DE
1449+ 8F8F C1             POP BC                  ; Pop last item from stack into BC
1450+ 8F90 38 44          JR C,L8531_130          ; Jump to L8531_130 if the carry flag is set
1451+ 8F92 7C             LD A,H                  ; A=H
1452+ 8F93 B7             OR A                    ; Clear the carry flag and set the zero flag if A=0
1453+ 8F94 20 40          JR NZ,L8531_130         ; Jump to L8531_130 if A>0
1454+ 8F96 7D             LD A,L                  ; A=L
1455+ 8F97 02             LD (BC),A               ; POKE BC,A
1456+ 8F98 03             INC BC                  ; BC=BC+1
1457+ 8F99 ED 43 71 8F    LD (#8F71),BC           ; POKE #8F71,C; POKE #8F72,B
1458+ 8F9D EB             EX DE,HL                ; Exchange DE and HL
1459+ 8F9E 7E             LD A,(HL)               ; A=PEEK HL
1460+ 8F9F E6 10          AND #10                 ; Keep only bit 4 of A
1461+ 8FA1 77             LD (HL),A               ; POKE HL,A
1462+ 8FA2 18 90          JR L8531_123            ; Jump to L8531_123
1463+ 8FA4              L8531_127:
1464+ 8FA4 21 2D 85       LD HL,#852D             ; HL=#852D
1465+ 8FA7 CD 2C 6F       CALL L6011_226          ; CALL L6011_226
1466+ 8FAA 06 04          LD B,#04                ; B=#04
1467+ 8FAC 28 2A          JR Z,L8531_131          ; Jump to L8531_131 if the zero flag is set
1468+ 8FAE CD 58 6F       CALL L6011_229          ; CALL L6011_229
1469+ 8FB1 2A 71 8F       LD HL,(#8F71)           ; L=PEEK #8F71; H=PEEK #8F72
1470+ 8FB4 7D             LD A,L                  ; A=L
1471+ 8FB5 B7             OR A                    ; Clear the carry flag and set the zero flag if A=0
1472+ 8FB6 20 05          JR NZ,L8531_128         ; Jump to L8531_128 if A>0
1473+ 8FB8 7C             LD A,H                  ; A=H
1474+ 8FB9 FE C0          CP #C0                  ; Set the zero flag if A=#C0, or the carry flag if
1475+ 8FBB                                        ; A<#C0
1476+ 8FBB 28 13          JR Z,L8531_129          ; Jump to L8531_129 if A=#C0
1477+ 8FBD              L8531_128:
1478+ 8FBD 2B             DEC HL                  ; HL=HL-1
1479+ 8FBE 4E             LD C,(HL)               ; C=PEEK HL
1480+ 8FBF 06 00          LD B,#00                ; B=#00
1481+ 8FC1 B7             OR A                    ; Clear the carry flag and set the zero flag if A=0
1482+ 8FC2 ED 42          SBC HL,BC               ; HL=HL-carry-BC
1483+ 8FC4 22 71 8F       LD (#8F71),HL           ; POKE #8F71,L; POKE #8F72,H
1484+ 8FC7 CD 81 6F       CALL L6011_232          ; CALL L6011_232
1485+ 8FCA 06 03          LD B,#03                ; B=#03
1486+ 8FCC 28 0A          JR Z,L8531_131          ; Jump to L8531_131 if the zero flag is set
1487+ 8FCE 18 A0          JR L8531_126            ; Jump to L8531_126
1488+ 8FD0              L8531_129:
1489+ 8FD0 CD 26 6F       CALL L6011_225          ; CALL L6011_225
1490+ 8FD3 C3 5B 8E       JP L8531_112            ; Jump to L8531_112
1491+ 8FD6              L8531_130:
1492+ 8FD6 06 07          LD B,#07                ; B=#07
1493+ 8FD8              L8531_131:
1494+ 8FD8 C5             PUSH BC                 ; Push BC onto the stack
1495+ 8FD9 CD 26 6F       CALL L6011_225          ; CALL L6011_225
1496+ 8FDC C1             POP BC                  ; Pop last item from stack into BC
1497+ 8FDD C3 6C 8B       JP L8531_72             ; Jump to L8531_72
1498+ 8FE0              L8531_132:
1499+ 8FE0 DD E5          PUSH IX                 ; Push IX onto the stack
1500+ 8FE2 DD 21 0C 80    LD IX,#800C             ; IX=#800C
1501+ 8FE6 CD 2C 79       CALL #792C              ; CALL 792C
1502+ 8FE9 21 7C 81       LD HL,#817C             ; HL=#817C
1503+ 8FEC 11 00 00       LD DE,#0000             ; DE=#0000
1504+ 8FEF CD 81 7D       CALL L7828_80           ; CALL L7828_80
1505+ 8FF2 21 87 81       LD HL,#8187             ; HL=#8187
1506+ 8FF5 11 00 02       LD DE,#0200             ; DE=#0200
1507+ 8FF8 CD 81 7D       CALL L7828_80           ; CALL L7828_80
1508+ 8FFB CD 4B 74       CALL L7143_48           ; CALL L7143_48
1509+ 8FFE              L8531_133:
1510+ 8FFE 3E 01          LD A,#01                ; A=#01
1511+ 9000 CD 73 66       CALL L6011_87           ; CALL L6011_87
1512+ 9003              L8531_134:
1513+ 9003 FB             EI                      ; Enable interrupts
1514+ 9004 76             HALT                    ; Wait for the next interrupt
1515+ 9005 AF             XOR A                   ; A=0
1516+ 9006 CD 73 66       CALL L6011_87           ; CALL L6011_87
1517+ 9009 CD 9A 74       CALL L7143_62           ; CALL L7143_62
1518+ 900C 20 19          JR NZ,L8531_137         ; Jump to L8531_137 if the zero flag is not set
1519+ 900E CD 77 74       CALL L7143_55           ; CALL L7143_55
1520+ 9011 28 F0          JR Z,L8531_134          ; Jump to L8531_134 if the zero flag is set
1521+ 9013 CD CE 7A       CALL L7828_38           ; CALL L7828_38
1522+ 9016 3E FF          LD A,#FF                ; A=#FF
1523+ 9018 CD 73 66       CALL L6011_87           ; CALL L6011_87
1524+ 901B 3E 01          LD A,#01                ; A=#01
1525+ 901D 28 01          JR Z,L8531_136          ; Jump to L8531_136 if the zero flag is set
1526+ 901F              L8531_135:
1527+ 901F AF             XOR A                   ; A=0
1528+ 9020              L8531_136:
1529+ 9020 DD E1          POP IX                  ; Pop last item from stack into IX
1530+ 9022 32 04 60       LD (#6004),A            ; POKE #6004,A
1531+ 9025 B7             OR A                    ; Clear the carry flag and set the zero flag if A=0
1532+ 9026 C9             RET                     ; Return
1533+ 9027              L8531_137:
1534+ 9027 CD 4B 74       CALL L7143_48           ; CALL L7143_48
1535+ 902A CD CE 7A       CALL L7828_38           ; CALL L7828_38
1536+ 902D 18 F0          JR L8531_135            ; Jump to L8531_135
1537+ 902F              ; This entry point is used by the routine at L9149.
1538+ 902F              L8531_138:
1539+ 902F DD E5          PUSH IX                 ; Push IX onto the stack
1540+ 9031 E5             PUSH HL                 ; Push HL onto the stack
1541+ 9032 D5             PUSH DE                 ; Push DE onto the stack
1542+ 9033 C5             PUSH BC                 ; Push BC onto the stack
1543+ 9034 DD 21 0C 80    LD IX,#800C             ; IX=#800C
1544+ 9038 CD 2C 79       CALL #792C              ; CALL 792C
1545+ 903B C1             POP BC                  ; Pop last item from stack into BC
1546+ 903C D1             POP DE                  ; Pop last item from stack into DE
1547+ 903D E1             POP HL                  ; Pop last item from stack into HL
1548+ 903E CD 81 7D       CALL L7828_80           ; CALL L7828_80
1549+ 9041 18 BB          JR L8531_133            ; Jump to L8531_133
1550+ 9043              L8531_139:
1551+ 9043 DD E5          PUSH IX                 ; Push IX onto the stack
1552+ 9045 3A 03 60       LD A,(#6003)            ; A=PEEK #6003
1553+ 9048 F5             PUSH AF                 ; Push AF onto the stack
1554+ 9049 DD 21 E2 7F    LD IX,#7FE2             ; IX=#7FE2
1555+ 904D CD 2C 79       CALL #792C              ; CALL 792C
1556+ 9050 2A 87 7F       LD HL,(#7F87)           ; L=PEEK #7F87; H=PEEK #7F88
1557+ 9053 ED 5B 89 7F    LD DE,(#7F89)           ; E=PEEK #7F89; D=PEEK #7F8A
1558+ 9057 CD 2E 86       CALL L8531_14           ; CALL L8531_14
1559+ 905A 22 7C 86       LD (#867C),HL           ; POKE #867C,L; POKE #867D,H
1560+ 905D ED 53 72 86    LD (#8672),DE           ; POKE #8672,E; POKE #8673,D
1561+ 9061 21 00 00       LD HL,#0000             ; HL=#0000
1562+ 9064 22 3E 7F       LD (#7F3E),HL           ; POKE #7F3E,L; POKE #7F3F,H
1563+ 9067 22 40 7F       LD (#7F40),HL           ; POKE #7F40,L; POKE #7F41,H
1564+ 906A F1             POP AF                  ; Pop last item from stack into AF
1565+ 906B CD C1 68       CALL L6011_114          ; CALL L6011_114
1566+ 906E DD E1          POP IX                  ; Pop last item from stack into IX
1567+ 9070 C9             RET                     ; Return
1568+ 9071              L8531_140:
1569+ 9071 DD E5          PUSH IX                 ; Push IX onto the stack
1570+ 9073 DD 21 E2 7F    LD IX,#7FE2             ; IX=#7FE2
1571+ 9077 CD CE 7A       CALL L7828_38           ; CALL L7828_38
1572+ 907A DD E1          POP IX                  ; Pop last item from stack into IX
1573+ 907C C9             RET                     ; Return
1574+ 907D              L8531_141:
1575+ 907D DD E5          PUSH IX                 ; Push IX onto the stack
1576+ 907F 3A 03 60       LD A,(#6003)            ; A=PEEK #6003
1577+ 9082 F5             PUSH AF                 ; Push AF onto the stack
1578+ 9083 AF             XOR A                   ; A=0
1579+ 9084 CD C1 68       CALL L6011_114          ; CALL L6011_114
1580+ 9087 2A 3E 7F       LD HL,(#7F3E)           ; L=PEEK #7F3E; H=PEEK #7F3F
1581+ 908A ED 5B 40 7F    LD DE,(#7F40)           ; E=PEEK #7F40; D=PEEK #7F41
1582+ 908E 01 00 40       LD BC,#4000             ; BC=#4000
1583+ 9091 09             ADD HL,BC               ; HL=HL+BC
1584+ 9092 30 01          JR NC,L8531_142         ; Jump to L8531_142 if the carry flag is not set
1585+ 9094 13             INC DE                  ; DE=DE+1
1586+ 9095              L8531_142:
1587+ 9095 22 3E 7F       LD (#7F3E),HL           ; POKE #7F3E,L; POKE #7F3F,H
1588+ 9098 ED 53 40 7F    LD (#7F40),DE           ; POKE #7F40,E; POKE #7F41,D
1589+ 909C CD 5F 86       CALL L8531_15           ; CALL L8531_15
1590+ 909F 21 A0 5E       LD HL,#5EA0             ; HL=#5EA0
1591+ 90A2 79             LD A,C                  ; A=C
1592+ 90A3 0E 40          LD C,#40                ; C=#40
1593+ 90A5 B7             OR A                    ; Clear the carry flag and set the zero flag if A=0
1594+ 90A6 20 03          JR NZ,L8531_143         ; Jump to L8531_143 if A>0
1595+ 90A8 79             LD A,C                  ; A=C
1596+ 90A9 18 10          JR L8531_146            ; Jump to L8531_146
1597+ 90AB              L8531_143:
1598+ 90AB B9             CP C                    ; Set the zero flag if A=C, or the carry flag if A<C
1599+ 90AC 38 01          JR C,L8531_144          ; Jump to L8531_144 if A<C
1600+ 90AE 79             LD A,C                  ; A=C
1601+ 90AF              L8531_144:
1602+ 90AF 47             LD B,A                  ; B=A
1603+ 90B0 79             LD A,C                  ; A=C
1604+ 90B1 90             SUB B                   ; A=A-B
1605+ 90B2 0E DB          LD C,#DB                ; C=#DB
1606+ 90B4              L8531_145:
1607+ 90B4 71             LD (HL),C               ; POKE HL,C
1608+ 90B5 23             INC HL                  ; HL=HL+1
1609+ 90B6 10 FC          DJNZ L8531_145          ; Decrement B and jump to L8531_145 if B>0
1610+ 90B8 B7             OR A                    ; Clear the carry flag and set the zero flag if A=0
1611+ 90B9 28 07          JR Z,L8531_148          ; Jump to L8531_148 if A=0
1612+ 90BB              L8531_146:
1613+ 90BB 47             LD B,A                  ; B=A
1614+ 90BC 0E B1          LD C,#B1                ; C=#B1
1615+ 90BE              L8531_147:
1616+ 90BE 71             LD (HL),C               ; POKE HL,C
1617+ 90BF 23             INC HL                  ; HL=HL+1
1618+ 90C0 10 FC          DJNZ L8531_147          ; Decrement B and jump to L8531_147 if B>0
1619+ 90C2              L8531_148:
1620+ 90C2 DD 21 E2 7F    LD IX,#7FE2             ; IX=#7FE2
1621+ 90C6 21 A0 5E       LD HL,#5EA0             ; HL=#5EA0
1622+ 90C9 DD 7E 05       LD A,(IX+#05)           ; A=PEEK (IX+#05)
1623+ 90CC D6 02          SUB #02                 ; A=A-#02
1624+ 90CE 57             LD D,A                  ; D=A
1625+ 90CF 1E 01          LD E,#01                ; E=#01
1626+ 90D1 01 40 00       LD BC,#0040             ; BC=#0040
1627+ 90D4 CD 25 7D       CALL L7828_72           ; CALL L7828_72
1628+ 90D7 F1             POP AF                  ; Pop last item from stack into AF
1629+ 90D8 CD C1 68       CALL L6011_114          ; CALL L6011_114
1630+ 90DB DD E1          POP IX                  ; Pop last item from stack into IX
1631+ 90DD C9             RET                     ; Return
1632+ 90DE              ; This entry point is used by the routines at L6011, L9149 and L9B7C.
1633+ 90DE              L8531_149:
1634+ 90DE DD E5          PUSH IX                 ; Push IX onto the stack
1635+ 90E0 E5             PUSH HL                 ; Push HL onto the stack
1636+ 90E1 DD 21 B7 7F    LD IX,#7FB7             ; IX=#7FB7
1637+ 90E5 CD 2C 79       CALL #792C              ; CALL 792C
1638+ 90E8 E1             POP HL                  ; Pop last item from stack into HL
1639+ 90E9 11 01 02       LD DE,#0201             ; DE=#0201
1640+ 90EC CD 81 7D       CALL L7828_80           ; CALL L7828_80
1641+ 90EF CD 4B 74       CALL L7143_48           ; CALL L7143_48
1642+ 90F2 CD 43 74       CALL L7143_47           ; CALL L7143_47
1643+ 90F5 CD CE 7A       CALL L7828_38           ; CALL L7828_38
1644+ 90F8 DD E1          POP IX                  ; Pop last item from stack into IX
1645+ 90FA C9             RET                     ; Return
1646+ 90FB              ; This entry point is used by the routine at L6011.
1647+ 90FB              L8531_150:
1648+ 90FB 01 13 11       LD BC,#1113             ; BC=#1113
1649+ 90FE 18 13          JR L8531_152            ; Jump to L8531_152
1650+ 9100              ; This entry point is used by the routine at L6011.
1651+ 9100              L8531_151:
1652+ 9100 CD FE 62       CALL L6011_33           ; CALL L6011_33
1653+ 9103 C8             RET Z                   ; Return if the zero flag is set
1654+ 9104 7C             LD A,H                  ; A=H
1655+ 9105 B5             OR L                    ; A=A|L
1656+ 9106 C8             RET Z                   ; Return if A=0
1657+ 9107 CD 3E 91       CALL L8531_154          ; CALL L8531_154
1658+ 910A 21 28 7F       LD HL,#7F28             ; HL=#7F28
1659+ 910D CD 12 40       CALL #4012              ; CALL 4012
1660+ 9110 01 16 13       LD BC,#1316             ; BC=#1316
1661+ 9113              L8531_152:
1662+ 9113 3E 60          LD A,#60                ; A=#60
1663+ 9115 CD C1 68       CALL L6011_114          ; CALL L6011_114
1664+ 9118 11 C5 BE       LD DE,#BEC5             ; DE=#BEC5
1665+ 911B              L8531_153:
1666+ 911B 2A 18 7F       LD HL,(#7F18)           ; L=PEEK #7F18; H=PEEK #7F19
1667+ 911E B7             OR A                    ; Clear the carry flag and set the zero flag if A=0
1668+ 911F ED 52          SBC HL,DE               ; HL=HL-carry-DE
1669+ 9121 D8             RET C                   ; Return if the carry flag is set
1670+ 9122 21 00 02       LD HL,#0200             ; HL=#0200
1671+ 9125 19             ADD HL,DE               ; HL=HL+DE
1672+ 9126 EB             EX DE,HL                ; Exchange DE and HL
1673+ 9127 1A             LD A,(DE)               ; A=PEEK DE
1674+ 9128 B8             CP B                    ; Set the zero flag if A=B, or the carry flag if A<B
1675+ 9129 38 F0          JR C,L8531_153          ; Jump to L8531_153 if A<B
1676+ 912B B9             CP C                    ; Set the zero flag if A=C, or the carry flag if A<C
1677+ 912C 30 ED          JR NC,L8531_153         ; Jump to L8531_153 if A>=C
1678+ 912E 78             LD A,B                  ; A=B
1679+ 912F 3C             INC A                   ; A=A+1
1680+ 9130 01 3B FF       LD BC,#FF3B             ; BC=#FF3B
1681+ 9133 32 A3 70       LD (#70A3),A            ; POKE #70A3,A
1682+ 9136 CD 01 9B       CALL L9149_101          ; CALL L9149_101
1683+ 9139 AF             XOR A                   ; A=0
1684+ 913A 32 A3 70       LD (#70A3),A            ; POKE #70A3,A
1685+ 913D C9             RET                     ; Return
1686+ 913E              ; This entry point is used by the routine at L9149.
1687+ 913E              L8531_154:
1688+ 913E EB             EX DE,HL                ; Exchange DE and HL
1689+ 913F 23             INC HL                  ; HL=HL+1
1690+ 9140 11 00 5E       LD DE,#5E00             ; DE=#5E00
1691+ 9143 01 00 01       LD BC,#0100             ; BC=#0100
1692+ 9146 ED B0          LDIR                    ; POKE DE,PEEK HL; HL=HL+1; DE=DE+1; BC=BC-1; repeat
1693+ 9148                                        ; until BC=0
1694+ 9148 C9             RET                     ; Return
1695+ 9149
# file closed: WCFX_DISASM.ASM
  26  9149                      ASSERT $ == #9149, WCFX_DISASM.ASM boundary mismatch
  27  9149
  28  9149                      INCLUDE "WCVW_DISASM.ASM"
# file opened: WCVW_DISASM.ASM
   1+ 9149              ; WCVW: viewers, runners and plugin loading
   2+ 9149              L9149:
   3+ 9149 CD 1C 62       CALL L6011_14           ; CALL L6011_14
   4+ 914C CD 47 87       CALL L8531_25           ; CALL L8531_25
   5+ 914F C3 BA 92       JP L9149_20             ; Jump to L9149_20
   6+ 9152              L9149_0:
   7+ 9152 CD 61 62       CALL L6011_21           ; CALL L6011_21
   8+ 9155 CD 47 87       CALL L8531_25           ; CALL L8531_25
   9+ 9158 C3 BA 92       JP L9149_20             ; Jump to L9149_20
  10+ 915B              ; This entry point is used by the routine at L8531.
  11+ 915B              L9149_1:
  12+ 915B CD FE 62       CALL L6011_33           ; CALL L6011_33
  13+ 915E C8             RET Z                   ; Return if the zero flag is set
  14+ 915F 7C             LD A,H                  ; A=H
  15+ 9160 B5             OR L                    ; A=A|L
  16+ 9161 C8             RET Z                   ; Return if A=0
  17+ 9162 CD 3E 91       CALL L8531_154          ; CALL L8531_154
  18+ 9165 21 28 7F       LD HL,#7F28             ; HL=#7F28
  19+ 9168 CD 12 40       CALL #4012              ; CALL 4012
  20+ 916B              L9149_2:
  21+ 916B CD 9F 69       CALL L6011_131          ; CALL L6011_131
  22+ 916E DD 7E 02       LD A,(IX+#02)           ; A=PEEK (IX+#02)
  23+ 9171 C6 02          ADD A,#02               ; A=A+#02
  24+ 9173 32 9A 80       LD (#809A),A            ; POKE #809A,A
  25+ 9176 DD 7E 03       LD A,(IX+#03)           ; A=PEEK (IX+#03)
  26+ 9179 DD 86 0C       ADD A,(IX+#0C)          ; A=A+PEEK (IX+#0C)
  27+ 917C C6 02          ADD A,#02               ; A=A+#02
  28+ 917E 32 9B 80       LD (#809B),A            ; POKE #809B,A
  29+ 9181 DD E5          PUSH IX                 ; Push IX onto the stack
  30+ 9183 3A 19 7F       LD A,(#7F19)            ; A=PEEK #7F19
  31+ 9186 0E 00          LD C,#00                ; C=#00
  32+ 9188 FE C2          CP #C2                  ; Set the zero flag if A=#C2, or the carry flag if
  33+ 918A                                        ; A<#C2
  34+ 918A 38 43          JR C,L9149_7            ; Jump to L9149_7 if A<#C2
  35+ 918C 3E 60          LD A,#60                ; A=#60
  36+ 918E CD C1 68       CALL L6011_114          ; CALL L6011_114
  37+ 9191 21 C5 C0       LD HL,#C0C5             ; HL=#C0C5
  38+ 9194 11 00 B0       LD DE,#B000             ; DE=#B000
  39+ 9197              L9149_3:
  40+ 9197 7E             LD A,(HL)               ; A=PEEK HL
  41+ 9198 FE 04          CP #04                  ; Set the zero flag if A=#04, or the carry flag if
  42+ 919A                                        ; A<#04
  43+ 919A 28 0D          JR Z,L9149_4            ; Jump to L9149_4 if A=#04
  44+ 919C FE 05          CP #05                  ; Set the zero flag if A=#05, or the carry flag if
  45+ 919E                                        ; A<#05
  46+ 919E 28 09          JR Z,L9149_4            ; Jump to L9149_4 if A=#05
  47+ 91A0 FE 15          CP #15                  ; Set the zero flag if A=#15, or the carry flag if
  48+ 91A2                                        ; A<#15
  49+ 91A2 28 05          JR Z,L9149_4            ; Jump to L9149_4 if A=#15
  50+ 91A4 01 00 02       LD BC,#0200             ; BC=#0200
  51+ 91A7 18 0B          JR L9149_5              ; Jump to L9149_5
  52+ 91A9              L9149_4:
  53+ 91A9 01 07 00       LD BC,#0007             ; BC=#0007
  54+ 91AC 09             ADD HL,BC               ; HL=HL+BC
  55+ 91AD 0E 18          LD C,#18                ; C=#18
  56+ 91AF ED B0          LDIR                    ; POKE DE,PEEK HL; HL=HL+1; DE=DE+1; BC=BC-1; repeat
  57+ 91B1                                        ; until BC=0
  58+ 91B1 01 E1 01       LD BC,#01E1             ; BC=#01E1
  59+ 91B4              L9149_5:
  60+ 91B4 09             ADD HL,BC               ; HL=HL+BC
  61+ 91B5 3A 19 7F       LD A,(#7F19)            ; A=PEEK #7F19
  62+ 91B8 BC             CP H                    ; Set the zero flag if A=H, or the carry flag if A<H
  63+ 91B9 20 DC          JR NZ,L9149_3           ; Jump to L9149_3 if A<>H
  64+ 91BB AF             XOR A                   ; A=0
  65+ 91BC EB             EX DE,HL                ; Exchange DE and HL
  66+ 91BD 77             LD (HL),A               ; POKE HL,A
  67+ 91BE 21 00 B0       LD HL,#B000             ; HL=#B000
  68+ 91C1 11 18 00       LD DE,#0018             ; DE=#0018
  69+ 91C4 01 00 08       LD BC,#0800             ; BC=#0800
  70+ 91C7              L9149_6:
  71+ 91C7 7E             LD A,(HL)               ; A=PEEK HL
  72+ 91C8 B7             OR A                    ; Clear the carry flag and set the zero flag if A=0
  73+ 91C9 28 04          JR Z,L9149_7            ; Jump to L9149_7 if A=0
  74+ 91CB 19             ADD HL,DE               ; HL=HL+DE
  75+ 91CC 0C             INC C                   ; C=C+1
  76+ 91CD 10 F8          DJNZ L9149_6            ; Decrement B and jump to L9149_6 if B>0
  77+ 91CF              L9149_7:
  78+ 91CF 79             LD A,C                  ; A=C
  79+ 91D0 DD 21 98 80    LD IX,#8098             ; IX=#8098
  80+ 91D4 F5             PUSH AF                 ; Push AF onto the stack
  81+ 91D5 C6 00          ADD A,#00               ; A=A+#00
  82+ 91D7 DD 77 0D       LD (IX+#0D),A           ; POKE (IX+#0D),A
  83+ 91DA DD BE 0C       CP (IX+#0C)             ; Set the zero flag if A=PEEK (IX+#0C), or the carry
  84+ 91DD                                        ; flag if A<PEEK (IX+#0C)
  85+ 91DD 30 04          JR NC,L9149_8           ; Jump to L9149_8 if A>=PEEK (IX+#0C)
  86+ 91DF DD 36 0C 01    LD (IX+#0C),#01         ; POKE (IX+#0C),1
  87+ 91E3              L9149_8:
  88+ 91E3 C6 02          ADD A,#02               ; A=A+#02
  89+ 91E5 DD 77 05       LD (IX+#05),A           ; POKE (IX+#05),A
  90+ 91E8 DD 7E 03       LD A,(IX+#03)           ; A=PEEK (IX+#03)
  91+ 91EB DD 86 05       ADD A,(IX+#05)          ; A=A+PEEK (IX+#05)
  92+ 91EE ED 4B 0E 60    LD BC,(#600E)           ; C=PEEK #600E; B=PEEK #600F
  93+ 91F2 B9             CP C                    ; Set the zero flag if A=C, or the carry flag if A<C
  94+ 91F3 38 0B          JR C,L9149_9            ; Jump to L9149_9 if A<C
  95+ 91F5 DD 7E 03       LD A,(IX+#03)           ; A=PEEK (IX+#03)
  96+ 91F8 DD 96 05       SUB (IX+#05)            ; A=A-PEEK (IX+#05)
  97+ 91FB D6 03          SUB #03                 ; A=A-#03
  98+ 91FD DD 77 03       LD (IX+#03),A           ; POKE (IX+#03),A
  99+ 9200              L9149_9:
 100+ 9200 CD 2C 79       CALL #792C              ; CALL 792C
 101+ 9203 C1             POP BC                  ; Pop last item from stack into BC
 102+ 9204 78             LD A,B                  ; A=B
 103+ 9205 B7             OR A                    ; Clear the carry flag and set the zero flag if A=0
 104+ 9206 28 19          JR Z,L9149_11           ; Jump to L9149_11 if A=0
 105+ 9208 21 00 B0       LD HL,#B000             ; HL=#B000
 106+ 920B 11 01 01       LD DE,#0101             ; DE=#0101
 107+ 920E              L9149_10:
 108+ 920E C5             PUSH BC                 ; Push BC onto the stack
 109+ 920F E5             PUSH HL                 ; Push HL onto the stack
 110+ 9210 D5             PUSH DE                 ; Push DE onto the stack
 111+ 9211 01 18 00       LD BC,#0018             ; BC=#0018
 112+ 9214 CD 25 7D       CALL L7828_72           ; CALL L7828_72
 113+ 9217 D1             POP DE                  ; Pop last item from stack into DE
 114+ 9218 E1             POP HL                  ; Pop last item from stack into HL
 115+ 9219 01 18 00       LD BC,#0018             ; BC=#0018
 116+ 921C 09             ADD HL,BC               ; HL=HL+BC
 117+ 921D 14             INC D                   ; D=D+1
 118+ 921E C1             POP BC                  ; Pop last item from stack into BC
 119+ 921F 10 ED          DJNZ L9149_10           ; Decrement B and jump to L9149_10 if B>0
 120+ 9221              L9149_11:
 121+ 9221 FB             EI                      ; Enable interrupts
 122+ 9222 76             HALT                    ; Wait for the next interrupt
 123+ 9223 CD D5 7C       CALL L7828_67           ; CALL L7828_67
 124+ 9226 CD 53 74       CALL L7143_49           ; CALL L7143_49
 125+ 9229 C4 8E 62       CALL NZ,L6011_26        ; CALL L6011_26 if the zero flag is not set
 126+ 922C CD 59 74       CALL L7143_50           ; CALL L7143_50
 127+ 922F C4 85 62       CALL NZ,L6011_25        ; CALL L6011_25 if the zero flag is not set
 128+ 9232 CD 77 74       CALL L7143_55           ; CALL L7143_55
 129+ 9235 20 0B          JR NZ,L9149_12          ; Jump to L9149_12 if the zero flag is not set
 130+ 9237 CD 9A 74       CALL L7143_62           ; CALL L7143_62
 131+ 923A 28 E5          JR Z,L9149_11           ; Jump to L9149_11 if the zero flag is set
 132+ 923C CD CE 7A       CALL L7828_38           ; CALL L7828_38
 133+ 923F DD E1          POP IX                  ; Pop last item from stack into IX
 134+ 9241 C9             RET                     ; Return
 135+ 9242              L9149_12:
 136+ 9242 CD CE 7A       CALL L7828_38           ; CALL L7828_38
 137+ 9245 DD E1          POP IX                  ; Pop last item from stack into IX
 138+ 9247 3A A4 80       LD A,(#80A4)            ; A=PEEK #80A4
 139+ 924A F5             PUSH AF                 ; Push AF onto the stack
 140+ 924B 3E 60          LD A,#60                ; A=#60
 141+ 924D CD C1 68       CALL L6011_114          ; CALL L6011_114
 142+ 9250 C1             POP BC                  ; Pop last item from stack into BC
 143+ 9251 11 C5 BE       LD DE,#BEC5             ; DE=#BEC5
 144+ 9254              L9149_13:
 145+ 9254 2A 18 7F       LD HL,(#7F18)           ; L=PEEK #7F18; H=PEEK #7F19
 146+ 9257 B7             OR A                    ; Clear the carry flag and set the zero flag if A=0
 147+ 9258 ED 52          SBC HL,DE               ; HL=HL-carry-DE
 148+ 925A D8             RET C                   ; Return if the carry flag is set
 149+ 925B 21 00 02       LD HL,#0200             ; HL=#0200
 150+ 925E 19             ADD HL,DE               ; HL=HL+DE
 151+ 925F 7E             LD A,(HL)               ; A=PEEK HL
 152+ 9260 EB             EX DE,HL                ; Exchange DE and HL
 153+ 9261 FE 04          CP #04                  ; Set the zero flag if A=#04, or the carry flag if
 154+ 9263                                        ; A<#04
 155+ 9263 28 08          JR Z,L9149_14           ; Jump to L9149_14 if A=#04
 156+ 9265 FE 05          CP #05                  ; Set the zero flag if A=#05, or the carry flag if
 157+ 9267                                        ; A<#05
 158+ 9267 28 04          JR Z,L9149_14           ; Jump to L9149_14 if A=#05
 159+ 9269 FE 15          CP #15                  ; Set the zero flag if A=#15, or the carry flag if
 160+ 926B                                        ; A<#15
 161+ 926B 20 E7          JR NZ,L9149_13          ; Jump to L9149_13 if A<>#15
 162+ 926D              L9149_14:
 163+ 926D 10 E5          DJNZ L9149_13           ; Decrement B and jump to L9149_13 if B>0
 164+ 926F 01 3B FF       LD BC,#FF3B             ; BC=#FF3B
 165+ 9272 3E 04          LD A,#04                ; A=#04
 166+ 9274 32 A3 70       LD (#70A3),A            ; POKE #70A3,A
 167+ 9277 CD 01 9B       CALL L9149_101          ; CALL L9149_101
 168+ 927A AF             XOR A                   ; A=0
 169+ 927B 32 A3 70       LD (#70A3),A            ; POKE #70A3,A
 170+ 927E C3 9F 69       JP L6011_131            ; Jump to L6011_131
 171+ 9281              L9149_15:
 172+ 9281 1A             LD A,(DE)               ; A=PEEK DE
 173+ 9282 B7             OR A                    ; Clear the carry flag and set the zero flag if A=0
 174+ 9283 C8             RET Z                   ; Return if A=0
 175+ 9284 BE             CP (HL)                 ; Set the zero flag if A=PEEK HL, or the carry flag
 176+ 9285                                        ; if A<PEEK HL
 177+ 9285 20 10          JR NZ,L9149_17          ; Jump to L9149_17 if A<>PEEK HL
 178+ 9287 23             INC HL                  ; HL=HL+1
 179+ 9288 13             INC DE                  ; DE=DE+1
 180+ 9289 1A             LD A,(DE)               ; A=PEEK DE
 181+ 928A BE             CP (HL)                 ; Set the zero flag if A=PEEK HL, or the carry flag
 182+ 928B                                        ; if A<PEEK HL
 183+ 928B 20 08          JR NZ,L9149_16          ; Jump to L9149_16 if A<>PEEK HL
 184+ 928D 23             INC HL                  ; HL=HL+1
 185+ 928E 13             INC DE                  ; DE=DE+1
 186+ 928F 1A             LD A,(DE)               ; A=PEEK DE
 187+ 9290 BE             CP (HL)                 ; Set the zero flag if A=PEEK HL, or the carry flag
 188+ 9291                                        ; if A<PEEK HL
 189+ 9291 28 0B          JR Z,L9149_18           ; Jump to L9149_18 if A=PEEK HL
 190+ 9293 2B             DEC HL                  ; HL=HL-1
 191+ 9294 1B             DEC DE                  ; DE=DE-1
 192+ 9295              L9149_16:
 193+ 9295 2B             DEC HL                  ; HL=HL-1
 194+ 9296 1B             DEC DE                  ; DE=DE-1
 195+ 9297              L9149_17:
 196+ 9297 13             INC DE                  ; DE=DE+1
 197+ 9298 13             INC DE                  ; DE=DE+1
 198+ 9299 13             INC DE                  ; DE=DE+1
 199+ 929A 13             INC DE                  ; DE=DE+1
 200+ 929B 13             INC DE                  ; DE=DE+1
 201+ 929C 18 E3          JR L9149_15             ; Jump to L9149_15
 202+ 929E              L9149_18:
 203+ 929E 13             INC DE                  ; DE=DE+1
 204+ 929F 1A             LD A,(DE)               ; A=PEEK DE
 205+ 92A0 6F             LD L,A                  ; L=A
 206+ 92A1 13             INC DE                  ; DE=DE+1
 207+ 92A2 1A             LD A,(DE)               ; A=PEEK DE
 208+ 92A3 67             LD H,A                  ; H=A
 209+ 92A4 3E 01          LD A,#01                ; A=#01
 210+ 92A6 B7             OR A                    ; Clear the carry flag and set the zero flag if A=0
 211+ 92A7 C9             RET                     ; Return
 212+ 92A8              L9149_19:
 213+ 92A8 01 00 00       LD BC,#0000             ; BC=#0000
 214+ 92AB ED 43 97 92    LD (L9149_17),BC        ; POKE #9297,C; POKE #9298,B
 215+ 92AF CD 81 92       CALL L9149_15           ; CALL L9149_15
 216+ 92B2 01 13 13       LD BC,#1313             ; BC=#1313
 217+ 92B5 ED 43 97 92    LD (L9149_17),BC        ; POKE #9297,C; POKE #9298,B
 218+ 92B9 C9             RET                     ; Return
 219+ 92BA              ; This entry point is used by the routine at L6011.
 220+ 92BA              L9149_20:
 221+ 92BA CD FE 62       CALL L6011_33           ; CALL L6011_33
 222+ 92BD CA 9F 69       JP Z,L6011_131          ; Jump to L6011_131 if the zero flag is set
 223+ 92C0 7C             LD A,H                  ; A=H
 224+ 92C1 B5             OR L                    ; A=A|L
 225+ 92C2 CA 9F 69       JP Z,L6011_131          ; Jump to L6011_131 if A=0
 226+ 92C5 3E 01          LD A,#01                ; A=#01
 227+ 92C7 18 01          JR L9149_22             ; Jump to L9149_22
 228+ 92C9              ; This entry point is used by the routine at L6011.
 229+ 92C9              L9149_21:
 230+ 92C9 AF             XOR A                   ; A=0
 231+ 92CA              L9149_22:
 232+ 92CA 32 17 60       LD (#6017),A            ; POKE #6017,A
 233+ 92CD CD 3E 91       CALL L8531_154          ; CALL L8531_154
 234+ 92D0 21 28 7F       LD HL,#7F28             ; HL=#7F28
 235+ 92D3 CD 12 40       CALL #4012              ; CALL 4012
 236+ 92D6 CD BE 9A       CALL L9149_97           ; CALL L9149_97
 237+ 92D9 B7             OR A                    ; Clear the carry flag and set the zero flag if A=0
 238+ 92DA CA 9F 69       JP Z,L6011_131          ; Jump to L6011_131 if A=0
 239+ 92DD 3D             DEC A                   ; A=A-1
 240+ 92DE 28 09          JR Z,L9149_23           ; Jump to L9149_23 if A=0
 241+ 92E0 3D             DEC A                   ; A=A-1
 242+ 92E1 CA 49 91       JP Z,L9149              ; Jump to L9149 if A=0
 243+ 92E4 3D             DEC A                   ; A=A-1
 244+ 92E5 3D             DEC A                   ; A=A-1
 245+ 92E6 CA 52 91       JP Z,L9149_0            ; Jump to L9149_0 if A=0
 246+ 92E9              L9149_23:
 247+ 92E9 3A 17 60       LD A,(#6017)            ; A=PEEK #6017
 248+ 92EC B7             OR A                    ; Clear the carry flag and set the zero flag if A=0
 249+ 92ED C2 6B 91       JP NZ,L9149_2           ; Jump to L9149_2 if A>0
 250+ 92F0 21 73 7F       LD HL,#7F73             ; HL=#7F73
 251+ 92F3 11 F5 80       LD DE,#80F5             ; DE=#80F5
 252+ 92F6 CD 81 92       CALL L9149_15           ; CALL L9149_15
 253+ 92F9 CA 6B 91       JP Z,L9149_2            ; Jump to L9149_2 if the zero flag is set
 254+ 92FC E9             JP (HL)                 ; Jump to HL
 255+ 92FD              ; This entry point is used by the routine at L9B7C.
 256+ 92FD              L9149_24:
 257+ 92FD 0E 0D          LD C,#0D                ; C=#0D
 258+ 92FF              L9149_25:
 259+ 92FF 7E             LD A,(HL)               ; A=PEEK HL
 260+ 9300 B7             OR A                    ; Clear the carry flag and set the zero flag if A=0
 261+ 9301 C8             RET Z                   ; Return if A=0
 262+ 9302 23             INC HL                  ; HL=HL+1
 263+ 9303 B9             CP C                    ; Set the zero flag if A=C, or the carry flag if A<C
 264+ 9304 C8             RET Z                   ; Return if A=C
 265+ 9305 C3 FF 92       JP L9149_25             ; Jump to L9149_25
 266+ 9308              L9149_26:
 267+ 9308 CD 9F 69       CALL L6011_131          ; CALL L6011_131
 268+ 930B DD E5          PUSH IX                 ; Push IX onto the stack
 269+ 930D DD 21 AE 80    LD IX,#80AE             ; IX=#80AE
 270+ 9311 CD 2C 79       CALL #792C              ; CALL 792C
 271+ 9314 3E 01          LD A,#01                ; A=#01
 272+ 9316 CD 73 66       CALL L6011_87           ; CALL L6011_87
 273+ 9319              L9149_27:
 274+ 9319 FB             EI                      ; Enable interrupts
 275+ 931A 76             HALT                    ; Wait for the next interrupt
 276+ 931B CD D5 7C       CALL L7828_67           ; CALL L7828_67
 277+ 931E AF             XOR A                   ; A=0
 278+ 931F CD 73 66       CALL L6011_87           ; CALL L6011_87
 279+ 9322 CD 53 74       CALL L7143_49           ; CALL L7143_49
 280+ 9325 C4 8E 62       CALL NZ,L6011_26        ; CALL L6011_26 if the zero flag is not set
 281+ 9328 CD 59 74       CALL L7143_50           ; CALL L7143_50
 282+ 932B C4 85 62       CALL NZ,L6011_25        ; CALL L6011_25 if the zero flag is not set
 283+ 932E CD 9A 74       CALL L7143_62           ; CALL L7143_62
 284+ 9331 20 2D          JR NZ,L9149_29          ; Jump to L9149_29 if the zero flag is not set
 285+ 9333 CD 77 74       CALL L7143_55           ; CALL L7143_55
 286+ 9336 28 E1          JR Z,L9149_27           ; Jump to L9149_27 if the zero flag is set
 287+ 9338 3E FF          LD A,#FF                ; A=#FF
 288+ 933A CD 73 66       CALL L6011_87           ; CALL L6011_87
 289+ 933D 20 21          JR NZ,L9149_29          ; Jump to L9149_29 if the zero flag is not set
 290+ 933F DD 7E 0C       LD A,(IX+#0C)           ; A=PEEK (IX+#0C)
 291+ 9342 0E 00          LD C,#00                ; C=#00
 292+ 9344 3D             DEC A                   ; A=A-1
 293+ 9345 28 0C          JR Z,L9149_28           ; Jump to L9149_28 if A=0
 294+ 9347 0E 01          LD C,#01                ; C=#01
 295+ 9349 3D             DEC A                   ; A=A-1
 296+ 934A 28 07          JR Z,L9149_28           ; Jump to L9149_28 if A=0
 297+ 934C 0E 02          LD C,#02                ; C=#02
 298+ 934E 3D             DEC A                   ; A=A-1
 299+ 934F 28 02          JR Z,L9149_28           ; Jump to L9149_28 if A=0
 300+ 9351 0E 03          LD C,#03                ; C=#03
 301+ 9353              L9149_28:
 302+ 9353 79             LD A,C                  ; A=C
 303+ 9354 32 8F 6A       LD (#6A8F),A            ; POKE #6A8F,A
 304+ 9357 CD CE 7A       CALL L7828_38           ; CALL L7828_38
 305+ 935A DD E1          POP IX                  ; Pop last item from stack into IX
 306+ 935C 3E 01          LD A,#01                ; A=#01
 307+ 935E B7             OR A                    ; Clear the carry flag and set the zero flag if A=0
 308+ 935F C9             RET                     ; Return
 309+ 9360              L9149_29:
 310+ 9360 CD CE 7A       CALL L7828_38           ; CALL L7828_38
 311+ 9363 DD E1          POP IX                  ; Pop last item from stack into IX
 312+ 9365 AF             XOR A                   ; A=0
 313+ 9366 C9             RET                     ; Return
 314+ 9367 CD 08 93       CALL L9149_26           ; CALL L9149_26
 315+ 936A C8             RET Z                   ; Return if the zero flag is set
 316+ 936B 21 00 02       LD HL,#0200             ; HL=#0200
 317+ 936E 06 01          LD B,#01                ; B=#01
 318+ 9370 CD 15 40       CALL #4015              ; CALL 4015
 319+ 9373 2A 0B 02       LD HL,(#020B)           ; L=PEEK #020B; H=PEEK #020C
 320+ 9376 7C             LD A,H                  ; A=H
 321+ 9377 FE A0          CP #A0                  ; Set the zero flag if A=#A0, or the carry flag if
 322+ 9379                                        ; A<#A0
 323+ 9379 D0             RET NC                  ; Return if A>=#A0
 324+ 937A ED 5B 09 02    LD DE,(#0209)           ; E=PEEK #0209; D=PEEK #020A
 325+ 937E 7A             LD A,D                  ; A=D
 326+ 937F FE 60          CP #60                  ; Set the zero flag if A=#60, or the carry flag if
 327+ 9381                                        ; A<#60
 328+ 9381 D8             RET C                   ; Return if A<#60
 329+ 9382 D9             EXX                     ; Exchange BC, DE and HL with BC', DE' and HL'
 330+ 9383 3E 20          LD A,#20                ; A=#20
 331+ 9385 32 57 7F       LD (#7F57),A            ; POKE #7F57,A
 332+ 9388 CD 21 A7       CALL L9B7C_162          ; CALL L9B7C_162
 333+ 938B AF             XOR A                   ; A=0
 334+ 938C CD C1 68       CALL L6011_114          ; CALL L6011_114
 335+ 938F CD 88 6A       CALL L6011_140          ; CALL L6011_140
 336+ 9392 21 B1 93       LD HL,#93B1             ; HL=#93B1
 337+ 9395 11 00 5B       LD DE,#5B00             ; DE=#5B00
 338+ 9398 01 60 00       LD BC,#0060             ; BC=#0060
 339+ 939B ED B0          LDIR                    ; POKE DE,PEEK HL; HL=HL+1; DE=DE+1; BC=BC-1; repeat
 340+ 939D                                        ; until BC=0
 341+ 939D 21 85 68       LD HL,L6011_106         ; HL=#6885
 342+ 93A0 11 60 5B       LD DE,#5B60             ; DE=#5B60
 343+ 93A3 01 20 00       LD BC,#0020             ; BC=#0020
 344+ 93A6 ED B0          LDIR                    ; POKE DE,PEEK HL; HL=HL+1; DE=DE+1; BC=BC-1; repeat
 345+ 93A8                                        ; until BC=0
 346+ 93A8 D9             EXX                     ; Exchange BC, DE and HL with BC', DE' and HL'
 347+ 93A9 21 EF 01       LD HL,#01EF             ; HL=#01EF
 348+ 93AC 19             ADD HL,DE               ; HL=HL+DE
 349+ 93AD D5             PUSH DE                 ; Push DE onto the stack
 350+ 93AE C3 00 5B       JP #5B00                ; Jump to 5B00
 351+ 93B1 D5             PUSH DE                 ; Push DE onto the stack
 352+ 93B2              L9149_30:
 353+ 93B2 7C             LD A,H                  ; A=H
 354+ 93B3 FE 60          CP #60                  ; Set the zero flag if A=#60, or the carry flag if
 355+ 93B5                                        ; A<#60
 356+ 93B5 38 09          JR C,L9149_31           ; Jump to L9149_31 if A<#60
 357+ 93B7 06 01          LD B,#01                ; B=#01
 358+ 93B9 CD 15 40       CALL #4015              ; CALL 4015
 359+ 93BC FE 0F          CP #0F                  ; Set the zero flag if A=#0F, or the carry flag if
 360+ 93BE                                        ; A<#0F
 361+ 93BE 20 F2          JR NZ,L9149_30          ; Jump to L9149_30 if A<>#0F
 362+ 93C0              L9149_31:
 363+ 93C0 D1             POP DE                  ; Pop last item from stack into DE
 364+ 93C1 21 11 02       LD HL,#0211             ; HL=#0211
 365+ 93C4 01 EF 01       LD BC,#01EF             ; BC=#01EF
 366+ 93C7 ED B0          LDIR                    ; POKE DE,PEEK HL; HL=HL+1; DE=DE+1; BC=BC-1; repeat
 367+ 93C9                                        ; until BC=0
 368+ 93C9 F3             DI                      ; Disable interrupts
 369+ 93CA 3E 3F          LD A,#3F                ; A=#3F
 370+ 93CC ED 47          LD I,A                  ; I=A
 371+ 93CE ED 56          IM 1                    ; Set interrupt mode 1
 372+ 93D0 FD 21 3A 5C    LD IY,#5C3A             ; IY=#5C3A
 373+ 93D4 21 00 58       LD HL,#5800             ; HL=#5800
 374+ 93D7 54             LD D,H                  ; D=H
 375+ 93D8 5D             LD E,L                  ; E=L
 376+ 93D9 13             INC DE                  ; DE=DE+1
 377+ 93DA 01 FF 02       LD BC,#02FF             ; BC=#02FF
 378+ 93DD 75             LD (HL),L               ; POKE HL,L
 379+ 93DE ED B0          LDIR                    ; POKE DE,PEEK HL; HL=HL+1; DE=DE+1; BC=BC-1; repeat
 380+ 93E0                                        ; until BC=0
 381+ 93E0 01 AF 00       LD BC,#00AF             ; BC=#00AF
 382+ 93E3 AF             XOR A                   ; A=0
 383+ 93E4 ED 79          OUT (C),A               ; OUT BC,A
 384+ 93E6 CD 60 5B       CALL #5B60              ; CALL 5B60
 385+ 93E9 01 FD 7F       LD BC,#7FFD             ; BC=#7FFD
 386+ 93EC 3E 10          LD A,#10                ; A=#10
 387+ 93EE ED 79          OUT (C),A               ; OUT BC,A
 388+ 93F0 C9             RET                     ; Return
 389+ 93F1              L9149_32:
 390+ 93F1 FE 10          CP #10                  ; Set the zero flag if A=#10, or the carry flag if
 391+ 93F3                                        ; A<#10
 392+ 93F3 C2 9F 69       JP NZ,L6011_131         ; Jump to L6011_131 if A<>#10
 393+ 93F6 3E 20          LD A,#20                ; A=#20
 394+ 93F8 32 57 7F       LD (#7F57),A            ; POKE #7F57,A
 395+ 93FB CD 21 A7       CALL L9B7C_162          ; CALL L9B7C_162
 396+ 93FE 3E F5          LD A,#F5                ; A=#F5
 397+ 9400 CD C1 68       CALL L6011_114          ; CALL L6011_114
 398+ 9403 21 00 C0       LD HL,LC000             ; HL=#C000
 399+ 9406 54             LD D,H                  ; D=H
 400+ 9407 5D             LD E,L                  ; E=L
 401+ 9408 13             INC DE                  ; DE=DE+1
 402+ 9409 75             LD (HL),L               ; POKE HL,L
 403+ 940A 01 FF 3F       LD BC,#3FFF             ; BC=#3FFF
 404+ 940D ED B0          LDIR                    ; POKE DE,PEEK HL; HL=HL+1; DE=DE+1; BC=BC-1; repeat
 405+ 940F                                        ; until BC=0
 406+ 940F 2A 30 B0       LD HL,(#B030)           ; L=PEEK #B030; H=PEEK #B031
 407+ 9412 22 64 95       LD (#9564),HL           ; POKE #9564,L; POKE #9565,H
 408+ 9415 2A 32 B0       LD HL,(#B032)           ; L=PEEK #B032; H=PEEK #B033
 409+ 9418 22 67 95       LD (#9567),HL           ; POKE #9567,L; POKE #9568,H
 410+ 941B 2A 38 B0       LD HL,(#B038)           ; L=PEEK #B038; H=PEEK #B039
 411+ 941E 22 6A 95       LD (#956A),HL           ; POKE #956A,L; POKE #956B,H
 412+ 9421 3A 34 B0       LD A,(#B034)            ; A=PEEK #B034
 413+ 9424 32 37 95       LD (#9537),A            ; POKE #9537,A
 414+ 9427 3A 35 B0       LD A,(#B035)            ; A=PEEK #B035
 415+ 942A 4F             LD C,A                  ; C=A
 416+ 942B E6 03          AND #03                 ; Keep only bits 0 and 1 of A
 417+ 942D 32 8F 6A       LD (#6A8F),A            ; POKE #6A8F,A
 418+ 9430 79             LD A,C                  ; A=C
 419+ 9431 E6 04          AND #04                 ; Keep only bit 2 of A
 420+ 9433 3E F3          LD A,#F3                ; A=#F3
 421+ 9435 28 02          JR Z,L9149_33           ; Jump to L9149_33 if the zero flag is set
 422+ 9437 3E FB          LD A,#FB                ; A=#FB
 423+ 9439              L9149_33:
 424+ 9439 32 79 95       LD (#9579),A            ; POKE #9579,A
 425+ 943C 21 00 B0       LD HL,#B000             ; HL=#B000
 426+ 943F 11 00 10       LD DE,#1000             ; DE=#1000
 427+ 9442 01 00 04       LD BC,#0400             ; BC=#0400
 428+ 9445 ED B0          LDIR                    ; POKE DE,PEEK HL; HL=HL+1; DE=DE+1; BC=BC-1; repeat
 429+ 9447                                        ; until BC=0
 430+ 9447 21 70 94       LD HL,#9470             ; HL=#9470
 431+ 944A 11 00 00       LD DE,#0000             ; DE=#0000
 432+ 944D 01 0B 01       LD BC,#010B             ; BC=#010B
 433+ 9450 ED B0          LDIR                    ; POKE DE,PEEK HL; HL=HL+1; DE=DE+1; BC=BC-1; repeat
 434+ 9452                                        ; until BC=0
 435+ 9452 3E 01          LD A,#01                ; A=#01
 436+ 9454 CD C1 68       CALL L6011_114          ; CALL L6011_114
 437+ 9457 21 00 FE       LD HL,#FE00             ; HL=#FE00
 438+ 945A 11 00 0D       LD DE,#0D00             ; DE=#0D00
 439+ 945D 01 00 01       LD BC,#0100             ; BC=#0100
 440+ 9460 ED B0          LDIR                    ; POKE DE,PEEK HL; HL=HL+1; DE=DE+1; BC=BC-1; repeat
 441+ 9462                                        ; until BC=0
 442+ 9462 21 E9 FE       LD HL,#FEE9             ; HL=#FEE9
 443+ 9465 11 00 0E       LD DE,#0E00             ; DE=#0E00
 444+ 9468 01 00 02       LD BC,#0200             ; BC=#0200
 445+ 946B ED B0          LDIR                    ; POKE DE,PEEK HL; HL=HL+1; DE=DE+1; BC=BC-1; repeat
 446+ 946D                                        ; until BC=0
 447+ 946D C3 00 00       JP #0000                ; Jump to 0000
 448+ 9470 DD 21 00 11    LD IX,#1100             ; IX=#1100
 449+ 9474 3E F4          LD A,#F4                ; A=#F4
 450+ 9476 CD B1 68       CALL L6011_110          ; CALL L6011_110
 451+ 9479 06 00          LD B,#00                ; B=#00
 452+ 947B              L9149_34:
 453+ 947B DD 7E 00       LD A,(IX+#00)           ; A=PEEK (IX+#00)
 454+ 947E DD 23          INC IX                  ; IX=IX+1
 455+ 9480 4F             LD C,A                  ; C=A
 456+ 9481 E6 1F          AND #1F                 ; Reset bits 5, 6 and 7 of A
 457+ 9483 87             ADD A,A                 ; A=A+A
 458+ 9484 C6 C0          ADD A,#C0               ; A=A+#C0
 459+ 9486 67             LD H,A                  ; H=A
 460+ 9487 2E 00          LD L,#00                ; L=#00
 461+ 9489 DD 23          INC IX                  ; IX=IX+1
 462+ 948B DD 7E 00       LD A,(IX+#00)           ; A=PEEK (IX+#00)
 463+ 948E DD 23          INC IX                  ; IX=IX+1
 464+ 9490 FE 02          CP #02                  ; Set the zero flag if A=#02, or the carry flag if
 465+ 9492                                        ; A<#02
 466+ 9492 20 02          JR NZ,L9149_35          ; Jump to L9149_35 if A<>#02
 467+ 9494 3E F6          LD A,#F6                ; A=#F6
 468+ 9496              L9149_35:
 469+ 9496 FE 05          CP #05                  ; Set the zero flag if A=#05, or the carry flag if
 470+ 9498                                        ; A<#05
 471+ 9498 20 02          JR NZ,L9149_36          ; Jump to L9149_36 if A<>#05
 472+ 949A 3E F5          LD A,#F5                ; A=#F5
 473+ 949C              L9149_36:
 474+ 949C CD C1 68       CALL L6011_114          ; CALL L6011_114
 475+ 949F DD 7E FE       LD A,(IX-#02)           ; A=PEEK (IX-#02)
 476+ 94A2 5F             LD E,A                  ; E=A
 477+ 94A3 E6 C0          AND #C0                 ; Keep only bits 6 and 7 of A
 478+ 94A5 07             RLCA                    ; Rotate A left circular (copying bit 7 into bit 0
 479+ 94A6                                        ; and into the carry flag)
 480+ 94A6 07             RLCA                    ; Rotate A left circular (copying bit 7 into bit 0
 481+ 94A7                                        ; and into the carry flag)
 482+ 94A7 57             LD D,A                  ; D=A
 483+ 94A8 7B             LD A,E                  ; A=E
 484+ 94A9 E6 1F          AND #1F                 ; Reset bits 5, 6 and 7 of A
 485+ 94AB 3C             INC A                   ; A=A+1
 486+ 94AC C5             PUSH BC                 ; Push BC onto the stack
 487+ 94AD DD E5          PUSH IX                 ; Push IX onto the stack
 488+ 94AF 47             LD B,A                  ; B=A
 489+ 94B0 7A             LD A,D                  ; A=D
 490+ 94B1 B7             OR A                    ; Clear the carry flag and set the zero flag if A=0
 491+ 94B2 20 0F          JR NZ,L9149_38          ; Jump to L9149_38 if A>0
 492+ 94B4 CD 15 40       CALL #4015              ; CALL 4015
 493+ 94B7              L9149_37:
 494+ 94B7 DD E1          POP IX                  ; Pop last item from stack into IX
 495+ 94B9 C1             POP BC                  ; Pop last item from stack into BC
 496+ 94BA 79             LD A,C                  ; A=C
 497+ 94BB E6 80          AND #80                 ; Keep only bit 7 of A
 498+ 94BD 20 36          JR NZ,L9149_41          ; Jump to L9149_41 if A>0
 499+ 94BF 10 BA          DJNZ L9149_34           ; Decrement B and jump to L9149_34 if B>0
 500+ 94C1 18 32          JR L9149_41             ; Jump to L9149_41
 501+ 94C3              L9149_38:
 502+ 94C3 3D             DEC A                   ; A=A-1
 503+ 94C4 28 1A          JR Z,L9149_40           ; Jump to L9149_40 if A=0
 504+ 94C6 E5             PUSH HL                 ; Push HL onto the stack
 505+ 94C7 21 00 80       LD HL,L7EA0_0           ; HL=#8000
 506+ 94CA CD 15 40       CALL #4015              ; CALL 4015
 507+ 94CD D1             POP DE                  ; Pop last item from stack into DE
 508+ 94CE F3             DI                      ; Disable interrupts
 509+ 94CF ED 73 26 7F    LD (#7F26),SP           ; POKE #7F26,SP-lo; POKE #7F27,SP-hi
 510+ 94D3 DD 21 00 80    LD IX,L7EA0_0           ; IX=#8000
 511+ 94D7 CD 00 0E       CALL #0E00              ; CALL 0E00
 512+ 94DA              L9149_39:
 513+ 94DA ED 7B 26 7F    LD SP,(#7F26)           ; SP=PEEK #7F26+#100*PEEK #7F27
 514+ 94DE 18 D7          JR L9149_37             ; Jump to L9149_37
 515+ 94E0              L9149_40:
 516+ 94E0 E5             PUSH HL                 ; Push HL onto the stack
 517+ 94E1 21 00 80       LD HL,L7EA0_0           ; HL=#8000
 518+ 94E4 CD 15 40       CALL #4015              ; CALL 4015
 519+ 94E7 D1             POP DE                  ; Pop last item from stack into DE
 520+ 94E8 F3             DI                      ; Disable interrupts
 521+ 94E9 ED 73 26 7F    LD (#7F26),SP           ; POKE #7F26,SP-lo; POKE #7F27,SP-hi
 522+ 94ED 21 00 80       LD HL,L7EA0_0           ; HL=#8000
 523+ 94F0 CD 00 0D       CALL #0D00              ; CALL 0D00
 524+ 94F3 18 E5          JR L9149_39             ; Jump to L9149_39
 525+ 94F5              L9149_41:
 526+ 94F5 3E F6          LD A,#F6                ; A=#F6
 527+ 94F7 CD B1 68       CALL L6011_110          ; CALL L6011_110
 528+ 94FA 3E 02          LD A,#02                ; A=#02
 529+ 94FC CD C1 68       CALL L6011_114          ; CALL L6011_114
 530+ 94FF 21 00 80       LD HL,L7EA0_0           ; HL=#8000
 531+ 9502 11 00 C0       LD DE,LC000             ; DE=#C000
 532+ 9505 01 00 40       LD BC,#4000             ; BC=#4000
 533+ 9508 ED B0          LDIR                    ; POKE DE,PEEK HL; HL=HL+1; DE=DE+1; BC=BC-1; repeat
 534+ 950A                                        ; until BC=0
 535+ 950A F3             DI                      ; Disable interrupts
 536+ 950B CD 88 6A       CALL L6011_140          ; CALL L6011_140
 537+ 950E 3E F5          LD A,#F5                ; A=#F5
 538+ 9510 CD B1 68       CALL L6011_110          ; CALL L6011_110
 539+ 9513 3E 05          LD A,#05                ; A=#05
 540+ 9515 CD C1 68       CALL L6011_114          ; CALL L6011_114
 541+ 9518 21 00 80       LD HL,L7EA0_0           ; HL=#8000
 542+ 951B 11 00 C0       LD DE,LC000             ; DE=#C000
 543+ 951E 01 00 40       LD BC,#4000             ; BC=#4000
 544+ 9521 ED B0          LDIR                    ; POKE DE,PEEK HL; HL=HL+1; DE=DE+1; BC=BC-1; repeat
 545+ 9523                                        ; until BC=0
 546+ 9523 01 AF 01       LD BC,#01AF             ; BC=#01AF
 547+ 9526 3E 05          LD A,#05                ; A=#05
 548+ 9528 ED 79          OUT (C),A               ; OUT BC,A
 549+ 952A 01 AF 00       LD BC,#00AF             ; BC=#00AF
 550+ 952D AF             XOR A                   ; A=0
 551+ 952E ED 79          OUT (C),A               ; OUT BC,A
 552+ 9530 3E 3F          LD A,#3F                ; A=#3F
 553+ 9532 ED 47          LD I,A                  ; I=A
 554+ 9534 ED 56          IM 1                    ; Set interrupt mode 1
 555+ 9536 3E 00          LD A,#00                ; A=#00
 556+ 9538 01 AF 13       LD BC,#13AF             ; BC=#13AF
 557+ 953B ED 79          OUT (C),A               ; OUT BC,A
 558+ 953D 3E 02          LD A,#02                ; A=#02
 559+ 953F 06 12          LD B,#12                ; B=#12
 560+ 9541 ED 79          OUT (C),A               ; OUT BC,A
 561+ 9543 3E 05          LD A,#05                ; A=#05
 562+ 9545 06 11          LD B,#11                ; B=#11
 563+ 9547 ED 79          OUT (C),A               ; OUT BC,A
 564+ 9549 21 FC 00       LD HL,#00FC             ; HL=#00FC
 565+ 954C ED 5B FA 00    LD DE,(#00FA)           ; E=PEEK #00FA; D=PEEK #00FB
 566+ 9550 01 10 00       LD BC,#0010             ; BC=#0010
 567+ 9553 ED B0          LDIR                    ; POKE DE,PEEK HL; HL=HL+1; DE=DE+1; BC=BC-1; repeat
 568+ 9555                                        ; until BC=0
 569+ 9555 21 58 27       LD HL,#2758             ; HL=#2758
 570+ 9558 D9             EXX                     ; Exchange BC, DE and HL with BC', DE' and HL'
 571+ 9559 FD 21 3A 5C    LD IY,#5C3A             ; IY=#5C3A
 572+ 955D 01 AF 28       LD BC,#28AF             ; BC=#28AF
 573+ 9560 AF             XOR A                   ; A=0
 574+ 9561 ED 79          OUT (C),A               ; OUT BC,A
 575+ 9563 21 00 00       LD HL,#0000             ; HL=#0000
 576+ 9566 31 00 60       LD SP,#6000             ; SP=#6000
 577+ 9569 C3 00 00       JP #0000                ; Jump to 0000
 578+ 956C 01 AF 21       LD BC,#21AF             ; BC=#21AF
 579+ 956F 3E 01          LD A,#01                ; A=#01
 580+ 9571 ED 79          OUT (C),A               ; OUT BC,A
 581+ 9573 06 10          LD B,#10                ; B=#10
 582+ 9575 3E 03          LD A,#03                ; A=#03
 583+ 9577 ED 79          OUT (C),A               ; OUT BC,A
 584+ 9579 F3             DI                      ; Disable interrupts
 585+ 957A E9             JP (HL)                 ; Jump to HL
 586+ 957B 21 00 B0       LD HL,#B000             ; HL=#B000
 587+ 957E 06 02          LD B,#02                ; B=#02
 588+ 9580 CD 15 40       CALL #4015              ; CALL 4015
 589+ 9583 21 20 B0       LD HL,#B020             ; HL=#B020
 590+ 9586 11 24 AB       LD DE,#AB24             ; DE=#AB24
 591+ 9589 06 0C          LD B,#0C                ; B=#0C
 592+ 958B CD 2B A7       CALL L9B7C_163          ; CALL L9B7C_163
 593+ 958E C2 9F 69       JP NZ,L6011_131         ; Jump to L6011_131 if the zero flag is not set
 594+ 9591 7E             LD A,(HL)               ; A=PEEK HL
 595+ 9592 FE 03          CP #03                  ; Set the zero flag if A=#03, or the carry flag if
 596+ 9594                                        ; A<#03
 597+ 9594 D2 F1 93       JP NC,L9149_32          ; Jump to L9149_32 if A>=#03
 598+ 9597 FE 02          CP #02                  ; Set the zero flag if A=#02, or the carry flag if
 599+ 9599                                        ; A<#02
 600+ 9599 38 17          JR C,L9149_42           ; Jump to L9149_42 if A<#02
 601+ 959B 3E 0F          LD A,#0F                ; A=#0F
 602+ 959D 32 3F 96       LD (#963F),A            ; POKE #963F,A
 603+ 95A0 3E 10          LD A,#10                ; A=#10
 604+ 95A2 32 E4 95       LD (#95E4),A            ; POKE #95E4,A
 605+ 95A5 32 D6 96       LD (#96D6),A            ; POKE #96D6,A
 606+ 95A8 3E 04          LD A,#04                ; A=#04
 607+ 95AA 32 68 96       LD (#9668),A            ; POKE #9668,A
 608+ 95AD 3E 0F          LD A,#0F                ; A=#0F
 609+ 95AF 32 AD 96       LD (#96AD),A            ; POKE #96AD,A
 610+ 95B2              L9149_42:
 611+ 95B2 CD 08 93       CALL L9149_26           ; CALL L9149_26
 612+ 95B5 C8             RET Z                   ; Return if the zero flag is set
 613+ 95B6 CD 88 6A       CALL L6011_140          ; CALL L6011_140
 614+ 95B9 3E 20          LD A,#20                ; A=#20
 615+ 95BB 32 57 7F       LD (#7F57),A            ; POKE #7F57,A
 616+ 95BE CD 21 A7       CALL L9B7C_162          ; CALL L9B7C_162
 617+ 95C1 21 00 B4       LD HL,#B400             ; HL=#B400
 618+ 95C4 06 02          LD B,#02                ; B=#02
 619+ 95C6 CD 15 40       CALL #4015              ; CALL 4015
 620+ 95C9 21 00 B0       LD HL,#B000             ; HL=#B000
 621+ 95CC 11 00 53       LD DE,#5300             ; DE=#5300
 622+ 95CF 01 00 08       LD BC,#0800             ; BC=#0800
 623+ 95D2 ED B0          LDIR                    ; POKE DE,PEEK HL; HL=HL+1; DE=DE+1; BC=BC-1; repeat
 624+ 95D4                                        ; until BC=0
 625+ 95D4 21 0D 97       LD HL,#970D             ; HL=#970D
 626+ 95D7 11 00 53       LD DE,#5300             ; DE=#5300
 627+ 95DA 01 20 00       LD BC,#0020             ; BC=#0020
 628+ 95DD ED B0          LDIR                    ; POKE DE,PEEK HL; HL=HL+1; DE=DE+1; BC=BC-1; repeat
 629+ 95DF                                        ; until BC=0
 630+ 95DF AF             XOR A                   ; A=0
 631+ 95E0 CD C1 68       CALL L6011_114          ; CALL L6011_114
 632+ 95E3 3E 08          LD A,#08                ; A=#08
 633+ 95E5 32 43 7F       LD (#7F43),A            ; POKE #7F43,A
 634+ 95E8 2A 40 53       LD HL,(#5340)           ; L=PEEK #5340; H=PEEK #5341
 635+ 95EB 22 D0 96       LD (#96D0),HL           ; POKE #96D0,L; POKE #96D1,H
 636+ 95EE 3A 42 53       LD A,(#5342)            ; A=PEEK #5342
 637+ 95F1 32 AB 96       LD (#96AB),A            ; POKE #96AB,A
 638+ 95F4 2A 4A 53       LD HL,(#534A)           ; L=PEEK #534A; H=PEEK #534B
 639+ 95F7 7C             LD A,H                  ; A=H
 640+ 95F8 FE 40          CP #40                  ; Set the zero flag if A=#40, or the carry flag if
 641+ 95FA                                        ; A<#40
 642+ 95FA 30 03          JR NC,L9149_43          ; Jump to L9149_43 if A>=#40
 643+ 95FC 2A 26 7F       LD HL,(#7F26)           ; L=PEEK #7F26; H=PEEK #7F27
 644+ 95FF              L9149_43:
 645+ 95FF 22 CD 96       LD (#96CD),HL           ; POKE #96CD,L; POKE #96CE,H
 646+ 9602 2A 44 53       LD HL,(#5344)           ; L=PEEK #5344; H=PEEK #5345
 647+ 9605 22 94 96       LD (#9694),HL           ; POKE #9694,L; POKE #9695,H
 648+ 9608 2A 4C 53       LD HL,(#534C)           ; L=PEEK #534C; H=PEEK #534D
 649+ 960B 7C             LD A,H                  ; A=H
 650+ 960C B5             OR L                    ; A=A|L
 651+ 960D 28 03          JR Z,L9149_44           ; Jump to L9149_44 if A=0
 652+ 960F 22 A6 96       LD (#96A6),HL           ; POKE #96A6,L; POKE #96A7,H
 653+ 9612              L9149_44:
 654+ 9612 ED 4B 4E 53    LD BC,(#534E)           ; C=PEEK #534E; B=PEEK #534F
 655+ 9616 78             LD A,B                  ; A=B
 656+ 9617 B1             OR C                    ; A=A|C
 657+ 9618 28 0D          JR Z,L9149_45           ; Jump to L9149_45 if A=0
 658+ 961A 78             LD A,B                  ; A=B
 659+ 961B B7             OR A                    ; Clear the carry flag and set the zero flag if A=0
 660+ 961C 28 09          JR Z,L9149_45           ; Jump to L9149_45 if A=0
 661+ 961E 06 01          LD B,#01                ; B=#01
 662+ 9620 79             LD A,C                  ; A=C
 663+ 9621 FE 41          CP #41                  ; Set the zero flag if A=#41, or the carry flag if
 664+ 9623                                        ; A<#41
 665+ 9623 38 02          JR C,L9149_45           ; Jump to L9149_45 if A<#41
 666+ 9625 0E 00          LD C,#00                ; C=#00
 667+ 9627              L9149_45:
 668+ 9627 ED 43 9C 96    LD (#969C),BC           ; POKE #969C,C; POKE #969D,B
 669+ 962B DD 21 80 53    LD IX,#5380             ; IX=#5380
 670+ 962F              L9149_46:
 671+ 962F DD 7E 02       LD A,(IX+#02)           ; A=PEEK (IX+#02)
 672+ 9632 FE 0E          CP #0E                  ; Set the zero flag if A=#0E, or the carry flag if
 673+ 9634                                        ; A<#0E
 674+ 9634 38 02          JR C,L9149_47           ; Jump to L9149_47 if A<#0E
 675+ 9636 3E 0D          LD A,#0D                ; A=#0D
 676+ 9638              L9149_47:
 677+ 9638 32 5B 96       LD (#965B),A            ; POKE #965B,A
 678+ 963B DD 7E 03       LD A,(IX+#03)           ; A=PEEK (IX+#03)
 679+ 963E E6 07          AND #07                 ; Keep only bits 0, 1 and 2 of A
 680+ 9640 CD C1 68       CALL L6011_114          ; CALL L6011_114
 681+ 9643 21 00 55       LD HL,#5500             ; HL=#5500
 682+ 9646 DD 5E 00       LD E,(IX+#00)           ; E=PEEK (IX+#00)
 683+ 9649 DD 56 01       LD D,(IX+#01)           ; D=PEEK (IX+#01)
 684+ 964C 01 00 06       LD BC,#0600             ; BC=#0600
 685+ 964F CD D2 96       CALL L9149_53           ; CALL L9149_53
 686+ 9652 EB             EX DE,HL                ; Exchange DE and HL
 687+ 9653 7C             LD A,H                  ; A=H
 688+ 9654 FE A0          CP #A0                  ; Set the zero flag if A=#A0, or the carry flag if
 689+ 9656                                        ; A<#A0
 690+ 9656 38 1D          JR C,L9149_48           ; Jump to L9149_48 if A<#A0
 691+ 9658 DD E5          PUSH IX                 ; Push IX onto the stack
 692+ 965A 06 01          LD B,#01                ; B=#01
 693+ 965C CB 20          SLA B                   ; Shift B left (copying bit 7 into the carry flag,
 694+ 965E                                        ; and resetting bit 0)
 695+ 965E CB 20          SLA B                   ; Shift B left (copying bit 7 into the carry flag,
 696+ 9660                                        ; and resetting bit 0)
 697+ 9660 78             LD A,B                  ; A=B
 698+ 9661 B7             OR A                    ; Clear the carry flag and set the zero flag if A=0
 699+ 9662 C4 15 40       CALL NZ,#4015           ; CALL 4015 if A>0
 700+ 9665 DD E1          POP IX                  ; Pop last item from stack into IX
 701+ 9667 11 08 00       LD DE,#0008             ; DE=#0008
 702+ 966A DD 19          ADD IX,DE               ; IX=IX+DE
 703+ 966C 3A 43 7F       LD A,(#7F43)            ; A=PEEK #7F43
 704+ 966F 3D             DEC A                   ; A=A-1
 705+ 9670 32 43 7F       LD (#7F43),A            ; POKE #7F43,A
 706+ 9673 20 BA          JR NZ,L9149_46          ; Jump to L9149_46 if the zero flag is not set
 707+ 9675              L9149_48:
 708+ 9675 F3             DI                      ; Disable interrupts
 709+ 9676 3E 3F          LD A,#3F                ; A=#3F
 710+ 9678 ED 47          LD I,A                  ; I=A
 711+ 967A ED 56          IM 1                    ; Set interrupt mode 1
 712+ 967C FD 21 3A 5C    LD IY,#5C3A             ; IY=#5C3A
 713+ 9680 01 AF 00       LD BC,#00AF             ; BC=#00AF
 714+ 9683 AF             XOR A                   ; A=0
 715+ 9684 ED 79          OUT (C),A               ; OUT BC,A
 716+ 9686 CD 85 68       CALL L6011_106          ; CALL L6011_106
 717+ 9689 01 FD 7F       LD BC,#7FFD             ; BC=#7FFD
 718+ 968C 3E 10          LD A,#10                ; A=#10
 719+ 968E ED 79          OUT (C),A               ; OUT BC,A
 720+ 9690 21 00 53       LD HL,#5300             ; HL=#5300
 721+ 9693 11 00 00       LD DE,#0000             ; DE=#0000
 722+ 9696 01 20 00       LD BC,#0020             ; BC=#0020
 723+ 9699 ED B0          LDIR                    ; POKE DE,PEEK HL; HL=HL+1; DE=DE+1; BC=BC-1; repeat
 724+ 969B                                        ; until BC=0
 725+ 969B 01 00 00       LD BC,#0000             ; BC=#0000
 726+ 969E 78             LD A,B                  ; A=B
 727+ 969F B1             OR C                    ; A=A|C
 728+ 96A0 28 08          JR Z,L9149_49           ; Jump to L9149_49 if A=0
 729+ 96A2 21 C0 53       LD HL,#53C0             ; HL=#53C0
 730+ 96A5 11 00 5B       LD DE,#5B00             ; DE=#5B00
 731+ 96A8 ED B0          LDIR                    ; POKE DE,PEEK HL; HL=HL+1; DE=DE+1; BC=BC-1; repeat
 732+ 96AA                                        ; until BC=0
 733+ 96AA              L9149_49:
 734+ 96AA 3E 00          LD A,#00                ; A=#00
 735+ 96AC E6 07          AND #07                 ; Keep only bits 0, 1 and 2 of A
 736+ 96AE CD 00 53       CALL #5300              ; CALL 5300
 737+ 96B1 3A AD 96       LD A,(#96AD)            ; A=PEEK #96AD
 738+ 96B4 FE 07          CP #07                  ; Set the zero flag if A=#07, or the carry flag if
 739+ 96B6                                        ; A<#07
 740+ 96B6 28 14          JR Z,L9149_52           ; Jump to L9149_52 if A=#07
 741+ 96B8 21 31 53       LD HL,#5331             ; HL=#5331
 742+ 96BB 1E 05          LD E,#05                ; E=#05
 743+ 96BD              L9149_50:
 744+ 96BD 4E             LD C,(HL)               ; C=PEEK HL
 745+ 96BE 23             INC HL                  ; HL=HL+1
 746+ 96BF 46             LD B,(HL)               ; B=PEEK HL
 747+ 96C0 23             INC HL                  ; HL=HL+1
 748+ 96C1 78             LD A,B                  ; A=B
 749+ 96C2 B1             OR C                    ; A=A|C
 750+ 96C3 28 03          JR Z,L9149_51           ; Jump to L9149_51 if A=0
 751+ 96C5 7E             LD A,(HL)               ; A=PEEK HL
 752+ 96C6 ED 79          OUT (C),A               ; OUT BC,A
 753+ 96C8              L9149_51:
 754+ 96C8 23             INC HL                  ; HL=HL+1
 755+ 96C9 1D             DEC E                   ; E=E-1
 756+ 96CA 20 F1          JR NZ,L9149_50          ; Jump to L9149_50 if E>0
 757+ 96CC              L9149_52:
 758+ 96CC 31 00 00       LD SP,#0000             ; SP=#0000
 759+ 96CF C3 00 00       JP #0000                ; Jump to 0000
 760+ 96D2              L9149_53:
 761+ 96D2 3A 43 7F       LD A,(#7F43)            ; A=PEEK #7F43
 762+ 96D5 FE 08          CP #08                  ; Set the zero flag if A=#08, or the carry flag if
 763+ 96D7                                        ; A<#08
 764+ 96D7 C0             RET NZ                  ; Return if A<>#08
 765+ 96D8 7A             LD A,D                  ; A=D
 766+ 96D9 FE A0          CP #A0                  ; Set the zero flag if A=#A0, or the carry flag if
 767+ 96DB                                        ; A<#A0
 768+ 96DB 30 1F          JR NC,L9149_54          ; Jump to L9149_54 if A>=#A0
 769+ 96DD ED 53 03 97    LD (#9703),DE           ; POKE #9703,E; POKE #9704,D
 770+ 96E1 C6 06          ADD A,#06               ; A=A+#06
 771+ 96E3 57             LD D,A                  ; D=A
 772+ 96E4 D5             PUSH DE                 ; Push DE onto the stack
 773+ 96E5 2A D0 96       LD HL,(#96D0)           ; L=PEEK #96D0; H=PEEK #96D1
 774+ 96E8 22 0B 97       LD (#970B),HL           ; POKE #970B,L; POKE #970C,H
 775+ 96EB 11 20 53       LD DE,#5320             ; DE=#5320
 776+ 96EE ED 53 D0 96    LD (#96D0),DE           ; POKE #96D0,E; POKE #96D1,D
 777+ 96F2 21 FF 96       LD HL,#96FF             ; HL=#96FF
 778+ 96F5 01 10 00       LD BC,#0010             ; BC=#0010
 779+ 96F8 ED B0          LDIR                    ; POKE DE,PEEK HL; HL=HL+1; DE=DE+1; BC=BC-1; repeat
 780+ 96FA                                        ; until BC=0
 781+ 96FA D1             POP DE                  ; Pop last item from stack into DE
 782+ 96FB C9             RET                     ; Return
 783+ 96FC              L9149_54:
 784+ 96FC ED B0          LDIR                    ; POKE DE,PEEK HL; HL=HL+1; DE=DE+1; BC=BC-1; repeat
 785+ 96FE                                        ; until BC=0
 786+ 96FE C9             RET                     ; Return
 787+ 96FF 21 00 55       LD HL,#5500             ; HL=#5500
 788+ 9702 11 00 00       LD DE,#0000             ; DE=#0000
 789+ 9705 01 00 06       LD BC,#0600             ; BC=#0600
 790+ 9708 ED B0          LDIR                    ; POKE DE,PEEK HL; HL=HL+1; DE=DE+1; BC=BC-1; repeat
 791+ 970A                                        ; until BC=0
 792+ 970A C3 00 00       JP #0000                ; Jump to 0000
 793+ 970D C5             PUSH BC                 ; Push BC onto the stack
 794+ 970E 01 AF 13       LD BC,#13AF             ; BC=#13AF
 795+ 9711 ED 79          OUT (C),A               ; OUT BC,A
 796+ 9713 C1             POP BC                  ; Pop last item from stack into BC
 797+ 9714 C9             RET                     ; Return
 798+ 9715              L9149_55:
 799+ 9715 21 A4 83       LD HL,#83A4             ; HL=#83A4
 800+ 9718 C3 DE 90       JP L8531_149            ; Jump to L8531_149
 801+ 971B              L9149_56:
 802+ 971B 3A 14 7F       LD A,(#7F14)            ; A=PEEK #7F14
 803+ 971E B7             OR A                    ; Clear the carry flag and set the zero flag if A=0
 804+ 971F C0             RET NZ                  ; Return if A>0
 805+ 9720 E5             PUSH HL                 ; Push HL onto the stack
 806+ 9721 21 A9 81       LD HL,#81A9             ; HL=#81A9
 807+ 9724 11 00 01       LD DE,#0100             ; DE=#0100
 808+ 9727 CD 2F 90       CALL L8531_138          ; CALL L8531_138
 809+ 972A E1             POP HL                  ; Pop last item from stack into HL
 810+ 972B C8             RET Z                   ; Return if the zero flag is set
 811+ 972C E5             PUSH HL                 ; Push HL onto the stack
 812+ 972D CD 1D 9A       CALL L9149_88           ; CALL L9149_88
 813+ 9730 E1             POP HL                  ; Pop last item from stack into HL
 814+ 9731 2E 00          LD L,#00                ; L=#00
 815+ 9733 24             INC H                   ; H=H+1
 816+ 9734 24             INC H                   ; H=H+1
 817+ 9735 CD 2F 9A       CALL L9149_89           ; CALL L9149_89
 818+ 9738 18 15          JR L9149_58             ; Jump to L9149_58
 819+ 973A CD 9F 69       CALL L6011_131          ; CALL L6011_131
 820+ 973D AF             XOR A                   ; A=0
 821+ 973E 32 00 B2       LD (#B200),A            ; POKE #B200,A
 822+ 9741              ; This entry point is used by the routine at L9B7C.
 823+ 9741              L9149_57:
 824+ 9741 32 14 7F       LD (#7F14),A            ; POKE #7F14,A
 825+ 9744 21 00 B0       LD HL,#B000             ; HL=#B000
 826+ 9747 06 01          LD B,#01                ; B=#01
 827+ 9749 CD 15 40       CALL #4015              ; CALL 4015
 828+ 974C CD 83 98       CALL L9149_70           ; CALL L9149_70
 829+ 974F              L9149_58:
 830+ 974F 3A 20 B0       LD A,(#B020)            ; A=PEEK #B020
 831+ 9752 FE 02          CP #02                  ; Set the zero flag if A=#02, or the carry flag if
 832+ 9754                                        ; A<#02
 833+ 9754 38 BF          JR C,L9149_55           ; Jump to L9149_55 if A<#02
 834+ 9756 FE 11          CP #11                  ; Set the zero flag if A=#11, or the carry flag if
 835+ 9758                                        ; A<#11
 836+ 9758 30 BB          JR NC,L9149_55          ; Jump to L9149_55 if A>=#11
 837+ 975A 21 30 AB       LD HL,#AB30             ; HL=#AB30
 838+ 975D 11 10 B0       LD DE,#B010             ; DE=#B010
 839+ 9760 06 10          LD B,#10                ; B=#10
 840+ 9762 CD 2B A7       CALL L9B7C_163          ; CALL L9B7C_163
 841+ 9765 C0             RET NZ                  ; Return if the zero flag is not set
 842+ 9766 3A 16 7F       LD A,(#7F16)            ; A=PEEK #7F16
 843+ 9769 32 15 7F       LD (#7F15),A            ; POKE #7F15,A
 844+ 976C 32 00 B0       LD (#B000),A            ; POKE #B000,A
 845+ 976F 2A 22 B0       LD HL,(#B022)           ; L=PEEK #B022; H=PEEK #B023
 846+ 9772 85             ADD A,L                 ; A=A+L
 847+ 9773 D8             RET C                   ; Return if the carry flag is set
 848+ 9774 FE 3F          CP #3F                  ; Set the zero flag if A=#3F, or the carry flag if
 849+ 9776                                        ; A<#3F
 850+ 9776 D0             RET NC                  ; Return if A>=#3F
 851+ 9777 32 17 7F       LD (#7F17),A            ; POKE #7F17,A
 852+ 977A 3E 60          LD A,#60                ; A=#60
 853+ 977C CD C1 68       CALL L6011_114          ; CALL L6011_114
 854+ 977F 3A 19 7F       LD A,(#7F19)            ; A=PEEK #7F19
 855+ 9782 FE 40          CP #40                  ; Set the zero flag if A=#40, or the carry flag if
 856+ 9784                                        ; A<#40
 857+ 9784 D8             RET C                   ; Return if A<#40
 858+ 9785 CD 41 98       CALL L9149_64           ; CALL L9149_64
 859+ 9788 DA 1B 97       JP C,L9149_56           ; Jump to L9149_56 if the carry flag is set
 860+ 978B 21 00 B0       LD HL,#B000             ; HL=#B000
 861+ 978E ED 5B 18 7F    LD DE,(#7F18)           ; E=PEEK #7F18; D=PEEK #7F19
 862+ 9792 01 00 02       LD BC,#0200             ; BC=#0200
 863+ 9795 ED B0          LDIR                    ; POKE DE,PEEK HL; HL=HL+1; DE=DE+1; BC=BC-1; repeat
 864+ 9797                                        ; until BC=0
 865+ 9797 ED 53 18 7F    LD (#7F18),DE           ; POKE #7F18,E; POKE #7F19,D
 866+ 979B EB             EX DE,HL                ; Exchange DE and HL
 867+ 979C 06 00          LD B,#00                ; B=#00
 868+ 979E CD 99 69       CALL L6011_129          ; CALL L6011_129
 869+ 97A1 21 24 B0       LD HL,#B024             ; HL=#B024
 870+ 97A4              L9149_59:
 871+ 97A4 7E             LD A,(HL)               ; A=PEEK HL
 872+ 97A5 23             INC HL                  ; HL=HL+1
 873+ 97A6 CD F9 68       CALL L6011_121          ; CALL L6011_121
 874+ 97A9 7E             LD A,(HL)               ; A=PEEK HL
 875+ 97AA 23             INC HL                  ; HL=HL+1
 876+ 97AB B7             OR A                    ; Clear the carry flag and set the zero flag if A=0
 877+ 97AC 28 0B          JR Z,L9149_60           ; Jump to L9149_60 if A=0
 878+ 97AE E5             PUSH HL                 ; Push HL onto the stack
 879+ 97AF 47             LD B,A                  ; B=A
 880+ 97B0 21 00 C0       LD HL,LC000             ; HL=#C000
 881+ 97B3 CD 15 40       CALL #4015              ; CALL 4015
 882+ 97B6 E1             POP HL                  ; Pop last item from stack into HL
 883+ 97B7 18 EB          JR L9149_59             ; Jump to L9149_59
 884+ 97B9              L9149_60:
 885+ 97B9 3A 17 7F       LD A,(#7F17)            ; A=PEEK #7F17
 886+ 97BC 32 16 7F       LD (#7F16),A            ; POKE #7F16,A
 887+ 97BF 3A 14 7F       LD A,(#7F14)            ; A=PEEK #7F14
 888+ 97C2 0E 01          LD C,#01                ; C=#01
 889+ 97C4 B7             OR A                    ; Clear the carry flag and set the zero flag if A=0
 890+ 97C5 20 63          JR NZ,L9149_62          ; Jump to L9149_62 if A>0
 891+ 97C7 DD E5          PUSH IX                 ; Push IX onto the stack
 892+ 97C9 DD 21 2A 80    LD IX,#802A             ; IX=#802A
 893+ 97CD CD 2C 79       CALL #792C              ; CALL 792C
 894+ 97D0 21 00 B2       LD HL,#B200             ; HL=#B200
 895+ 97D3 06 20          LD B,#20                ; B=#20
 896+ 97D5 CD 99 69       CALL L6011_129          ; CALL L6011_129
 897+ 97D8 21 C4 B0       LD HL,#B0C4             ; HL=#B0C4
 898+ 97DB 06 20          LD B,#20                ; B=#20
 899+ 97DD 78             LD A,B                  ; A=B
 900+ 97DE CD 7D 98       CALL L9149_69           ; CALL L9149_69
 901+ 97E1 48             LD C,B                  ; C=B
 902+ 97E2 90             SUB B                   ; A=A-B
 903+ 97E3 CB 3F          SRL A                   ; Shift A right (copying bit 0 into the carry flag,
 904+ 97E5                                        ; and resetting bit 7)
 905+ 97E5 47             LD B,A                  ; B=A
 906+ 97E6 11 00 B2       LD DE,#B200             ; DE=#B200
 907+ 97E9 3E 1F          LD A,#1F                ; A=#1F
 908+ 97EB 90             SUB B                   ; A=A-B
 909+ 97EC 5F             LD E,A                  ; E=A
 910+ 97ED 06 00          LD B,#00                ; B=#00
 911+ 97EF 79             LD A,C                  ; A=C
 912+ 97F0 B7             OR A                    ; Clear the carry flag and set the zero flag if A=0
 913+ 97F1 28 02          JR Z,L9149_61           ; Jump to L9149_61 if A=0
 914+ 97F3 ED B8          LDDR                    ; POKE DE,PEEK HL; HL=HL-1; DE=DE-1; BC=BC-1; repeat
 915+ 97F5                                        ; until BC=0
 916+ 97F5              L9149_61:
 917+ 97F5 21 00 B2       LD HL,#B200             ; HL=#B200
 918+ 97F8 11 01 01       LD DE,#0101             ; DE=#0101
 919+ 97FB 01 20 00       LD BC,#0020             ; BC=#0020
 920+ 97FE CD 25 7D       CALL L7828_72           ; CALL L7828_72
 921+ 9801 3E 71          LD A,#71                ; A=#71
 922+ 9803 CD 39 7D       CALL L7828_73           ; CALL L7828_73
 923+ 9806 21 BE 83       LD HL,#83BE             ; HL=#83BE
 924+ 9809 11 0D 02       LD DE,#020D             ; DE=#020D
 925+ 980C 01 09 00       LD BC,#0009             ; BC=#0009
 926+ 980F CD 25 7D       CALL L7828_72           ; CALL L7828_72
 927+ 9812 CD 4B 74       CALL L7143_48           ; CALL L7143_48
 928+ 9815 CD 43 74       CALL L7143_47           ; CALL L7143_47
 929+ 9818 CD CE 7A       CALL L7828_38           ; CALL L7828_38
 930+ 981B DD E1          POP IX                  ; Pop last item from stack into IX
 931+ 981D DD E5          PUSH IX                 ; Push IX onto the stack
 932+ 981F DD 21 87 84    LD IX,#8487             ; IX=#8487
 933+ 9823 CD 19 A2       CALL L9B7C_75           ; CALL L9B7C_75
 934+ 9826 DD E1          POP IX                  ; Pop last item from stack into IX
 935+ 9828 0E FF          LD C,#FF                ; C=#FF
 936+ 982A              L9149_62:
 937+ 982A 3A C5 B0       LD A,(#B0C5)            ; A=PEEK #B0C5
 938+ 982D 21 C6 B0       LD HL,#B0C6             ; HL=#B0C6
 939+ 9830 B9             CP C                    ; Set the zero flag if A=C, or the carry flag if A<C
 940+ 9831 C8             RET Z                   ; Return if A=C
 941+ 9832 FE 11          CP #11                  ; Set the zero flag if A=#11, or the carry flag if
 942+ 9834                                        ; A<#11
 943+ 9834 38 05          JR C,L9149_63           ; Jump to L9149_63 if A<#11
 944+ 9836 FE 16          CP #16                  ; Set the zero flag if A=#16, or the carry flag if
 945+ 9838                                        ; A<#16
 946+ 9838 DC 26 A2       CALL C,L9B7C_76         ; CALL L9B7C_76 if A<#16
 947+ 983B              L9149_63:
 948+ 983B FE 01          CP #01                  ; Set the zero flag if A=#01, or the carry flag if
 949+ 983D                                        ; A<#01
 950+ 983D CC C1 70       CALL Z,L6011_242        ; CALL L6011_242 if A=#01
 951+ 9840 C9             RET                     ; Return
 952+ 9841              L9149_64:
 953+ 9841 21 A5 C0       LD HL,#C0A5             ; HL=#C0A5
 954+ 9844              L9149_65:
 955+ 9844 ED 4B 18 7F    LD BC,(#7F18)           ; C=PEEK #7F18; B=PEEK #7F19
 956+ 9848 B7             OR A                    ; Clear the carry flag and set the zero flag if A=0
 957+ 9849 ED 42          SBC HL,BC               ; HL=HL-carry-BC
 958+ 984B D0             RET NC                  ; Return if the carry flag is not set
 959+ 984C 09             ADD HL,BC               ; HL=HL+BC
 960+ 984D E5             PUSH HL                 ; Push HL onto the stack
 961+ 984E 11 A5 B0       LD DE,#B0A5             ; DE=#B0A5
 962+ 9851 06 20          LD B,#20                ; B=#20
 963+ 9853              L9149_66:
 964+ 9853 1A             LD A,(DE)               ; A=PEEK DE
 965+ 9854 BE             CP (HL)                 ; Set the zero flag if A=PEEK HL, or the carry flag
 966+ 9855                                        ; if A<PEEK HL
 967+ 9855 20 07          JR NZ,L9149_67          ; Jump to L9149_67 if A<>PEEK HL
 968+ 9857 23             INC HL                  ; HL=HL+1
 969+ 9858 13             INC DE                  ; DE=DE+1
 970+ 9859 10 F8          DJNZ L9149_66           ; Decrement B and jump to L9149_66 if B>0
 971+ 985B E1             POP HL                  ; Pop last item from stack into HL
 972+ 985C 37             SCF                     ; Set the carry flag
 973+ 985D C9             RET                     ; Return
 974+ 985E              L9149_67:
 975+ 985E E1             POP HL                  ; Pop last item from stack into HL
 976+ 985F 01 00 02       LD BC,#0200             ; BC=#0200
 977+ 9862 09             ADD HL,BC               ; HL=HL+BC
 978+ 9863 18 DF          JR L9149_65             ; Jump to L9149_65
 979+ 9865              ; This entry point is used by the routine at L9B7C.
 980+ 9865              L9149_68:
 981+ 9865 3E 60          LD A,#60                ; A=#60
 982+ 9867 CD C1 68       CALL L6011_114          ; CALL L6011_114
 983+ 986A 21 00 C0       LD HL,LC000             ; HL=#C000
 984+ 986D 22 18 7F       LD (#7F18),HL           ; POKE #7F18,L; POKE #7F19,H
 985+ 9870 06 00          LD B,#00                ; B=#00
 986+ 9872 CD 99 69       CALL L6011_129          ; CALL L6011_129
 987+ 9875 AF             XOR A                   ; A=0
 988+ 9876 32 15 7F       LD (#7F15),A            ; POKE #7F15,A
 989+ 9879 32 16 7F       LD (#7F16),A            ; POKE #7F16,A
 990+ 987C C9             RET                     ; Return
 991+ 987D              L9149_69:
 992+ 987D BE             CP (HL)                 ; Set the zero flag if A=PEEK HL, or the carry flag
 993+ 987E                                        ; if A<PEEK HL
 994+ 987E C0             RET NZ                  ; Return if A<>PEEK HL
 995+ 987F 2B             DEC HL                  ; HL=HL-1
 996+ 9880 10 FB          DJNZ L9149_69           ; Decrement B and jump to L9149_69 if B>0
 997+ 9882 C9             RET                     ; Return
 998+ 9883              L9149_70:
 999+ 9883 21 01 B0       LD HL,#B001             ; HL=#B001
1000+ 9886 06 0A          LD B,#0A                ; B=#0A
1001+ 9888 CD 99 69       CALL L6011_129          ; CALL L6011_129
1002+ 988B D9             EXX                     ; Exchange BC, DE and HL with BC', DE' and HL'
1003+ 988C 21 01 B0       LD HL,#B001             ; HL=#B001
1004+ 988F D9             EXX                     ; Exchange BC, DE and HL with BC', DE' and HL'
1005+ 9890 11 04 B1       LD DE,#B104             ; DE=#B104
1006+ 9893              L9149_71:
1007+ 9893 21 00 B2       LD HL,#B200             ; HL=#B200
1008+ 9896 7E             LD A,(HL)               ; A=PEEK HL
1009+ 9897 B7             OR A                    ; Clear the carry flag and set the zero flag if A=0
1010+ 9898 C8             RET Z                   ; Return if A=0
1011+ 9899 ED 53 00 99    LD (#9900),DE           ; POKE #9900,E; POKE #9901,D
1012+ 989D 1A             LD A,(DE)               ; A=PEEK DE
1013+ 989E 32 FD 98       LD (#98FD),A            ; POKE #98FD,A
1014+ 98A1 13             INC DE                  ; DE=DE+1
1015+ 98A2 B7             OR A                    ; Clear the carry flag and set the zero flag if A=0
1016+ 98A3 C8             RET Z                   ; Return if A=0
1017+ 98A4 FE FC          CP #FC                  ; Set the zero flag if A=#FC, or the carry flag if
1018+ 98A6                                        ; A<#FC
1019+ 98A6 D0             RET NC                  ; Return if A>=#FC
1020+ 98A7 1A             LD A,(DE)               ; A=PEEK DE
1021+ 98A8 32 F2 98       LD (#98F2),A            ; POKE #98F2,A
1022+ 98AB 13             INC DE                  ; DE=DE+1
1023+ 98AC 21 00 B4       LD HL,#B400             ; HL=#B400
1024+ 98AF 36 2D          LD (HL),#2D             ; POKE HL,#2D
1025+ 98B1 23             INC HL                  ; HL=HL+1
1026+ 98B2 06 20          LD B,#20                ; B=#20
1027+ 98B4              L9149_72:
1028+ 98B4 1A             LD A,(DE)               ; A=PEEK DE
1029+ 98B5 FE 0B          CP #0B                  ; Set the zero flag if A=#0B, or the carry flag if
1030+ 98B7                                        ; A<#0B
1031+ 98B7 38 06          JR C,L9149_73           ; Jump to L9149_73 if A<#0B
1032+ 98B9 77             LD (HL),A               ; POKE HL,A
1033+ 98BA 23             INC HL                  ; HL=HL+1
1034+ 98BB 13             INC DE                  ; DE=DE+1
1035+ 98BC 10 F6          DJNZ L9149_72           ; Decrement B and jump to L9149_72 if B>0
1036+ 98BE C9             RET                     ; Return
1037+ 98BF              L9149_73:
1038+ 98BF B7             OR A                    ; Clear the carry flag and set the zero flag if A=0
1039+ 98C0 C8             RET Z                   ; Return if A=0
1040+ 98C1 08             EX AF,AF'               ; Exchange AF and AF'
1041+ 98C2 78             LD A,B                  ; A=B
1042+ 98C3 FE 20          CP #20                  ; Set the zero flag if A=#20, or the carry flag if
1043+ 98C5                                        ; A<#20
1044+ 98C5 C8             RET Z                   ; Return if A=#20
1045+ 98C6 08             EX AF,AF'               ; Exchange AF and AF'
1046+ 98C7 36 FF          LD (HL),#FF             ; POKE HL,#FF
1047+ 98C9 32 DC 98       LD (#98DC),A            ; POKE #98DC,A
1048+ 98CC 13             INC DE                  ; DE=DE+1
1049+ 98CD D5             PUSH DE                 ; Push DE onto the stack
1050+ 98CE 21 00 B4       LD HL,#B400             ; HL=#B400
1051+ 98D1 11 00 B2       LD DE,#B200             ; DE=#B200
1052+ 98D4 CD C9 9D       CALL L9B7C_23           ; CALL L9B7C_23
1053+ 98D7 D1             POP DE                  ; Pop last item from stack into DE
1054+ 98D8 28 17          JR Z,L9149_75           ; Jump to L9149_75 if the zero flag is set
1055+ 98DA 01 00 00       LD BC,#0000             ; BC=#0000
1056+ 98DD 7E             LD A,(HL)               ; A=PEEK HL
1057+ 98DE B7             OR A                    ; Clear the carry flag and set the zero flag if A=0
1058+ 98DF C8             RET Z                   ; Return if A=0
1059+ 98E0 FE 3D          CP #3D                  ; Set the zero flag if A=#3D, or the carry flag if
1060+ 98E2                                        ; A<#3D
1061+ 98E2 20 01          JR NZ,L9149_74          ; Jump to L9149_74 if A<>#3D
1062+ 98E4 23             INC HL                  ; HL=HL+1
1063+ 98E5              L9149_74:
1064+ 98E5 C5             PUSH BC                 ; Push BC onto the stack
1065+ 98E6 CD 08 A3       CALL L9B7C_91           ; CALL L9B7C_91
1066+ 98E9 C1             POP BC                  ; Pop last item from stack into BC
1067+ 98EA 03             INC BC                  ; BC=BC+1
1068+ 98EB 28 06          JR Z,L9149_76           ; Jump to L9149_76 if the zero flag is set
1069+ 98ED 1B             DEC DE                  ; DE=DE-1
1070+ 98EE 1B             DEC DE                  ; DE=DE-1
1071+ 98EF 10 F4          DJNZ L9149_74           ; Decrement B and jump to L9149_74 if B>0
1072+ 98F1              L9149_75:
1073+ 98F1 0E 00          LD C,#00                ; C=#00
1074+ 98F3              L9149_76:
1075+ 98F3 79             LD A,C                  ; A=C
1076+ 98F4 D9             EXX                     ; Exchange BC, DE and HL with BC', DE' and HL'
1077+ 98F5 77             LD (HL),A               ; POKE HL,A
1078+ 98F6 23             INC HL                  ; HL=HL+1
1079+ 98F7 7D             LD A,L                  ; A=L
1080+ 98F8 D9             EXX                     ; Exchange BC, DE and HL with BC', DE' and HL'
1081+ 98F9 FE 0C          CP #0C                  ; Set the zero flag if A=#0C, or the carry flag if
1082+ 98FB                                        ; A<#0C
1083+ 98FB D0             RET NC                  ; Return if A>=#0C
1084+ 98FC 21 00 00       LD HL,#0000             ; HL=#0000
1085+ 98FF 11 00 00       LD DE,#0000             ; DE=#0000
1086+ 9902 19             ADD HL,DE               ; HL=HL+DE
1087+ 9903 EB             EX DE,HL                ; Exchange DE and HL
1088+ 9904 18 8D          JR L9149_71             ; Jump to L9149_71
1089+ 9906              ; This entry point is used by the routine at L6011.
1090+ 9906              L9149_77:
1091+ 9906 DD E5          PUSH IX                 ; Push IX onto the stack
1092+ 9908              L9149_78:
1093+ 9908 3A 19 7F       LD A,(#7F19)            ; A=PEEK #7F19
1094+ 990B FE C2          CP #C2                  ; Set the zero flag if A=#C2, or the carry flag if
1095+ 990D                                        ; A<#C2
1096+ 990D DA A3 99       JP C,L9149_83           ; Jump to L9149_83 if A<#C2
1097+ 9910 3E 60          LD A,#60                ; A=#60
1098+ 9912 CD C1 68       CALL L6011_114          ; CALL L6011_114
1099+ 9915 21 A5 C0       LD HL,#C0A5             ; HL=#C0A5
1100+ 9918 11 00 B0       LD DE,#B000             ; DE=#B000
1101+ 991B              L9149_79:
1102+ 991B 01 20 00       LD BC,#0020             ; BC=#0020
1103+ 991E ED B0          LDIR                    ; POKE DE,PEEK HL; HL=HL+1; DE=DE+1; BC=BC-1; repeat
1104+ 9920                                        ; until BC=0
1105+ 9920 01 E0 01       LD BC,#01E0             ; BC=#01E0
1106+ 9923 09             ADD HL,BC               ; HL=HL+BC
1107+ 9924 3A 19 7F       LD A,(#7F19)            ; A=PEEK #7F19
1108+ 9927 BC             CP H                    ; Set the zero flag if A=H, or the carry flag if A<H
1109+ 9928 20 F1          JR NZ,L9149_79          ; Jump to L9149_79 if A<>H
1110+ 992A EB             EX DE,HL                ; Exchange DE and HL
1111+ 992B 01 00 50       LD BC,#5000             ; BC=#5000
1112+ 992E 09             ADD HL,BC               ; HL=HL+BC
1113+ 992F CB 3C          SRL H                   ; Shift H right (copying bit 0 into the carry flag,
1114+ 9931                                        ; and resetting bit 7)
1115+ 9931 CB 1D          RR L                    ; Rotate L right through the carry flag
1116+ 9933 CB 3C          SRL H                   ; Shift H right (copying bit 0 into the carry flag,
1117+ 9935                                        ; and resetting bit 7)
1118+ 9935 CB 1D          RR L                    ; Rotate L right through the carry flag
1119+ 9937 CB 3C          SRL H                   ; Shift H right (copying bit 0 into the carry flag,
1120+ 9939                                        ; and resetting bit 7)
1121+ 9939 CB 1D          RR L                    ; Rotate L right through the carry flag
1122+ 993B CB 3C          SRL H                   ; Shift H right (copying bit 0 into the carry flag,
1123+ 993D                                        ; and resetting bit 7)
1124+ 993D CB 1D          RR L                    ; Rotate L right through the carry flag
1125+ 993F CB 3C          SRL H                   ; Shift H right (copying bit 0 into the carry flag,
1126+ 9941                                        ; and resetting bit 7)
1127+ 9941 CB 1D          RR L                    ; Rotate L right through the carry flag
1128+ 9943 7D             LD A,L                  ; A=L
1129+ 9944 DD 21 36 80    LD IX,#8036             ; IX=#8036
1130+ 9948 F5             PUSH AF                 ; Push AF onto the stack
1131+ 9949 DD 77 0D       LD (IX+#0D),A           ; POKE (IX+#0D),A
1132+ 994C C6 02          ADD A,#02               ; A=A+#02
1133+ 994E DD 77 05       LD (IX+#05),A           ; POKE (IX+#05),A
1134+ 9951 CD 2C 79       CALL #792C              ; CALL 792C
1135+ 9954 C1             POP BC                  ; Pop last item from stack into BC
1136+ 9955 21 00 B0       LD HL,#B000             ; HL=#B000
1137+ 9958 11 01 01       LD DE,#0101             ; DE=#0101
1138+ 995B              L9149_80:
1139+ 995B C5             PUSH BC                 ; Push BC onto the stack
1140+ 995C E5             PUSH HL                 ; Push HL onto the stack
1141+ 995D D5             PUSH DE                 ; Push DE onto the stack
1142+ 995E 01 20 00       LD BC,#0020             ; BC=#0020
1143+ 9961 CD 25 7D       CALL L7828_72           ; CALL L7828_72
1144+ 9964 D1             POP DE                  ; Pop last item from stack into DE
1145+ 9965 E1             POP HL                  ; Pop last item from stack into HL
1146+ 9966 01 20 00       LD BC,#0020             ; BC=#0020
1147+ 9969 09             ADD HL,BC               ; HL=HL+BC
1148+ 996A 14             INC D                   ; D=D+1
1149+ 996B C1             POP BC                  ; Pop last item from stack into BC
1150+ 996C 10 ED          DJNZ L9149_80           ; Decrement B and jump to L9149_80 if B>0
1151+ 996E              L9149_81:
1152+ 996E FB             EI                      ; Enable interrupts
1153+ 996F 76             HALT                    ; Wait for the next interrupt
1154+ 9970 CD D5 7C       CALL L7828_67           ; CALL L7828_67
1155+ 9973 CD 53 74       CALL L7143_49           ; CALL L7143_49
1156+ 9976 C4 8E 62       CALL NZ,L6011_26        ; CALL L6011_26 if the zero flag is not set
1157+ 9979 CD 59 74       CALL L7143_50           ; CALL L7143_50
1158+ 997C C4 85 62       CALL NZ,L6011_25        ; CALL L6011_25 if the zero flag is not set
1159+ 997F CD 5F 74       CALL L7143_51           ; CALL L7143_51
1160+ 9982 C4 96 62       CALL NZ,L6011_27        ; CALL L6011_27 if the zero flag is not set
1161+ 9985 CD 65 74       CALL L7143_52           ; CALL L7143_52
1162+ 9988 C4 9F 62       CALL NZ,L6011_28        ; CALL L6011_28 if the zero flag is not set
1163+ 998B CD 90 74       CALL L7143_60           ; CALL L7143_60
1164+ 998E C4 F8 99       CALL NZ,L9149_87        ; CALL L9149_87 if the zero flag is not set
1165+ 9991 C2 08 99       JP NZ,L9149_78          ; Jump to L9149_78 if the zero flag is not set
1166+ 9994 CD 9A 74       CALL L7143_62           ; CALL L7143_62
1167+ 9997 20 07          JR NZ,L9149_82          ; Jump to L9149_82 if the zero flag is not set
1168+ 9999 CD 77 74       CALL L7143_55           ; CALL L7143_55
1169+ 999C 20 08          JR NZ,L9149_84          ; Jump to L9149_84 if the zero flag is not set
1170+ 999E 18 CE          JR L9149_81             ; Jump to L9149_81
1171+ 99A0              L9149_82:
1172+ 99A0 CD CE 7A       CALL L7828_38           ; CALL L7828_38
1173+ 99A3              L9149_83:
1174+ 99A3 DD E1          POP IX                  ; Pop last item from stack into IX
1175+ 99A5 C9             RET                     ; Return
1176+ 99A6              L9149_84:
1177+ 99A6 3E 60          LD A,#60                ; A=#60
1178+ 99A8 CD C1 68       CALL L6011_114          ; CALL L6011_114
1179+ 99AB DD 7E 0C       LD A,(IX+#0C)           ; A=PEEK (IX+#0C)
1180+ 99AE 3D             DEC A                   ; A=A-1
1181+ 99AF 26 00          LD H,#00                ; H=#00
1182+ 99B1 6F             LD L,A                  ; L=A
1183+ 99B2 29             ADD HL,HL               ; HL=HL+HL
1184+ 99B3 29             ADD HL,HL               ; HL=HL+HL
1185+ 99B4 29             ADD HL,HL               ; HL=HL+HL
1186+ 99B5 29             ADD HL,HL               ; HL=HL+HL
1187+ 99B6 29             ADD HL,HL               ; HL=HL+HL
1188+ 99B7 29             ADD HL,HL               ; HL=HL+HL
1189+ 99B8 29             ADD HL,HL               ; HL=HL+HL
1190+ 99B9 29             ADD HL,HL               ; HL=HL+HL
1191+ 99BA 29             ADD HL,HL               ; HL=HL+HL
1192+ 99BB 01 00 C0       LD BC,LC000             ; BC=#C000
1193+ 99BE 09             ADD HL,BC               ; HL=HL+BC
1194+ 99BF 11 00 B0       LD DE,#B000             ; DE=#B000
1195+ 99C2 01 00 02       LD BC,#0200             ; BC=#0200
1196+ 99C5 ED B0          LDIR                    ; POKE DE,PEEK HL; HL=HL+1; DE=DE+1; BC=BC-1; repeat
1197+ 99C7                                        ; until BC=0
1198+ 99C7 CD CE 7A       CALL L7828_38           ; CALL L7828_38
1199+ 99CA DD E1          POP IX                  ; Pop last item from stack into IX
1200+ 99CC 3A C5 B0       LD A,(#B0C5)            ; A=PEEK #B0C5
1201+ 99CF FE 11          CP #11                  ; Set the zero flag if A=#11, or the carry flag if
1202+ 99D1                                        ; A<#11
1203+ 99D1 28 14          JR Z,L9149_85           ; Jump to L9149_85 if A=#11
1204+ 99D3 FE 13          CP #13                  ; Set the zero flag if A=#13, or the carry flag if
1205+ 99D5                                        ; A<#13
1206+ 99D5 28 10          JR Z,L9149_85           ; Jump to L9149_85 if A=#13
1207+ 99D7 FE 15          CP #15                  ; Set the zero flag if A=#15, or the carry flag if
1208+ 99D9                                        ; A<#15
1209+ 99D9 28 0C          JR Z,L9149_85           ; Jump to L9149_85 if A=#15
1210+ 99DB FE 05          CP #05                  ; Set the zero flag if A=#05, or the carry flag if
1211+ 99DD                                        ; A<#05
1212+ 99DD 28 08          JR Z,L9149_85           ; Jump to L9149_85 if A=#05
1213+ 99DF FE 02          CP #02                  ; Set the zero flag if A=#02, or the carry flag if
1214+ 99E1                                        ; A<#02
1215+ 99E1 28 04          JR Z,L9149_85           ; Jump to L9149_85 if A=#02
1216+ 99E3 FE 03          CP #03                  ; Set the zero flag if A=#03, or the carry flag if
1217+ 99E5                                        ; A<#03
1218+ 99E5 20 0B          JR NZ,L9149_86          ; Jump to L9149_86 if A<>#03
1219+ 99E7              L9149_85:
1220+ 99E7 3E 03          LD A,#03                ; A=#03
1221+ 99E9 CD C3 70       CALL L6011_243          ; CALL L6011_243
1222+ 99EC FE 03          CP #03                  ; Set the zero flag if A=#03, or the carry flag if
1223+ 99EE                                        ; A<#03
1224+ 99EE CC 39 8D       CALL Z,L8531_94         ; CALL L8531_94 if A=#03
1225+ 99F1 C9             RET                     ; Return
1226+ 99F2              L9149_86:
1227+ 99F2 21 7D 83       LD HL,#837D             ; HL=#837D
1228+ 99F5 C3 DE 90       JP L8531_149            ; Jump to L8531_149
1229+ 99F8              L9149_87:
1230+ 99F8 21 99 81       LD HL,#8199             ; HL=#8199
1231+ 99FB 11 00 01       LD DE,#0100             ; DE=#0100
1232+ 99FE CD 2F 90       CALL L8531_138          ; CALL L8531_138
1233+ 9A01 C8             RET Z                   ; Return if the zero flag is set
1234+ 9A02 CD 1D 9A       CALL L9149_88           ; CALL L9149_88
1235+ 9A05 DD 7E 0C       LD A,(IX+#0C)           ; A=PEEK (IX+#0C)
1236+ 9A08 67             LD H,A                  ; H=A
1237+ 9A09 2E 00          LD L,#00                ; L=#00
1238+ 9A0B 29             ADD HL,HL               ; HL=HL+HL
1239+ 9A0C 01 00 C0       LD BC,LC000             ; BC=#C000
1240+ 9A0F 09             ADD HL,BC               ; HL=HL+BC
1241+ 9A10 CD 2F 9A       CALL L9149_89           ; CALL L9149_89
1242+ 9A13 CD CE 7A       CALL L7828_38           ; CALL L7828_38
1243+ 9A16 3E 01          LD A,#01                ; A=#01
1244+ 9A18 DD 77 0C       LD (IX+#0C),A           ; POKE (IX+#0C),A
1245+ 9A1B B7             OR A                    ; Clear the carry flag and set the zero flag if A=0
1246+ 9A1C C9             RET                     ; Return
1247+ 9A1D              L9149_88:
1248+ 9A1D 3E 60          LD A,#60                ; A=#60
1249+ 9A1F CD C1 68       CALL L6011_114          ; CALL L6011_114
1250+ 9A22 21 00 00       LD HL,#0000             ; HL=#0000
1251+ 9A25 11 01 00       LD DE,#0001             ; DE=#0001
1252+ 9A28 01 FF 01       LD BC,#01FF             ; BC=#01FF
1253+ 9A2B 75             LD (HL),L               ; POKE HL,L
1254+ 9A2C ED B0          LDIR                    ; POKE DE,PEEK HL; HL=HL+1; DE=DE+1; BC=BC-1; repeat
1255+ 9A2E                                        ; until BC=0
1256+ 9A2E C9             RET                     ; Return
1257+ 9A2F              L9149_89:
1258+ 9A2F 54             LD D,H                  ; D=H
1259+ 9A30 5D             LD E,L                  ; E=L
1260+ 9A31 15             DEC D                   ; D=D-1
1261+ 9A32 15             DEC D                   ; D=D-1
1262+ 9A33 1A             LD A,(DE)               ; A=PEEK DE
1263+ 9A34 D5             PUSH DE                 ; Push DE onto the stack
1264+ 9A35 E5             PUSH HL                 ; Push HL onto the stack
1265+ 9A36 21 00 00       LD HL,#0000             ; HL=#0000
1266+ 9A39 ED 52          SBC HL,DE               ; HL=HL-carry-DE
1267+ 9A3B 44             LD B,H                  ; B=H
1268+ 9A3C 4D             LD C,L                  ; C=L
1269+ 9A3D E1             POP HL                  ; Pop last item from stack into HL
1270+ 9A3E ED B0          LDIR                    ; POKE DE,PEEK HL; HL=HL+1; DE=DE+1; BC=BC-1; repeat
1271+ 9A40                                        ; until BC=0
1272+ 9A40 2A 18 7F       LD HL,(#7F18)           ; L=PEEK #7F18; H=PEEK #7F19
1273+ 9A43 01 00 FE       LD BC,#FE00             ; BC=#FE00
1274+ 9A46 09             ADD HL,BC               ; HL=HL+BC
1275+ 9A47 22 18 7F       LD (#7F18),HL           ; POKE #7F18,L; POKE #7F19,H
1276+ 9A4A E1             POP HL                  ; Pop last item from stack into HL
1277+ 9A4B CD 53 9A       CALL L9149_90           ; CALL L9149_90
1278+ 9A4E 79             LD A,C                  ; A=C
1279+ 9A4F 32 16 7F       LD (#7F16),A            ; POKE #7F16,A
1280+ 9A52 C9             RET                     ; Return
1281+ 9A53              L9149_90:
1282+ 9A53 4F             LD C,A                  ; C=A
1283+ 9A54              L9149_91:
1284+ 9A54 ED 5B 18 7F    LD DE,(#7F18)           ; E=PEEK #7F18; D=PEEK #7F19
1285+ 9A58 B7             OR A                    ; Clear the carry flag and set the zero flag if A=0
1286+ 9A59 ED 52          SBC HL,DE               ; HL=HL-carry-DE
1287+ 9A5B D0             RET NC                  ; Return if the carry flag is not set
1288+ 9A5C 19             ADD HL,DE               ; HL=HL+DE
1289+ 9A5D 7E             LD A,(HL)               ; A=PEEK HL
1290+ 9A5E 71             LD (HL),C               ; POKE HL,C
1291+ 9A5F E5             PUSH HL                 ; Push HL onto the stack
1292+ 9A60 11 22 00       LD DE,#0022             ; DE=#0022
1293+ 9A63 19             ADD HL,DE               ; HL=HL+DE
1294+ 9A64 46             LD B,(HL)               ; B=PEEK HL
1295+ 9A65 CD 6F 9A       CALL L9149_92           ; CALL L9149_92
1296+ 9A68 E1             POP HL                  ; Pop last item from stack into HL
1297+ 9A69 11 00 02       LD DE,#0200             ; DE=#0200
1298+ 9A6C 19             ADD HL,DE               ; HL=HL+DE
1299+ 9A6D 18 E5          JR L9149_91             ; Jump to L9149_91
1300+ 9A6F              L9149_92:
1301+ 9A6F C6 61          ADD A,#61               ; A=A+#61
1302+ 9A71 5F             LD E,A                  ; E=A
1303+ 9A72 79             LD A,C                  ; A=C
1304+ 9A73 C6 61          ADD A,#61               ; A=A+#61
1305+ 9A75 57             LD D,A                  ; D=A
1306+ 9A76              L9149_93:
1307+ 9A76 CD 7C 9A       CALL L9149_94           ; CALL L9149_94
1308+ 9A79 10 FB          DJNZ L9149_93           ; Decrement B and jump to L9149_93 if B>0
1309+ 9A7B C9             RET                     ; Return
1310+ 9A7C              L9149_94:
1311+ 9A7C C5             PUSH BC                 ; Push BC onto the stack
1312+ 9A7D 21 00 00       LD HL,#0000             ; HL=#0000
1313+ 9A80 01 AF 27       LD BC,#27AF             ; BC=#27AF
1314+ 9A83              L9149_95:
1315+ 9A83 ED 70          DB #ED,#70
1316+ 9A85 FA 83 9A       JP M,L9149_95           ; Jump to L9149_95 if the sign flag is set (negative)
1317+ 9A88 06 1A          LD B,#1A                ; B=#1A
1318+ 9A8A ED 69          OUT (C),L               ; OUT BC,L
1319+ 9A8C 06 1B          LD B,#1B                ; B=#1B
1320+ 9A8E ED 61          OUT (C),H               ; OUT BC,H
1321+ 9A90 06 1C          LD B,#1C                ; B=#1C
1322+ 9A92 ED 59          OUT (C),E               ; OUT BC,E
1323+ 9A94 06 1D          LD B,#1D                ; B=#1D
1324+ 9A96 ED 69          OUT (C),L               ; OUT BC,L
1325+ 9A98 06 1E          LD B,#1E                ; B=#1E
1326+ 9A9A ED 61          OUT (C),H               ; OUT BC,H
1327+ 9A9C 06 1F          LD B,#1F                ; B=#1F
1328+ 9A9E ED 51          OUT (C),D               ; OUT BC,D
1329+ 9AA0 06 28          LD B,#28                ; B=#28
1330+ 9AA2 3E 1F          LD A,#1F                ; A=#1F
1331+ 9AA4 ED 79          OUT (C),A               ; OUT BC,A
1332+ 9AA6 06 26          LD B,#26                ; B=#26
1333+ 9AA8 3E FF          LD A,#FF                ; A=#FF
1334+ 9AAA ED 79          OUT (C),A               ; OUT BC,A
1335+ 9AAC 06 27          LD B,#27                ; B=#27
1336+ 9AAE 3E 01          LD A,#01                ; A=#01
1337+ 9AB0 ED 79          OUT (C),A               ; OUT BC,A
1338+ 9AB2 06 27          LD B,#27                ; B=#27
1339+ 9AB4              L9149_96:
1340+ 9AB4 ED 70          DB #ED,#70
1341+ 9AB6 FA B4 9A       JP M,L9149_96           ; Jump to L9149_96 if the sign flag is set (negative)
1342+ 9AB9 C1             POP BC                  ; Pop last item from stack into BC
1343+ 9ABA 0C             INC C                   ; C=C+1
1344+ 9ABB 14             INC D                   ; D=D+1
1345+ 9ABC 1C             INC E                   ; E=E+1
1346+ 9ABD C9             RET                     ; Return
1347+ 9ABE              L9149_97:
1348+ 9ABE 3E 60          LD A,#60                ; A=#60
1349+ 9AC0 CD C1 68       CALL L6011_114          ; CALL L6011_114
1350+ 9AC3 11 40 BE       LD DE,#BE40             ; DE=#BE40
1351+ 9AC6              L9149_98:
1352+ 9AC6 2A 18 7F       LD HL,(#7F18)           ; L=PEEK #7F18; H=PEEK #7F19
1353+ 9AC9 B7             OR A                    ; Clear the carry flag and set the zero flag if A=0
1354+ 9ACA ED 52          SBC HL,DE               ; HL=HL-carry-DE
1355+ 9ACC 38 65          JR C,L9149_103          ; Jump to L9149_103 if the carry flag is set
1356+ 9ACE 21 FF 01       LD HL,#01FF             ; HL=#01FF
1357+ 9AD1 19             ADD HL,DE               ; HL=HL+DE
1358+ 9AD2 7E             LD A,(HL)               ; A=PEEK HL
1359+ 9AD3 23             INC HL                  ; HL=HL+1
1360+ 9AD4 EB             EX DE,HL                ; Exchange DE and HL
1361+ 9AD5 B7             OR A                    ; Clear the carry flag and set the zero flag if A=0
1362+ 9AD6 28 0C          JR Z,L9149_99           ; Jump to L9149_99 if A=0
1363+ 9AD8 CB 3F          SRL A                   ; Shift A right (copying bit 0 into the carry flag,
1364+ 9ADA                                        ; and resetting bit 7)
1365+ 9ADA E6 01          AND #01                 ; Keep only bit 0 of A
1366+ 9ADC 2A 17 60       LD HL,(#6017)           ; L=PEEK #6017; H=PEEK #6018
1367+ 9ADF BD             CP L                    ; Set the zero flag if A=L, or the carry flag if A<L
1368+ 9AE0 28 02          JR Z,L9149_99           ; Jump to L9149_99 if A=L
1369+ 9AE2 18 E2          JR L9149_98             ; Jump to L9149_98
1370+ 9AE4              L9149_99:
1371+ 9AE4 21 73 7F       LD HL,#7F73             ; HL=#7F73
1372+ 9AE7 D5             PUSH DE                 ; Push DE onto the stack
1373+ 9AE8 CD A8 92       CALL L9149_19           ; CALL L9149_19
1374+ 9AEB EB             EX DE,HL                ; Exchange DE and HL
1375+ 9AEC D1             POP DE                  ; Pop last item from stack into DE
1376+ 9AED 28 D7          JR Z,L9149_98           ; Jump to L9149_98 if the zero flag is set
1377+ 9AEF 37             SCF                     ; Set the carry flag
1378+ 9AF0 ED 52          SBC HL,DE               ; HL=HL-carry-DE
1379+ 9AF2 7D             LD A,L                  ; A=L
1380+ 9AF3 0E FF          LD C,#FF                ; C=#FF
1381+ 9AF5              L9149_100:
1382+ 9AF5 0C             INC C                   ; C=C+1
1383+ 9AF6 D6 03          SUB #03                 ; A=A-#03
1384+ 9AF8 20 FB          JR NZ,L9149_100         ; Jump to L9149_100 if A>0
1385+ 9AFA 79             LD A,C                  ; A=C
1386+ 9AFB 32 07 71       LD (#7107),A            ; POKE #7107,A
1387+ 9AFE 01 C0 FF       LD BC,#FFC0             ; BC=#FFC0
1388+ 9B01              ; This entry point is used by the routine at L8531.
1389+ 9B01              L9149_101:
1390+ 9B01 EB             EX DE,HL                ; Exchange DE and HL
1391+ 9B02 09             ADD HL,BC               ; HL=HL+BC
1392+ 9B03 22 1A 7F       LD (#7F1A),HL           ; POKE #7F1A,L; POKE #7F1B,H
1393+ 9B06 11 00 B0       LD DE,#B000             ; DE=#B000
1394+ 9B09 01 00 01       LD BC,#0100             ; BC=#0100
1395+ 9B0C ED B0          LDIR                    ; POKE DE,PEEK HL; HL=HL+1; DE=DE+1; BC=BC-1; repeat
1396+ 9B0E                                        ; until BC=0
1397+ 9B0E ED 4B 2C 7F    LD BC,(#7F2C)           ; C=PEEK #7F2C; B=PEEK #7F2D
1398+ 9B12 ED 5B 2E 7F    LD DE,(#7F2E)           ; E=PEEK #7F2E; D=PEEK #7F2F
1399+ 9B16 2A A3 B0       LD HL,(#B0A3)           ; L=PEEK #B0A3; H=PEEK #B0A4
1400+ 9B19 B7             OR A                    ; Clear the carry flag and set the zero flag if A=0
1401+ 9B1A ED 52          SBC HL,DE               ; HL=HL-carry-DE
1402+ 9B1C 38 15          JR C,L9149_103          ; Jump to L9149_103 if the carry flag is set
1403+ 9B1E 20 08          JR NZ,L9149_102         ; Jump to L9149_102 if the zero flag is not set
1404+ 9B20 2A A1 B0       LD HL,(#B0A1)           ; L=PEEK #B0A1; H=PEEK #B0A2
1405+ 9B23 B7             OR A                    ; Clear the carry flag and set the zero flag if A=0
1406+ 9B24 ED 42          SBC HL,BC               ; HL=HL-carry-BC
1407+ 9B26 38 0B          JR C,L9149_103          ; Jump to L9149_103 if the carry flag is set
1408+ 9B28              L9149_102:
1409+ 9B28 CD 9D 70       CALL L6011_240          ; CALL L6011_240
1410+ 9B2B FE 03          CP #03                  ; Set the zero flag if A=#03, or the carry flag if
1411+ 9B2D                                        ; A<#03
1412+ 9B2D CC 39 8D       CALL Z,L8531_94         ; CALL L8531_94 if A=#03
1413+ 9B30 FB             EI                      ; Enable interrupts
1414+ 9B31 76             HALT                    ; Wait for the next interrupt
1415+ 9B32 C9             RET                     ; Return
1416+ 9B33              L9149_103:
1417+ 9B33 3E 01          LD A,#01                ; A=#01
1418+ 9B35 C9             RET                     ; Return
1419+ 9B36              L9149_104:
1420+ 9B36 3E 60          LD A,#60                ; A=#60
1421+ 9B38 CD C1 68       CALL L6011_114          ; CALL L6011_114
1422+ 9B3B 21 C5 C0       LD HL,#C0C5             ; HL=#C0C5
1423+ 9B3E ED 5B 18 7F    LD DE,(#7F18)           ; E=PEEK #7F18; D=PEEK #7F19
1424+ 9B42 01 00 02       LD BC,#0200             ; BC=#0200
1425+ 9B45              L9149_105:
1426+ 9B45 B7             OR A                    ; Clear the carry flag and set the zero flag if A=0
1427+ 9B46 ED 52          SBC HL,DE               ; HL=HL-carry-DE
1428+ 9B48 30 16          JR NC,L9149_106         ; Jump to L9149_106 if the carry flag is not set
1429+ 9B4A 19             ADD HL,DE               ; HL=HL+DE
1430+ 9B4B 7E             LD A,(HL)               ; A=PEEK HL
1431+ 9B4C 09             ADD HL,BC               ; HL=HL+BC
1432+ 9B4D FE 02          CP #02                  ; Set the zero flag if A=#02, or the carry flag if
1433+ 9B4F                                        ; A<#02
1434+ 9B4F 20 F4          JR NZ,L9149_105         ; Jump to L9149_105 if A<>#02
1435+ 9B51 01 3B FD       LD BC,#FD3B             ; BC=#FD3B
1436+ 9B54 09             ADD HL,BC               ; HL=HL+BC
1437+ 9B55 11 00 B0       LD DE,#B000             ; DE=#B000
1438+ 9B58 01 00 01       LD BC,#0100             ; BC=#0100
1439+ 9B5B ED B0          LDIR                    ; POKE DE,PEEK HL; HL=HL+1; DE=DE+1; BC=BC-1; repeat
1440+ 9B5D                                        ; until BC=0
1441+ 9B5D CD C3 70       CALL L6011_243          ; CALL L6011_243
1442+ 9B60              L9149_106:
1443+ 9B60 21 00 00       LD HL,#0000             ; HL=#0000
1444+ 9B63 18 13          JR L9149_108            ; Jump to L9149_108
1445+ 9B65              ; This entry point is used by the routine at L6011.
1446+ 9B65              L9149_107:
1447+ 9B65 CD 43 71       CALL L7143              ; CALL L7143
1448+ 9B68 20 F6          JR NZ,L9149_106         ; Jump to L9149_106 if the zero flag is not set
1449+ 9B6A 2A 5C 7F       LD HL,(#7F5C)           ; L=PEEK #7F5C; H=PEEK #7F5D
1450+ 9B6D 23             INC HL                  ; HL=HL+1
1451+ 9B6E ED 5B 5E 7F    LD DE,(#7F5E)           ; E=PEEK #7F5E; D=PEEK #7F5F
1452+ 9B72 B7             OR A                    ; Clear the carry flag and set the zero flag if A=0
1453+ 9B73 ED 52          SBC HL,DE               ; HL=HL-carry-DE
1454+ 9B75 30 BF          JR NC,L9149_104         ; Jump to L9149_104 if the carry flag is not set
1455+ 9B77 19             ADD HL,DE               ; HL=HL+DE
1456+ 9B78              L9149_108:
1457+ 9B78 22 5C 7F       LD (#7F5C),HL           ; POKE #7F5C,L; POKE #7F5D,H
1458+ 9B7B C9             RET                     ; Return
1459+ 9B7C
# file closed: WCVW_DISASM.ASM
  29  9B7C                      ASSERT $ == #9B7C, WCVW_DISASM.ASM boundary mismatch
  30  9B7C
  31  9B7C                      INCLUDE "WCINI_DISASM.ASM"
# file opened: WCINI_DISASM.ASM
   1+ 9B7C              ; WCINI: setup and INI processing
   2+ 9B7C              ;
   3+ 9B7C              ; Used by the routine at L6011.
   4+ 9B7C              L9B7C:
   5+ 9B7C DD E5          PUSH IX                 ; Push IX onto the stack
   6+ 9B7E CD 44 9E       CALL L9B7C_32           ; CALL L9B7C_32
   7+ 9B81 DD 21 40 A7    LD IX,#A740             ; IX=#A740
   8+ 9B85 CD 2C 79       CALL #792C              ; CALL 792C
   9+ 9B88 DD E5          PUSH IX                 ; Push IX onto the stack
  10+ 9B8A DD 21 56 A7    LD IX,#A756             ; IX=#A756
  11+ 9B8E CD 2C 79       CALL #792C              ; CALL 792C
  12+ 9B91 DD E1          POP IX                  ; Pop last item from stack into IX
  13+ 9B93 21 6A A8       LD HL,#A86A             ; HL=#A86A
  14+ 9B96 11 00 07       LD DE,#0700             ; DE=#0700
  15+ 9B99 CD 81 7D       CALL L7828_80           ; CALL L7828_80
  16+ 9B9C 21 77 A8       LD HL,#A877             ; HL=#A877
  17+ 9B9F 11 00 0B       LD DE,#0B00             ; DE=#0B00
  18+ 9BA2 CD 81 7D       CALL L7828_80           ; CALL L7828_80
  19+ 9BA5              L9B7C_0:
  20+ 9BA5 FB             EI                      ; Enable interrupts
  21+ 9BA6 76             HALT                    ; Wait for the next interrupt
  22+ 9BA7 11 0B A9       LD DE,#A90B             ; DE=#A90B
  23+ 9BAA 3E 00          LD A,#00                ; A=#00
  24+ 9BAC CD E7 9D       CALL L9B7C_26           ; CALL L9B7C_26
  25+ 9BAF 11 7E A9       LD DE,#A97E             ; DE=#A97E
  26+ 9BB2 3E 07          LD A,#07                ; A=#07
  27+ 9BB4 CD E7 9D       CALL L9B7C_26           ; CALL L9B7C_26
  28+ 9BB7 11 AC A9       LD DE,#A9AC             ; DE=#A9AC
  29+ 9BBA 3E 0B          LD A,#0B                ; A=#0B
  30+ 9BBC CD E7 9D       CALL L9B7C_26           ; CALL L9B7C_26
  31+ 9BBF CD D5 7C       CALL L7828_67           ; CALL L7828_67
  32+ 9BC2 CD 9A 74       CALL L7143_62           ; CALL L7143_62
  33+ 9BC5 20 14          JR NZ,L9B7C_1           ; Jump to L9B7C_1 if the zero flag is not set
  34+ 9BC7 CD 53 74       CALL L7143_49           ; CALL L7143_49
  35+ 9BCA C4 EC 9B       CALL NZ,L9B7C_2         ; CALL L9B7C_2 if the zero flag is not set
  36+ 9BCD CD 59 74       CALL L7143_50           ; CALL L7143_50
  37+ 9BD0 C4 0C 9C       CALL NZ,L9B7C_6         ; CALL L9B7C_6 if the zero flag is not set
  38+ 9BD3 CD 77 74       CALL L7143_55           ; CALL L7143_55
  39+ 9BD6 C4 3C 9C       CALL NZ,L9B7C_12        ; CALL L9B7C_12 if the zero flag is not set
  40+ 9BD9 28 CA          JR Z,L9B7C_0            ; Jump to L9B7C_0 if the zero flag is set
  41+ 9BDB              L9B7C_1:
  42+ 9BDB DD 21 56 A7    LD IX,#A756             ; IX=#A756
  43+ 9BDF CD CE 7A       CALL L7828_38           ; CALL L7828_38
  44+ 9BE2 DD 21 40 A7    LD IX,#A740             ; IX=#A740
  45+ 9BE6 CD CE 7A       CALL L7828_38           ; CALL L7828_38
  46+ 9BE9 DD E1          POP IX                  ; Pop last item from stack into IX
  47+ 9BEB C9             RET                     ; Return
  48+ 9BEC              L9B7C_2:
  49+ 9BEC CD F2 7C       CALL L7828_69           ; CALL L7828_69
  50+ 9BEF DD 7E 0C       LD A,(IX+#0C)           ; A=PEEK (IX+#0C)
  51+ 9BF2 FE 08          CP #08                  ; Set the zero flag if A=#08, or the carry flag if
  52+ 9BF4                                        ; A<#08
  53+ 9BF4 28 11          JR Z,L9B7C_5            ; Jump to L9B7C_5 if A=#08
  54+ 9BF6 FE 0C          CP #0C                  ; Set the zero flag if A=#0C, or the carry flag if
  55+ 9BF8                                        ; A<#0C
  56+ 9BF8 28 0D          JR Z,L9B7C_5            ; Jump to L9B7C_5 if A=#0C
  57+ 9BFA FE 11          CP #11                  ; Set the zero flag if A=#11, or the carry flag if
  58+ 9BFC                                        ; A<#11
  59+ 9BFC 28 06          JR Z,L9B7C_4            ; Jump to L9B7C_4 if A=#11
  60+ 9BFE              L9B7C_3:
  61+ 9BFE CD D5 7C       CALL L7828_67           ; CALL L7828_67
  62+ 9C01 C3 8E 62       JP L6011_26             ; Jump to L6011_26
  63+ 9C04              L9B7C_4:
  64+ 9C04 DD 35 0C       DEC (IX+#0C)            ; POKE (IX+#0C),(PEEK (IX+#0C))-1
  65+ 9C07              L9B7C_5:
  66+ 9C07 DD 35 0C       DEC (IX+#0C)            ; POKE (IX+#0C),(PEEK (IX+#0C))-1
  67+ 9C0A 18 F2          JR L9B7C_3              ; Jump to L9B7C_3
  68+ 9C0C              L9B7C_6:
  69+ 9C0C CD F2 7C       CALL L7828_69           ; CALL L7828_69
  70+ 9C0F DD 7E 0C       LD A,(IX+#0C)           ; A=PEEK (IX+#0C)
  71+ 9C12 FE 06          CP #06                  ; Set the zero flag if A=#06, or the carry flag if
  72+ 9C14                                        ; A<#06
  73+ 9C14 28 11          JR Z,L9B7C_9            ; Jump to L9B7C_9 if A=#06
  74+ 9C16 FE 0A          CP #0A                  ; Set the zero flag if A=#0A, or the carry flag if
  75+ 9C18                                        ; A<#0A
  76+ 9C18 28 0D          JR Z,L9B7C_9            ; Jump to L9B7C_9 if A=#0A
  77+ 9C1A FE 0E          CP #0E                  ; Set the zero flag if A=#0E, or the carry flag if
  78+ 9C1C                                        ; A<#0E
  79+ 9C1C 28 06          JR Z,L9B7C_8            ; Jump to L9B7C_8 if A=#0E
  80+ 9C1E              L9B7C_7:
  81+ 9C1E CD D5 7C       CALL L7828_67           ; CALL L7828_67
  82+ 9C21 C3 85 62       JP L6011_25             ; Jump to L6011_25
  83+ 9C24              L9B7C_8:
  84+ 9C24 DD 34 0C       INC (IX+#0C)            ; POKE (IX+#0C),(PEEK (IX+#0C))+1
  85+ 9C27              L9B7C_9:
  86+ 9C27 DD 34 0C       INC (IX+#0C)            ; POKE (IX+#0C),(PEEK (IX+#0C))+1
  87+ 9C2A 18 F2          JR L9B7C_7              ; Jump to L9B7C_7
  88+ 9C2C              L9B7C_10:
  89+ 9C2C 44             LD B,H                  ; B=H
  90+ 9C2D 4D             LD C,L                  ; C=L
  91+ 9C2E 7E             LD A,(HL)               ; A=PEEK HL
  92+ 9C2F 23             INC HL                  ; HL=HL+1
  93+ 9C30 5E             LD E,(HL)               ; E=PEEK HL
  94+ 9C31 23             INC HL                  ; HL=HL+1
  95+ 9C32 56             LD D,(HL)               ; D=PEEK HL
  96+ 9C33 EB             EX DE,HL                ; Exchange DE and HL
  97+ 9C34 3C             INC A                   ; A=A+1
  98+ 9C35 BE             CP (HL)                 ; Set the zero flag if A=PEEK HL, or the carry flag
  99+ 9C36                                        ; if A<PEEK HL
 100+ 9C36 38 01          JR C,L9B7C_11           ; Jump to L9B7C_11 if A<PEEK HL
 101+ 9C38 AF             XOR A                   ; A=0
 102+ 9C39              L9B7C_11:
 103+ 9C39 02             LD (BC),A               ; POKE BC,A
 104+ 9C3A AF             XOR A                   ; A=0
 105+ 9C3B C9             RET                     ; Return
 106+ 9C3C              L9B7C_12:
 107+ 9C3C DD 7E 0C       LD A,(IX+#0C)           ; A=PEEK (IX+#0C)
 108+ 9C3F 21 0B A9       LD HL,#A90B             ; HL=#A90B
 109+ 9C42 FE 01          CP #01                  ; Set the zero flag if A=#01, or the carry flag if
 110+ 9C44                                        ; A<#01
 111+ 9C44 28 E6          JR Z,L9B7C_10           ; Jump to L9B7C_10 if A=#01
 112+ 9C46 21 1E A9       LD HL,#A91E             ; HL=#A91E
 113+ 9C49 FE 02          CP #02                  ; Set the zero flag if A=#02, or the carry flag if
 114+ 9C4B                                        ; A<#02
 115+ 9C4B 28 DF          JR Z,L9B7C_10           ; Jump to L9B7C_10 if A=#02
 116+ 9C4D 21 31 A9       LD HL,L9B7C_180         ; HL=#A931
 117+ 9C50 FE 03          CP #03                  ; Set the zero flag if A=#03, or the carry flag if
 118+ 9C52                                        ; A<#03
 119+ 9C52 28 D8          JR Z,L9B7C_10           ; Jump to L9B7C_10 if A=#03
 120+ 9C54 21 44 A9       LD HL,#A944             ; HL=#A944
 121+ 9C57 FE 04          CP #04                  ; Set the zero flag if A=#04, or the carry flag if
 122+ 9C59                                        ; A<#04
 123+ 9C59 28 D1          JR Z,L9B7C_10           ; Jump to L9B7C_10 if A=#04
 124+ 9C5B 21 57 A9       LD HL,#A957             ; HL=#A957
 125+ 9C5E FE 05          CP #05                  ; Set the zero flag if A=#05, or the carry flag if
 126+ 9C60                                        ; A<#05
 127+ 9C60 28 CA          JR Z,L9B7C_10           ; Jump to L9B7C_10 if A=#05
 128+ 9C62 21 6A A9       LD HL,L9B7C_183         ; HL=#A96A
 129+ 9C65 FE 06          CP #06                  ; Set the zero flag if A=#06, or the carry flag if
 130+ 9C67                                        ; A<#06
 131+ 9C67 28 C3          JR Z,L9B7C_10           ; Jump to L9B7C_10 if A=#06
 132+ 9C69 21 7E A9       LD HL,#A97E             ; HL=#A97E
 133+ 9C6C FE 08          CP #08                  ; Set the zero flag if A=#08, or the carry flag if
 134+ 9C6E                                        ; A<#08
 135+ 9C6E 28 BC          JR Z,L9B7C_10           ; Jump to L9B7C_10 if A=#08
 136+ 9C70 21 8D A9       LD HL,#A98D             ; HL=#A98D
 137+ 9C73 FE 09          CP #09                  ; Set the zero flag if A=#09, or the carry flag if
 138+ 9C75                                        ; A<#09
 139+ 9C75 28 B5          JR Z,L9B7C_10           ; Jump to L9B7C_10 if A=#09
 140+ 9C77 21 9C A9       LD HL,#A99C             ; HL=#A99C
 141+ 9C7A FE 0A          CP #0A                  ; Set the zero flag if A=#0A, or the carry flag if
 142+ 9C7C                                        ; A<#0A
 143+ 9C7C 28 AE          JR Z,L9B7C_10           ; Jump to L9B7C_10 if A=#0A
 144+ 9C7E 21 AC A9       LD HL,#A9AC             ; HL=#A9AC
 145+ 9C81 FE 0C          CP #0C                  ; Set the zero flag if A=#0C, or the carry flag if
 146+ 9C83                                        ; A<#0C
 147+ 9C83 28 A7          JR Z,L9B7C_10           ; Jump to L9B7C_10 if A=#0C
 148+ 9C85 21 BB A9       LD HL,#A9BB             ; HL=#A9BB
 149+ 9C88 FE 0D          CP #0D                  ; Set the zero flag if A=#0D, or the carry flag if
 150+ 9C8A                                        ; A<#0D
 151+ 9C8A 28 A0          JR Z,L9B7C_10           ; Jump to L9B7C_10 if A=#0D
 152+ 9C8C 21 CA A9       LD HL,#A9CA             ; HL=#A9CA
 153+ 9C8F FE 0E          CP #0E                  ; Set the zero flag if A=#0E, or the carry flag if
 154+ 9C91                                        ; A<#0E
 155+ 9C91 28 99          JR Z,L9B7C_10           ; Jump to L9B7C_10 if A=#0E
 156+ 9C93 3A 00 60       LD A,(#6000)            ; A=PEEK #6000
 157+ 9C96 32 0B 60       LD (#600B),A            ; POKE #600B,A
 158+ 9C99 CD 43 A2       CALL L9B7C_78           ; CALL L9B7C_78
 159+ 9C9C CD 1B 9D       CALL L9B7C_20           ; CALL L9B7C_20
 160+ 9C9F B7             OR A                    ; Clear the carry flag and set the zero flag if A=0
 161+ 9CA0 28 6F          JR Z,L9B7C_19           ; Jump to L9B7C_19 if A=0
 162+ 9CA2 3D             DEC A                   ; A=A-1
 163+ 9CA3 28 09          JR Z,L9B7C_13           ; Jump to L9B7C_13 if A=0
 164+ 9CA5 3D             DEC A                   ; A=A-1
 165+ 9CA6 28 31          JR Z,L9B7C_16           ; Jump to L9B7C_16 if A=0
 166+ 9CA8 3D             DEC A                   ; A=A-1
 167+ 9CA9 28 41          JR Z,L9B7C_17           ; Jump to L9B7C_17 if A=0
 168+ 9CAB 3D             DEC A                   ; A=A-1
 169+ 9CAC 28 63          JR Z,L9B7C_19           ; Jump to L9B7C_19 if A=0
 170+ 9CAE              L9B7C_13:
 171+ 9CAE 21 97 A8       LD HL,L9B7C_172         ; HL=#A897
 172+ 9CB1 11 13 01       LD DE,#0113             ; DE=#0113
 173+ 9CB4 01 1A 00       LD BC,#001A             ; BC=#001A
 174+ 9CB7 CD DE 90       CALL L8531_149          ; CALL L8531_149
 175+ 9CBA 18 14          JR L9B7C_15             ; Jump to L9B7C_15
 176+ 9CBC              L9B7C_14:
 177+ 9CBC DD E5          PUSH IX                 ; Push IX onto the stack
 178+ 9CBE DD 21 68 A7    LD IX,#A768             ; IX=#A768
 179+ 9CC2 CD 2C 79       CALL #792C              ; CALL 792C
 180+ 9CC5 CD 4B 74       CALL L7143_48           ; CALL L7143_48
 181+ 9CC8 CD 43 74       CALL L7143_47           ; CALL L7143_47
 182+ 9CCB CD CE 7A       CALL L7828_38           ; CALL L7828_38
 183+ 9CCE DD E1          POP IX                  ; Pop last item from stack into IX
 184+ 9CD0              L9B7C_15:
 185+ 9CD0 3A 0B 60       LD A,(#600B)            ; A=PEEK #600B
 186+ 9CD3 CD 9C 68       CALL L6011_108          ; CALL L6011_108
 187+ 9CD6 AF             XOR A                   ; A=0
 188+ 9CD7 3C             INC A                   ; A=A+1
 189+ 9CD8 C9             RET                     ; Return
 190+ 9CD9              L9B7C_16:
 191+ 9CD9 21 AC 7F       LD HL,#7FAC             ; HL=#7FAC
 192+ 9CDC CD 7B 6F       CALL L6011_231          ; CALL L6011_231
 193+ 9CDF 20 DB          JR NZ,L9B7C_14          ; Jump to L9B7C_14 if the zero flag is not set
 194+ 9CE1 21 AB 7F       LD HL,#7FAB             ; HL=#7FAB
 195+ 9CE4 CD 2C 6F       CALL L6011_226          ; CALL L6011_226
 196+ 9CE7 28 D3          JR Z,L9B7C_14           ; Jump to L9B7C_14 if the zero flag is set
 197+ 9CE9 CD 58 6F       CALL L6011_229          ; CALL L6011_229
 198+ 9CEC              L9B7C_17:
 199+ 9CEC 21 00 10       LD HL,#1000             ; HL=#1000
 200+ 9CEF 11 00 B0       LD DE,#B000             ; DE=#B000
 201+ 9CF2 01 00 10       LD BC,#1000             ; BC=#1000
 202+ 9CF5 ED B0          LDIR                    ; POKE DE,PEEK HL; HL=HL+1; DE=DE+1; BC=BC-1; repeat
 203+ 9CF7                                        ; until BC=0
 204+ 9CF7 21 B6 A7       LD HL,#A7B6             ; HL=#A7B6
 205+ 9CFA CD 5E 6F       CALL L6011_230          ; CALL L6011_230
 206+ 9CFD 20 BD          JR NZ,L9B7C_14          ; Jump to L9B7C_14 if the zero flag is not set
 207+ 9CFF 21 00 B0       LD HL,#B000             ; HL=#B000
 208+ 9D02 3A B8 A7       LD A,(#A7B8)            ; A=PEEK #A7B8
 209+ 9D05 CB 3F          SRL A                   ; Shift A right (copying bit 0 into the carry flag,
 210+ 9D07                                        ; and resetting bit 7)
 211+ 9D07 B7             OR A                    ; Clear the carry flag and set the zero flag if A=0
 212+ 9D08 20 01          JR NZ,L9B7C_18          ; Jump to L9B7C_18 if A>0
 213+ 9D0A 3C             INC A                   ; A=A+1
 214+ 9D0B              L9B7C_18:
 215+ 9D0B 47             LD B,A                  ; B=A
 216+ 9D0C CD 18 40       CALL #4018              ; CALL 4018
 217+ 9D0F 18 AB          JR L9B7C_14             ; Jump to L9B7C_14
 218+ 9D11              L9B7C_19:
 219+ 9D11 21 AF 7F       LD HL,#7FAF             ; HL=#7FAF
 220+ 9D14 CD 81 6F       CALL L6011_232          ; CALL L6011_232
 221+ 9D17 28 A3          JR Z,L9B7C_14           ; Jump to L9B7C_14 if the zero flag is set
 222+ 9D19 18 D1          JR L9B7C_17             ; Jump to L9B7C_17
 223+ 9D1B              L9B7C_20:
 224+ 9D1B F5             PUSH AF                 ; Push AF onto the stack
 225+ 9D1C F5             PUSH AF                 ; Push AF onto the stack
 226+ 9D1D 1E 30          LD E,#30                ; E=#30
 227+ 9D1F 3A 0B A9       LD A,(#A90B)            ; A=PEEK #A90B
 228+ 9D22 83             ADD A,E                 ; A=A+E
 229+ 9D23 32 D3 A7       LD (#A7D3),A            ; POKE #A7D3,A
 230+ 9D26 3A 1E A9       LD A,(#A91E)            ; A=PEEK #A91E
 231+ 9D29 83             ADD A,E                 ; A=A+E
 232+ 9D2A 32 DF A7       LD (#A7DF),A            ; POKE #A7DF,A
 233+ 9D2D 3A 31 A9       LD A,(L9B7C_180)        ; A=PEEK #A931
 234+ 9D30 83             ADD A,E                 ; A=A+E
 235+ 9D31 32 EE A7       LD (#A7EE),A            ; POKE #A7EE,A
 236+ 9D34 3A 44 A9       LD A,(#A944)            ; A=PEEK #A944
 237+ 9D37 83             ADD A,E                 ; A=A+E
 238+ 9D38 32 F9 A7       LD (#A7F9),A            ; POKE #A7F9,A
 239+ 9D3B 3A 57 A9       LD A,(#A957)            ; A=PEEK #A957
 240+ 9D3E 83             ADD A,E                 ; A=A+E
 241+ 9D3F 32 07 A8       LD (#A807),A            ; POKE #A807,A
 242+ 9D42 3A 6A A9       LD A,(L9B7C_183)        ; A=PEEK #A96A
 243+ 9D45 83             ADD A,E                 ; A=A+E
 244+ 9D46 32 0E A8       LD (#A80E),A            ; POKE #A80E,A
 245+ 9D49 3A 7E A9       LD A,(#A97E)            ; A=PEEK #A97E
 246+ 9D4C 83             ADD A,E                 ; A=A+E
 247+ 9D4D 32 1E A8       LD (#A81E),A            ; POKE #A81E,A
 248+ 9D50 3A 8D A9       LD A,(#A98D)            ; A=PEEK #A98D
 249+ 9D53 83             ADD A,E                 ; A=A+E
 250+ 9D54 32 25 A8       LD (#A825),A            ; POKE #A825,A
 251+ 9D57 3A 9C A9       LD A,(#A99C)            ; A=PEEK #A99C
 252+ 9D5A 83             ADD A,E                 ; A=A+E
 253+ 9D5B 32 2D A8       LD (#A82D),A            ; POKE #A82D,A
 254+ 9D5E 3A AC A9       LD A,(#A9AC)            ; A=PEEK #A9AC
 255+ 9D61 83             ADD A,E                 ; A=A+E
 256+ 9D62 32 3D A8       LD (#A83D),A            ; POKE #A83D,A
 257+ 9D65 3A BB A9       LD A,(#A9BB)            ; A=PEEK #A9BB
 258+ 9D68 83             ADD A,E                 ; A=A+E
 259+ 9D69 32 44 A8       LD (#A844),A            ; POKE #A844,A
 260+ 9D6C 3A CA A9       LD A,(#A9CA)            ; A=PEEK #A9CA
 261+ 9D6F 83             ADD A,E                 ; A=A+E
 262+ 9D70 32 4C A8       LD (#A84C),A            ; POKE #A84C,A
 263+ 9D73 F1             POP AF                  ; Pop last item from stack into AF
 264+ 9D74 B7             OR A                    ; Clear the carry flag and set the zero flag if A=0
 265+ 9D75 11 00 10       LD DE,#1000             ; DE=#1000
 266+ 9D78 D5             PUSH DE                 ; Push DE onto the stack
 267+ 9D79 21 40 AB       LD HL,#AB40             ; HL=#AB40
 268+ 9D7C 01 13 00       LD BC,#0013             ; BC=#0013
 269+ 9D7F ED B0          LDIR                    ; POKE DE,PEEK HL; HL=HL+1; DE=DE+1; BC=BC-1; repeat
 270+ 9D81                                        ; until BC=0
 271+ 9D81 3E 0D          LD A,#0D                ; A=#0D
 272+ 9D83 12             LD (DE),A               ; POKE DE,A
 273+ 9D84 13             INC DE                  ; DE=DE+1
 274+ 9D85 12             LD (DE),A               ; POKE DE,A
 275+ 9D86 13             INC DE                  ; DE=DE+1
 276+ 9D87 21 C2 A7       LD HL,#A7C2             ; HL=#A7C2
 277+ 9D8A 01 4F 00       LD BC,#004F             ; BC=#004F
 278+ 9D8D ED B0          LDIR                    ; POKE DE,PEEK HL; HL=HL+1; DE=DE+1; BC=BC-1; repeat
 279+ 9D8F                                        ; until BC=0
 280+ 9D8F CC A4 9D       CALL Z,L9B7C_21         ; CALL L9B7C_21 if the zero flag is set
 281+ 9D92 21 11 A8       LD HL,#A811             ; HL=#A811
 282+ 9D95 01 3E 00       LD BC,#003E             ; BC=#003E
 283+ 9D98 ED B0          LDIR                    ; POKE DE,PEEK HL; HL=HL+1; DE=DE+1; BC=BC-1; repeat
 284+ 9D9A                                        ; until BC=0
 285+ 9D9A E1             POP HL                  ; Pop last item from stack into HL
 286+ 9D9B EB             EX DE,HL                ; Exchange DE and HL
 287+ 9D9C B7             OR A                    ; Clear the carry flag and set the zero flag if A=0
 288+ 9D9D ED 52          SBC HL,DE               ; HL=HL-carry-DE
 289+ 9D9F 22 B7 A7       LD (#A7B7),HL           ; POKE #A7B7,L; POKE #A7B8,H
 290+ 9DA2 F1             POP AF                  ; Pop last item from stack into AF
 291+ 9DA3 C9             RET                     ; Return
 292+ 9DA4              L9B7C_21:
 293+ 9DA4 D5             PUSH DE                 ; Push DE onto the stack
 294+ 9DA5 11 00 00       LD DE,#0000             ; DE=#0000
 295+ 9DA8 21 4F A8       LD HL,#A84F             ; HL=#A84F
 296+ 9DAB CD C9 9D       CALL L9B7C_23           ; CALL L9B7C_23
 297+ 9DAE D1             POP DE                  ; Pop last item from stack into DE
 298+ 9DAF C8             RET Z                   ; Return if the zero flag is set
 299+ 9DB0 E5             PUSH HL                 ; Push HL onto the stack
 300+ 9DB1 21 4F A8       LD HL,#A84F             ; HL=#A84F
 301+ 9DB4 01 09 00       LD BC,#0009             ; BC=#0009
 302+ 9DB7 ED B0          LDIR                    ; POKE DE,PEEK HL; HL=HL+1; DE=DE+1; BC=BC-1; repeat
 303+ 9DB9                                        ; until BC=0
 304+ 9DB9 E1             POP HL                  ; Pop last item from stack into HL
 305+ 9DBA              L9B7C_22:
 306+ 9DBA 7A             LD A,D                  ; A=D
 307+ 9DBB FE 20          CP #20                  ; Set the zero flag if A=#20, or the carry flag if
 308+ 9DBD                                        ; A<#20
 309+ 9DBD D0             RET NC                  ; Return if A>=#20
 310+ 9DBE 7E             LD A,(HL)               ; A=PEEK HL
 311+ 9DBF B7             OR A                    ; Clear the carry flag and set the zero flag if A=0
 312+ 9DC0 C8             RET Z                   ; Return if A=0
 313+ 9DC1 FE 5B          CP #5B                  ; Set the zero flag if A=#5B, or the carry flag if
 314+ 9DC3                                        ; A<#5B
 315+ 9DC3 C8             RET Z                   ; Return if A=#5B
 316+ 9DC4 12             LD (DE),A               ; POKE DE,A
 317+ 9DC5 23             INC HL                  ; HL=HL+1
 318+ 9DC6 13             INC DE                  ; DE=DE+1
 319+ 9DC7 18 F1          JR L9B7C_22             ; Jump to L9B7C_22
 320+ 9DC9              ; This entry point is used by the routine at L9149.
 321+ 9DC9              L9B7C_23:
 322+ 9DC9 1A             LD A,(DE)               ; A=PEEK DE
 323+ 9DCA B7             OR A                    ; Clear the carry flag and set the zero flag if A=0
 324+ 9DCB C8             RET Z                   ; Return if A=0
 325+ 9DCC BE             CP (HL)                 ; Set the zero flag if A=PEEK HL, or the carry flag
 326+ 9DCD                                        ; if A<PEEK HL
 327+ 9DCD 13             INC DE                  ; DE=DE+1
 328+ 9DCE 20 F9          JR NZ,L9B7C_23          ; Jump to L9B7C_23 if the zero flag is not set
 329+ 9DD0 44             LD B,H                  ; B=H
 330+ 9DD1 4D             LD C,L                  ; C=L
 331+ 9DD2              L9B7C_24:
 332+ 9DD2 23             INC HL                  ; HL=HL+1
 333+ 9DD3 7E             LD A,(HL)               ; A=PEEK HL
 334+ 9DD4 3C             INC A                   ; A=A+1
 335+ 9DD5 28 0B          JR Z,L9B7C_25           ; Jump to L9B7C_25 if A=0
 336+ 9DD7 1A             LD A,(DE)               ; A=PEEK DE
 337+ 9DD8 B7             OR A                    ; Clear the carry flag and set the zero flag if A=0
 338+ 9DD9 C8             RET Z                   ; Return if A=0
 339+ 9DDA BE             CP (HL)                 ; Set the zero flag if A=PEEK HL, or the carry flag
 340+ 9DDB                                        ; if A<PEEK HL
 341+ 9DDB 13             INC DE                  ; DE=DE+1
 342+ 9DDC 28 F4          JR Z,L9B7C_24           ; Jump to L9B7C_24 if the zero flag is set
 343+ 9DDE 60             LD H,B                  ; H=B
 344+ 9DDF 69             LD L,C                  ; L=C
 345+ 9DE0 18 E7          JR L9B7C_23             ; Jump to L9B7C_23
 346+ 9DE2              L9B7C_25:
 347+ 9DE2 EB             EX DE,HL                ; Exchange DE and HL
 348+ 9DE3 3E 01          LD A,#01                ; A=#01
 349+ 9DE5 B7             OR A                    ; Clear the carry flag and set the zero flag if A=0
 350+ 9DE6 C9             RET                     ; Return
 351+ 9DE7              L9B7C_26:
 352+ 9DE7 32 3F A7       LD (#A73F),A            ; POKE #A73F,A
 353+ 9DEA              L9B7C_27:
 354+ 9DEA CD FD 9D       CALL L9B7C_28           ; CALL L9B7C_28
 355+ 9DED C8             RET Z                   ; Return if the zero flag is set
 356+ 9DEE D5             PUSH DE                 ; Push DE onto the stack
 357+ 9DEF 57             LD D,A                  ; D=A
 358+ 9DF0 1E 06          LD E,#06                ; E=#06
 359+ 9DF2 CD 25 7D       CALL L7828_72           ; CALL L7828_72
 360+ 9DF5 3E 5C          LD A,#5C                ; A=#5C
 361+ 9DF7 CD 39 7D       CALL L7828_73           ; CALL L7828_73
 362+ 9DFA D1             POP DE                  ; Pop last item from stack into DE
 363+ 9DFB 18 ED          JR L9B7C_27             ; Jump to L9B7C_27
 364+ 9DFD              L9B7C_28:
 365+ 9DFD 1A             LD A,(DE)               ; A=PEEK DE
 366+ 9DFE 3C             INC A                   ; A=A+1
 367+ 9DFF C8             RET Z                   ; Return if A=0
 368+ 9E00 3D             DEC A                   ; A=A-1
 369+ 9E01 EB             EX DE,HL                ; Exchange DE and HL
 370+ 9E02 23             INC HL                  ; HL=HL+1
 371+ 9E03 5E             LD E,(HL)               ; E=PEEK HL
 372+ 9E04 23             INC HL                  ; HL=HL+1
 373+ 9E05 56             LD D,(HL)               ; D=PEEK HL
 374+ 9E06 23             INC HL                  ; HL=HL+1
 375+ 9E07 F5             PUSH AF                 ; Push AF onto the stack
 376+ 9E08 D5             PUSH DE                 ; Push DE onto the stack
 377+ 9E09 11 A0 5E       LD DE,#5EA0             ; DE=#5EA0
 378+ 9E0C CD 3C 9E       CALL L9B7C_31           ; CALL L9B7C_31
 379+ 9E0F 23             INC HL                  ; HL=HL+1
 380+ 9E10 C1             POP BC                  ; Pop last item from stack into BC
 381+ 9E11 F1             POP AF                  ; Pop last item from stack into AF
 382+ 9E12 E5             PUSH HL                 ; Push HL onto the stack
 383+ 9E13 60             LD H,B                  ; H=B
 384+ 9E14 69             LD L,C                  ; L=C
 385+ 9E15 23             INC HL                  ; HL=HL+1
 386+ 9E16 4E             LD C,(HL)               ; C=PEEK HL
 387+ 9E17 23             INC HL                  ; HL=HL+1
 388+ 9E18 47             LD B,A                  ; B=A
 389+ 9E19 04             INC B                   ; B=B+1
 390+ 9E1A AF             XOR A                   ; A=0
 391+ 9E1B 91             SUB C                   ; A=A-C
 392+ 9E1C              L9B7C_29:
 393+ 9E1C 81             ADD A,C                 ; A=A+C
 394+ 9E1D 10 FD          DJNZ L9B7C_29           ; Decrement B and jump to L9B7C_29 if B>0
 395+ 9E1F C5             PUSH BC                 ; Push BC onto the stack
 396+ 9E20 4F             LD C,A                  ; C=A
 397+ 9E21 09             ADD HL,BC               ; HL=HL+BC
 398+ 9E22 C1             POP BC                  ; Pop last item from stack into BC
 399+ 9E23 ED B0          LDIR                    ; POKE DE,PEEK HL; HL=HL+1; DE=DE+1; BC=BC-1; repeat
 400+ 9E25                                        ; until BC=0
 401+ 9E25 3E 20          LD A,#20                ; A=#20
 402+ 9E27 06 06          LD B,#06                ; B=#06
 403+ 9E29              L9B7C_30:
 404+ 9E29 12             LD (DE),A               ; POKE DE,A
 405+ 9E2A 13             INC DE                  ; DE=DE+1
 406+ 9E2B 10 FC          DJNZ L9B7C_30           ; Decrement B and jump to L9B7C_30 if B>0
 407+ 9E2D E1             POP HL                  ; Pop last item from stack into HL
 408+ 9E2E EB             EX DE,HL                ; Exchange DE and HL
 409+ 9E2F 21 3F A7       LD HL,#A73F             ; HL=#A73F
 410+ 9E32 34             INC (HL)                ; POKE HL,(PEEK HL)+1
 411+ 9E33 7E             LD A,(HL)               ; A=PEEK HL
 412+ 9E34 21 A0 5E       LD HL,#5EA0             ; HL=#5EA0
 413+ 9E37 01 18 00       LD BC,#0018             ; BC=#0018
 414+ 9E3A B7             OR A                    ; Clear the carry flag and set the zero flag if A=0
 415+ 9E3B C9             RET                     ; Return
 416+ 9E3C              L9B7C_31:
 417+ 9E3C 7E             LD A,(HL)               ; A=PEEK HL
 418+ 9E3D B7             OR A                    ; Clear the carry flag and set the zero flag if A=0
 419+ 9E3E C8             RET Z                   ; Return if A=0
 420+ 9E3F 12             LD (DE),A               ; POKE DE,A
 421+ 9E40 23             INC HL                  ; HL=HL+1
 422+ 9E41 13             INC DE                  ; DE=DE+1
 423+ 9E42 18 F8          JR L9B7C_31             ; Jump to L9B7C_31
 424+ 9E44              L9B7C_32:
 425+ 9E44 3A 20 7F       LD A,(#7F20)            ; A=PEEK #7F20
 426+ 9E47 FE 03          CP #03                  ; Set the zero flag if A=#03, or the carry flag if
 427+ 9E49                                        ; A<#03
 428+ 9E49 38 02          JR C,L9B7C_33           ; Jump to L9B7C_33 if A<#03
 429+ 9E4B 3E 02          LD A,#02                ; A=#02
 430+ 9E4D              L9B7C_33:
 431+ 9E4D 32 0B A9       LD (#A90B),A            ; POKE #A90B,A
 432+ 9E50 3A 1C 7F       LD A,(#7F1C)            ; A=PEEK #7F1C
 433+ 9E53 01 00 00       LD BC,#0000             ; BC=#0000
 434+ 9E56 CB 47          BIT 0,A                 ; Set the zero flag if bit 0 of A is 0
 435+ 9E58 28 01          JR Z,L9B7C_34           ; Jump to L9B7C_34 if bit 0 of A is reset
 436+ 9E5A 0C             INC C                   ; C=C+1
 437+ 9E5B              L9B7C_34:
 438+ 9E5B CB 4F          BIT 1,A                 ; Set the zero flag if bit 1 of A is 0
 439+ 9E5D 28 01          JR Z,L9B7C_35           ; Jump to L9B7C_35 if bit 1 of A is reset
 440+ 9E5F 04             INC B                   ; B=B+1
 441+ 9E60              L9B7C_35:
 442+ 9E60 79             LD A,C                  ; A=C
 443+ 9E61 32 1E A9       LD (#A91E),A            ; POKE #A91E,A
 444+ 9E64 78             LD A,B                  ; A=B
 445+ 9E65 32 31 A9       LD (L9B7C_180),A        ; POKE #A931,A
 446+ 9E68 3A A3 7E       LD A,(#7EA3)            ; A=PEEK #7EA3
 447+ 9E6B 32 6A A9       LD (L9B7C_183),A        ; POKE #A96A,A
 448+ 9E6E 3A 0E 60       LD A,(#600E)            ; A=PEEK #600E
 449+ 9E71 FE 19          CP #19                  ; Set the zero flag if A=#19, or the carry flag if
 450+ 9E73                                        ; A<#19
 451+ 9E73 06 00          LD B,#00                ; B=#00
 452+ 9E75 28 08          JR Z,L9B7C_36           ; Jump to L9B7C_36 if the zero flag is set
 453+ 9E77 FE 1E          CP #1E                  ; Set the zero flag if A=#1E, or the carry flag if
 454+ 9E79                                        ; A<#1E
 455+ 9E79 06 01          LD B,#01                ; B=#01
 456+ 9E7B 28 02          JR Z,L9B7C_36           ; Jump to L9B7C_36 if the zero flag is set
 457+ 9E7D 06 02          LD B,#02                ; B=#02
 458+ 9E7F              L9B7C_36:
 459+ 9E7F 78             LD A,B                  ; A=B
 460+ 9E80 32 44 A9       LD (#A944),A            ; POKE #A944,A
 461+ 9E83 3A BD 7E       LD A,(#7EBD)            ; A=PEEK #7EBD
 462+ 9E86 32 7E A9       LD (#A97E),A            ; POKE #A97E,A
 463+ 9E89 3A AA 7E       LD A,(#7EAA)            ; A=PEEK #7EAA
 464+ 9E8C B7             OR A                    ; Clear the carry flag and set the zero flag if A=0
 465+ 9E8D 28 02          JR Z,L9B7C_37           ; Jump to L9B7C_37 if A=0
 466+ 9E8F 3E 01          LD A,#01                ; A=#01
 467+ 9E91              L9B7C_37:
 468+ 9E91 32 8D A9       LD (#A98D),A            ; POKE #A98D,A
 469+ 9E94 3A C3 7E       LD A,(#7EC3)            ; A=PEEK #7EC3
 470+ 9E97 32 9C A9       LD (#A99C),A            ; POKE #A99C,A
 471+ 9E9A 3A E1 7E       LD A,(#7EE1)            ; A=PEEK #7EE1
 472+ 9E9D 32 AC A9       LD (#A9AC),A            ; POKE #A9AC,A
 473+ 9EA0 3A CE 7E       LD A,(#7ECE)            ; A=PEEK #7ECE
 474+ 9EA3 B7             OR A                    ; Clear the carry flag and set the zero flag if A=0
 475+ 9EA4 28 02          JR Z,L9B7C_38           ; Jump to L9B7C_38 if A=0
 476+ 9EA6 3E 01          LD A,#01                ; A=#01
 477+ 9EA8              L9B7C_38:
 478+ 9EA8 32 BB A9       LD (#A9BB),A            ; POKE #A9BB,A
 479+ 9EAB 3A E7 7E       LD A,(#7EE7)            ; A=PEEK #7EE7
 480+ 9EAE 32 CA A9       LD (#A9CA),A            ; POKE #A9CA,A
 481+ 9EB1 C9             RET                     ; Return
 482+ 9EB2              ; This entry point is used by the routine at L6011.
 483+ 9EB2              L9B7C_39:
 484+ 9EB2 3A 1C 7F       LD A,(#7F1C)            ; A=PEEK #7F1C
 485+ 9EB5 CB 47          BIT 0,A                 ; Set the zero flag if bit 0 of A is 0
 486+ 9EB7 20 15          JR NZ,L9B7C_40          ; Jump to L9B7C_40 if bit 0 of A is set
 487+ 9EB9 DD 21 A0 7E    LD IX,L7EA0             ; IX=#7EA0
 488+ 9EBD CD 68 68       CALL L6011_104          ; CALL L6011_104
 489+ 9EC0 CD ED 63       CALL L6011_46           ; CALL L6011_46
 490+ 9EC3 DD 21 C4 7E    LD IX,#7EC4             ; IX=#7EC4
 491+ 9EC7 CD 68 68       CALL L6011_104          ; CALL L6011_104
 492+ 9ECA CD ED 63       CALL L6011_46           ; CALL L6011_46
 493+ 9ECD C9             RET                     ; Return
 494+ 9ECE              L9B7C_40:
 495+ 9ECE DD 21 A0 7E    LD IX,L7EA0             ; IX=#7EA0
 496+ 9ED2 21 00 D0       LD HL,#D000             ; HL=#D000
 497+ 9ED5 CD 62 9F       CALL L9B7C_45           ; CALL L9B7C_45
 498+ 9ED8 DD 21 C4 7E    LD IX,#7EC4             ; IX=#7EC4
 499+ 9EDC 21 00 E0       LD HL,#E000             ; HL=#E000
 500+ 9EDF CD 62 9F       CALL L9B7C_45           ; CALL L9B7C_45
 501+ 9EE2 CD D2 68       CALL L6011_116          ; CALL L6011_116
 502+ 9EE5 3A FC DF       LD A,(#DFFC)            ; A=PEEK #DFFC
 503+ 9EE8 FE 42          CP #42                  ; Set the zero flag if A=#42, or the carry flag if
 504+ 9EEA                                        ; A<#42
 505+ 9EEA 28 0B          JR Z,L9B7C_41           ; Jump to L9B7C_41 if A=#42
 506+ 9EEC FE 41          CP #41                  ; Set the zero flag if A=#41, or the carry flag if
 507+ 9EEE                                        ; A<#41
 508+ 9EEE 20 63          JR NZ,L9B7C_44          ; Jump to L9B7C_44 if A<>#41
 509+ 9EF0 DD 21 A0 7E    LD IX,L7EA0             ; IX=#7EA0
 510+ 9EF4 CD 68 68       CALL L6011_104          ; CALL L6011_104
 511+ 9EF7              L9B7C_41:
 512+ 9EF7 3A 1C 7F       LD A,(#7F1C)            ; A=PEEK #7F1C
 513+ 9EFA CB 4F          BIT 1,A                 ; Set the zero flag if bit 1 of A is 0
 514+ 9EFC C8             RET Z                   ; Return if bit 1 of A is reset
 515+ 9EFD CD 45 9F       CALL L9B7C_43           ; CALL L9B7C_43
 516+ 9F00 7E             LD A,(HL)               ; A=PEEK HL
 517+ 9F01 3C             INC A                   ; A=A+1
 518+ 9F02 4F             LD C,A                  ; C=A
 519+ 9F03 DD 7E 05       LD A,(IX+#05)           ; A=PEEK (IX+#05)
 520+ 9F06 D6 02          SUB #02                 ; A=A-#02
 521+ 9F08 DD 96 0A       SUB (IX+#0A)            ; A=A-PEEK (IX+#0A)
 522+ 9F0B B9             CP C                    ; Set the zero flag if A=C, or the carry flag if A<C
 523+ 9F0C DA BB 65       JP C,L6011_78           ; Jump to L6011_78 if A<C
 524+ 9F0F 2B             DEC HL                  ; HL=HL-1
 525+ 9F10 5E             LD E,(HL)               ; E=PEEK HL
 526+ 9F11 2B             DEC HL                  ; HL=HL-1
 527+ 9F12 56             LD D,(HL)               ; D=PEEK HL
 528+ 9F13 26 00          LD H,#00                ; H=#00
 529+ 9F15 69             LD L,C                  ; L=C
 530+ 9F16 19             ADD HL,DE               ; HL=HL+DE
 531+ 9F17 D5             PUSH DE                 ; Push DE onto the stack
 532+ 9F18 EB             EX DE,HL                ; Exchange DE and HL
 533+ 9F19 DD 6E 12       LD L,(IX+#12)           ; L=PEEK (IX+#12)
 534+ 9F1C DD 66 13       LD H,(IX+#13)           ; H=PEEK (IX+#13)
 535+ 9F1F B7             OR A                    ; Clear the carry flag and set the zero flag if A=0
 536+ 9F20 ED 52          SBC HL,DE               ; HL=HL-carry-DE
 537+ 9F22 D1             POP DE                  ; Pop last item from stack into DE
 538+ 9F23 DA BB 65       JP C,L6011_78           ; Jump to L6011_78 if the carry flag is set
 539+ 9F26 DD 71 0C       LD (IX+#0C),C           ; POKE (IX+#0C),C
 540+ 9F29 DD 73 10       LD (IX+#10),E           ; POKE (IX+#10),E
 541+ 9F2C DD 72 11       LD (IX+#11),D           ; POKE (IX+#11),D
 542+ 9F2F C3 BB 65       JP L6011_78             ; Jump to L6011_78
 543+ 9F32              ; This entry point is used by the routine at L8531.
 544+ 9F32              L9B7C_42:
 545+ 9F32 CD 45 9F       CALL L9B7C_43           ; CALL L9B7C_43
 546+ 9F35 DD 7E 0C       LD A,(IX+#0C)           ; A=PEEK (IX+#0C)
 547+ 9F38 3D             DEC A                   ; A=A-1
 548+ 9F39 77             LD (HL),A               ; POKE HL,A
 549+ 9F3A 2B             DEC HL                  ; HL=HL-1
 550+ 9F3B DD 7E 10       LD A,(IX+#10)           ; A=PEEK (IX+#10)
 551+ 9F3E 77             LD (HL),A               ; POKE HL,A
 552+ 9F3F 2B             DEC HL                  ; HL=HL-1
 553+ 9F40 DD 7E 11       LD A,(IX+#11)           ; A=PEEK (IX+#11)
 554+ 9F43 77             LD (HL),A               ; POKE HL,A
 555+ 9F44 C9             RET                     ; Return
 556+ 9F45              L9B7C_43:
 557+ 9F45 CD D2 68       CALL L6011_116          ; CALL L6011_116
 558+ 9F48 DD 6E 1E       LD L,(IX+#1E)           ; L=PEEK (IX+#1E)
 559+ 9F4B DD 7E 1F       LD A,(IX+#1F)           ; A=PEEK (IX+#1F)
 560+ 9F4E C6 C0          ADD A,#C0               ; A=A+#C0
 561+ 9F50 67             LD H,A                  ; H=A
 562+ 9F51 2B             DEC HL                  ; HL=HL-1
 563+ 9F52 C9             RET                     ; Return
 564+ 9F53              L9B7C_44:
 565+ 9F53 CD 45 9F       CALL L9B7C_43           ; CALL L9B7C_43
 566+ 9F56 AF             XOR A                   ; A=0
 567+ 9F57 77             LD (HL),A               ; POKE HL,A
 568+ 9F58 2B             DEC HL                  ; HL=HL-1
 569+ 9F59 77             LD (HL),A               ; POKE HL,A
 570+ 9F5A 2B             DEC HL                  ; HL=HL-1
 571+ 9F5B 77             LD (HL),A               ; POKE HL,A
 572+ 9F5C 3E 42          LD A,#42                ; A=#42
 573+ 9F5E 32 FC DF       LD (#DFFC),A            ; POKE #DFFC,A
 574+ 9F61 C9             RET                     ; Return
 575+ 9F62              L9B7C_45:
 576+ 9F62 CD D2 68       CALL L6011_116          ; CALL L6011_116
 577+ 9F65 4E             LD C,(HL)               ; C=PEEK HL
 578+ 9F66 23             INC HL                  ; HL=HL+1
 579+ 9F67 7E             LD A,(HL)               ; A=PEEK HL
 580+ 9F68 23             INC HL                  ; HL=HL+1
 581+ 9F69 FE 3A          CP #3A                  ; Set the zero flag if A=#3A, or the carry flag if
 582+ 9F6B                                        ; A<#3A
 583+ 9F6B C2 01 A0       JP NZ,L9B7C_51          ; Jump to L9B7C_51 if A<>#3A
 584+ 9F6E 7E             LD A,(HL)               ; A=PEEK HL
 585+ 9F6F 23             INC HL                  ; HL=HL+1
 586+ 9F70 FE 5C          CP #5C                  ; Set the zero flag if A=#5C, or the carry flag if
 587+ 9F72                                        ; A<#5C
 588+ 9F72 C2 01 A0       JP NZ,L9B7C_51          ; Jump to L9B7C_51 if A<>#5C
 589+ 9F75 79             LD A,C                  ; A=C
 590+ 9F76 D6 30          SUB #30                 ; A=A-#30
 591+ 9F78 FE 07          CP #07                  ; Set the zero flag if A=#07, or the carry flag if
 592+ 9F7A                                        ; A<#07
 593+ 9F7A D2 01 A0       JP NC,L9B7C_51          ; Jump to L9B7C_51 if A>=#07
 594+ 9F7D DD 77 1D       LD (IX+#1D),A           ; POKE (IX+#1D),A
 595+ 9F80 DD 36 1C 00    LD (IX+#1C),#00         ; POKE (IX+#1C),0
 596+ 9F84 DD 36 22 01    LD (IX+#22),#01         ; POKE (IX+#22),1
 597+ 9F88 F5             PUSH AF                 ; Push AF onto the stack
 598+ 9F89 E5             PUSH HL                 ; Push HL onto the stack
 599+ 9F8A CD 68 68       CALL L6011_104          ; CALL L6011_104
 600+ 9F8D CD CD 63       CALL L6011_44           ; CALL L6011_44
 601+ 9F90 CD EB 62       CALL L6011_32           ; CALL L6011_32
 602+ 9F93 E1             POP HL                  ; Pop last item from stack into HL
 603+ 9F94 F1             POP AF                  ; Pop last item from stack into AF
 604+ 9F95 DD 36 22 00    LD (IX+#22),#00         ; POKE (IX+#22),0
 605+ 9F99 DD BE 1D       CP (IX+#1D)             ; Set the zero flag if A=PEEK (IX+#1D), or the carry
 606+ 9F9C                                        ; flag if A<PEEK (IX+#1D)
 607+ 9F9C 20 5F          JR NZ,L9B7C_50          ; Jump to L9B7C_50 if A<>PEEK (IX+#1D)
 608+ 9F9E              L9B7C_46:
 609+ 9F9E CD D2 68       CALL L6011_116          ; CALL L6011_116
 610+ 9FA1 7E             LD A,(HL)               ; A=PEEK HL
 611+ 9FA2 FE FF          CP #FF                  ; Set the zero flag if A=#FF, or the carry flag if
 612+ 9FA4                                        ; A<#FF
 613+ 9FA4 28 4A          JR Z,L9B7C_49           ; Jump to L9B7C_49 if A=#FF
 614+ 9FA6 06 7F          LD B,#7F                ; B=#7F
 615+ 9FA8 11 A1 5E       LD DE,#5EA1             ; DE=#5EA1
 616+ 9FAB              L9B7C_47:
 617+ 9FAB 7E             LD A,(HL)               ; A=PEEK HL
 618+ 9FAC 23             INC HL                  ; HL=HL+1
 619+ 9FAD FE 5C          CP #5C                  ; Set the zero flag if A=#5C, or the carry flag if
 620+ 9FAF                                        ; A<#5C
 621+ 9FAF 28 06          JR Z,L9B7C_48           ; Jump to L9B7C_48 if A=#5C
 622+ 9FB1 12             LD (DE),A               ; POKE DE,A
 623+ 9FB2 13             INC DE                  ; DE=DE+1
 624+ 9FB3 10 F6          DJNZ L9B7C_47           ; Decrement B and jump to L9B7C_47 if B>0
 625+ 9FB5 18 46          JR L9B7C_50             ; Jump to L9B7C_50
 626+ 9FB7              L9B7C_48:
 627+ 9FB7 AF             XOR A                   ; A=0
 628+ 9FB8 12             LD (DE),A               ; POKE DE,A
 629+ 9FB9 E5             PUSH HL                 ; Push HL onto the stack
 630+ 9FBA 21 A0 5E       LD HL,#5EA0             ; HL=#5EA0
 631+ 9FBD 36 10          LD (HL),#10             ; POKE HL,#10
 632+ 9FBF CD 4E 40       CALL #404E              ; CALL 404E
 633+ 9FC2 22 28 7F       LD (#7F28),HL           ; POKE #7F28,L; POKE #7F29,H
 634+ 9FC5 ED 53 2A 7F    LD (#7F2A),DE           ; POKE #7F2A,E; POKE #7F2B,D
 635+ 9FC9 E1             POP HL                  ; Pop last item from stack into HL
 636+ 9FCA 28 31          JR Z,L9B7C_50           ; Jump to L9B7C_50 if the zero flag is set
 637+ 9FCC E5             PUSH HL                 ; Push HL onto the stack
 638+ 9FCD 21 28 7F       LD HL,#7F28             ; HL=#7F28
 639+ 9FD0 CD 1E 40       CALL #401E              ; CALL 401E
 640+ 9FD3 E1             POP HL                  ; Pop last item from stack into HL
 641+ 9FD4 E5             PUSH HL                 ; Push HL onto the stack
 642+ 9FD5 DD 7E 16       LD A,(IX+#16)           ; A=PEEK (IX+#16)
 643+ 9FD8 CD C1 68       CALL L6011_114          ; CALL L6011_114
 644+ 9FDB DD 6E 17       LD L,(IX+#17)           ; L=PEEK (IX+#17)
 645+ 9FDE DD 66 18       LD H,(IX+#18)           ; H=PEEK (IX+#18)
 646+ 9FE1 11 00 C0       LD DE,LC000             ; DE=#C000
 647+ 9FE4 01 00 00       LD BC,#0000             ; BC=#0000
 648+ 9FE7 3E 01          LD A,#01                ; A=#01
 649+ 9FE9 CD 72 63       CALL L6011_38           ; CALL L6011_38
 650+ 9FEC E1             POP HL                  ; Pop last item from stack into HL
 651+ 9FED C3 9E 9F       JP L9B7C_46             ; Jump to L9B7C_46
 652+ 9FF0              L9B7C_49:
 653+ 9FF0 11 00 40       LD DE,#4000             ; DE=#4000
 654+ 9FF3 19             ADD HL,DE               ; HL=HL+DE
 655+ 9FF4 DD 75 20       LD (IX+#20),L           ; POKE (IX+#20),L
 656+ 9FF7 DD 74 21       LD (IX+#21),H           ; POKE (IX+#21),H
 657+ 9FFA C3 F0 63       JP L6011_47             ; Jump to L6011_47
 658+ 9FFD              L9B7C_50:
 659+ 9FFD DD 36 1C 00    LD (IX+#1C),#00         ; POKE (IX+#1C),0
 660+ A001              L9B7C_51:
 661+ A001 CD 53 9F       CALL L9B7C_44           ; CALL L9B7C_44
 662+ A004 CD 68 68       CALL L6011_104          ; CALL L6011_104
 663+ A007 CD ED 63       CALL L6011_46           ; CALL L6011_46
 664+ A00A C9             RET                     ; Return
 665+ A00B              ; This entry point is used by the routine at L6011.
 666+ A00B              L9B7C_52:
 667+ A00B 3E F7          LD A,#F7                ; A=#F7
 668+ A00D CD 9C 68       CALL L6011_108          ; CALL L6011_108
 669+ A010 DD 6E 1E       LD L,(IX+#1E)           ; L=PEEK (IX+#1E)
 670+ A013 DD 66 1F       LD H,(IX+#1F)           ; H=PEEK (IX+#1F)
 671+ A016 2B             DEC HL                  ; HL=HL-1
 672+ A017 AF             XOR A                   ; A=0
 673+ A018 77             LD (HL),A               ; POKE HL,A
 674+ A019 2B             DEC HL                  ; HL=HL-1
 675+ A01A 77             LD (HL),A               ; POKE HL,A
 676+ A01B 2B             DEC HL                  ; HL=HL-1
 677+ A01C 77             LD (HL),A               ; POKE HL,A
 678+ A01D EB             EX DE,HL                ; Exchange DE and HL
 679+ A01E DD 5E 20       LD E,(IX+#20)           ; E=PEEK (IX+#20)
 680+ A021 DD 56 21       LD D,(IX+#21)           ; D=PEEK (IX+#21)
 681+ A024 3E 2E          LD A,#2E                ; A=#2E
 682+ A026 BE             CP (HL)                 ; Set the zero flag if A=PEEK HL, or the carry flag
 683+ A027                                        ; if A<PEEK HL
 684+ A027 28 1B          JR Z,L9B7C_58           ; Jump to L9B7C_58 if A=PEEK HL
 685+ A029              L9B7C_53:
 686+ A029 06 FF          LD B,#FF                ; B=#FF
 687+ A02B              L9B7C_54:
 688+ A02B 7E             LD A,(HL)               ; A=PEEK HL
 689+ A02C 23             INC HL                  ; HL=HL+1
 690+ A02D B7             OR A                    ; Clear the carry flag and set the zero flag if A=0
 691+ A02E 28 04          JR Z,L9B7C_55           ; Jump to L9B7C_55 if A=0
 692+ A030 12             LD (DE),A               ; POKE DE,A
 693+ A031 13             INC DE                  ; DE=DE+1
 694+ A032 10 F7          DJNZ L9B7C_54           ; Decrement B and jump to L9B7C_54 if B>0
 695+ A034              L9B7C_55:
 696+ A034 3E 5C          LD A,#5C                ; A=#5C
 697+ A036 12             LD (DE),A               ; POKE DE,A
 698+ A037 13             INC DE                  ; DE=DE+1
 699+ A038              L9B7C_56:
 700+ A038 3E FF          LD A,#FF                ; A=#FF
 701+ A03A 12             LD (DE),A               ; POKE DE,A
 702+ A03B DD 73 20       LD (IX+#20),E           ; POKE (IX+#20),E
 703+ A03E DD 72 21       LD (IX+#21),D           ; POKE (IX+#21),D
 704+ A041              L9B7C_57:
 705+ A041 C3 7D 68       JP L6011_105            ; Jump to L6011_105
 706+ A044              L9B7C_58:
 707+ A044 23             INC HL                  ; HL=HL+1
 708+ A045 BE             CP (HL)                 ; Set the zero flag if A=PEEK HL, or the carry flag
 709+ A046                                        ; if A<PEEK HL
 710+ A046 20 18          JR NZ,L9B7C_61          ; Jump to L9B7C_61 if A<>PEEK HL
 711+ A048 23             INC HL                  ; HL=HL+1
 712+ A049 7E             LD A,(HL)               ; A=PEEK HL
 713+ A04A 2B             DEC HL                  ; HL=HL-1
 714+ A04B B7             OR A                    ; Clear the carry flag and set the zero flag if A=0
 715+ A04C 20 12          JR NZ,L9B7C_61          ; Jump to L9B7C_61 if A>0
 716+ A04E 06 FF          LD B,#FF                ; B=#FF
 717+ A050 1B             DEC DE                  ; DE=DE-1
 718+ A051              L9B7C_59:
 719+ A051 1B             DEC DE                  ; DE=DE-1
 720+ A052 1A             LD A,(DE)               ; A=PEEK DE
 721+ A053 FE 5C          CP #5C                  ; Set the zero flag if A=#5C, or the carry flag if
 722+ A055                                        ; A<#5C
 723+ A055 28 06          JR Z,L9B7C_60           ; Jump to L9B7C_60 if A=#5C
 724+ A057 FE 3A          CP #3A                  ; Set the zero flag if A=#3A, or the carry flag if
 725+ A059                                        ; A<#3A
 726+ A059 28 E6          JR Z,L9B7C_57           ; Jump to L9B7C_57 if A=#3A
 727+ A05B 10 F4          DJNZ L9B7C_59           ; Decrement B and jump to L9B7C_59 if B>0
 728+ A05D              L9B7C_60:
 729+ A05D 13             INC DE                  ; DE=DE+1
 730+ A05E 18 D8          JR L9B7C_56             ; Jump to L9B7C_56
 731+ A060              L9B7C_61:
 732+ A060 2B             DEC HL                  ; HL=HL-1
 733+ A061 C3 29 A0       JP L9B7C_53             ; Jump to L9B7C_53
 734+ A064              ; This entry point is used by the routine at L6011.
 735+ A064              L9B7C_62:
 736+ A064 DD 7E 22       LD A,(IX+#22)           ; A=PEEK (IX+#22)
 737+ A067 B7             OR A                    ; Clear the carry flag and set the zero flag if A=0
 738+ A068 C0             RET NZ                  ; Return if A>0
 739+ A069 3E F7          LD A,#F7                ; A=#F7
 740+ A06B CD 9C 68       CALL L6011_108          ; CALL L6011_108
 741+ A06E DD 6E 1E       LD L,(IX+#1E)           ; L=PEEK (IX+#1E)
 742+ A071 DD 66 1F       LD H,(IX+#1F)           ; H=PEEK (IX+#1F)
 743+ A074 DD 7E 1D       LD A,(IX+#1D)           ; A=PEEK (IX+#1D)
 744+ A077 C6 30          ADD A,#30               ; A=A+#30
 745+ A079 77             LD (HL),A               ; POKE HL,A
 746+ A07A 23             INC HL                  ; HL=HL+1
 747+ A07B 36 3A          LD (HL),#3A             ; POKE HL,#3A
 748+ A07D 23             INC HL                  ; HL=HL+1
 749+ A07E 36 5C          LD (HL),#5C             ; POKE HL,#5C
 750+ A080 23             INC HL                  ; HL=HL+1
 751+ A081 36 FF          LD (HL),#FF             ; POKE HL,#FF
 752+ A083 DD 75 20       LD (IX+#20),L           ; POKE (IX+#20),L
 753+ A086 DD 74 21       LD (IX+#21),H           ; POKE (IX+#21),H
 754+ A089 C3 7D 68       JP L6011_105            ; Jump to L6011_105
 755+ A08C              ; This entry point is used by the routine at L6011.
 756+ A08C              L9B7C_63:
 757+ A08C 3E F7          LD A,#F7                ; A=#F7
 758+ A08E CD 9C 68       CALL L6011_108          ; CALL L6011_108
 759+ A091 DD 6E 1E       LD L,(IX+#1E)           ; L=PEEK (IX+#1E)
 760+ A094 DD 66 1F       LD H,(IX+#1F)           ; H=PEEK (IX+#1F)
 761+ A097 54             LD D,H                  ; D=H
 762+ A098 5D             LD E,L                  ; E=L
 763+ A099 06 28          LD B,#28                ; B=#28
 764+ A09B              L9B7C_64:
 765+ A09B 1A             LD A,(DE)               ; A=PEEK DE
 766+ A09C 13             INC DE                  ; DE=DE+1
 767+ A09D FE FF          CP #FF                  ; Set the zero flag if A=#FF, or the carry flag if
 768+ A09F                                        ; A<#FF
 769+ A09F 28 02          JR Z,L9B7C_65           ; Jump to L9B7C_65 if A=#FF
 770+ A0A1 10 F8          DJNZ L9B7C_64           ; Decrement B and jump to L9B7C_64 if B>0
 771+ A0A3              L9B7C_65:
 772+ A0A3 3E 28          LD A,#28                ; A=#28
 773+ A0A5 90             SUB B                   ; A=A-B
 774+ A0A6 4F             LD C,A                  ; C=A
 775+ A0A7 C5             PUSH BC                 ; Push BC onto the stack
 776+ A0A8 06 00          LD B,#00                ; B=#00
 777+ A0AA 4F             LD C,A                  ; C=A
 778+ A0AB 11 00 00       LD DE,#0000             ; DE=#0000
 779+ A0AE CD 25 7D       CALL L7828_72           ; CALL L7828_72
 780+ A0B1 C1             POP BC                  ; Pop last item from stack into BC
 781+ A0B2 59             LD E,C                  ; E=C
 782+ A0B3 21 A0 5E       LD HL,#5EA0             ; HL=#5EA0
 783+ A0B6 48             LD C,B                  ; C=B
 784+ A0B7 78             LD A,B                  ; A=B
 785+ A0B8 B7             OR A                    ; Clear the carry flag and set the zero flag if A=0
 786+ A0B9 28 10          JR Z,L9B7C_67           ; Jump to L9B7C_67 if A=0
 787+ A0BB 3E 20          LD A,#20                ; A=#20
 788+ A0BD              L9B7C_66:
 789+ A0BD 77             LD (HL),A               ; POKE HL,A
 790+ A0BE 23             INC HL                  ; HL=HL+1
 791+ A0BF 10 FC          DJNZ L9B7C_66           ; Decrement B and jump to L9B7C_66 if B>0
 792+ A0C1 06 00          LD B,#00                ; B=#00
 793+ A0C3 21 A0 5E       LD HL,#5EA0             ; HL=#5EA0
 794+ A0C6 16 00          LD D,#00                ; D=#00
 795+ A0C8 CD 25 7D       CALL L7828_72           ; CALL L7828_72
 796+ A0CB              L9B7C_67:
 797+ A0CB C3 7D 68       JP L6011_105            ; Jump to L6011_105
 798+ A0CE              ; This entry point is used by the routine at L6011.
 799+ A0CE              L9B7C_68:
 800+ A0CE CD 3E A1       CALL L9B7C_71           ; CALL L9B7C_71
 801+ A0D1 CD 43 A2       CALL L9B7C_78           ; CALL L9B7C_78
 802+ A0D4 B7             OR A                    ; Clear the carry flag and set the zero flag if A=0
 803+ A0D5 20 13          JR NZ,L9B7C_69          ; Jump to L9B7C_69 if A>0
 804+ A0D7 3E 01          LD A,#01                ; A=#01
 805+ A0D9 32 10 60       LD (#6010),A            ; POKE #6010,A
 806+ A0DC CD E3 A2       CALL L9B7C_87           ; CALL L9B7C_87
 807+ A0DF 21 6B 7F       LD HL,#7F6B             ; HL=#7F6B
 808+ A0E2 06 20          LD B,#20                ; B=#20
 809+ A0E4 CD 99 69       CALL L6011_129          ; CALL L6011_129
 810+ A0E7 C3 4B 74       JP L7143_48             ; Jump to L7143_48
 811+ A0EA              L9B7C_69:
 812+ A0EA F5             PUSH AF                 ; Push AF onto the stack
 813+ A0EB CD 9F 69       CALL L6011_131          ; CALL L6011_131
 814+ A0EE F1             POP AF                  ; Pop last item from stack into AF
 815+ A0EF 21 97 A8       LD HL,L9B7C_172         ; HL=#A897
 816+ A0F2 01 1A 00       LD BC,#001A             ; BC=#001A
 817+ A0F5 3D             DEC A                   ; A=A-1
 818+ A0F6 28 1B          JR Z,L9B7C_70           ; Jump to L9B7C_70 if A=0
 819+ A0F8 21 C0 A8       LD HL,#A8C0             ; HL=#A8C0
 820+ A0FB 01 14 00       LD BC,#0014             ; BC=#0014
 821+ A0FE 3D             DEC A                   ; A=A-1
 822+ A0FF 28 12          JR Z,L9B7C_70           ; Jump to L9B7C_70 if A=0
 823+ A101 21 D4 A8       LD HL,#A8D4             ; HL=#A8D4
 824+ A104 01 11 00       LD BC,#0011             ; BC=#0011
 825+ A107 3D             DEC A                   ; A=A-1
 826+ A108 28 09          JR Z,L9B7C_70           ; Jump to L9B7C_70 if A=0
 827+ A10A 21 E5 A8       LD HL,#A8E5             ; HL=#A8E5
 828+ A10D 01 13 00       LD BC,#0013             ; BC=#0013
 829+ A110 3D             DEC A                   ; A=A-1
 830+ A111 28 00          JR Z,L9B7C_70           ; Jump to L9B7C_70 if A=0
 831+ A113              L9B7C_70:
 832+ A113 E5             PUSH HL                 ; Push HL onto the stack
 833+ A114 C5             PUSH BC                 ; Push BC onto the stack
 834+ A115 DD 21 9E A7    LD IX,#A79E             ; IX=#A79E
 835+ A119 CD 2C 79       CALL #792C              ; CALL 792C
 836+ A11C 21 B1 A8       LD HL,#A8B1             ; HL=#A8B1
 837+ A11F 11 0E 00       LD DE,#000E             ; DE=#000E
 838+ A122 01 0F 00       LD BC,#000F             ; BC=#000F
 839+ A125 CD 25 7D       CALL L7828_72           ; CALL L7828_72
 840+ A128 3E F1          LD A,#F1                ; A=#F1
 841+ A12A CD 39 7D       CALL L7828_73           ; CALL L7828_73
 842+ A12D C1             POP BC                  ; Pop last item from stack into BC
 843+ A12E E1             POP HL                  ; Pop last item from stack into HL
 844+ A12F 11 0C 01       LD DE,#010C             ; DE=#010C
 845+ A132 CD 25 7D       CALL L7828_72           ; CALL L7828_72
 846+ A135 CD 4B 74       CALL L7143_48           ; CALL L7143_48
 847+ A138 CD 43 74       CALL L7143_47           ; CALL L7143_47
 848+ A13B C3 CE 7A       JP L7828_38             ; Jump to L7828_38
 849+ A13E              L9B7C_71:
 850+ A13E 01 AF 00       LD BC,#00AF             ; BC=#00AF
 851+ A141 ED 78          IN A,(C)                ; A=IN BC
 852+ A143 E6 07          AND #07                 ; Keep only bits 0, 1 and 2 of A
 853+ A145 32 0D 60       LD (#600D),A            ; POKE #600D,A
 854+ A148 21 00 80       LD HL,L7EA0_0           ; HL=#8000
 855+ A14B 22 11 60       LD (L6011),HL           ; POKE #6011,L; POKE #6012,H
 856+ A14E 21 1E 83       LD HL,#831E             ; HL=#831E
 857+ A151 22 0E 60       LD (#600E),HL           ; POKE #600E,L; POKE #600F,H
 858+ A154 3E C3          LD A,#C3                ; A=#C3
 859+ A156 32 06 60       LD (#6006),A            ; POKE #6006,A
 860+ A159 21 DD 6F       LD HL,#6FDD             ; HL=#6FDD
 861+ A15C 22 07 60       LD (#6007),HL           ; POKE #6007,L; POKE #6008,H
 862+ A15F 3E 05          LD A,#05                ; A=#05
 863+ A161 32 01 60       LD (#6001),A            ; POKE #6001,A
 864+ A164 3E 02          LD A,#02                ; A=#02
 865+ A166 32 02 60       LD (#6002),A            ; POKE #6002,A
 866+ A169 AF             XOR A                   ; A=0
 867+ A16A CD C1 68       CALL L6011_114          ; CALL L6011_114
 868+ A16D 21 00 00       LD HL,#0000             ; HL=#0000
 869+ A170 22 00 C0       LD (LC000),HL           ; POKE #C000,L; POKE #C001,H
 870+ A173 01 AF 27       LD BC,#27AF             ; BC=#27AF
 871+ A176              L9B7C_72:
 872+ A176 ED 70          DB #ED,#70
 873+ A178 FA 76 A1       JP M,L9B7C_72           ; Jump to L9B7C_72 if the sign flag is set (negative)
 874+ A17B 06 26          LD B,#26                ; B=#26
 875+ A17D 3E FF          LD A,#FF                ; A=#FF
 876+ A17F ED 79          OUT (C),A               ; OUT BC,A
 877+ A181 06 28          LD B,#28                ; B=#28
 878+ A183 3E 11          LD A,#11                ; A=#11
 879+ A185 ED 79          OUT (C),A               ; OUT BC,A
 880+ A187 AF             XOR A                   ; A=0
 881+ A188 06 1A          LD B,#1A                ; B=#1A
 882+ A18A ED 79          OUT (C),A               ; OUT BC,A
 883+ A18C 04             INC B                   ; B=B+1
 884+ A18D ED 79          OUT (C),A               ; OUT BC,A
 885+ A18F 04             INC B                   ; B=B+1
 886+ A190 ED 79          OUT (C),A               ; OUT BC,A
 887+ A192 06 1F          LD B,#1F                ; B=#1F
 888+ A194 ED 79          OUT (C),A               ; OUT BC,A
 889+ A196 05             DEC B                   ; B=B-1
 890+ A197 ED 79          OUT (C),A               ; OUT BC,A
 891+ A199 3C             INC A                   ; A=A+1
 892+ A19A 3C             INC A                   ; A=A+1
 893+ A19B 05             DEC B                   ; B=B-1
 894+ A19C ED 79          OUT (C),A               ; OUT BC,A
 895+ A19E 06 27          LD B,#27                ; B=#27
 896+ A1A0 3E 04          LD A,#04                ; A=#04
 897+ A1A2 ED 79          OUT (C),A               ; OUT BC,A
 898+ A1A4 CD 65 98       CALL L9149_68           ; CALL L9149_68
 899+ A1A7 3E 01          LD A,#01                ; A=#01
 900+ A1A9 CD C1 68       CALL L6011_114          ; CALL L6011_114
 901+ A1AC 21 9F AB       LD HL,LAB9F             ; HL=#AB9F
 902+ A1AF 11 00 C0       LD DE,LC000             ; DE=#C000
 903+ A1B2 01 00 08       LD BC,#0800             ; BC=#0800
 904+ A1B5 ED B0          LDIR                    ; POKE DE,PEEK HL; HL=HL+1; DE=DE+1; BC=BC-1; repeat
 905+ A1B7                                        ; until BC=0
 906+ A1B7 11 E9 FE       LD DE,#FEE9             ; DE=#FEE9
 907+ A1BA 01 17 01       LD BC,#0117             ; BC=#0117
 908+ A1BD ED B0          LDIR                    ; POKE DE,PEEK HL; HL=HL+1; DE=DE+1; BC=BC-1; repeat
 909+ A1BF                                        ; until BC=0
 910+ A1BF 11 00 FE       LD DE,#FE00             ; DE=#FE00
 911+ A1C2 01 E9 00       LD BC,#00E9             ; BC=#00E9
 912+ A1C5 ED B0          LDIR                    ; POKE DE,PEEK HL; HL=HL+1; DE=DE+1; BC=BC-1; repeat
 913+ A1C7                                        ; until BC=0
 914+ A1C7 3E 09          LD A,#09                ; A=#09
 915+ A1C9 CD C1 68       CALL L6011_114          ; CALL L6011_114
 916+ A1CC 21 9F AB       LD HL,LAB9F             ; HL=#AB9F
 917+ A1CF 11 00 C0       LD DE,LC000             ; DE=#C000
 918+ A1D2 01 00 08       LD BC,#0800             ; BC=#0800
 919+ A1D5 ED B0          LDIR                    ; POKE DE,PEEK HL; HL=HL+1; DE=DE+1; BC=BC-1; repeat
 920+ A1D7                                        ; until BC=0
 921+ A1D7 3E F0          LD A,#F0                ; A=#F0
 922+ A1D9 CD 9C 68       CALL L6011_108          ; CALL L6011_108
 923+ A1DC CD 94 68       CALL L6011_107          ; CALL L6011_107
 924+ A1DF C9             RET                     ; Return
 925+ A1E0              ; This entry point is used by the routine at L6011.
 926+ A1E0              L9B7C_73:
 927+ A1E0 DD 21 87 84    LD IX,#8487             ; IX=#8487
 928+ A1E4 3A A3 7E       LD A,(#7EA3)            ; A=PEEK #7EA3
 929+ A1E7 B7             OR A                    ; Clear the carry flag and set the zero flag if A=0
 930+ A1E8 28 2F          JR Z,L9B7C_75           ; Jump to L9B7C_75 if A=0
 931+ A1EA 11 20 00       LD DE,#0020             ; DE=#0020
 932+ A1ED 43             LD B,E                  ; B=E
 933+ A1EE CD 45 7D       CALL L7828_75           ; CALL L7828_75
 934+ A1F1 AF             XOR A                   ; A=0
 935+ A1F2 CD 39 7D       CALL L7828_73           ; CALL L7828_73
 936+ A1F5 21 8E 84       LD HL,#848E             ; HL=#848E
 937+ A1F8 11 00 00       LD DE,#0000             ; DE=#0000
 938+ A1FB CD 81 7D       CALL L7828_80           ; CALL L7828_80
 939+ A1FE 21 63 7F       LD HL,#7F63             ; HL=#7F63
 940+ A201 11 48 00       LD DE,#0048             ; DE=#0048
 941+ A204 3A 0E 60       LD A,(#600E)            ; A=PEEK #600E
 942+ A207 FE 24          CP #24                  ; Set the zero flag if A=#24, or the carry flag if
 943+ A209                                        ; A<#24
 944+ A209 20 03          JR NZ,L9B7C_74          ; Jump to L9B7C_74 if A<>#24
 945+ A20B 11 52 00       LD DE,#0052             ; DE=#0052
 946+ A20E              L9B7C_74:
 947+ A20E 01 08 00       LD BC,#0008             ; BC=#0008
 948+ A211 CD 25 7D       CALL L7828_72           ; CALL L7828_72
 949+ A214 3E 1F          LD A,#1F                ; A=#1F
 950+ A216 CD 39 7D       CALL L7828_73           ; CALL L7828_73
 951+ A219              ; This entry point is used by the routine at L9149.
 952+ A219              L9B7C_75:
 953+ A219 21 A6 84       LD HL,#84A6             ; HL=#84A6
 954+ A21C 3A 0E 60       LD A,(#600E)            ; A=PEEK #600E
 955+ A21F 3D             DEC A                   ; A=A-1
 956+ A220 57             LD D,A                  ; D=A
 957+ A221 1E 00          LD E,#00                ; E=#00
 958+ A223 C3 81 7D       JP L7828_80             ; Jump to L7828_80
 959+ A226              ; This entry point is used by the routine at L9149.
 960+ A226              L9B7C_76:
 961+ A226 DD E5          PUSH IX                 ; Push IX onto the stack
 962+ A228 DD 21 87 84    LD IX,#8487             ; IX=#8487
 963+ A22C F5             PUSH AF                 ; Push AF onto the stack
 964+ A22D 11 B8 84       LD DE,#84B8             ; DE=#84B8
 965+ A230 D6 11          SUB #11                 ; A=A-#11
 966+ A232 28 06          JR Z,L9B7C_77           ; Jump to L9B7C_77 if A=0
 967+ A234 3D             DEC A                   ; A=A-1
 968+ A235 28 03          JR Z,L9B7C_77           ; Jump to L9B7C_77 if A=0
 969+ A237 11 D0 84       LD DE,#84D0             ; DE=#84D0
 970+ A23A              L9B7C_77:
 971+ A23A 01 06 00       LD BC,#0006             ; BC=#0006
 972+ A23D ED B0          LDIR                    ; POKE DE,PEEK HL; HL=HL+1; DE=DE+1; BC=BC-1; repeat
 973+ A23F                                        ; until BC=0
 974+ A23F F1             POP AF                  ; Pop last item from stack into AF
 975+ A240 DD E1          POP IX                  ; Pop last item from stack into IX
 976+ A242 C9             RET                     ; Return
 977+ A243              L9B7C_78:
 978+ A243 3E F2          LD A,#F2                ; A=#F2
 979+ A245 CD 9C 68       CALL L6011_108          ; CALL L6011_108
 980+ A248 CD 9F 6A       CALL L6011_144          ; CALL L6011_144
 981+ A24B CD 24 6E       CALL L6011_206          ; CALL L6011_206
 982+ A24E 3E 01          LD A,#01                ; A=#01
 983+ A250 C0             RET NZ                  ; Return if the zero flag is not set
 984+ A251 21 AB 7F       LD HL,#7FAB             ; HL=#7FAB
 985+ A254 CD 4E 40       CALL #404E              ; CALL 404E
 986+ A257 3E 02          LD A,#02                ; A=#02
 987+ A259 C8             RET Z                   ; Return if the zero flag is set
 988+ A25A 22 28 7F       LD (#7F28),HL           ; POKE #7F28,L; POKE #7F29,H
 989+ A25D ED 53 2A 7F    LD (#7F2A),DE           ; POKE #7F2A,E; POKE #7F2B,D
 990+ A261 21 28 7F       LD HL,#7F28             ; HL=#7F28
 991+ A264 CD 1E 40       CALL #401E              ; CALL 401E
 992+ A267 21 AF 7F       LD HL,#7FAF             ; HL=#7FAF
 993+ A26A CD 4E 40       CALL #404E              ; CALL 404E
 994+ A26D 3E 03          LD A,#03                ; A=#03
 995+ A26F C8             RET Z                   ; Return if the zero flag is set
 996+ A270 22 28 7F       LD (#7F28),HL           ; POKE #7F28,L; POKE #7F29,H
 997+ A273 ED 53 2A 7F    LD (#7F2A),DE           ; POKE #7F2A,E; POKE #7F2B,D
 998+ A277 21 28 7F       LD HL,#7F28             ; HL=#7F28
 999+ A27A CD 12 40       CALL #4012              ; CALL 4012
1000+ A27D CD 85 A2       CALL L9B7C_79           ; CALL L9B7C_79
1001+ A280 3E 04          LD A,#04                ; A=#04
1002+ A282 C0             RET NZ                  ; Return if the zero flag is not set
1003+ A283 AF             XOR A                   ; A=0
1004+ A284 C9             RET                     ; Return
1005+ A285              L9B7C_79:
1006+ A285 CD D8 A2       CALL L9B7C_86           ; CALL L9B7C_86
1007+ A288 11 40 AB       LD DE,#AB40             ; DE=#AB40
1008+ A28B 06 13          LD B,#13                ; B=#13
1009+ A28D CD 2B A7       CALL L9B7C_163          ; CALL L9B7C_163
1010+ A290 C0             RET NZ                  ; Return if the zero flag is not set
1011+ A291 23             INC HL                  ; HL=HL+1
1012+ A292 11 00 00       LD DE,#0000             ; DE=#0000
1013+ A295 01 00 00       LD BC,#0000             ; BC=#0000
1014+ A298              L9B7C_80:
1015+ A298 7A             LD A,D                  ; A=D
1016+ A299 FE 10          CP #10                  ; Set the zero flag if A=#10, or the carry flag if
1017+ A29B                                        ; A<#10
1018+ A29B 30 23          JR NC,L9B7C_82          ; Jump to L9B7C_82 if A>=#10
1019+ A29D 7C             LD A,H                  ; A=H
1020+ A29E E6 01          AND #01                 ; Keep only bit 0 of A
1021+ A2A0 B5             OR L                    ; A=A|L
1022+ A2A1 CC C9 A2       CALL Z,L9B7C_85         ; CALL L9B7C_85 if A=0
1023+ A2A4 28 1A          JR Z,L9B7C_82           ; Jump to L9B7C_82 if the zero flag is set
1024+ A2A6 7E             LD A,(HL)               ; A=PEEK HL
1025+ A2A7 FE 0A          CP #0A                  ; Set the zero flag if A=#0A, or the carry flag if
1026+ A2A9                                        ; A<#0A
1027+ A2A9 38 15          JR C,L9B7C_82           ; Jump to L9B7C_82 if A<#0A
1028+ A2AB 28 10          JR Z,L9B7C_81           ; Jump to L9B7C_81 if the zero flag is set
1029+ A2AD FE 0D          CP #0D                  ; Set the zero flag if A=#0D, or the carry flag if
1030+ A2AF                                        ; A<#0D
1031+ A2AF CC C6 A2       CALL Z,L9B7C_84         ; CALL L9B7C_84 if A=#0D
1032+ A2B2 FE 3B          CP #3B                  ; Set the zero flag if A=#3B, or the carry flag if
1033+ A2B4                                        ; A<#3B
1034+ A2B4 CC C3 A2       CALL Z,L9B7C_83         ; CALL L9B7C_83 if A=#3B
1035+ A2B7 0C             INC C                   ; C=C+1
1036+ A2B8 0D             DEC C                   ; C=C-1
1037+ A2B9 20 02          JR NZ,L9B7C_81          ; Jump to L9B7C_81 if C>0
1038+ A2BB 12             LD (DE),A               ; POKE DE,A
1039+ A2BC 13             INC DE                  ; DE=DE+1
1040+ A2BD              L9B7C_81:
1041+ A2BD 23             INC HL                  ; HL=HL+1
1042+ A2BE 18 D8          JR L9B7C_80             ; Jump to L9B7C_80
1043+ A2C0              L9B7C_82:
1044+ A2C0 AF             XOR A                   ; A=0
1045+ A2C1 12             LD (DE),A               ; POKE DE,A
1046+ A2C2 C9             RET                     ; Return
1047+ A2C3              L9B7C_83:
1048+ A2C3 0E 01          LD C,#01                ; C=#01
1049+ A2C5 C9             RET                     ; Return
1050+ A2C6              L9B7C_84:
1051+ A2C6 0E 00          LD C,#00                ; C=#00
1052+ A2C8 C9             RET                     ; Return
1053+ A2C9              L9B7C_85:
1054+ A2C9 78             LD A,B                  ; A=B
1055+ A2CA FE 0F          CP #0F                  ; Set the zero flag if A=#0F, or the carry flag if
1056+ A2CC                                        ; A<#0F
1057+ A2CC C8             RET Z                   ; Return if A=#0F
1058+ A2CD C5             PUSH BC                 ; Push BC onto the stack
1059+ A2CE D5             PUSH DE                 ; Push DE onto the stack
1060+ A2CF CD D8 A2       CALL L9B7C_86           ; CALL L9B7C_86
1061+ A2D2 D1             POP DE                  ; Pop last item from stack into DE
1062+ A2D3 C1             POP BC                  ; Pop last item from stack into BC
1063+ A2D4 47             LD B,A                  ; B=A
1064+ A2D5 AF             XOR A                   ; A=0
1065+ A2D6 3C             INC A                   ; A=A+1
1066+ A2D7 C9             RET                     ; Return
1067+ A2D8              L9B7C_86:
1068+ A2D8 21 00 10       LD HL,#1000             ; HL=#1000
1069+ A2DB 06 01          LD B,#01                ; B=#01
1070+ A2DD E5             PUSH HL                 ; Push HL onto the stack
1071+ A2DE CD 15 40       CALL #4015              ; CALL 4015
1072+ A2E1 E1             POP HL                  ; Pop last item from stack into HL
1073+ A2E2 C9             RET                     ; Return
1074+ A2E3              L9B7C_87:
1075+ A2E3 21 00 00       LD HL,#0000             ; HL=#0000
1076+ A2E6              L9B7C_88:
1077+ A2E6 7E             LD A,(HL)               ; A=PEEK HL
1078+ A2E7 FE 5B          CP #5B                  ; Set the zero flag if A=#5B, or the carry flag if
1079+ A2E9                                        ; A<#5B
1080+ A2E9 CC FA A2       CALL Z,L9B7C_89         ; CALL L9B7C_89 if A=#5B
1081+ A2EC 28 F8          JR Z,L9B7C_88           ; Jump to L9B7C_88 if the zero flag is set
1082+ A2EE CD FD 92       CALL L9149_24           ; CALL L9149_24
1083+ A2F1 7E             LD A,(HL)               ; A=PEEK HL
1084+ A2F2 B7             OR A                    ; Clear the carry flag and set the zero flag if A=0
1085+ A2F3 C8             RET Z                   ; Return if A=0
1086+ A2F4 7C             LD A,H                  ; A=H
1087+ A2F5 FE 10          CP #10                  ; Set the zero flag if A=#10, or the carry flag if
1088+ A2F7                                        ; A<#10
1089+ A2F7 D0             RET NC                  ; Return if A>=#10
1090+ A2F8 18 EC          JR L9B7C_88             ; Jump to L9B7C_88
1091+ A2FA              L9B7C_89:
1092+ A2FA 11 A2 AA       LD DE,#AAA2             ; DE=#AAA2
1093+ A2FD 23             INC HL                  ; HL=HL+1
1094+ A2FE              L9B7C_90:
1095+ A2FE 1A             LD A,(DE)               ; A=PEEK DE
1096+ A2FF 3C             INC A                   ; A=A+1
1097+ A300 C8             RET Z                   ; Return if A=0
1098+ A301 CD 08 A3       CALL L9B7C_91           ; CALL L9B7C_91
1099+ A304 28 15          JR Z,L9B7C_92           ; Jump to L9B7C_92 if the zero flag is set
1100+ A306 18 F6          JR L9B7C_90             ; Jump to L9B7C_90
1101+ A308              ; This entry point is used by the routine at L9149.
1102+ A308              L9B7C_91:
1103+ A308 E5             PUSH HL                 ; Push HL onto the stack
1104+ A309 CD 33 A7       CALL L9B7C_164          ; CALL L9B7C_164
1105+ A30C 13             INC DE                  ; DE=DE+1
1106+ A30D E1             POP HL                  ; Pop last item from stack into HL
1107+ A30E C8             RET Z                   ; Return if the zero flag is set
1108+ A30F AF             XOR A                   ; A=0
1109+ A310 EB             EX DE,HL                ; Exchange DE and HL
1110+ A311 01 10 00       LD BC,#0010             ; BC=#0010
1111+ A314 ED B1          CPIR                    ; Compare A with PEEK HL; HL=HL+1; BC=BC-1; repeat
1112+ A316                                        ; until BC=0 or A=PEEK HL
1113+ A316 23             INC HL                  ; HL=HL+1
1114+ A317 23             INC HL                  ; HL=HL+1
1115+ A318 EB             EX DE,HL                ; Exchange DE and HL
1116+ A319 3C             INC A                   ; A=A+1
1117+ A31A C9             RET                     ; Return
1118+ A31B              L9B7C_92:
1119+ A31B 1A             LD A,(DE)               ; A=PEEK DE
1120+ A31C 32 25 A3       LD (#A325),A            ; POKE #A325,A
1121+ A31F 13             INC DE                  ; DE=DE+1
1122+ A320 1A             LD A,(DE)               ; A=PEEK DE
1123+ A321 32 26 A3       LD (#A326),A            ; POKE #A326,A
1124+ A324 CD 00 00       CALL #0000              ; CALL 0000
1125+ A327 AF             XOR A                   ; A=0
1126+ A328 C9             RET                     ; Return
1127+ A329 E5             PUSH HL                 ; Push HL onto the stack
1128+ A32A DD 21 AA A7    LD IX,#A7AA             ; IX=#A7AA
1129+ A32E CD 2C 79       CALL #792C              ; CALL 792C
1130+ A331 CD 9F 69       CALL L6011_131          ; CALL L6011_131
1131+ A334 E1             POP HL                  ; Pop last item from stack into HL
1132+ A335 11 00 00       LD DE,#0000             ; DE=#0000
1133+ A338 01 F8 A8       LD BC,#A8F8             ; BC=#A8F8
1134+ A33B CD E5 A4       CALL L9B7C_120          ; CALL L9B7C_120
1135+ A33E              L9B7C_93:
1136+ A33E CD FD 92       CALL L9149_24           ; CALL L9149_24
1137+ A341 CD C0 A3       CALL L9B7C_101          ; CALL L9B7C_101
1138+ A344 C8             RET Z                   ; Return if the zero flag is set
1139+ A345 E5             PUSH HL                 ; Push HL onto the stack
1140+ A346 D5             PUSH DE                 ; Push DE onto the stack
1141+ A347 CD 6C A4       CALL L9B7C_109          ; CALL L9B7C_109
1142+ A34A D1             POP DE                  ; Pop last item from stack into DE
1143+ A34B C4 CF A4       CALL NZ,L9B7C_119       ; CALL L9B7C_119 if the zero flag is not set
1144+ A34E E1             POP HL                  ; Pop last item from stack into HL
1145+ A34F 18 ED          JR L9B7C_93             ; Jump to L9B7C_93
1146+ A351 3E 00          LD A,#00                ; A=#00
1147+ A353 08             EX AF,AF'               ; Exchange AF and AF'
1148+ A354 18 03          JR L9B7C_94             ; Jump to L9B7C_94
1149+ A356 3E 01          LD A,#01                ; A=#01
1150+ A358 08             EX AF,AF'               ; Exchange AF and AF'
1151+ A359              L9B7C_94:
1152+ A359 CD FD 92       CALL L9149_24           ; CALL L9149_24
1153+ A35C CD C0 A3       CALL L9B7C_101          ; CALL L9B7C_101
1154+ A35F C8             RET Z                   ; Return if the zero flag is set
1155+ A360 11 C7 AA       LD DE,#AAC7             ; DE=#AAC7
1156+ A363 CD 68 A3       CALL L9B7C_95           ; CALL L9B7C_95
1157+ A366 18 F1          JR L9B7C_94             ; Jump to L9B7C_94
1158+ A368              L9B7C_95:
1159+ A368 1A             LD A,(DE)               ; A=PEEK DE
1160+ A369 3C             INC A                   ; A=A+1
1161+ A36A C8             RET Z                   ; Return if A=0
1162+ A36B CD 08 A3       CALL L9B7C_91           ; CALL L9B7C_91
1163+ A36E 28 AB          JR Z,L9B7C_92           ; Jump to L9B7C_92 if the zero flag is set
1164+ A370 18 F6          JR L9B7C_95             ; Jump to L9B7C_95
1165+ A372              L9B7C_96:
1166+ A372 7E             LD A,(HL)               ; A=PEEK HL
1167+ A373 23             INC HL                  ; HL=HL+1
1168+ A374 FE 20          CP #20                  ; Set the zero flag if A=#20, or the carry flag if
1169+ A376                                        ; A<#20
1170+ A376 28 0D          JR Z,L9B7C_97           ; Jump to L9B7C_97 if A=#20
1171+ A378 FE 3D          CP #3D                  ; Set the zero flag if A=#3D, or the carry flag if
1172+ A37A                                        ; A<#3D
1173+ A37A 28 09          JR Z,L9B7C_97           ; Jump to L9B7C_97 if A=#3D
1174+ A37C FE 0E          CP #0E                  ; Set the zero flag if A=#0E, or the carry flag if
1175+ A37E                                        ; A<#0E
1176+ A37E 30 F2          JR NC,L9B7C_96          ; Jump to L9B7C_96 if A>=#0E
1177+ A380 2B             DEC HL                  ; HL=HL-1
1178+ A381 3E 31          LD A,#31                ; A=#31
1179+ A383 18 01          JR L9B7C_98             ; Jump to L9B7C_98
1180+ A385              L9B7C_97:
1181+ A385 7E             LD A,(HL)               ; A=PEEK HL
1182+ A386              L9B7C_98:
1183+ A386 21 A0 7E       LD HL,L7EA0             ; HL=#7EA0
1184+ A389 08             EX AF,AF'               ; Exchange AF and AF'
1185+ A38A B7             OR A                    ; Clear the carry flag and set the zero flag if A=0
1186+ A38B 28 03          JR Z,L9B7C_99           ; Jump to L9B7C_99 if A=0
1187+ A38D 21 C4 7E       LD HL,#7EC4             ; HL=#7EC4
1188+ A390              L9B7C_99:
1189+ A390 08             EX AF,AF'               ; Exchange AF and AF'
1190+ A391 D6 30          SUB #30                 ; A=A-#30
1191+ A393 C9             RET                     ; Return
1192+ A394 E5             PUSH HL                 ; Push HL onto the stack
1193+ A395 CD 72 A3       CALL L9B7C_96           ; CALL L9B7C_96
1194+ A398 11 1D 00       LD DE,#001D             ; DE=#001D
1195+ A39B 19             ADD HL,DE               ; HL=HL+DE
1196+ A39C FE 07          CP #07                  ; Set the zero flag if A=#07, or the carry flag if
1197+ A39E                                        ; A<#07
1198+ A39E 38 02          JR C,L9B7C_100          ; Jump to L9B7C_100 if A<#07
1199+ A3A0 3E 01          LD A,#01                ; A=#01
1200+ A3A2              L9B7C_100:
1201+ A3A2 77             LD (HL),A               ; POKE HL,A
1202+ A3A3 E1             POP HL                  ; Pop last item from stack into HL
1203+ A3A4 C9             RET                     ; Return
1204+ A3A5 E5             PUSH HL                 ; Push HL onto the stack
1205+ A3A6 CD 72 A3       CALL L9B7C_96           ; CALL L9B7C_96
1206+ A3A9 11 0A 00       LD DE,#000A             ; DE=#000A
1207+ A3AC 19             ADD HL,DE               ; HL=HL+DE
1208+ A3AD E6 01          AND #01                 ; Keep only bit 0 of A
1209+ A3AF 87             ADD A,A                 ; A=A+A
1210+ A3B0 77             LD (HL),A               ; POKE HL,A
1211+ A3B1 E1             POP HL                  ; Pop last item from stack into HL
1212+ A3B2 C9             RET                     ; Return
1213+ A3B3 E5             PUSH HL                 ; Push HL onto the stack
1214+ A3B4 CD 72 A3       CALL L9B7C_96           ; CALL L9B7C_96
1215+ A3B7 11 23 00       LD DE,#0023             ; DE=#0023
1216+ A3BA 19             ADD HL,DE               ; HL=HL+DE
1217+ A3BB E6 03          AND #03                 ; Keep only bits 0 and 1 of A
1218+ A3BD 77             LD (HL),A               ; POKE HL,A
1219+ A3BE E1             POP HL                  ; Pop last item from stack into HL
1220+ A3BF C9             RET                     ; Return
1221+ A3C0              L9B7C_101:
1222+ A3C0 7E             LD A,(HL)               ; A=PEEK HL
1223+ A3C1 B7             OR A                    ; Clear the carry flag and set the zero flag if A=0
1224+ A3C2 C8             RET Z                   ; Return if A=0
1225+ A3C3 FE 0D          CP #0D                  ; Set the zero flag if A=#0D, or the carry flag if
1226+ A3C5                                        ; A<#0D
1227+ A3C5 C8             RET Z                   ; Return if A=#0D
1228+ A3C6 FE 5B          CP #5B                  ; Set the zero flag if A=#5B, or the carry flag if
1229+ A3C8                                        ; A<#5B
1230+ A3C8 C9             RET                     ; Return
1231+ A3C9              L9B7C_102:
1232+ A3C9 CD FD 92       CALL L9149_24           ; CALL L9149_24
1233+ A3CC CD C0 A3       CALL L9B7C_101          ; CALL L9B7C_101
1234+ A3CF C8             RET Z                   ; Return if the zero flag is set
1235+ A3D0 11 DD AA       LD DE,#AADD             ; DE=#AADD
1236+ A3D3 CD 68 A3       CALL L9B7C_95           ; CALL L9B7C_95
1237+ A3D6 18 F1          JR L9B7C_102            ; Jump to L9B7C_102
1238+ A3D8 E5             PUSH HL                 ; Push HL onto the stack
1239+ A3D9 CD 72 A3       CALL L9B7C_96           ; CALL L9B7C_96
1240+ A3DC E6 03          AND #03                 ; Keep only bits 0 and 1 of A
1241+ A3DE 32 20 7F       LD (#7F20),A            ; POKE #7F20,A
1242+ A3E1 E1             POP HL                  ; Pop last item from stack into HL
1243+ A3E2 C9             RET                     ; Return
1244+ A3E3 E5             PUSH HL                 ; Push HL onto the stack
1245+ A3E4 CD 72 A3       CALL L9B7C_96           ; CALL L9B7C_96
1246+ A3E7 E6 01          AND #01                 ; Keep only bit 0 of A
1247+ A3E9 21 1C 7F       LD HL,#7F1C             ; HL=#7F1C
1248+ A3EC B6             OR (HL)                 ; A=A|PEEK HL
1249+ A3ED 77             LD (HL),A               ; POKE HL,A
1250+ A3EE E1             POP HL                  ; Pop last item from stack into HL
1251+ A3EF C9             RET                     ; Return
1252+ A3F0 E5             PUSH HL                 ; Push HL onto the stack
1253+ A3F1 CD 72 A3       CALL L9B7C_96           ; CALL L9B7C_96
1254+ A3F4 21 83 1E       LD HL,#1E83             ; HL=#1E83
1255+ A3F7 20 03          JR NZ,L9B7C_103         ; Jump to L9B7C_103 if the zero flag is not set
1256+ A3F9 21 43 19       LD HL,#1943             ; HL=#1943
1257+ A3FC              L9B7C_103:
1258+ A3FC FE 02          CP #02                  ; Set the zero flag if A=#02, or the carry flag if
1259+ A3FE                                        ; A<#02
1260+ A3FE 20 03          JR NZ,L9B7C_104         ; Jump to L9B7C_104 if A<>#02
1261+ A400 21 C3 24       LD HL,#24C3             ; HL=#24C3
1262+ A403              L9B7C_104:
1263+ A403 7C             LD A,H                  ; A=H
1264+ A404 32 0E 60       LD (#600E),A            ; POKE #600E,A
1265+ A407 FE 24          CP #24                  ; Set the zero flag if A=#24, or the carry flag if
1266+ A409                                        ; A<#24
1267+ A409 7D             LD A,L                  ; A=L
1268+ A40A 32 0F 60       LD (#600F),A            ; POKE #600F,A
1269+ A40D 20 1B          JR NZ,L9B7C_105         ; Jump to L9B7C_105 if the zero flag is not set
1270+ A40F 3E 5A          LD A,#5A                ; A=#5A
1271+ A411 32 1D 7F       LD (#7F1D),A            ; POKE #7F1D,A
1272+ A414 32 8B 84       LD (#848B),A            ; POKE #848B,A
1273+ A417 3E 2D          LD A,#2D                ; A=#2D
1274+ A419 32 A4 7E       LD (#7EA4),A            ; POKE #7EA4,A
1275+ A41C 32 C8 7E       LD (#7EC8),A            ; POKE #7EC8,A
1276+ A41F 32 C6 7E       LD (#7EC6),A            ; POKE #7EC6,A
1277+ A422 3E 2D          LD A,#2D                ; A=#2D
1278+ A424 32 9A A0       LD (#A09A),A            ; POKE #A09A,A
1279+ A427 32 A4 A0       LD (#A0A4),A            ; POKE #A0A4,A
1280+ A42A              L9B7C_105:
1281+ A42A E1             POP HL                  ; Pop last item from stack into HL
1282+ A42B C9             RET                     ; Return
1283+ A42C E5             PUSH HL                 ; Push HL onto the stack
1284+ A42D CD 72 A3       CALL L9B7C_96           ; CALL L9B7C_96
1285+ A430 E6 01          AND #01                 ; Keep only bit 0 of A
1286+ A432 87             ADD A,A                 ; A=A+A
1287+ A433 21 1C 7F       LD HL,#7F1C             ; HL=#7F1C
1288+ A436 B6             OR (HL)                 ; A=A|PEEK HL
1289+ A437 77             LD (HL),A               ; POKE HL,A
1290+ A438 E1             POP HL                  ; Pop last item from stack into HL
1291+ A439 C9             RET                     ; Return
1292+ A43A E5             PUSH HL                 ; Push HL onto the stack
1293+ A43B CD 72 A3       CALL L9B7C_96           ; CALL L9B7C_96
1294+ A43E 21 FF FF       LD HL,#FFFF             ; HL=#FFFF
1295+ A441 E6 0F          AND #0F                 ; Keep only bits 0, 1, 2 and 3 of A
1296+ A443 28 08          JR Z,L9B7C_107          ; Jump to L9B7C_107 if A=0
1297+ A445 47             LD B,A                  ; B=A
1298+ A446 23             INC HL                  ; HL=HL+1
1299+ A447 11 7C 0B       LD DE,#0B7C             ; DE=#0B7C
1300+ A44A              L9B7C_106:
1301+ A44A 19             ADD HL,DE               ; HL=HL+DE
1302+ A44B 10 FD          DJNZ L9B7C_106          ; Decrement B and jump to L9B7C_106 if B>0
1303+ A44D              L9B7C_107:
1304+ A44D 22 5E 7F       LD (#7F5E),HL           ; POKE #7F5E,L; POKE #7F5F,H
1305+ A450 E1             POP HL                  ; Pop last item from stack into HL
1306+ A451 C9             RET                     ; Return
1307+ A452 E5             PUSH HL                 ; Push HL onto the stack
1308+ A453 CD 72 A3       CALL L9B7C_96           ; CALL L9B7C_96
1309+ A456 28 12          JR Z,L9B7C_108          ; Jump to L9B7C_108 if the zero flag is set
1310+ A458 3E 01          LD A,#01                ; A=#01
1311+ A45A 32 4D 7F       LD (#7F4D),A            ; POKE #7F4D,A
1312+ A45D 32 7B 6A       LD (#6A7B),A            ; POKE #6A7B,A
1313+ A460 32 A3 7E       LD (#7EA3),A            ; POKE #7EA3,A
1314+ A463 32 C7 7E       LD (#7EC7),A            ; POKE #7EC7,A
1315+ A466 3C             INC A                   ; A=A+1
1316+ A467 32 D1 63       LD (#63D1),A            ; POKE #63D1,A
1317+ A46A              L9B7C_108:
1318+ A46A E1             POP HL                  ; Pop last item from stack into HL
1319+ A46B C9             RET                     ; Return
1320+ A46C              L9B7C_109:
1321+ A46C CD 89 A4       CALL L9B7C_110          ; CALL L9B7C_110
1322+ A46F CD 4E 40       CALL #404E              ; CALL 404E
1323+ A472 C8             RET Z                   ; Return if the zero flag is set
1324+ A473 22 28 7F       LD (#7F28),HL           ; POKE #7F28,L; POKE #7F29,H
1325+ A476 ED 53 2A 7F    LD (#7F2A),DE           ; POKE #7F2A,E; POKE #7F2B,D
1326+ A47A 21 28 7F       LD HL,#7F28             ; HL=#7F28
1327+ A47D CD 12 40       CALL #4012              ; CALL 4012
1328+ A480 3E 01          LD A,#01                ; A=#01
1329+ A482 CD 41 97       CALL L9149_57           ; CALL L9149_57
1330+ A485 3E 01          LD A,#01                ; A=#01
1331+ A487 B7             OR A                    ; Clear the carry flag and set the zero flag if A=0
1332+ A488 C9             RET                     ; Return
1333+ A489              L9B7C_110:
1334+ A489 11 01 B0       LD DE,#B001             ; DE=#B001
1335+ A48C 06 FF          LD B,#FF                ; B=#FF
1336+ A48E              L9B7C_111:
1337+ A48E 7E             LD A,(HL)               ; A=PEEK HL
1338+ A48F FE 3B          CP #3B                  ; Set the zero flag if A=#3B, or the carry flag if
1339+ A491                                        ; A<#3B
1340+ A491 28 1A          JR Z,L9B7C_114          ; Jump to L9B7C_114 if A=#3B
1341+ A493 FE 20          CP #20                  ; Set the zero flag if A=#20, or the carry flag if
1342+ A495                                        ; A<#20
1343+ A495 38 16          JR C,L9B7C_114          ; Jump to L9B7C_114 if A<#20
1344+ A497 20 0F          JR NZ,L9B7C_113         ; Jump to L9B7C_113 if the zero flag is not set
1345+ A499 23             INC HL                  ; HL=HL+1
1346+ A49A 7E             LD A,(HL)               ; A=PEEK HL
1347+ A49B FE 2D          CP #2D                  ; Set the zero flag if A=#2D, or the carry flag if
1348+ A49D                                        ; A<#2D
1349+ A49D 20 07          JR NZ,L9B7C_112         ; Jump to L9B7C_112 if A<>#2D
1350+ A49F 23             INC HL                  ; HL=HL+1
1351+ A4A0 7E             LD A,(HL)               ; A=PEEK HL
1352+ A4A1 FE 20          CP #20                  ; Set the zero flag if A=#20, or the carry flag if
1353+ A4A3                                        ; A<#20
1354+ A4A3 2B             DEC HL                  ; HL=HL-1
1355+ A4A4 20 0E          JR NZ,L9B7C_115         ; Jump to L9B7C_115 if the zero flag is not set
1356+ A4A6              L9B7C_112:
1357+ A4A6 2B             DEC HL                  ; HL=HL-1
1358+ A4A7 7E             LD A,(HL)               ; A=PEEK HL
1359+ A4A8              L9B7C_113:
1360+ A4A8 12             LD (DE),A               ; POKE DE,A
1361+ A4A9 23             INC HL                  ; HL=HL+1
1362+ A4AA 13             INC DE                  ; DE=DE+1
1363+ A4AB 10 E1          DJNZ L9B7C_111          ; Decrement B and jump to L9B7C_111 if B>0
1364+ A4AD              L9B7C_114:
1365+ A4AD AF             XOR A                   ; A=0
1366+ A4AE 12             LD (DE),A               ; POKE DE,A
1367+ A4AF 21 00 B0       LD HL,#B000             ; HL=#B000
1368+ A4B2 77             LD (HL),A               ; POKE HL,A
1369+ A4B3 C9             RET                     ; Return
1370+ A4B4              L9B7C_115:
1371+ A4B4 D5             PUSH DE                 ; Push DE onto the stack
1372+ A4B5 11 00 B2       LD DE,#B200             ; DE=#B200
1373+ A4B8 06 FF          LD B,#FF                ; B=#FF
1374+ A4BA              L9B7C_116:
1375+ A4BA 7E             LD A,(HL)               ; A=PEEK HL
1376+ A4BB FE 20          CP #20                  ; Set the zero flag if A=#20, or the carry flag if
1377+ A4BD                                        ; A<#20
1378+ A4BD 38 0B          JR C,L9B7C_118          ; Jump to L9B7C_118 if A<#20
1379+ A4BF 28 06          JR Z,L9B7C_117          ; Jump to L9B7C_117 if the zero flag is set
1380+ A4C1 FE 3B          CP #3B                  ; Set the zero flag if A=#3B, or the carry flag if
1381+ A4C3                                        ; A<#3B
1382+ A4C3 28 05          JR Z,L9B7C_118          ; Jump to L9B7C_118 if A=#3B
1383+ A4C5 12             LD (DE),A               ; POKE DE,A
1384+ A4C6 13             INC DE                  ; DE=DE+1
1385+ A4C7              L9B7C_117:
1386+ A4C7 23             INC HL                  ; HL=HL+1
1387+ A4C8 10 F0          DJNZ L9B7C_116          ; Decrement B and jump to L9B7C_116 if B>0
1388+ A4CA              L9B7C_118:
1389+ A4CA AF             XOR A                   ; A=0
1390+ A4CB 12             LD (DE),A               ; POKE DE,A
1391+ A4CC D1             POP DE                  ; Pop last item from stack into DE
1392+ A4CD 18 DE          JR L9B7C_114            ; Jump to L9B7C_114
1393+ A4CF              L9B7C_119:
1394+ A4CF D5             PUSH DE                 ; Push DE onto the stack
1395+ A4D0 DD 21 AA A7    LD IX,#A7AA             ; IX=#A7AA
1396+ A4D4 21 A5 B0       LD HL,#B0A5             ; HL=#B0A5
1397+ A4D7 01 20 00       LD BC,#0020             ; BC=#0020
1398+ A4DA CD 25 7D       CALL L7828_72           ; CALL L7828_72
1399+ A4DD 3E 0F          LD A,#0F                ; A=#0F
1400+ A4DF CD 39 7D       CALL L7828_73           ; CALL L7828_73
1401+ A4E2 D1             POP DE                  ; Pop last item from stack into DE
1402+ A4E3 14             INC D                   ; D=D+1
1403+ A4E4 C9             RET                     ; Return
1404+ A4E5              L9B7C_120:
1405+ A4E5 E5             PUSH HL                 ; Push HL onto the stack
1406+ A4E6 D5             PUSH DE                 ; Push DE onto the stack
1407+ A4E7 DD 21 AA A7    LD IX,#A7AA             ; IX=#A7AA
1408+ A4EB 60             LD H,B                  ; H=B
1409+ A4EC 69             LD L,C                  ; L=C
1410+ A4ED CD 81 7D       CALL L7828_80           ; CALL L7828_80
1411+ A4F0 D1             POP DE                  ; Pop last item from stack into DE
1412+ A4F1 E1             POP HL                  ; Pop last item from stack into HL
1413+ A4F2 14             INC D                   ; D=D+1
1414+ A4F3 C9             RET                     ; Return
1415+ A4F4              ; This entry point is used by the routine at L6011.
1416+ A4F4              L9B7C_121:
1417+ A4F4 AF             XOR A                   ; A=0
1418+ A4F5 32 ED A6       LD (#A6ED),A            ; POKE #A6ED,A
1419+ A4F8 DD 7E 13       LD A,(IX+#13)           ; A=PEEK (IX+#13)
1420+ A4FB B7             OR A                    ; Clear the carry flag and set the zero flag if A=0
1421+ A4FC 20 06          JR NZ,L9B7C_122         ; Jump to L9B7C_122 if A>0
1422+ A4FE DD 7E 12       LD A,(IX+#12)           ; A=PEEK (IX+#12)
1423+ A501 FE 02          CP #02                  ; Set the zero flag if A=#02, or the carry flag if
1424+ A503                                        ; A<#02
1425+ A503 D8             RET C                   ; Return if A<#02
1426+ A504              L9B7C_122:
1427+ A504 DD 7E 23       LD A,(IX+#23)           ; A=PEEK (IX+#23)
1428+ A507 B7             OR A                    ; Clear the carry flag and set the zero flag if A=0
1429+ A508 C8             RET Z                   ; Return if A=0
1430+ A509 3D             DEC A                   ; A=A-1
1431+ A50A CA 73 A6       JP Z,L9B7C_151          ; Jump to L9B7C_151 if A=0
1432+ A50D 3D             DEC A                   ; A=A-1
1433+ A50E 28 3C          JR Z,L9B7C_127          ; Jump to L9B7C_127 if A=0
1434+ A510 3D             DEC A                   ; A=A-1
1435+ A511 CA F3 A5       JP Z,L9B7C_141          ; Jump to L9B7C_141 if A=0
1436+ A514 C9             RET                     ; Return
1437+ A515              L9B7C_123:
1438+ A515 CD D6 68       CALL L6011_117          ; CALL L6011_117
1439+ A518 CD E6 68       CALL L6011_119          ; CALL L6011_119
1440+ A51B 11 00 00       LD DE,#0000             ; DE=#0000
1441+ A51E 1C             INC E                   ; E=E+1
1442+ A51F 1A             LD A,(DE)               ; A=PEEK DE
1443+ A520 6F             LD L,A                  ; L=A
1444+ A521 1C             INC E                   ; E=E+1
1445+ A522 1A             LD A,(DE)               ; A=PEEK DE
1446+ A523 67             LD H,A                  ; H=A
1447+ A524 1D             DEC E                   ; E=E-1
1448+ A525 1D             DEC E                   ; E=E-1
1449+ A526 01 11 00       LD BC,#0011             ; BC=#0011
1450+ A529 09             ADD HL,BC               ; HL=HL+BC
1451+ A52A 3E 2E          LD A,#2E                ; A=#2E
1452+ A52C BE             CP (HL)                 ; Set the zero flag if A=PEEK HL, or the carry flag
1453+ A52D                                        ; if A<PEEK HL
1454+ A52D C0             RET NZ                  ; Return if A<>PEEK HL
1455+ A52E 23             INC HL                  ; HL=HL+1
1456+ A52F BE             CP (HL)                 ; Set the zero flag if A=PEEK HL, or the carry flag
1457+ A530                                        ; if A<PEEK HL
1458+ A530 C0             RET NZ                  ; Return if A<>PEEK HL
1459+ A531 1E 04          LD E,#04                ; E=#04
1460+ A533 C9             RET                     ; Return
1461+ A534              L9B7C_124:
1462+ A534 1C             INC E                   ; E=E+1
1463+ A535 1A             LD A,(DE)               ; A=PEEK DE
1464+ A536 4F             LD C,A                  ; C=A
1465+ A537 1C             INC E                   ; E=E+1
1466+ A538 1A             LD A,(DE)               ; A=PEEK DE
1467+ A539 57             LD D,A                  ; D=A
1468+ A53A 79             LD A,C                  ; A=C
1469+ A53B C6 10          ADD A,#10               ; A=A+#10
1470+ A53D 30 01          JR NC,L9B7C_125         ; Jump to L9B7C_125 if the carry flag is not set
1471+ A53F 14             INC D                   ; D=D+1
1472+ A540              L9B7C_125:
1473+ A540 5F             LD E,A                  ; E=A
1474+ A541 2C             INC L                   ; L=L+1
1475+ A542 7E             LD A,(HL)               ; A=PEEK HL
1476+ A543 2C             INC L                   ; L=L+1
1477+ A544 66             LD H,(HL)               ; H=PEEK HL
1478+ A545 C6 10          ADD A,#10               ; A=A+#10
1479+ A547 30 01          JR NC,L9B7C_126         ; Jump to L9B7C_126 if the carry flag is not set
1480+ A549 24             INC H                   ; H=H+1
1481+ A54A              L9B7C_126:
1482+ A54A 6F             LD L,A                  ; L=A
1483+ A54B C9             RET                     ; Return
1484+ A54C              L9B7C_127:
1485+ A54C CD 15 A5       CALL L9B7C_123          ; CALL L9B7C_123
1486+ A54F              L9B7C_128:
1487+ A54F ED 53 3D A7    LD (#A73D),DE           ; POKE #A73D,E; POKE #A73E,D
1488+ A553 EB             EX DE,HL                ; Exchange DE and HL
1489+ A554 22 89 A6       LD (#A689),HL           ; POKE #A689,L; POKE #A68A,H
1490+ A557 01 05 00       LD BC,#0005             ; BC=#0005
1491+ A55A 09             ADD HL,BC               ; HL=HL+BC
1492+ A55B 7E             LD A,(HL)               ; A=PEEK HL
1493+ A55C 2C             INC L                   ; L=L+1
1494+ A55D B6             OR (HL)                 ; A=A|PEEK HL
1495+ A55E C8             RET Z                   ; Return if A=0
1496+ A55F 2D             DEC L                   ; L=L-1
1497+ A560 2D             DEC L                   ; L=L-1
1498+ A561              L9B7C_129:
1499+ A561 ED 5B 89 A6    LD DE,(#A689)           ; E=PEEK #A689; D=PEEK #A68A
1500+ A565 22 CA A5       LD (#A5CA),HL           ; POKE #A5CA,L; POKE #A5CB,H
1501+ A568 2C             INC L                   ; L=L+1
1502+ A569 7E             LD A,(HL)               ; A=PEEK HL
1503+ A56A 2C             INC L                   ; L=L+1
1504+ A56B B6             OR (HL)                 ; A=A|PEEK HL
1505+ A56C 2B             DEC HL                  ; HL=HL-1
1506+ A56D 2B             DEC HL                  ; HL=HL-1
1507+ A56E CC EC A6       CALL Z,L9B7C_160        ; CALL L9B7C_160 if the zero flag is set
1508+ A571 28 DC          JR Z,L9B7C_128          ; Jump to L9B7C_128 if the zero flag is set
1509+ A573 1C             INC E                   ; E=E+1
1510+ A574 1A             LD A,(DE)               ; A=PEEK DE
1511+ A575 4F             LD C,A                  ; C=A
1512+ A576 1C             INC E                   ; E=E+1
1513+ A577 1A             LD A,(DE)               ; A=PEEK DE
1514+ A578 57             LD D,A                  ; D=A
1515+ A579 59             LD E,C                  ; E=C
1516+ A57A 13             INC DE                  ; DE=DE+1
1517+ A57B 2C             INC L                   ; L=L+1
1518+ A57C 7E             LD A,(HL)               ; A=PEEK HL
1519+ A57D 2C             INC L                   ; L=L+1
1520+ A57E 66             LD H,(HL)               ; H=PEEK HL
1521+ A57F 6F             LD L,A                  ; L=A
1522+ A580 23             INC HL                  ; HL=HL+1
1523+ A581 1A             LD A,(DE)               ; A=PEEK DE
1524+ A582 BE             CP (HL)                 ; Set the zero flag if A=PEEK HL, or the carry flag
1525+ A583                                        ; if A<PEEK HL
1526+ A583 28 04          JR Z,L9B7C_130          ; Jump to L9B7C_130 if A=PEEK HL
1527+ A585 30 5A          JR NC,L9B7C_140         ; Jump to L9B7C_140 if the carry flag is not set
1528+ A587 18 40          JR L9B7C_138            ; Jump to L9B7C_138
1529+ A589              L9B7C_130:
1530+ A589 23             INC HL                  ; HL=HL+1
1531+ A58A 13             INC DE                  ; DE=DE+1
1532+ A58B 1A             LD A,(DE)               ; A=PEEK DE
1533+ A58C BE             CP (HL)                 ; Set the zero flag if A=PEEK HL, or the carry flag
1534+ A58D                                        ; if A<PEEK HL
1535+ A58D 28 04          JR Z,L9B7C_131          ; Jump to L9B7C_131 if A=PEEK HL
1536+ A58F 30 50          JR NC,L9B7C_140         ; Jump to L9B7C_140 if the carry flag is not set
1537+ A591 18 36          JR L9B7C_138            ; Jump to L9B7C_138
1538+ A593              L9B7C_131:
1539+ A593 23             INC HL                  ; HL=HL+1
1540+ A594 13             INC DE                  ; DE=DE+1
1541+ A595 1A             LD A,(DE)               ; A=PEEK DE
1542+ A596 BE             CP (HL)                 ; Set the zero flag if A=PEEK HL, or the carry flag
1543+ A597                                        ; if A<PEEK HL
1544+ A597 28 04          JR Z,L9B7C_132          ; Jump to L9B7C_132 if A=PEEK HL
1545+ A599 30 46          JR NC,L9B7C_140         ; Jump to L9B7C_140 if the carry flag is not set
1546+ A59B 18 2C          JR L9B7C_138            ; Jump to L9B7C_138
1547+ A59D              L9B7C_132:
1548+ A59D 7B             LD A,E                  ; A=E
1549+ A59E C6 0E          ADD A,#0E               ; A=A+#0E
1550+ A5A0 30 01          JR NC,L9B7C_133         ; Jump to L9B7C_133 if the carry flag is not set
1551+ A5A2 14             INC D                   ; D=D+1
1552+ A5A3              L9B7C_133:
1553+ A5A3 5F             LD E,A                  ; E=A
1554+ A5A4 7D             LD A,L                  ; A=L
1555+ A5A5 C6 0E          ADD A,#0E               ; A=A+#0E
1556+ A5A7 30 01          JR NC,L9B7C_134         ; Jump to L9B7C_134 if the carry flag is not set
1557+ A5A9 24             INC H                   ; H=H+1
1558+ A5AA              L9B7C_134:
1559+ A5AA 6F             LD L,A                  ; L=A
1560+ A5AB 06 FF          LD B,#FF                ; B=#FF
1561+ A5AD              L9B7C_135:
1562+ A5AD 7E             LD A,(HL)               ; A=PEEK HL
1563+ A5AE 4F             LD C,A                  ; C=A
1564+ A5AF FE 5B          CP #5B                  ; Set the zero flag if A=#5B, or the carry flag if
1565+ A5B1                                        ; A<#5B
1566+ A5B1 30 06          JR NC,L9B7C_136         ; Jump to L9B7C_136 if A>=#5B
1567+ A5B3 FE 41          CP #41                  ; Set the zero flag if A=#41, or the carry flag if
1568+ A5B5                                        ; A<#41
1569+ A5B5 38 02          JR C,L9B7C_136          ; Jump to L9B7C_136 if A<#41
1570+ A5B7 CB E9          SET 5,C                 ; Set bit 5 of C
1571+ A5B9              L9B7C_136:
1572+ A5B9 1A             LD A,(DE)               ; A=PEEK DE
1573+ A5BA FE 5B          CP #5B                  ; Set the zero flag if A=#5B, or the carry flag if
1574+ A5BC                                        ; A<#5B
1575+ A5BC 30 06          JR NC,L9B7C_137         ; Jump to L9B7C_137 if A>=#5B
1576+ A5BE FE 41          CP #41                  ; Set the zero flag if A=#41, or the carry flag if
1577+ A5C0                                        ; A<#41
1578+ A5C0 38 02          JR C,L9B7C_137          ; Jump to L9B7C_137 if A<#41
1579+ A5C2 CB EF          SET 5,A                 ; Set bit 5 of A
1580+ A5C4              L9B7C_137:
1581+ A5C4 B9             CP C                    ; Set the zero flag if A=C, or the carry flag if A<C
1582+ A5C5 28 0C          JR Z,L9B7C_139          ; Jump to L9B7C_139 if A=C
1583+ A5C7 30 18          JR NC,L9B7C_140         ; Jump to L9B7C_140 if the carry flag is not set
1584+ A5C9              L9B7C_138:
1585+ A5C9 21 00 00       LD HL,#0000             ; HL=#0000
1586+ A5CC 2C             INC L                   ; L=L+1
1587+ A5CD 2C             INC L                   ; L=L+1
1588+ A5CE 2C             INC L                   ; L=L+1
1589+ A5CF 23             INC HL                  ; HL=HL+1
1590+ A5D0 C3 61 A5       JP L9B7C_129            ; Jump to L9B7C_129
1591+ A5D3              L9B7C_139:
1592+ A5D3 23             INC HL                  ; HL=HL+1
1593+ A5D4 13             INC DE                  ; DE=DE+1
1594+ A5D5 10 D6          DJNZ L9B7C_135          ; Decrement B and jump to L9B7C_135 if B>0
1595+ A5D7 2A CA A5       LD HL,(#A5CA)           ; L=PEEK #A5CA; H=PEEK #A5CB
1596+ A5DA 2C             INC L                   ; L=L+1
1597+ A5DB 2C             INC L                   ; L=L+1
1598+ A5DC 2C             INC L                   ; L=L+1
1599+ A5DD 23             INC HL                  ; HL=HL+1
1600+ A5DE C3 61 A5       JP L9B7C_129            ; Jump to L9B7C_129
1601+ A5E1              L9B7C_140:
1602+ A5E1 3E 01          LD A,#01                ; A=#01
1603+ A5E3 32 ED A6       LD (#A6ED),A            ; POKE #A6ED,A
1604+ A5E6 2A CA A5       LD HL,(#A5CA)           ; L=PEEK #A5CA; H=PEEK #A5CB
1605+ A5E9 22 89 A6       LD (#A689),HL           ; POKE #A689,L; POKE #A68A,H
1606+ A5EC 2C             INC L                   ; L=L+1
1607+ A5ED 2C             INC L                   ; L=L+1
1608+ A5EE 2C             INC L                   ; L=L+1
1609+ A5EF 23             INC HL                  ; HL=HL+1
1610+ A5F0 C3 61 A5       JP L9B7C_129            ; Jump to L9B7C_129
1611+ A5F3              L9B7C_141:
1612+ A5F3 CD 15 A5       CALL L9B7C_123          ; CALL L9B7C_123
1613+ A5F6              L9B7C_142:
1614+ A5F6 ED 53 3D A7    LD (#A73D),DE           ; POKE #A73D,E; POKE #A73E,D
1615+ A5FA EB             EX DE,HL                ; Exchange DE and HL
1616+ A5FB 22 89 A6       LD (#A689),HL           ; POKE #A689,L; POKE #A68A,H
1617+ A5FE 01 05 00       LD BC,#0005             ; BC=#0005
1618+ A601 09             ADD HL,BC               ; HL=HL+BC
1619+ A602 7E             LD A,(HL)               ; A=PEEK HL
1620+ A603 2C             INC L                   ; L=L+1
1621+ A604 B6             OR (HL)                 ; A=A|PEEK HL
1622+ A605 C8             RET Z                   ; Return if A=0
1623+ A606 2D             DEC L                   ; L=L-1
1624+ A607 2D             DEC L                   ; L=L-1
1625+ A608              L9B7C_143:
1626+ A608 ED 5B 89 A6    LD DE,(#A689)           ; E=PEEK #A689; D=PEEK #A68A
1627+ A60C 22 4A A6       LD (#A64A),HL           ; POKE #A64A,L; POKE #A64B,H
1628+ A60F 2C             INC L                   ; L=L+1
1629+ A610 7E             LD A,(HL)               ; A=PEEK HL
1630+ A611 2C             INC L                   ; L=L+1
1631+ A612 B6             OR (HL)                 ; A=A|PEEK HL
1632+ A613 2B             DEC HL                  ; HL=HL-1
1633+ A614 2B             DEC HL                  ; HL=HL-1
1634+ A615 CC EC A6       CALL Z,L9B7C_160        ; CALL L9B7C_160 if the zero flag is set
1635+ A618 28 DC          JR Z,L9B7C_142          ; Jump to L9B7C_142 if the zero flag is set
1636+ A61A CD 34 A5       CALL L9B7C_124          ; CALL L9B7C_124
1637+ A61D 1A             LD A,(DE)               ; A=PEEK DE
1638+ A61E BE             CP (HL)                 ; Set the zero flag if A=PEEK HL, or the carry flag
1639+ A61F                                        ; if A<PEEK HL
1640+ A61F 28 04          JR Z,L9B7C_144          ; Jump to L9B7C_144 if A=PEEK HL
1641+ A621 30 3E          JR NC,L9B7C_150         ; Jump to L9B7C_150 if the carry flag is not set
1642+ A623 18 24          JR L9B7C_148            ; Jump to L9B7C_148
1643+ A625              L9B7C_144:
1644+ A625 01 F8 FF       LD BC,#FFF8             ; BC=#FFF8
1645+ A628 09             ADD HL,BC               ; HL=HL+BC
1646+ A629 EB             EX DE,HL                ; Exchange DE and HL
1647+ A62A 09             ADD HL,BC               ; HL=HL+BC
1648+ A62B EB             EX DE,HL                ; Exchange DE and HL
1649+ A62C 06 04          LD B,#04                ; B=#04
1650+ A62E              L9B7C_145:
1651+ A62E 1A             LD A,(DE)               ; A=PEEK DE
1652+ A62F BE             CP (HL)                 ; Set the zero flag if A=PEEK HL, or the carry flag
1653+ A630                                        ; if A<PEEK HL
1654+ A630 28 04          JR Z,L9B7C_146          ; Jump to L9B7C_146 if A=PEEK HL
1655+ A632 30 2D          JR NC,L9B7C_150         ; Jump to L9B7C_150 if the carry flag is not set
1656+ A634 18 13          JR L9B7C_148            ; Jump to L9B7C_148
1657+ A636              L9B7C_146:
1658+ A636 2B             DEC HL                  ; HL=HL-1
1659+ A637 1B             DEC DE                  ; DE=DE-1
1660+ A638 10 F4          DJNZ L9B7C_145          ; Decrement B and jump to L9B7C_145 if B>0
1661+ A63A 01 0D 00       LD BC,#000D             ; BC=#000D
1662+ A63D 09             ADD HL,BC               ; HL=HL+BC
1663+ A63E EB             EX DE,HL                ; Exchange DE and HL
1664+ A63F 09             ADD HL,BC               ; HL=HL+BC
1665+ A640 EB             EX DE,HL                ; Exchange DE and HL
1666+ A641 06 FF          LD B,#FF                ; B=#FF
1667+ A643              L9B7C_147:
1668+ A643 1A             LD A,(DE)               ; A=PEEK DE
1669+ A644 BE             CP (HL)                 ; Set the zero flag if A=PEEK HL, or the carry flag
1670+ A645                                        ; if A<PEEK HL
1671+ A645 28 0C          JR Z,L9B7C_149          ; Jump to L9B7C_149 if A=PEEK HL
1672+ A647 30 18          JR NC,L9B7C_150         ; Jump to L9B7C_150 if the carry flag is not set
1673+ A649              L9B7C_148:
1674+ A649 21 00 00       LD HL,#0000             ; HL=#0000
1675+ A64C 2C             INC L                   ; L=L+1
1676+ A64D 2C             INC L                   ; L=L+1
1677+ A64E 2C             INC L                   ; L=L+1
1678+ A64F 23             INC HL                  ; HL=HL+1
1679+ A650 C3 08 A6       JP L9B7C_143            ; Jump to L9B7C_143
1680+ A653              L9B7C_149:
1681+ A653 23             INC HL                  ; HL=HL+1
1682+ A654 13             INC DE                  ; DE=DE+1
1683+ A655 10 EC          DJNZ L9B7C_147          ; Decrement B and jump to L9B7C_147 if B>0
1684+ A657 2A 4A A6       LD HL,(#A64A)           ; L=PEEK #A64A; H=PEEK #A64B
1685+ A65A 2C             INC L                   ; L=L+1
1686+ A65B 2C             INC L                   ; L=L+1
1687+ A65C 2C             INC L                   ; L=L+1
1688+ A65D 23             INC HL                  ; HL=HL+1
1689+ A65E C3 08 A6       JP L9B7C_143            ; Jump to L9B7C_143
1690+ A661              L9B7C_150:
1691+ A661 3E 01          LD A,#01                ; A=#01
1692+ A663 32 ED A6       LD (#A6ED),A            ; POKE #A6ED,A
1693+ A666 2A 4A A6       LD HL,(#A64A)           ; L=PEEK #A64A; H=PEEK #A64B
1694+ A669 22 89 A6       LD (#A689),HL           ; POKE #A689,L; POKE #A68A,H
1695+ A66C 2C             INC L                   ; L=L+1
1696+ A66D 2C             INC L                   ; L=L+1
1697+ A66E 2C             INC L                   ; L=L+1
1698+ A66F 23             INC HL                  ; HL=HL+1
1699+ A670 C3 08 A6       JP L9B7C_143            ; Jump to L9B7C_143
1700+ A673              L9B7C_151:
1701+ A673 CD 15 A5       CALL L9B7C_123          ; CALL L9B7C_123
1702+ A676              L9B7C_152:
1703+ A676 ED 53 3D A7    LD (#A73D),DE           ; POKE #A73D,E; POKE #A73E,D
1704+ A67A EB             EX DE,HL                ; Exchange DE and HL
1705+ A67B 22 89 A6       LD (#A689),HL           ; POKE #A689,L; POKE #A68A,H
1706+ A67E 01 05 00       LD BC,#0005             ; BC=#0005
1707+ A681 09             ADD HL,BC               ; HL=HL+BC
1708+ A682 7E             LD A,(HL)               ; A=PEEK HL
1709+ A683 2C             INC L                   ; L=L+1
1710+ A684 B6             OR (HL)                 ; A=A|PEEK HL
1711+ A685 C8             RET Z                   ; Return if A=0
1712+ A686 2D             DEC L                   ; L=L-1
1713+ A687 2D             DEC L                   ; L=L-1
1714+ A688              L9B7C_153:
1715+ A688 11 00 00       LD DE,#0000             ; DE=#0000
1716+ A68B 22 C3 A6       LD (#A6C3),HL           ; POKE #A6C3,L; POKE #A6C4,H
1717+ A68E 2C             INC L                   ; L=L+1
1718+ A68F 7E             LD A,(HL)               ; A=PEEK HL
1719+ A690 2C             INC L                   ; L=L+1
1720+ A691 B6             OR (HL)                 ; A=A|PEEK HL
1721+ A692 2B             DEC HL                  ; HL=HL-1
1722+ A693 2B             DEC HL                  ; HL=HL-1
1723+ A694 CC EC A6       CALL Z,L9B7C_160        ; CALL L9B7C_160 if the zero flag is set
1724+ A697 28 DD          JR Z,L9B7C_152          ; Jump to L9B7C_152 if the zero flag is set
1725+ A699 CD 34 A5       CALL L9B7C_124          ; CALL L9B7C_124
1726+ A69C 06 FF          LD B,#FF                ; B=#FF
1727+ A69E 1A             LD A,(DE)               ; A=PEEK DE
1728+ A69F BE             CP (HL)                 ; Set the zero flag if A=PEEK HL, or the carry flag
1729+ A6A0                                        ; if A<PEEK HL
1730+ A6A0 28 2A          JR Z,L9B7C_158          ; Jump to L9B7C_158 if A=PEEK HL
1731+ A6A2 30 36          JR NC,L9B7C_159         ; Jump to L9B7C_159 if the carry flag is not set
1732+ A6A4 18 1C          JR L9B7C_157            ; Jump to L9B7C_157
1733+ A6A6              L9B7C_154:
1734+ A6A6 7E             LD A,(HL)               ; A=PEEK HL
1735+ A6A7 4F             LD C,A                  ; C=A
1736+ A6A8 FE 5B          CP #5B                  ; Set the zero flag if A=#5B, or the carry flag if
1737+ A6AA                                        ; A<#5B
1738+ A6AA 30 06          JR NC,L9B7C_155         ; Jump to L9B7C_155 if A>=#5B
1739+ A6AC FE 41          CP #41                  ; Set the zero flag if A=#41, or the carry flag if
1740+ A6AE                                        ; A<#41
1741+ A6AE 38 02          JR C,L9B7C_155          ; Jump to L9B7C_155 if A<#41
1742+ A6B0 CB E9          SET 5,C                 ; Set bit 5 of C
1743+ A6B2              L9B7C_155:
1744+ A6B2 1A             LD A,(DE)               ; A=PEEK DE
1745+ A6B3 FE 5B          CP #5B                  ; Set the zero flag if A=#5B, or the carry flag if
1746+ A6B5                                        ; A<#5B
1747+ A6B5 30 06          JR NC,L9B7C_156         ; Jump to L9B7C_156 if A>=#5B
1748+ A6B7 FE 41          CP #41                  ; Set the zero flag if A=#41, or the carry flag if
1749+ A6B9                                        ; A<#41
1750+ A6B9 38 02          JR C,L9B7C_156          ; Jump to L9B7C_156 if A<#41
1751+ A6BB CB EF          SET 5,A                 ; Set bit 5 of A
1752+ A6BD              L9B7C_156:
1753+ A6BD B9             CP C                    ; Set the zero flag if A=C, or the carry flag if A<C
1754+ A6BE 28 0C          JR Z,L9B7C_158          ; Jump to L9B7C_158 if A=C
1755+ A6C0 30 18          JR NC,L9B7C_159         ; Jump to L9B7C_159 if the carry flag is not set
1756+ A6C2              L9B7C_157:
1757+ A6C2 21 00 00       LD HL,#0000             ; HL=#0000
1758+ A6C5 2C             INC L                   ; L=L+1
1759+ A6C6 2C             INC L                   ; L=L+1
1760+ A6C7 2C             INC L                   ; L=L+1
1761+ A6C8 23             INC HL                  ; HL=HL+1
1762+ A6C9 C3 88 A6       JP L9B7C_153            ; Jump to L9B7C_153
1763+ A6CC              L9B7C_158:
1764+ A6CC 23             INC HL                  ; HL=HL+1
1765+ A6CD 13             INC DE                  ; DE=DE+1
1766+ A6CE 10 D6          DJNZ L9B7C_154          ; Decrement B and jump to L9B7C_154 if B>0
1767+ A6D0 2A C3 A6       LD HL,(#A6C3)           ; L=PEEK #A6C3; H=PEEK #A6C4
1768+ A6D3 2C             INC L                   ; L=L+1
1769+ A6D4 2C             INC L                   ; L=L+1
1770+ A6D5 2C             INC L                   ; L=L+1
1771+ A6D6 23             INC HL                  ; HL=HL+1
1772+ A6D7 C3 88 A6       JP L9B7C_153            ; Jump to L9B7C_153
1773+ A6DA              L9B7C_159:
1774+ A6DA 3E 01          LD A,#01                ; A=#01
1775+ A6DC 32 ED A6       LD (#A6ED),A            ; POKE #A6ED,A
1776+ A6DF 2A C3 A6       LD HL,(#A6C3)           ; L=PEEK #A6C3; H=PEEK #A6C4
1777+ A6E2 22 89 A6       LD (#A689),HL           ; POKE #A689,L; POKE #A68A,H
1778+ A6E5 2C             INC L                   ; L=L+1
1779+ A6E6 2C             INC L                   ; L=L+1
1780+ A6E7 2C             INC L                   ; L=L+1
1781+ A6E8 23             INC HL                  ; HL=HL+1
1782+ A6E9 C3 88 A6       JP L9B7C_153            ; Jump to L9B7C_153
1783+ A6EC              L9B7C_160:
1784+ A6EC 3E 00          LD A,#00                ; A=#00
1785+ A6EE B7             OR A                    ; Clear the carry flag and set the zero flag if A=0
1786+ A6EF CA 17 A7       JP Z,L9B7C_161          ; Jump to L9B7C_161 if A=0
1787+ A6F2 AF             XOR A                   ; A=0
1788+ A6F3 32 ED A6       LD (#A6ED),A            ; POKE #A6ED,A
1789+ A6F6 ED 5B 3D A7    LD DE,(#A73D)           ; E=PEEK #A73D; D=PEEK #A73E
1790+ A6FA 2A 89 A6       LD HL,(#A689)           ; L=PEEK #A689; H=PEEK #A68A
1791+ A6FD 1A             LD A,(DE)               ; A=PEEK DE
1792+ A6FE 4E             LD C,(HL)               ; C=PEEK HL
1793+ A6FF 77             LD (HL),A               ; POKE HL,A
1794+ A700 79             LD A,C                  ; A=C
1795+ A701 12             LD (DE),A               ; POKE DE,A
1796+ A702 2C             INC L                   ; L=L+1
1797+ A703 1C             INC E                   ; E=E+1
1798+ A704 1A             LD A,(DE)               ; A=PEEK DE
1799+ A705 4E             LD C,(HL)               ; C=PEEK HL
1800+ A706 77             LD (HL),A               ; POKE HL,A
1801+ A707 79             LD A,C                  ; A=C
1802+ A708 12             LD (DE),A               ; POKE DE,A
1803+ A709 2C             INC L                   ; L=L+1
1804+ A70A 1C             INC E                   ; E=E+1
1805+ A70B 1A             LD A,(DE)               ; A=PEEK DE
1806+ A70C 4E             LD C,(HL)               ; C=PEEK HL
1807+ A70D 77             LD (HL),A               ; POKE HL,A
1808+ A70E 79             LD A,C                  ; A=C
1809+ A70F 12             LD (DE),A               ; POKE DE,A
1810+ A710 2C             INC L                   ; L=L+1
1811+ A711 1C             INC E                   ; E=E+1
1812+ A712 1A             LD A,(DE)               ; A=PEEK DE
1813+ A713 4E             LD C,(HL)               ; C=PEEK HL
1814+ A714 77             LD (HL),A               ; POKE HL,A
1815+ A715 79             LD A,C                  ; A=C
1816+ A716 12             LD (DE),A               ; POKE DE,A
1817+ A717              L9B7C_161:
1818+ A717 2A 3D A7       LD HL,(#A73D)           ; L=PEEK #A73D; H=PEEK #A73E
1819+ A71A 2C             INC L                   ; L=L+1
1820+ A71B 2C             INC L                   ; L=L+1
1821+ A71C 2C             INC L                   ; L=L+1
1822+ A71D 23             INC HL                  ; HL=HL+1
1823+ A71E EB             EX DE,HL                ; Exchange DE and HL
1824+ A71F AF             XOR A                   ; A=0
1825+ A720 C9             RET                     ; Return
1826+ A721              ; This entry point is used by the routine at L9149.
1827+ A721              L9B7C_162:
1828+ A721 FB             EI                      ; Enable interrupts
1829+ A722 76             HALT                    ; Wait for the next interrupt
1830+ A723 F3             DI                      ; Disable interrupts
1831+ A724 21 01 5C       LD HL,#5C01             ; HL=#5C01
1832+ A727 22 FF 5B       LD (#5BFF),HL           ; POKE #5BFF,L; POKE #5C00,H
1833+ A72A C9             RET                     ; Return
1834+ A72B              ; This entry point is used by the routine at L9149.
1835+ A72B              L9B7C_163:
1836+ A72B 1A             LD A,(DE)               ; A=PEEK DE
1837+ A72C BE             CP (HL)                 ; Set the zero flag if A=PEEK HL, or the carry flag
1838+ A72D                                        ; if A<PEEK HL
1839+ A72D C0             RET NZ                  ; Return if A<>PEEK HL
1840+ A72E 23             INC HL                  ; HL=HL+1
1841+ A72F 13             INC DE                  ; DE=DE+1
1842+ A730 10 F9          DJNZ L9B7C_163          ; Decrement B and jump to L9B7C_163 if B>0
1843+ A732 C9             RET                     ; Return
1844+ A733              L9B7C_164:
1845+ A733 1A             LD A,(DE)               ; A=PEEK DE
1846+ A734 BE             CP (HL)                 ; Set the zero flag if A=PEEK HL, or the carry flag
1847+ A735                                        ; if A<PEEK HL
1848+ A735 C0             RET NZ                  ; Return if A<>PEEK HL
1849+ A736 23             INC HL                  ; HL=HL+1
1850+ A737 13             INC DE                  ; DE=DE+1
1851+ A738 1A             LD A,(DE)               ; A=PEEK DE
1852+ A739 B7             OR A                    ; Clear the carry flag and set the zero flag if A=0
1853+ A73A C8             RET Z                   ; Return if A=0
1854+ A73B 18 F6          JR L9B7C_164            ; Jump to L9B7C_164
1855+ A73D 00             NOP                     ; Do nothing
1856+ A73E 00             NOP                     ; Do nothing
1857+ A73F 00             NOP                     ; Do nothing
1858+ A740 D5             PUSH DE                 ; Push DE onto the stack
1859+ A741 00             NOP                     ; Do nothing
1860+ A742 FF             RST #38                 ; CALL 0038
1861+ A743 06 22          LD B,#22                ; B=#22
1862+ A745 10 5F          DJNZ L9B7C_165          ; Decrement B and jump to L9B7C_165 if B>0
1863+ A747 00             NOP                     ; Do nothing
1864+ A748 00             NOP                     ; Do nothing
1865+ A749 00             NOP                     ; Do nothing
1866+ A74A 04             INC B                   ; B=B+1
1867+ A74B 08             EX AF,AF'               ; Exchange AF and AF'
1868+ A74C 01 11 E4       LD BC,#E411             ; BC=#E411
1869+ A74F 58             LD E,B                  ; E=B
1870+ A750 59             LD E,C                  ; E=C
1871+ A751 A8             XOR B                   ; A=A^B
1872+ A752 00             NOP                     ; Do nothing
1873+ A753 00             NOP                     ; Do nothing
1874+ A754 00             NOP                     ; Do nothing
1875+ A755 00             NOP                     ; Do nothing
1876+ A756 84             ADD A,H                 ; A=A+H
1877+ A757 00             NOP                     ; Do nothing
1878+ A758 FF             RST #38                 ; CALL 0038
1879+ A759 16 22          LD D,#22                ; D=#22
1880+ A75B 03             INC BC                  ; BC=BC+1
1881+ A75C 5F             LD E,A                  ; E=A
1882+ A75D 00             NOP                     ; Do nothing
1883+ A75E 00             NOP                     ; Do nothing
1884+ A75F 00             NOP                     ; Do nothing
1885+ A760 00             NOP                     ; Do nothing
1886+ A761 00             NOP                     ; Do nothing
1887+ A762 00             NOP                     ; Do nothing
1888+ A763 00             NOP                     ; Do nothing
1889+ A764 00             NOP                     ; Do nothing
1890+ A765 00             NOP                     ; Do nothing
1891+ A766 85             ADD A,L                 ; A=A+L
1892+ A767 A8             XOR B                   ; A=A^B
1893+ A768 84             ADD A,H                 ; A=A+H
1894+ A769 00             NOP                     ; Do nothing
1895+ A76A FF             RST #38                 ; CALL 0038
1896+ A76B FF             RST #38                 ; CALL 0038
1897+ A76C 2C             INC L                   ; L=L+1
1898+ A76D 03             INC BC                  ; BC=BC+1
1899+ A76E 4F             LD C,A                  ; C=A
1900+ A76F 00             NOP                     ; Do nothing
1901+ A770 00             NOP                     ; Do nothing
1902+ A771 00             NOP                     ; Do nothing
1903+ A772 00             NOP                     ; Do nothing
1904+ A773 00             NOP                     ; Do nothing
1905+ A774 00             NOP                     ; Do nothing
1906+ A775 00             NOP                     ; Do nothing
1907+ A776 00             NOP                     ; Do nothing
1908+ A777 00             NOP                     ; Do nothing
1909+ A778 7A             LD A,D                  ; A=D
1910+ A779 A7             AND A                   ; Clear the carry flag and set the zero flag if A=0
1911+ A77A 0E 49          LD C,#49                ; C=#49
1912+ A77C 4E             LD C,(HL)               ; C=PEEK HL
1913+ A77D 49             LD C,C                  ; Do nothing
1914+ A77E 20 66          JR NZ,L9B7C_168         ; Jump to L9B7C_168 if the zero flag is not set
1915+ A780 69             LD L,C                  ; L=C
1916+ A781 6C             LD L,H                  ; L=H
1917+ A782 65             LD H,L                  ; H=L
1918+ A783 20 53          JR NZ,L9B7C_166         ; Jump to L9B7C_166 if the zero flag is not set
1919+ A785 41             LD B,C                  ; B=C
1920+ A786 56             LD D,(HL)               ; D=PEEK HL
1921+ A787 45             LD B,L                  ; B=L
1922+ A788 44             LD B,H                  ; B=H
1923+ A789 2F             CPL                     ; A=#FF-A
1924+ A78A 4D             LD C,L                  ; C=L
1925+ A78B 45             LD B,L                  ; B=L
1926+ A78C 52             LD D,D                  ; Do nothing
1927+ A78D 47             LD B,A                  ; B=A
1928+ A78E 45             LD B,L                  ; B=L
1929+ A78F 44             LD B,H                  ; B=H
1930+ A790 20 53          JR NZ,L9B7C_167         ; Jump to L9B7C_167 if the zero flag is not set
1931+ A792 55             LD D,L                  ; D=L
1932+ A793 43             LD B,E                  ; B=E
1933+ A794 43             LD B,E                  ; B=E
1934+ A795 45             LD B,L                  ; B=L
1935+ A796 53             LD D,E                  ; D=E
1936+ A797 53             LD D,E                  ; D=E
1937+ A798 46             LD B,(HL)               ; B=PEEK HL
1938+ A799 55             LD D,L                  ; D=L
1939+ A79A 4C             LD C,H                  ; C=H
1940+ A79B 4C             LD C,H                  ; C=H
1941+ A79C 59             LD E,C                  ; E=C
1942+ A79D 00             NOP                     ; Do nothing
1943+ A79E 13             INC DE                  ; DE=DE+1
1944+ A79F 00             NOP                     ; Do nothing
1945+ A7A0 12             LD (DE),A               ; POKE DE,A
1946+ A7A1 0D             DEC C                   ; C=C-1
1947+ A7A2 2C             INC L                   ; L=L+1
1948+ A7A3 03             INC BC                  ; BC=BC+1
1949+ A7A4 1F             RRA                     ; Rotate A right through the carry flag
1950+ A7A5 00             NOP                     ; Do nothing
1951+ A7A6              L9B7C_165:
1952+ A7A6 00             NOP                     ; Do nothing
1953+ A7A7 00             NOP                     ; Do nothing
1954+ A7A8 00             NOP                     ; Do nothing
1955+ A7A9 00             NOP                     ; Do nothing
1956+ A7AA 00             NOP                     ; Do nothing
1957+ A7AB 00             NOP                     ; Do nothing
1958+ A7AC 00             NOP                     ; Do nothing
1959+ A7AD 00             NOP                     ; Do nothing
1960+ A7AE 00             NOP                     ; Do nothing
1961+ A7AF 00             NOP                     ; Do nothing
1962+ A7B0 00             NOP                     ; Do nothing
1963+ A7B1 00             NOP                     ; Do nothing
1964+ A7B2 FF             RST #38                 ; CALL 0038
1965+ A7B3 FF             RST #38                 ; CALL 0038
1966+ A7B4 00             NOP                     ; Do nothing
1967+ A7B5 00             NOP                     ; Do nothing
1968+ A7B6 00             NOP                     ; Do nothing
1969+ A7B7 00             NOP                     ; Do nothing
1970+ A7B8 00             NOP                     ; Do nothing
1971+ A7B9 00             NOP                     ; Do nothing
1972+ A7BA 00             NOP                     ; Do nothing
1973+ A7BB 77             LD (HL),A               ; POKE HL,A
1974+ A7BC 63             LD H,E                  ; H=E
1975+ A7BD 2E 69          LD L,#69                ; L=#69
1976+ A7BF 6E             LD L,(HL)               ; L=PEEK HL
1977+ A7C0 69             LD L,C                  ; L=C
1978+ A7C1 00             NOP                     ; Do nothing
1979+ A7C2 5B             LD E,E                  ; Do nothing
1980+ A7C3 53             LD D,E                  ; D=E
1981+ A7C4 45             LD B,L                  ; B=L
1982+ A7C5 54             LD D,H                  ; D=H
1983+ A7C6 55             LD D,L                  ; D=L
1984+ A7C7 50             LD D,B                  ; D=B
1985+ A7C8 5D             LD E,L                  ; E=L
1986+ A7C9 0D             DEC C                   ; C=C-1
1987+ A7CA 43             LD B,E                  ; B=E
1988+ A7CB 50             LD D,B                  ; D=B
1989+ A7CC 55             LD D,L                  ; D=L
1990+ A7CD 5F             LD E,A                  ; E=A
1991+ A7CE 46             LD B,(HL)               ; B=PEEK HL
1992+ A7CF 52             LD D,D                  ; Do nothing
1993+ A7D0 45             LD B,L                  ; B=L
1994+ A7D1 51             LD D,C                  ; D=C
1995+ A7D2 3D             DEC A                   ; A=A-1
1996+ A7D3 32 0D 53       LD (#530D),A            ; POKE #530D,A
1997+ A7D6 61             LD H,C                  ; H=C
1998+ A7D7 76             HALT                    ; Wait for the next interrupt
1999+ A7D8              L9B7C_166:
2000+ A7D8 65             LD H,L                  ; H=L
2001+ A7D9 50             LD D,B                  ; D=B
2002+ A7DA 61             LD H,C                  ; H=C
2003+ A7DB 74             LD (HL),H               ; POKE HL,H
2004+ A7DC 68             LD L,B                  ; L=B
2005+ A7DD 73             LD (HL),E               ; POKE HL,E
2006+ A7DE 3D             DEC A                   ; A=A-1
2007+ A7DF 31 0D 53       LD SP,#530D             ; SP=#530D
2008+ A7E2 61             LD H,C                  ; H=C
2009+ A7E3 76             HALT                    ; Wait for the next interrupt
2010+ A7E4 65             LD H,L                  ; H=L
2011+ A7E5              L9B7C_167:
2012+ A7E5 50             LD D,B                  ; D=B
2013+ A7E6              L9B7C_168:
2014+ A7E6 6F             LD L,A                  ; L=A
2015+ A7E7 73             LD (HL),E               ; POKE HL,E
2016+ A7E8 69             LD L,C                  ; L=C
2017+ A7E9 74             LD (HL),H               ; POKE HL,H
2018+ A7EA 69             LD L,C                  ; L=C
2019+ A7EB 6F             LD L,A                  ; L=A
2020+ A7EC 6E             LD L,(HL)               ; L=PEEK HL
2021+ A7ED 3D             DEC A                   ; A=A-1
2022+ A7EE 30 0D          JR NC,L9B7C_169         ; Jump to L9B7C_169 if the carry flag is not set
2023+ A7F0 54             LD D,H                  ; D=H
2024+ A7F1 65             LD H,L                  ; H=L
2025+ A7F2 78             LD A,B                  ; A=B
2026+ A7F3 74             LD (HL),H               ; POKE HL,H
2027+ A7F4 4D             LD C,L                  ; C=L
2028+ A7F5 6F             LD L,A                  ; L=A
2029+ A7F6 64             LD H,H                  ; Do nothing
2030+ A7F7 65             LD H,L                  ; H=L
2031+ A7F8 3D             DEC A                   ; A=A-1
2032+ A7F9 31 0D 53       LD SP,#530D             ; SP=#530D
2033+ A7FC 63             LD H,E                  ; H=E
2034+ A7FD              L9B7C_169:
2035+ A7FD 72             LD (HL),D               ; POKE HL,D
2036+ A7FE 65             LD H,L                  ; H=L
2037+ A7FF 65             LD H,L                  ; H=L
2038+ A800 6E             LD L,(HL)               ; L=PEEK HL
2039+ A801 53             LD D,E                  ; D=E
2040+ A802 61             LD H,C                  ; H=C
2041+ A803 76             HALT                    ; Wait for the next interrupt
2042+ A804 65             LD H,L                  ; H=L
2043+ A805 72             LD (HL),D               ; POKE HL,D
2044+ A806 3D             DEC A                   ; A=A-1
2045+ A807 30 0D          JR NC,L9B7C_170         ; Jump to L9B7C_170 if the carry flag is not set
2046+ A809 4C             LD C,H                  ; C=H
2047+ A80A 6F             LD L,A                  ; L=A
2048+ A80B 67             LD H,A                  ; H=A
2049+ A80C 6F             LD L,A                  ; L=A
2050+ A80D 3D             DEC A                   ; A=A-1
2051+ A80E 30 0D          JR NC,L9B7C_171         ; Jump to L9B7C_171 if the carry flag is not set
2052+ A810 0D             DEC C                   ; C=C-1
2053+ A811 5B             LD E,E                  ; Do nothing
2054+ A812 4C             LD C,H                  ; C=H
2055+ A813 50             LD D,B                  ; D=B
2056+ A814 41             LD B,C                  ; B=C
2057+ A815 4E             LD C,(HL)               ; C=PEEK HL
2058+ A816              L9B7C_170:
2059+ A816 45             LD B,L                  ; B=L
2060+ A817 4C             LD C,H                  ; C=H
2061+ A818 5D             LD E,L                  ; E=L
2062+ A819 0D             DEC C                   ; C=C-1
2063+ A81A 44             LD B,H                  ; B=H
2064+ A81B 52             LD D,D                  ; Do nothing
2065+ A81C 56             LD D,(HL)               ; D=PEEK HL
2066+ A81D              L9B7C_171:
2067+ A81D 3D             DEC A                   ; A=A-1
2068+ A81E 31 0D 49       LD SP,#490D             ; SP=#490D
2069+ A821 4E             LD C,(HL)               ; C=PEEK HL
2070+ A822 46             LD B,(HL)               ; B=PEEK HL
2071+ A823 4F             LD C,A                  ; C=A
2072+ A824 3D             DEC A                   ; A=A-1
2073+ A825 31 0D 43       LD SP,#430D             ; SP=#430D
2074+ A828 53             LD D,E                  ; D=E
2075+ A829 4F             LD C,A                  ; C=A
2076+ A82A 52             LD D,D                  ; Do nothing
2077+ A82B 54             LD D,H                  ; D=H
2078+ A82C 3D             DEC A                   ; A=A-1
2079+ A82D 31 0D 0D       LD SP,#0D0D             ; SP=#0D0D
2080+ A830 5B             LD E,E                  ; Do nothing
2081+ A831 52             LD D,D                  ; Do nothing
2082+ A832 50             LD D,B                  ; D=B
2083+ A833 41             LD B,C                  ; B=C
2084+ A834 4E             LD C,(HL)               ; C=PEEK HL
2085+ A835 45             LD B,L                  ; B=L
2086+ A836 4C             LD C,H                  ; C=H
2087+ A837 5D             LD E,L                  ; E=L
2088+ A838 0D             DEC C                   ; C=C-1
2089+ A839 44             LD B,H                  ; B=H
2090+ A83A 52             LD D,D                  ; Do nothing
2091+ A83B 56             LD D,(HL)               ; D=PEEK HL
2092+ A83C 3D             DEC A                   ; A=A-1
2093+ A83D 31 0D 49       LD SP,#490D             ; SP=#490D
2094+ A840 4E             LD C,(HL)               ; C=PEEK HL
2095+ A841 46             LD B,(HL)               ; B=PEEK HL
2096+ A842 4F             LD C,A                  ; C=A
2097+ A843 3D             DEC A                   ; A=A-1
2098+ A844 31 0D 43       LD SP,#430D             ; SP=#430D
2099+ A847 53             LD D,E                  ; D=E
2100+ A848 4F             LD C,A                  ; C=A
2101+ A849 52             LD D,D                  ; Do nothing
2102+ A84A 54             LD D,H                  ; D=H
2103+ A84B 3D             DEC A                   ; A=A-1
2104+ A84C 31 0D 00       LD SP,#000D             ; SP=#000D
2105+ A84F 5B             LD E,E                  ; Do nothing
2106+ A850 50             LD D,B                  ; D=B
2107+ A851 4C             LD C,H                  ; C=H
2108+ A852 55             LD D,L                  ; D=L
2109+ A853 47             LD B,A                  ; B=A
2110+ A854 49             LD C,C                  ; Do nothing
2111+ A855 4E             LD C,(HL)               ; C=PEEK HL
2112+ A856 53             LD D,E                  ; D=E
2113+ A857 5D             LD E,L                  ; E=L
2114+ A858 FF             RST #38                 ; CALL 0038
2115+ A859 0E 09          LD C,#09                ; C=#09
2116+ A85B 49             LD C,C                  ; Do nothing
2117+ A85C 4E             LD C,(HL)               ; C=PEEK HL
2118+ A85D 49             LD C,C                  ; Do nothing
2119+ A85E 20 46          JR NZ,#A8A6             ; Jump to A8A6 if the zero flag is not set
2120+ A860 69             LD L,C                  ; L=C
2121+ A861 6C             LD L,H                  ; L=H
2122+ A862 65             LD H,L                  ; H=L
2123+ A863 20 53          JR NZ,L9B7C_173         ; Jump to L9B7C_173 if the zero flag is not set
2124+ A865 65             LD H,L                  ; H=L
2125+ A866 74             LD (HL),H               ; POKE HL,H
2126+ A867 75             LD (HL),L               ; POKE HL,L
2127+ A868 70             LD (HL),B               ; POKE HL,B
2128+ A869 00             NOP                     ; Do nothing
2129+ A86A 0E 4C          LD C,#4C                ; C=#4C
2130+ A86C 65             LD H,L                  ; H=L
2131+ A86D 66             LD H,(HL)               ; H=PEEK HL
2132+ A86E 74             LD (HL),H               ; POKE HL,H
2133+ A86F 20 50          JR NZ,#A8C1             ; Jump to A8C1 if the zero flag is not set
2134+ A871 61             LD H,C                  ; H=C
2135+ A872 6E             LD L,(HL)               ; L=PEEK HL
2136+ A873 65             LD H,L                  ; H=L
2137+ A874 6C             LD L,H                  ; L=H
2138+ A875 3A 00 0E       LD A,(#0E00)            ; A=PEEK #0E00
2139+ A878 52             LD D,D                  ; Do nothing
2140+ A879 69             LD L,C                  ; L=C
2141+ A87A 67             LD H,A                  ; H=A
2142+ A87B 68             LD L,B                  ; L=B
2143+ A87C 74             LD (HL),H               ; POKE HL,H
2144+ A87D 20 50          JR NZ,L9B7C_174         ; Jump to L9B7C_174 if the zero flag is not set
2145+ A87F 61             LD H,C                  ; H=C
2146+ A880 6E             LD L,(HL)               ; L=PEEK HL
2147+ A881 65             LD H,L                  ; H=L
2148+ A882 6C             LD L,H                  ; L=H
2149+ A883 3A 00 04       LD A,(#0400)            ; A=PEEK #0400
2150+ A886 04             INC B                   ; B=B+1
2151+ A887 20 0E          JR NZ,L9B7C_172         ; Jump to L9B7C_172 if B>0
2152+ A889 53             LD D,E                  ; D=E
2153+ A88A 61             LD H,C                  ; H=C
2154+ A88B 76             HALT                    ; Wait for the next interrupt
2155+ A88C 65             LD H,L                  ; H=L
2156+ A88D 20 49          JR NZ,L9B7C_175         ; Jump to L9B7C_175 if the zero flag is not set
2157+ A88F 4E             LD C,(HL)               ; C=PEEK HL
2158+ A890 49             LD C,C                  ; Do nothing
2159+ A891 20 66          JR NZ,#A8F9             ; Jump to A8F9 if the zero flag is not set
2160+ A893 69             LD L,C                  ; L=C
2161+ A894 6C             LD L,H                  ; L=H
2162+ A895 65             LD H,L                  ; H=L
2163+ A896 00             NOP                     ; Do nothing
2164+ A897              L9B7C_172:
2165+ A897 44             LD B,H                  ; B=H
2166+ A898 65             LD H,L                  ; H=L
2167+ A899 76             HALT                    ; Wait for the next interrupt
2168+ A89A 69             LD L,C                  ; L=C
2169+ A89B 63             LD H,E                  ; H=E
2170+ A89C 65             LD H,L                  ; H=L
2171+ A89D 20 6F          JR NZ,#A90E             ; Jump to A90E if the zero flag is not set
2172+ A89F 72             LD (HL),D               ; POKE HL,D
2173+ A8A0 20 46          JR NZ,L9B7C_176         ; Jump to L9B7C_176 if the zero flag is not set
2174+ A8A2 41             LD B,C                  ; B=C
2175+ A8A3 54             LD D,H                  ; D=H
2176+ A8A4 33             INC SP                  ; SP=SP+1
2177+ A8A5 32 20 4E       LD (#4E20),A            ; POKE #4E20,A
2178+ A8A8 4F             LD C,A                  ; C=A
2179+ A8A9 54             LD D,H                  ; D=H
2180+ A8AA 20 46          JR NZ,L9B7C_177         ; Jump to L9B7C_177 if the zero flag is not set
2181+ A8AC 4F             LD C,A                  ; C=A
2182+ A8AD 55             LD D,L                  ; D=L
2183+ A8AE 4E             LD C,(HL)               ; C=PEEK HL
2184+ A8AF 44             LD B,H                  ; B=H
2185+ A8B0 21 49 4E       LD HL,#4E49             ; HL=#4E49
2186+ A8B3 49             LD C,C                  ; Do nothing
2187+ A8B4 20 46          JR NZ,L9B7C_178         ; Jump to L9B7C_178 if the zero flag is not set
2188+ A8B6 69             LD L,C                  ; L=C
2189+ A8B7 6C             LD L,H                  ; L=H
2190+ A8B8              L9B7C_173:
2191+ A8B8 65             LD H,L                  ; H=L
2192+ A8B9 20 45          JR NZ,L9B7C_179         ; Jump to L9B7C_179 if the zero flag is not set
2193+ A8BB 52             LD D,D                  ; Do nothing
2194+ A8BC 52             LD D,D                  ; Do nothing
2195+ A8BD 4F             LD C,A                  ; C=A
2196+ A8BE 52             LD D,D                  ; Do nothing
2197+ A8BF 3A 57 43       LD A,(#4357)            ; A=PEEK #4357
2198+ A8C2 20 66          JR NZ,#A92A             ; Jump to A92A if the zero flag is not set
2199+ A8C4 6F             LD L,A                  ; L=A
2200+ A8C5 6C             LD L,H                  ; L=H
2201+ A8C6 64             LD H,H                  ; Do nothing
2202+ A8C7 65             LD H,L                  ; H=L
2203+ A8C8 72             LD (HL),D               ; POKE HL,D
2204+ A8C9 20 6E          JR NZ,L9B7C_181         ; Jump to L9B7C_181 if the zero flag is not set
2205+ A8CB 6F             LD L,A                  ; L=A
2206+ A8CC 74             LD (HL),H               ; POKE HL,H
2207+ A8CD 20 66          JR NZ,#A935             ; Jump to A935 if the zero flag is not set
2208+ A8CF              L9B7C_174:
2209+ A8CF 6F             LD L,A                  ; L=A
2210+ A8D0 75             LD (HL),L               ; POKE HL,L
2211+ A8D1 6E             LD L,(HL)               ; L=PEEK HL
2212+ A8D2 64             LD H,H                  ; Do nothing
2213+ A8D3 21 57 43       LD HL,#4357             ; HL=#4357
2214+ A8D6 2E 49          LD L,#49                ; L=#49
2215+ A8D8              L9B7C_175:
2216+ A8D8 4E             LD C,(HL)               ; C=PEEK HL
2217+ A8D9 49             LD C,C                  ; Do nothing
2218+ A8DA 20 6E          JR NZ,#A94A             ; Jump to A94A if the zero flag is not set
2219+ A8DC 6F             LD L,A                  ; L=A
2220+ A8DD 74             LD (HL),H               ; POKE HL,H
2221+ A8DE 20 66          JR NZ,#A946             ; Jump to A946 if the zero flag is not set
2222+ A8E0 6F             LD L,A                  ; L=A
2223+ A8E1 75             LD (HL),L               ; POKE HL,L
2224+ A8E2 6E             LD L,(HL)               ; L=PEEK HL
2225+ A8E3 64             LD H,H                  ; Do nothing
2226+ A8E4 21 49 4E       LD HL,#4E49             ; HL=#4E49
2227+ A8E7 49             LD C,C                  ; Do nothing
2228+ A8E8              L9B7C_176:
2229+ A8E8 20 66          JR NZ,#A950             ; Jump to A950 if the zero flag is not set
2230+ A8EA 69             LD L,C                  ; L=C
2231+ A8EB 6C             LD L,H                  ; L=H
2232+ A8EC 65             LD H,L                  ; H=L
2233+ A8ED 20 63          JR NZ,L9B7C_182         ; Jump to L9B7C_182 if the zero flag is not set
2234+ A8EF 6F             LD L,A                  ; L=A
2235+ A8F0 72             LD (HL),D               ; POKE HL,D
2236+ A8F1 72             LD (HL),D               ; POKE HL,D
2237+ A8F2              L9B7C_177:
2238+ A8F2 75             LD (HL),L               ; POKE HL,L
2239+ A8F3 70             LD (HL),B               ; POKE HL,B
2240+ A8F4 74             LD (HL),H               ; POKE HL,H
2241+ A8F5 65             LD H,L                  ; H=L
2242+ A8F6 64             LD H,H                  ; Do nothing
2243+ A8F7 21 04 04       LD HL,#0404             ; HL=#0404
2244+ A8FA 3E 6C          LD A,#6C                ; A=#6C
2245+ A8FC              L9B7C_178:
2246+ A8FC 6F             LD L,A                  ; L=A
2247+ A8FD 61             LD H,C                  ; H=C
2248+ A8FE 64             LD H,H                  ; Do nothing
2249+ A8FF 69             LD L,C                  ; L=C
2250+ A900              L9B7C_179:
2251+ A900 6E             LD L,(HL)               ; L=PEEK HL
2252+ A901 67             LD H,A                  ; H=A
2253+ A902 20 70          JR NZ,L9B7C_185         ; Jump to L9B7C_185 if the zero flag is not set
2254+ A904 6C             LD L,H                  ; L=H
2255+ A905 75             LD (HL),L               ; POKE HL,L
2256+ A906 67             LD H,A                  ; H=A
2257+ A907 69             LD L,C                  ; L=C
2258+ A908 6E             LD L,(HL)               ; L=PEEK HL
2259+ A909 73             LD (HL),E               ; POKE HL,E
2260+ A90A 00             NOP                     ; Do nothing
2261+ A90B 02             LD (BC),A               ; POKE BC,A
2262+ A90C DA A9 20       JP C,#20A9              ; Jump to 20A9 if the carry flag is set
2263+ A90F 20 20          JR NZ,L9B7C_180         ; Jump to L9B7C_180 if the zero flag is not set
2264+ A911 20 43          JR NZ,#A956             ; Jump to A956 if the zero flag is not set
2265+ A913 50             LD D,B                  ; D=B
2266+ A914 55             LD D,L                  ; D=L
2267+ A915 20 53          JR NZ,L9B7C_183         ; Jump to L9B7C_183 if the zero flag is not set
2268+ A917 70             LD (HL),B               ; POKE HL,B
2269+ A918 65             LD H,L                  ; H=L
2270+ A919 65             LD H,L                  ; H=L
2271+ A91A 64             LD H,H                  ; Do nothing
2272+ A91B 3A 20 00       LD A,(#0020)            ; A=PEEK #0020
2273+ A91E 01 F1 A9       LD BC,#A9F1             ; BC=#A9F1
2274+ A921 52             LD D,D                  ; Do nothing
2275+ A922 65             LD H,L                  ; H=L
2276+ A923 6D             LD L,L                  ; Do nothing
2277+ A924 65             LD H,L                  ; H=L
2278+ A925 6D             LD L,L                  ; Do nothing
2279+ A926 62             LD H,D                  ; H=D
2280+ A927 65             LD H,L                  ; H=L
2281+ A928 72             LD (HL),D               ; POKE HL,D
2282+ A929 20 64          JR NZ,#A98F             ; Jump to A98F if the zero flag is not set
2283+ A92B 69             LD L,C                  ; L=C
2284+ A92C 72             LD (HL),D               ; POKE HL,D
2285+ A92D 73             LD (HL),E               ; POKE HL,E
2286+ A92E 3A 20 00       LD A,(#0020)            ; A=PEEK #0020
2287+ A931              L9B7C_180:
2288+ A931 01 F1 A9       LD BC,#A9F1             ; BC=#A9F1
2289+ A934 20 20          JR NZ,#A956             ; Jump to A956 if the zero flag is not set
2290+ A936 53             LD D,E                  ; D=E
2291+ A937 61             LD H,C                  ; H=C
2292+ A938 76             HALT                    ; Wait for the next interrupt
2293+ A939              L9B7C_181:
2294+ A939 65             LD H,L                  ; H=L
2295+ A93A 20 43          JR NZ,#A97F             ; Jump to A97F if the zero flag is not set
2296+ A93C 75             LD (HL),L               ; POKE HL,L
2297+ A93D 72             LD (HL),D               ; POKE HL,D
2298+ A93E 73             LD (HL),E               ; POKE HL,E
2299+ A93F 6F             LD L,A                  ; L=A
2300+ A940 72             LD (HL),D               ; POKE HL,D
2301+ A941 3A 20 00       LD A,(#0020)            ; A=PEEK #0020
2302+ A944 01 F9 A9       LD BC,#A9F9             ; BC=#A9F9
2303+ A947 20 20          JR NZ,#A969             ; Jump to A969 if the zero flag is not set
2304+ A949 20 20          JR NZ,L9B7C_184         ; Jump to L9B7C_184 if the zero flag is not set
2305+ A94B 54             LD D,H                  ; D=H
2306+ A94C 45             LD B,L                  ; B=L
2307+ A94D 58             LD E,B                  ; E=B
2308+ A94E 54             LD D,H                  ; D=H
2309+ A94F 20 4D          JR NZ,#A99E             ; Jump to A99E if the zero flag is not set
2310+ A951 6F             LD L,A                  ; L=A
2311+ A952              L9B7C_182:
2312+ A952 64             LD H,H                  ; Do nothing
2313+ A953 65             LD H,L                  ; H=L
2314+ A954 3A 20 00       LD A,(#0020)            ; A=PEEK #0020
2315+ A957 03             INC BC                  ; BC=BC+1
2316+ A958 0A             LD A,(BC)               ; A=PEEK BC
2317+ A959 AA             XOR D                   ; A=A^D
2318+ A95A 20 20          JR NZ,#A97C             ; Jump to A97C if A>0
2319+ A95C 53             LD D,E                  ; D=E
2320+ A95D 63             LD H,E                  ; H=E
2321+ A95E 72             LD (HL),D               ; POKE HL,D
2322+ A95F 65             LD H,L                  ; H=L
2323+ A960 65             LD H,L                  ; H=L
2324+ A961 6E             LD L,(HL)               ; L=PEEK HL
2325+ A962 53             LD D,E                  ; D=E
2326+ A963 61             LD H,C                  ; H=C
2327+ A964 76             HALT                    ; Wait for the next interrupt
2328+ A965 65             LD H,L                  ; H=L
2329+ A966 72             LD (HL),D               ; POKE HL,D
2330+ A967 3A 20 00       LD A,(#0020)            ; A=PEEK #0020
2331+ A96A              L9B7C_183:
2332+ A96A 00             NOP                     ; Do nothing
2333+ A96B              L9B7C_184:
2334+ A96B 72             LD (HL),D               ; POKE HL,D
2335+ A96C AA             XOR D                   ; A=A^D
2336+ A96D 20 20          JR NZ,#A98F             ; Jump to A98F if A>0
2337+ A96F 20 54          JR NZ,L9B7C_188         ; Jump to L9B7C_188 if the zero flag is not set
2338+ A971 69             LD L,C                  ; L=C
2339+ A972 74             LD (HL),H               ; POKE HL,H
2340+ A973 6C             LD L,H                  ; L=H
2341+ A974              L9B7C_185:
2342+ A974 65             LD H,L                  ; H=L
2343+ A975 20 4C          JR NZ,#A9C3             ; Jump to A9C3 if the zero flag is not set
2344+ A977 6F             LD L,A                  ; L=A
2345+ A978 67             LD H,A                  ; H=A
2346+ A979 6F             LD L,A                  ; L=A
2347+ A97A 3A 20 00       LD A,(#0020)            ; A=PEEK #0020
2348+ A97D FF             RST #38                 ; CALL 0038
2349+ A97E 01 2A AA       LD BC,#AA2A             ; BC=#AA2A
2350+ A981 20 20          JR NZ,L9B7C_186         ; Jump to L9B7C_186 if the zero flag is not set
2351+ A983 20 44          JR NZ,#A9C9             ; Jump to A9C9 if the zero flag is not set
2352+ A985 72             LD (HL),D               ; POKE HL,D
2353+ A986 69             LD L,C                  ; L=C
2354+ A987 76             HALT                    ; Wait for the next interrupt
2355+ A988 65             LD H,L                  ; H=L
2356+ A989 72             LD (HL),D               ; POKE HL,D
2357+ A98A 3A 20 00       LD A,(#0020)            ; A=PEEK #0020
2358+ A98D 01 72 AA       LD BC,#AA72             ; BC=#AA72
2359+ A990 46             LD B,(HL)               ; B=PEEK HL
2360+ A991 69             LD L,C                  ; L=C
2361+ A992 6C             LD L,H                  ; L=H
2362+ A993 65             LD H,L                  ; H=L
2363+ A994 20 49          JR NZ,L9B7C_190         ; Jump to L9B7C_190 if the zero flag is not set
2364+ A996 6E             LD L,(HL)               ; L=PEEK HL
2365+ A997 66             LD H,(HL)               ; H=PEEK HL
2366+ A998 6F             LD L,A                  ; L=A
2367+ A999 3A 20 00       LD A,(#0020)            ; A=PEEK #0020
2368+ A99C 01 84 AA       LD BC,#AA84             ; BC=#AA84
2369+ A99F 20 20          JR NZ,L9B7C_187         ; Jump to L9B7C_187 if the zero flag is not set
2370+ A9A1 53             LD D,E                  ; D=E
2371+ A9A2 6F             LD L,A                  ; L=A
2372+ A9A3              L9B7C_186:
2373+ A9A3 72             LD (HL),D               ; POKE HL,D
2374+ A9A4 74             LD (HL),H               ; POKE HL,H
2375+ A9A5 69             LD L,C                  ; L=C
2376+ A9A6 6E             LD L,(HL)               ; L=PEEK HL
2377+ A9A7 67             LD H,A                  ; H=A
2378+ A9A8 3A 20 00       LD A,(#0020)            ; A=PEEK #0020
2379+ A9AB FF             RST #38                 ; CALL 0038
2380+ A9AC 01 2A AA       LD BC,#AA2A             ; BC=#AA2A
2381+ A9AF 20 20          JR NZ,L9B7C_189         ; Jump to L9B7C_189 if the zero flag is not set
2382+ A9B1 20 44          JR NZ,L9B7C_193         ; Jump to L9B7C_193 if the zero flag is not set
2383+ A9B3 72             LD (HL),D               ; POKE HL,D
2384+ A9B4 69             LD L,C                  ; L=C
2385+ A9B5 76             HALT                    ; Wait for the next interrupt
2386+ A9B6 65             LD H,L                  ; H=L
2387+ A9B7 72             LD (HL),D               ; POKE HL,D
2388+ A9B8 3A 20 00       LD A,(#0020)            ; A=PEEK #0020
2389+ A9BB 01 72 AA       LD BC,#AA72             ; BC=#AA72
2390+ A9BE 46             LD B,(HL)               ; B=PEEK HL
2391+ A9BF 69             LD L,C                  ; L=C
2392+ A9C0 6C             LD L,H                  ; L=H
2393+ A9C1              L9B7C_187:
2394+ A9C1 65             LD H,L                  ; H=L
2395+ A9C2 20 49          JR NZ,L9B7C_194         ; Jump to L9B7C_194 if the zero flag is not set
2396+ A9C4 6E             LD L,(HL)               ; L=PEEK HL
2397+ A9C5              L9B7C_188:
2398+ A9C5 66             LD H,(HL)               ; H=PEEK HL
2399+ A9C6 6F             LD L,A                  ; L=A
2400+ A9C7 3A 20 00       LD A,(#0020)            ; A=PEEK #0020
2401+ A9CA 01 84 AA       LD BC,#AA84             ; BC=#AA84
2402+ A9CD 20 20          JR NZ,L9B7C_191         ; Jump to L9B7C_191 if the zero flag is not set
2403+ A9CF 53             LD D,E                  ; D=E
2404+ A9D0 6F             LD L,A                  ; L=A
2405+ A9D1              L9B7C_189:
2406+ A9D1 72             LD (HL),D               ; POKE HL,D
2407+ A9D2 74             LD (HL),H               ; POKE HL,H
2408+ A9D3 69             LD L,C                  ; L=C
2409+ A9D4 6E             LD L,(HL)               ; L=PEEK HL
2410+ A9D5 67             LD H,A                  ; H=A
2411+ A9D6 3A 20 00       LD A,(#0020)            ; A=PEEK #0020
2412+ A9D9 FF             RST #38                 ; CALL 0038
2413+ A9DA 03             INC BC                  ; BC=BC+1
2414+ A9DB 07             RLCA                    ; Rotate A left circular (copying bit 7 into bit 0
2415+ A9DC                                        ; and into the carry flag)
2416+ A9DC 33             INC SP                  ; SP=SP+1
2417+ A9DD 2E 35          LD L,#35                ; L=#35
2418+ A9DF              L9B7C_190:
2419+ A9DF 20 4D          JR NZ,L9B7C_196         ; Jump to L9B7C_196 if the zero flag is not set
2420+ A9E1 48             LD C,B                  ; C=B
2421+ A9E2 7A             LD A,D                  ; A=D
2422+ A9E3 37             SCF                     ; Set the carry flag
2423+ A9E4 20 4D          JR NZ,L9B7C_198         ; Jump to L9B7C_198 if the zero flag is not set
2424+ A9E6 48             LD C,B                  ; C=B
2425+ A9E7 7A             LD A,D                  ; A=D
2426+ A9E8 20 20          JR NZ,#AA0A             ; Jump to AA0A if the zero flag is not set
2427+ A9EA 31 34 20       LD SP,#2034             ; SP=#2034
2428+ A9ED 4D             LD C,L                  ; C=L
2429+ A9EE 48             LD C,B                  ; C=B
2430+ A9EF              L9B7C_191:
2431+ A9EF 7A             LD A,D                  ; A=D
2432+ A9F0 20 02          JR NZ,L9B7C_192         ; Jump to L9B7C_192 if the zero flag is not set
2433+ A9F2 03             INC BC                  ; BC=BC+1
2434+ A9F3 4E             LD C,(HL)               ; C=PEEK HL
2435+ A9F4              L9B7C_192:
2436+ A9F4 4F             LD C,A                  ; C=A
2437+ A9F5 20 59          JR NZ,L9B7C_200         ; Jump to L9B7C_200 if the zero flag is not set
2438+ A9F7              L9B7C_193:
2439+ A9F7 45             LD B,L                  ; B=L
2440+ A9F8 53             LD D,E                  ; D=E
2441+ A9F9 03             INC BC                  ; BC=BC+1
2442+ A9FA 05             DEC B                   ; B=B-1
2443+ A9FB 38 30          JR C,L9B7C_195          ; Jump to L9B7C_195 if the carry flag is set
2444+ A9FD 78             LD A,B                  ; A=B
2445+ A9FE 32 35 38       LD (#3835),A            ; POKE #3835,A
2446+ AA01 30 78          JR NC,L9B7C_204         ; Jump to L9B7C_204 if the carry flag is not set
2447+ AA03 33             INC SP                  ; SP=SP+1
2448+ AA04 30 39          JR NC,L9B7C_199         ; Jump to L9B7C_199 if the carry flag is not set
2449+ AA06 30 78          JR NC,L9B7C_205         ; Jump to L9B7C_205 if the carry flag is not set
2450+ AA08 33             INC SP                  ; SP=SP+1
2451+ AA09 36 06          LD (HL),#06             ; POKE HL,#06
2452+ AA0B 05             DEC B                   ; B=B-1
2453+ AA0C 4F             LD C,A                  ; C=A
2454+ AA0D              L9B7C_194:
2455+ AA0D 66             LD H,(HL)               ; H=PEEK HL
2456+ AA0E 66             LD H,(HL)               ; H=PEEK HL
2457+ AA0F 20 20          JR NZ,L9B7C_197         ; Jump to L9B7C_197 if the zero flag is not set
2458+ AA11 31 20 6D       LD SP,#6D20             ; SP=#6D20
2459+ AA14 69             LD L,C                  ; L=C
2460+ AA15 6E             LD L,(HL)               ; L=PEEK HL
2461+ AA16 32 20 6D       LD (#6D20),A            ; POKE #6D20,A
2462+ AA19 69             LD L,C                  ; L=C
2463+ AA1A 6E             LD L,(HL)               ; L=PEEK HL
2464+ AA1B 33             INC SP                  ; SP=SP+1
2465+ AA1C 20 6D          JR NZ,L9B7C_207         ; Jump to L9B7C_207 if the zero flag is not set
2466+ AA1E 69             LD L,C                  ; L=C
2467+ AA1F 6E             LD L,(HL)               ; L=PEEK HL
2468+ AA20 34             INC (HL)                ; POKE HL,(PEEK HL)+1
2469+ AA21 20 6D          JR NZ,#AA90             ; Jump to AA90 if (PEEK HL)>0
2470+ AA23 69             LD L,C                  ; L=C
2471+ AA24 6E             LD L,(HL)               ; L=PEEK HL
2472+ AA25 35             DEC (HL)                ; POKE HL,(PEEK HL)-1
2473+ AA26 20 6D          JR NZ,L9B7C_210         ; Jump to L9B7C_210 if (PEEK HL)>0
2474+ AA28 69             LD L,C                  ; L=C
2475+ AA29 6E             LD L,(HL)               ; L=PEEK HL
2476+ AA2A 07             RLCA                    ; Rotate A left circular (copying bit 7 into bit 0
2477+ AA2B                                        ; and into the carry flag)
2478+ AA2B 0A             LD A,(BC)               ; A=PEEK BC
2479+ AA2C 49             LD C,C                  ; Do nothing
2480+ AA2D              L9B7C_195:
2481+ AA2D 44             LD B,H                  ; B=H
2482+ AA2E              L9B7C_196:
2483+ AA2E 45             LD B,L                  ; B=L
2484+ AA2F 6E             LD L,(HL)               ; L=PEEK HL
2485+ AA30 65             LD H,L                  ; H=L
2486+ AA31              L9B7C_197:
2487+ AA31 6D             LD L,L                  ; Do nothing
2488+ AA32 6F             LD L,A                  ; L=A
2489+ AA33              L9B7C_198:
2490+ AA33 4D             LD C,L                  ; C=L
2491+ AA34 61             LD H,C                  ; H=C
2492+ AA35 73             LD (HL),E               ; POKE HL,E
2493+ AA36 53             LD D,E                  ; D=E
2494+ AA37 44             LD B,H                  ; B=H
2495+ AA38 20 28          JR NZ,L9B7C_202         ; Jump to L9B7C_202 if the zero flag is not set
2496+ AA3A 5A             LD E,D                  ; E=D
2497+ AA3B 43             LD B,E                  ; B=E
2498+ AA3C 29             ADD HL,HL               ; HL=HL+HL
2499+ AA3D 20 20          JR NZ,L9B7C_201         ; Jump to L9B7C_201 if the zero flag is not set
2500+ AA3F              L9B7C_199:
2501+ AA3F 20 53          JR NZ,L9B7C_209         ; Jump to L9B7C_209 if the zero flag is not set
2502+ AA41 44             LD B,H                  ; B=H
2503+ AA42 20 28          JR NZ,#AA6C             ; Jump to AA6C if the zero flag is not set
2504+ AA44 4E             LD C,(HL)               ; C=PEEK HL
2505+ AA45 47             LD B,A                  ; B=A
2506+ AA46 53             LD D,E                  ; D=E
2507+ AA47 29             ADD HL,HL               ; HL=HL+HL
2508+ AA48 20 20          JR NZ,L9B7C_203         ; Jump to L9B7C_203 if the zero flag is not set
2509+ AA4A 49             LD C,C                  ; Do nothing
2510+ AA4B 44             LD B,H                  ; B=H
2511+ AA4C 45             LD B,L                  ; B=L
2512+ AA4D 73             LD (HL),E               ; POKE HL,E
2513+ AA4E 6D             LD L,L                  ; Do nothing
2514+ AA4F 75             LD (HL),L               ; POKE HL,L
2515+ AA50              L9B7C_200:
2516+ AA50 63             LD H,E                  ; H=E
2517+ AA51 4D             LD C,L                  ; C=L
2518+ AA52 61             LD H,C                  ; H=C
2519+ AA53 73             LD (HL),E               ; POKE HL,E
2520+ AA54 49             LD C,C                  ; Do nothing
2521+ AA55 44             LD B,H                  ; B=H
2522+ AA56 45             LD B,L                  ; B=L
2523+ AA57 73             LD (HL),E               ; POKE HL,E
2524+ AA58 6D             LD L,L                  ; Do nothing
2525+ AA59 75             LD (HL),L               ; POKE HL,L
2526+ AA5A 63             LD H,E                  ; H=E
2527+ AA5B 53             LD D,E                  ; D=E
2528+ AA5C 6C             LD L,H                  ; L=H
2529+ AA5D 61             LD H,C                  ; H=C
2530+ AA5E 49             LD C,C                  ; Do nothing
2531+ AA5F              L9B7C_201:
2532+ AA5F 44             LD B,H                  ; B=H
2533+ AA60 45             LD B,L                  ; B=L
2534+ AA61 6E             LD L,(HL)               ; L=PEEK HL
2535+ AA62              L9B7C_202:
2536+ AA62 65             LD H,L                  ; H=L
2537+ AA63 6D             LD L,L                  ; Do nothing
2538+ AA64 6F             LD L,A                  ; L=A
2539+ AA65 53             LD D,E                  ; D=E
2540+ AA66 6C             LD L,H                  ; L=H
2541+ AA67 61             LD H,C                  ; H=C
2542+ AA68 53             LD D,E                  ; D=E
2543+ AA69 44             LD B,H                  ; B=H
2544+ AA6A              L9B7C_203:
2545+ AA6A 32 20 28       LD (#2820),A            ; POKE #2820,A
2546+ AA6D 5A             LD E,D                  ; E=D
2547+ AA6E 43             LD B,E                  ; B=E
2548+ AA6F 29             ADD HL,HL               ; HL=HL+HL
2549+ AA70 20 20          JR NZ,L9B7C_208         ; Jump to L9B7C_208 if the zero flag is not set
2550+ AA72 02             LD (BC),A               ; POKE BC,A
2551+ AA73 08             EX AF,AF'               ; Exchange AF and AF'
2552+ AA74 44             LD B,H                  ; B=H
2553+ AA75 69             LD L,C                  ; L=C
2554+ AA76 73             LD (HL),E               ; POKE HL,E
2555+ AA77 61             LD H,C                  ; H=C
2556+ AA78 62             LD H,D                  ; H=D
2557+ AA79 6C             LD L,H                  ; L=H
2558+ AA7A 65             LD H,L                  ; H=L
2559+ AA7B              L9B7C_204:
2560+ AA7B 64             LD H,H                  ; Do nothing
2561+ AA7C 45             LD B,L                  ; B=L
2562+ AA7D 6E             LD L,(HL)               ; L=PEEK HL
2563+ AA7E 61             LD H,C                  ; H=C
2564+ AA7F 62             LD H,D                  ; H=D
2565+ AA80              L9B7C_205:
2566+ AA80 6C             LD L,H                  ; L=H
2567+ AA81 65             LD H,L                  ; H=L
2568+ AA82 64             LD H,H                  ; Do nothing
2569+ AA83 20 04          JR NZ,L9B7C_206         ; Jump to L9B7C_206 if the zero flag is not set
2570+ AA85 07             RLCA                    ; Rotate A left circular (copying bit 7 into bit 0
2571+ AA86                                        ; and into the carry flag)
2572+ AA86 6F             LD L,A                  ; L=A
2573+ AA87 66             LD H,(HL)               ; H=PEEK HL
2574+ AA88 66             LD H,(HL)               ; H=PEEK HL
2575+ AA89              L9B7C_206:
2576+ AA89 20 20          JR NZ,L9B7C_211         ; Jump to L9B7C_211 if the zero flag is not set
2577+ AA8B              L9B7C_207:
2578+ AA8B 20 20          JR NZ,L9B7C_212         ; Jump to L9B7C_212 if the zero flag is not set
2579+ AA8D 62             LD H,D                  ; H=D
2580+ AA8E 79             LD A,C                  ; A=C
2581+ AA8F 20 6E          JR NZ,L9B7C_215         ; Jump to L9B7C_215 if the zero flag is not set
2582+ AA91 61             LD H,C                  ; H=C
2583+ AA92              L9B7C_208:
2584+ AA92 6D             LD L,L                  ; Do nothing
2585+ AA93 65             LD H,L                  ; H=L
2586+ AA94              L9B7C_209:
2587+ AA94 62             LD H,D                  ; H=D
2588+ AA95              L9B7C_210:
2589+ AA95 79             LD A,C                  ; A=C
2590+ AA96 20 65          JR NZ,L9B7C_213         ; Jump to L9B7C_213 if the zero flag is not set
2591+ AA98 78             LD A,B                  ; A=B
2592+ AA99 74             LD (HL),H               ; POKE HL,H
2593+ AA9A 20 62          JR NZ,L9B7C_214         ; Jump to L9B7C_214 if the zero flag is not set
2594+ AA9C 79             LD A,C                  ; A=C
2595+ AA9D 20 73          JR NZ,L9B7C_216         ; Jump to L9B7C_216 if the zero flag is not set
2596+ AA9F 69             LD L,C                  ; L=C
2597+ AAA0 7A             LD A,D                  ; A=D
2598+ AAA1 65             LD H,L                  ; H=L
2599+ AAA2 53             LD D,E                  ; D=E
2600+ AAA3 45             LD B,L                  ; B=L
2601+ AAA4 54             LD D,H                  ; D=H
2602+ AAA5 55             LD D,L                  ; D=L
2603+ AAA6 50             LD D,B                  ; D=B
2604+ AAA7 00             NOP                     ; Do nothing
2605+ AAA8 C9             RET                     ; Return
2606+ AAA9 A3             AND E                   ; A=A&E
2607+ AAAA 50             LD D,B                  ; D=B
2608+ AAAB              L9B7C_211:
2609+ AAAB 4C             LD C,H                  ; C=H
2610+ AAAC 55             LD D,L                  ; D=L
2611+ AAAD              L9B7C_212:
2612+ AAAD 47             LD B,A                  ; B=A
2613+ AAAE 49             LD C,C                  ; Do nothing
2614+ AAAF 4E             LD C,(HL)               ; C=PEEK HL
2615+ AAB0 53             LD D,E                  ; D=E
2616+ AAB1 00             NOP                     ; Do nothing
2617+ AAB2 29             ADD HL,HL               ; HL=HL+HL
2618+ AAB3 A3             AND E                   ; A=A&E
2619+ AAB4 4C             LD C,H                  ; C=H
2620+ AAB5 50             LD D,B                  ; D=B
2621+ AAB6 41             LD B,C                  ; B=C
2622+ AAB7 4E             LD C,(HL)               ; C=PEEK HL
2623+ AAB8 45             LD B,L                  ; B=L
2624+ AAB9 4C             LD C,H                  ; C=H
2625+ AABA 00             NOP                     ; Do nothing
2626+ AABB 51             LD D,C                  ; D=C
2627+ AABC A3             AND E                   ; A=A&E
2628+ AABD 52             LD D,D                  ; Do nothing
2629+ AABE 50             LD D,B                  ; D=B
2630+ AABF 41             LD B,C                  ; B=C
2631+ AAC0 4E             LD C,(HL)               ; C=PEEK HL
2632+ AAC1 45             LD B,L                  ; B=L
2633+ AAC2 4C             LD C,H                  ; C=H
2634+ AAC3 00             NOP                     ; Do nothing
2635+ AAC4 56             LD D,(HL)               ; D=PEEK HL
2636+ AAC5 A3             AND E                   ; A=A&E
2637+ AAC6 FF             RST #38                 ; CALL 0038
2638+ AAC7 44             LD B,H                  ; B=H
2639+ AAC8 52             LD D,D                  ; Do nothing
2640+ AAC9 56             LD D,(HL)               ; D=PEEK HL
2641+ AACA 00             NOP                     ; Do nothing
2642+ AACB 94             SUB H                   ; A=A-H
2643+ AACC A3             AND E                   ; A=A&E
2644+ AACD 49             LD C,C                  ; Do nothing
2645+ AACE 4E             LD C,(HL)               ; C=PEEK HL
2646+ AACF 46             LD B,(HL)               ; B=PEEK HL
2647+ AAD0 4F             LD C,A                  ; C=A
2648+ AAD1 00             NOP                     ; Do nothing
2649+ AAD2 A5             AND L                   ; A=A&L
2650+ AAD3 A3             AND E                   ; A=A&E
2651+ AAD4 43             LD B,E                  ; B=E
2652+ AAD5 53             LD D,E                  ; D=E
2653+ AAD6 4F             LD C,A                  ; C=A
2654+ AAD7 52             LD D,D                  ; Do nothing
2655+ AAD8 54             LD D,H                  ; D=H
2656+ AAD9 00             NOP                     ; Do nothing
2657+ AADA B3             OR E                    ; A=A|E
2658+ AADB A3             AND E                   ; A=A&E
2659+ AADC FF             RST #38                 ; CALL 0038
2660+ AADD 43             LD B,E                  ; B=E
2661+ AADE 50             LD D,B                  ; D=B
2662+ AADF 55             LD D,L                  ; D=L
2663+ AAE0 5F             LD E,A                  ; E=A
2664+ AAE1 46             LD B,(HL)               ; B=PEEK HL
2665+ AAE2 52             LD D,D                  ; Do nothing
2666+ AAE3 45             LD B,L                  ; B=L
2667+ AAE4 51             LD D,C                  ; D=C
2668+ AAE5 00             NOP                     ; Do nothing
2669+ AAE6 D8             RET C                   ; Return if the carry flag is set
2670+ AAE7 A3             AND E                   ; A=A&E
2671+ AAE8 53             LD D,E                  ; D=E
2672+ AAE9 61             LD H,C                  ; H=C
2673+ AAEA 76             HALT                    ; Wait for the next interrupt
2674+ AAEB 65             LD H,L                  ; H=L
2675+ AAEC 50             LD D,B                  ; D=B
2676+ AAED 61             LD H,C                  ; H=C
2677+ AAEE 74             LD (HL),H               ; POKE HL,H
2678+ AAEF 68             LD L,B                  ; L=B
2679+ AAF0 73             LD (HL),E               ; POKE HL,E
2680+ AAF1 00             NOP                     ; Do nothing
2681+ AAF2 E3             EX (SP),HL              ; Exchange the last item on the stack with HL
2682+ AAF3 A3             AND E                   ; A=A&E
2683+ AAF4 53             LD D,E                  ; D=E
2684+ AAF5 61             LD H,C                  ; H=C
2685+ AAF6 76             HALT                    ; Wait for the next interrupt
2686+ AAF7 65             LD H,L                  ; H=L
2687+ AAF8 50             LD D,B                  ; D=B
2688+ AAF9 6F             LD L,A                  ; L=A
2689+ AAFA 73             LD (HL),E               ; POKE HL,E
2690+ AAFB 69             LD L,C                  ; L=C
2691+ AAFC 74             LD (HL),H               ; POKE HL,H
2692+ AAFD              L9B7C_213:
2693+ AAFD 69             LD L,C                  ; L=C
2694+ AAFE              L9B7C_214:
2695+ AAFE 6F             LD L,A                  ; L=A
2696+ AAFF              L9B7C_215:
2697+ AAFF 6E             LD L,(HL)               ; L=PEEK HL
2698+ AB00 00             NOP                     ; Do nothing
2699+ AB01 2C             INC L                   ; L=L+1
2700+ AB02 A4             AND H                   ; A=A&H
2701+ AB03 54             LD D,H                  ; D=H
2702+ AB04 65             LD H,L                  ; H=L
2703+ AB05 78             LD A,B                  ; A=B
2704+ AB06 74             LD (HL),H               ; POKE HL,H
2705+ AB07 4D             LD C,L                  ; C=L
2706+ AB08 6F             LD L,A                  ; L=A
2707+ AB09 64             LD H,H                  ; Do nothing
2708+ AB0A 65             LD H,L                  ; H=L
2709+ AB0B 00             NOP                     ; Do nothing
2710+ AB0C F0             RET P                   ; Return if the sign flag is not set (positive)
2711+ AB0D A3             AND E                   ; A=A&E
2712+ AB0E 53             LD D,E                  ; D=E
2713+ AB0F 63             LD H,E                  ; H=E
2714+ AB10 72             LD (HL),D               ; POKE HL,D
2715+ AB11 65             LD H,L                  ; H=L
2716+ AB12              L9B7C_216:
2717+ AB12 65             LD H,L                  ; H=L
2718+ AB13 6E             LD L,(HL)               ; L=PEEK HL
2719+ AB14 53             LD D,E                  ; D=E
2720+ AB15 61             LD H,C                  ; H=C
2721+ AB16 76             HALT                    ; Wait for the next interrupt
2722+ AB17 65             LD H,L                  ; H=L
2723+ AB18 72             LD (HL),D               ; POKE HL,D
2724+ AB19 00             NOP                     ; Do nothing
2725+ AB1A 3A A4 4C       LD A,(#4CA4)            ; A=PEEK #4CA4
2726+ AB1D 6F             LD L,A                  ; L=A
2727+ AB1E 67             LD H,A                  ; H=A
2728+ AB1F 6F             LD L,A                  ; L=A
2729+ AB20 00             NOP                     ; Do nothing
2730+ AB21 52             LD D,D                  ; Do nothing
2731+ AB22 A4             AND H                   ; A=A&H
2732+ AB23 FF             RST #38                 ; CALL 0038
2733+ AB24 53             LD D,E                  ; D=E
2734+ AB25 70             LD (HL),B               ; POKE HL,B
2735+ AB26 65             LD H,L                  ; H=L
2736+ AB27 63             LD H,E                  ; H=E
2737+ AB28 74             LD (HL),H               ; POKE HL,H
2738+ AB29 72             LD (HL),D               ; POKE HL,D
2739+ AB2A 75             LD (HL),L               ; POKE HL,L
2740+ AB2B 6D             LD L,L                  ; Do nothing
2741+ AB2C 50             LD D,B                  ; D=B
2742+ AB2D 72             LD (HL),D               ; POKE HL,D
2743+ AB2E 6F             LD L,A                  ; L=A
2744+ AB2F 67             LD H,A                  ; H=A
2745+ AB30 57             LD D,A                  ; D=A
2746+ AB31 69             LD L,C                  ; L=C
2747+ AB32 6C             LD L,H                  ; L=H
2748+ AB33 64             LD H,H                  ; Do nothing
2749+ AB34 43             LD B,E                  ; B=E
2750+ AB35 6F             LD L,A                  ; L=A
2751+ AB36 6D             LD L,L                  ; Do nothing
2752+ AB37 6D             LD L,L                  ; Do nothing
2753+ AB38 61             LD H,C                  ; H=C
2754+ AB39 6E             LD L,(HL)               ; L=PEEK HL
2755+ AB3A 64             LD H,H                  ; Do nothing
2756+ AB3B 65             LD H,L                  ; H=L
2757+ AB3C 72             LD (HL),D               ; POKE HL,D
2758+ AB3D 4D             LD C,L                  ; C=L
2759+ AB3E 44             LD B,H                  ; B=H
2760+ AB3F 4C             LD C,H                  ; C=H
2761+ AB40 57             LD D,A                  ; D=A
2762+ AB41 69             LD L,C                  ; L=C
2763+ AB42 6C             LD L,H                  ; L=H
2764+ AB43 64             LD H,H                  ; Do nothing
2765+ AB44 20 43          JR NZ,#AB89             ; Jump to AB89 if the zero flag is not set
2766+ AB46 6F             LD L,A                  ; L=A
2767+ AB47 6D             LD L,L                  ; Do nothing
2768+ AB48 6D             LD L,L                  ; Do nothing
2769+ AB49 61             LD H,C                  ; H=C
2770+ AB4A 6E             LD L,(HL)               ; L=PEEK HL
2771+ AB4B 64             LD H,H                  ; Do nothing
2772+ AB4C 65             LD H,L                  ; H=L
2773+ AB4D 72             LD (HL),D               ; POKE HL,D
2774+ AB4E 20 76          JR NZ,#ABC6             ; Jump to ABC6 if the zero flag is not set
2775+ AB50 31 2E 31       LD SP,#312E             ; SP=#312E
2776+ AB53 49             LD C,C                  ; Do nothing
2777+ AB54 44             LD B,H                  ; B=H
2778+ AB55 45             LD B,L                  ; B=L
2779+ AB56 20 56          JR NZ,#ABAE             ; Jump to ABAE if the zero flag is not set
2780+ AB58 69             LD L,C                  ; L=C
2781+ AB59 64             LD H,H                  ; Do nothing
2782+ AB5A 65             LD H,L                  ; H=L
2783+ AB5B 6F             LD L,A                  ; L=A
2784+ AB5C 44             LD B,H                  ; B=H
2785+ AB5D 41             LD B,C                  ; B=C
2786+ AB5E 43             LD B,E                  ; B=E
2787+ AB5F 3A 20 64       LD A,(#6420)            ; A=PEEK #6420
2788+ AB62 65             LD H,L                  ; H=L
2789+ AB63 74             LD (HL),H               ; POKE HL,H
2790+ AB64 65             LD H,L                  ; H=L
2791+ AB65 63             LD H,E                  ; H=E
2792+ AB66 74             LD (HL),H               ; POKE HL,H
2793+ AB67 65             LD H,L                  ; H=L
2794+ AB68 64             LD H,H                  ; Do nothing
2795+ AB69 6E             LD L,(HL)               ; L=PEEK HL
2796+ AB6A 6F             LD L,A                  ; L=A
2797+ AB6B 6E             LD L,(HL)               ; L=PEEK HL
2798+ AB6C 65             LD H,L                  ; H=L
2799+ AB6D 20 20          JR NZ,#AB8F             ; Jump to AB8F if the zero flag is not set
2800+ AB6F 20 20          JR NZ,L9B7C_217         ; Jump to L9B7C_217 if the zero flag is not set
2801+ AB71 C5             PUSH BC                 ; Push BC onto the stack
2802+ AB72 CD 22 69       CALL L6011_123          ; CALL L6011_123
2803+ AB75 C1             POP BC                  ; Pop last item from stack into BC
2804+ AB76 E9             JP (HL)                 ; Jump to HL
2805+ AB77 00             NOP                     ; Do nothing
2806+ AB78 00             NOP                     ; Do nothing
2807+ AB79 22 89 AB       LD (#AB89),HL           ; POKE #AB89,L; POKE #AB8A,H
2808+ AB7C 2A 02 60       LD HL,(#6002)           ; L=PEEK #6002; H=PEEK #6003
2809+ AB7F C5             PUSH BC                 ; Push BC onto the stack
2810+ AB80 CD 22 69       CALL L6011_123          ; CALL L6011_123
2811+ AB83 C1             POP BC                  ; Pop last item from stack into BC
2812+ AB84 7D             LD A,L                  ; A=L
2813+ AB85 32 8C AB       LD (#AB8C),A            ; POKE #AB8C,A
2814+ AB88 CD 00 00       CALL #0000              ; CALL 0000
2815+ AB8B 3E 00          LD A,#00                ; A=#00
2816+ AB8D C5             PUSH BC                 ; Push BC onto the stack
2817+ AB8E CD 22 69       CALL L6011_123          ; CALL L6011_123
2818+ AB91              L9B7C_217:
2819+ AB91 C1             POP BC                  ; Pop last item from stack into BC
2820+ AB92 C9             RET                     ; Return
2821+ AB93              ; This entry point is used by the routine at L6011.
2822+ AB93              L9B7C_218:
2823+ AB93 21 71 AB       LD HL,#AB71             ; HL=#AB71
2824+ AB96 11 20 60       LD DE,#6020             ; DE=#6020
2825+ AB99 01 28 00       LD BC,#0028             ; BC=#0028
2826+ AB9C ED B0          LDIR                    ; POKE DE,PEEK HL; HL=HL+1; DE=DE+1; BC=BC-1; repeat
2827+ AB9E                                        ; until BC=0
2828+ AB9E C9             RET                     ; Return
2829+ AB9F
# file closed: WCINI_DISASM.ASM
  32  AB9F                      ASSERT $ == #AB9F, WCINI_DISASM.ASM boundary mismatch
  33  AB9F
  34  AB9F              ; Exact non-code inputs recovered from the shipped image.
  35  AB9F              LAB9F:
  36  AB9F              FONT32L3 EQU LAB9F
  37  AB9F                      INCBIN "FONT32L3.CDB"
  38  B39F                      ASSERT $ == #B39F, FONT32L3.CDB boundary mismatch
  39  B39F
  40  B39F              LB39F:
  41  B39F              DEHR1M EQU LB39F
  42  B39F                      INCBIN "DEHR1M.CCB"
  43  B4B6                      ASSERT $ == #B4B6, DEHR1M.CCB boundary mismatch
  44  B4B6
  45  B4B6              LB4B6:
  46  B4B6              MLZ50F EQU LB4B6
  47  B4B6                      INCBIN "MLZ50F.CCB"
  48  B59F                      ASSERT $ == #B59F, MLZ50F.CCB boundary mismatch
  49  B59F
  50  B59F              ; The shipped payload contains only zero bytes here; its purpose is unknown.
  51  B59F              LB59F:
  52  B59F 00 00 00...          DS #C000-$,0
  53  C000                      ASSERT $ == #C000, zero-filled gap boundary mismatch
  54  C000
  55  C000                      INCLUDE "WDOSFC35_CORE.ASM"
# file opened: WDOSFC35_CORE.ASM
   1+ C000              ; WildDOSFileCore loader
   2+ C000              ;
   3+ C000              ; Used by the routine at L6011.
   4+ C000              LC000:
   5+ C000 21 0C C0       LD HL,LC00C             ; HL=#C00C
   6+ C003 11 00 40       LD DE,#4000             ; DE=#4000
   7+ C006 01 C7 1B       LD BC,#1BC7             ; BC=#1BC7
   8+ C009 ED B0          LDIR                    ; POKE DE,PEEK HL; HL=HL+1; DE=DE+1; BC=BC-1; repeat
   9+ C00B                                        ; until BC=0
  10+ C00B C9             RET                     ; Return
  11+ C00C
  12+ C00C              ; WildDOSFileCore API jump table
  13+ C00C              LC00C:
  14+ C00C C3 62 43       JP #4362                ; Jump to 4362
  15+ C00F C3 03 38       JP #3803                ; Jump to 3803
  16+ C012 C3 62 43       JP #4362                ; Jump to 4362
  17+ C015 C3 A2 4E       JP #4EA2                ; Jump to 4EA2
  18+ C018 C3 79 43       JP #4379                ; Jump to 4379
  19+ C01B C3 81 43       JP #4381                ; Jump to 4381
  20+ C01E C3 0F 45       JP #450F                ; Jump to 450F
  21+ C021 C3 BF 43       JP #43BF                ; Jump to 43BF
  22+ C024 C3 AD 43       JP #43AD                ; Jump to 43AD
  23+ C027 C3 3B 50       JP #503B                ; Jump to 503B
  24+ C02A C3 63 43       JP #4363                ; Jump to 4363
  25+ C02D C3 70 43       JP #4370                ; Jump to 4370
  26+ C030 C3 5C 44       JP #445C                ; Jump to 445C
  27+ C033 C3 62 43       JP #4362                ; Jump to 4362
  28+ C036 C3 A6 48       JP #48A6                ; Jump to 48A6
  29+ C039 C3 62 43       JP #4362                ; Jump to 4362
  30+ C03C C3 FF 4D       JP #4DFF                ; Jump to 4DFF
  31+ C03F C3 51 43       JP #4351                ; Jump to 4351
  32+ C042 C3 5A 43       JP #435A                ; Jump to 435A
  33+ C045 C3 52 4D       JP #4D52                ; Jump to 4D52
  34+ C048 C3 78 4D       JP #4D78                ; Jump to 4D78
  35+ C04B C3 F8 4C       JP #4CF8                ; Jump to 4CF8
  36+ C04E C3 31 4D       JP #4D31                ; Jump to 4D31
  37+ C051 C3 E1 49       JP #49E1                ; Jump to 49E1
  38+ C054 C3 24 4E       JP #4E24                ; Jump to 4E24
  39+ C057 C3 62 43       JP #4362                ; Jump to 4362
  40+ C05A C3 63 4A       JP #4A63                ; Jump to 4A63
  41+ C05D C3 9B 43       JP #439B                ; Jump to 439B
  42+ C060 C3 89 43       JP #4389                ; Jump to 4389
  43+ C063 C3 40 41       JP #4140                ; Jump to 4140
  44+ C066 C3 67 40       JP #4067                ; Jump to 4067
  45+ C069
  46+ C069              ; CORE32 routines and tables
  47+ C069              LC069:
  48+ C069 7D             LD A,L                  ; A=L
  49+ C06A E6 F0          AND #F0                 ; Keep only bits 4, 5, 6 and 7 of A
  50+ C06C 6F             LD L,A                  ; L=A
  51+ C06D 0E 20          LD C,#20                ; C=#20
  52+ C06F 09             ADD HL,BC               ; HL=HL+BC
  53+ C070 C3 A6 40       JP #40A6                ; Jump to 40A6
  54+ C073 4F             LD C,A                  ; C=A
  55+ C074 AF             XOR A                   ; A=0
  56+ C075 CB 79          BIT 7,C                 ; Set the zero flag if bit 7 of C is 0
  57+ C077 28 01          JR Z,LC069_0            ; Jump to LC069_0 if bit 7 of C is reset
  58+ C079 3C             INC A                   ; A=A+1
  59+ C07A              LC069_0:
  60+ C07A 32 06 41       LD (#4106),A            ; POKE #4106,A
  61+ C07D AF             XOR A                   ; A=0
  62+ C07E CB 61          BIT 4,C                 ; Set the zero flag if bit 4 of C is 0
  63+ C080 28 01          JR Z,LC069_1            ; Jump to LC069_1 if bit 4 of C is reset
  64+ C082 3C             INC A                   ; A=A+1
  65+ C083              LC069_1:
  66+ C083 32 F3 40       LD (#40F3),A            ; POKE #40F3,A
  67+ C086 AF             XOR A                   ; A=0
  68+ C087 CB 59          BIT 3,C                 ; Set the zero flag if bit 3 of C is 0
  69+ C089 28 01          JR Z,LC069_2            ; Jump to LC069_2 if bit 3 of C is reset
  70+ C08B 3C             INC A                   ; A=A+1
  71+ C08C              LC069_2:
  72+ C08C 32 E8 40       LD (#40E8),A            ; POKE #40E8,A
  73+ C08F AF             XOR A                   ; A=0
  74+ C090 CB 51          BIT 2,C                 ; Set the zero flag if bit 2 of C is 0
  75+ C092 28 01          JR Z,LC069_3            ; Jump to LC069_3 if bit 2 of C is reset
  76+ C094 3C             INC A                   ; A=A+1
  77+ C095              LC069_3:
  78+ C095 32 D4 40       LD (#40D4),A            ; POKE #40D4,A
  79+ C098 79             LD A,C                  ; A=C
  80+ C099 E6 03          AND #03                 ; Keep only bits 0 and 1 of A
  81+ C09B 32 BC 40       LD (#40BC),A            ; POKE #40BC,A
  82+ C09E D5             PUSH DE                 ; Push DE onto the stack
  83+ C09F 3A FE 37       LD A,(#37FE)            ; A=PEEK #37FE
  84+ C0A2 B7             OR A                    ; Clear the carry flag and set the zero flag if A=0
  85+ C0A3 CC 37 43       CALL Z,#4337            ; CALL 4337 if A=0
  86+ C0A6 D1             POP DE                  ; Pop last item from stack into DE
  87+ C0A7 21 A1 40       LD HL,#40A1             ; HL=#40A1
  88+ C0AA 22 32 41       LD (#4132),HL           ; POKE #4132,L; POKE #4133,H
  89+ C0AD 2A FC 37       LD HL,(#37FC)           ; L=PEEK #37FC; H=PEEK #37FD
  90+ C0B0 06 00          LD B,#00                ; B=#00
  91+ C0B2 7C             LD A,H                  ; A=H
  92+ C0B3 FE 20          CP #20                  ; Set the zero flag if A=#20, or the carry flag if
  93+ C0B5                                        ; A<#20
  94+ C0B5 30 67          JR NC,LC069_11          ; Jump to LC069_11 if A>=#20
  95+ C0B7 7E             LD A,(HL)               ; A=PEEK HL
  96+ C0B8 B7             OR A                    ; Clear the carry flag and set the zero flag if A=0
  97+ C0B9 C8             RET Z                   ; Return if A=0
  98+ C0BA FE E5          CP #E5                  ; Set the zero flag if A=#E5, or the carry flag if
  99+ C0BC                                        ; A<#E5
 100+ C0BC 28 AB          JR Z,LC069              ; Jump to LC069 if A=#E5
 101+ C0BE 0E 0B          LD C,#0B                ; C=#0B
 102+ C0C0 09             ADD HL,BC               ; HL=HL+BC
 103+ C0C1 7E             LD A,(HL)               ; A=PEEK HL
 104+ C0C2 CB 5F          BIT 3,A                 ; Set the zero flag if bit 3 of A is 0
 105+ C0C4 20 A3          JR NZ,LC069             ; Jump to LC069 if bit 3 of A is set
 106+ C0C6 08             EX AF,AF'               ; Exchange AF and AF'
 107+ C0C7 3E 00          LD A,#00                ; A=#00
 108+ C0C9 B7             OR A                    ; Clear the carry flag and set the zero flag if A=0
 109+ C0CA 28 10          JR Z,LC069_7            ; Jump to LC069_7 if A=0
 110+ C0CC 3D             DEC A                   ; A=A-1
 111+ C0CD 20 07          JR NZ,LC069_4           ; Jump to LC069_4 if A>0
 112+ C0CF 08             EX AF,AF'               ; Exchange AF and AF'
 113+ C0D0 CB 67          BIT 4,A                 ; Set the zero flag if bit 4 of A is 0
 114+ C0D2 20 95          JR NZ,LC069             ; Jump to LC069 if bit 4 of A is set
 115+ C0D4 18 05          JR LC069_6              ; Jump to LC069_6
 116+ C0D6              LC069_4:
 117+ C0D6 08             EX AF,AF'               ; Exchange AF and AF'
 118+ C0D7 CB 67          BIT 4,A                 ; Set the zero flag if bit 4 of A is 0
 119+ C0D9              ; This entry point is used by the routine at L7828.
 120+ C0D9              LC069_5:
 121+ C0D9 28 8E          JR Z,LC069              ; Jump to LC069 if bit 4 of A is reset
 122+ C0DB              LC069_6:
 123+ C0DB 08             EX AF,AF'               ; Exchange AF and AF'
 124+ C0DC              LC069_7:
 125+ C0DC 0E 05          LD C,#05                ; C=#05
 126+ C0DE 09             ADD HL,BC               ; HL=HL+BC
 127+ C0DF 3E 00          LD A,#00                ; A=#00
 128+ C0E1 B7             OR A                    ; Clear the carry flag and set the zero flag if A=0
 129+ C0E2 28 0F          JR Z,LC069_8            ; Jump to LC069_8 if A=0
 130+ C0E4 0E 0C          LD C,#0C                ; C=#0C
 131+ C0E6 09             ADD HL,BC               ; HL=HL+BC
 132+ C0E7 ED A0          LDI                     ; POKE DE,PEEK HL; HL=HL+1; DE=DE+1; BC=BC-1
 133+ C0E9 ED A0          LDI                     ; POKE DE,PEEK HL; HL=HL+1; DE=DE+1; BC=BC-1
 134+ C0EB ED A0          LDI                     ; POKE DE,PEEK HL; HL=HL+1; DE=DE+1; BC=BC-1
 135+ C0ED ED A0          LDI                     ; POKE DE,PEEK HL; HL=HL+1; DE=DE+1; BC=BC-1
 136+ C0EF 0E 10          LD C,#10                ; C=#10
 137+ C0F1 ED 42          SBC HL,BC               ; HL=HL-carry-BC
 138+ C0F3              LC069_8:
 139+ C0F3 3E 00          LD A,#00                ; A=#00
 140+ C0F5 B7             OR A                    ; Clear the carry flag and set the zero flag if A=0
 141+ C0F6 28 06          JR Z,LC069_9            ; Jump to LC069_9 if A=0
 142+ C0F8 ED A0          LDI                     ; POKE DE,PEEK HL; HL=HL+1; DE=DE+1; BC=BC-1
 143+ C0FA ED A0          LDI                     ; POKE DE,PEEK HL; HL=HL+1; DE=DE+1; BC=BC-1
 144+ C0FC 2D             DEC L                   ; L=L-1
 145+ C0FD 2D             DEC L                   ; L=L-1
 146+ C0FE              LC069_9:
 147+ C0FE 3E 00          LD A,#00                ; A=#00
 148+ C100 B7             OR A                    ; Clear the carry flag and set the zero flag if A=0
 149+ C101 28 06          JR Z,LC069_10           ; Jump to LC069_10 if A=0
 150+ C103 2D             DEC L                   ; L=L-1
 151+ C104 2D             DEC L                   ; L=L-1
 152+ C105 ED A0          LDI                     ; POKE DE,PEEK HL; HL=HL+1; DE=DE+1; BC=BC-1
 153+ C107 ED A0          LDI                     ; POKE DE,PEEK HL; HL=HL+1; DE=DE+1; BC=BC-1
 154+ C109              LC069_10:
 155+ C109 CB A5          RES 4,L                 ; Reset bit 4 of L
 156+ C10B CD 14 43       CALL #4314              ; CALL 4314
 157+ C10E 08             EX AF,AF'               ; Exchange AF and AF'
 158+ C10F 12             LD (DE),A               ; POKE DE,A
 159+ C110 13             INC DE                  ; DE=DE+1
 160+ C111 3E 00          LD A,#00                ; A=#00
 161+ C113 B7             OR A                    ; Clear the carry flag and set the zero flag if A=0
 162+ C114 CA 9D 41       JP Z,#419D              ; Jump to 419D if A=0
 163+ C117 7D             LD A,L                  ; A=L
 164+ C118 E6 F0          AND #F0                 ; Keep only bits 4, 5, 6 and 7 of A
 165+ C11A 6F             LD L,A                  ; L=A
 166+ C11B C3 44 42       JP #4244                ; Jump to 4244
 167+ C11E              LC069_11:
 168+ C11E 3A 49 38       LD A,(#3849)            ; A=PEEK #3849
 169+ C121 FE 0F          CP #0F                  ; Set the zero flag if A=#0F, or the carry flag if
 170+ C123                                        ; A<#0F
 171+ C123 C8             RET Z                   ; Return if A=#0F
 172+ C124 D5             PUSH DE                 ; Push DE onto the stack
 173+ C125 21 00 1D       LD HL,#1D00             ; HL=#1D00
 174+ C128 11 00 0D       LD DE,#0D00             ; DE=#0D00
 175+ C12B 01 00 03       LD BC,#0300             ; BC=#0300
 176+ C12E ED B0          LDIR                    ; POKE DE,PEEK HL; HL=HL+1; DE=DE+1; BC=BC-1; repeat
 177+ C130                                        ; until BC=0
 178+ C130 62             LD H,D                  ; H=D
 179+ C131 6B             LD L,E                  ; L=E
 180+ C132 22 FC 37       LD (#37FC),HL           ; POKE #37FC,L; POKE #37FD,H
 181+ C135 06 08          LD B,#08                ; B=#08
 182+ C137 CD BF 43       CALL #43BF              ; CALL 43BF
 183+ C13A 36 00          LD (HL),#00             ; POKE HL,#00
 184+ C13C D1             POP DE                  ; Pop last item from stack into DE
 185+ C13D C3 00 00       JP #0000                ; Jump to 0000
 186+ C140              LC069_12:
 187+ C140 0E 15          LD C,#15                ; C=#15
 188+ C142 09             ADD HL,BC               ; HL=HL+BC
 189+ C143 C3 54 41       JP #4154                ; Jump to 4154
 190+ C146              LC069_13:
 191+ C146 0E 20          LD C,#20                ; C=#20
 192+ C148 09             ADD HL,BC               ; HL=HL+BC
 193+ C149 C3 54 41       JP #4154                ; Jump to 4154
 194+ C14C D5             PUSH DE                 ; Push DE onto the stack
 195+ C14D 3A FE 37       LD A,(#37FE)            ; A=PEEK #37FE
 196+ C150 B7             OR A                    ; Clear the carry flag and set the zero flag if A=0
 197+ C151 CC 37 43       CALL Z,#4337            ; CALL 4337 if A=0
 198+ C154 D1             POP DE                  ; Pop last item from stack into DE
 199+ C155 21 4F 41       LD HL,#414F             ; HL=#414F
 200+ C158 22 32 41       LD (#4132),HL           ; POKE #4132,L; POKE #4133,H
 201+ C15B 2A FC 37       LD HL,(#37FC)           ; L=PEEK #37FC; H=PEEK #37FD
 202+ C15E 06 00          LD B,#00                ; B=#00
 203+ C160 7C             LD A,H                  ; A=H
 204+ C161 FE 20          CP #20                  ; Set the zero flag if A=#20, or the carry flag if
 205+ C163                                        ; A<#20
 206+ C163 30 B9          JR NC,LC069_11          ; Jump to LC069_11 if A>=#20
 207+ C165 7E             LD A,(HL)               ; A=PEEK HL
 208+ C166 B7             OR A                    ; Clear the carry flag and set the zero flag if A=0
 209+ C167 C8             RET Z                   ; Return if A=0
 210+ C168 FE E5          CP #E5                  ; Set the zero flag if A=#E5, or the carry flag if
 211+ C16A                                        ; A<#E5
 212+ C16A 28 DA          JR Z,LC069_13           ; Jump to LC069_13 if A=#E5
 213+ C16C 0E 0B          LD C,#0B                ; C=#0B
 214+ C16E 09             ADD HL,BC               ; HL=HL+BC
 215+ C16F 7E             LD A,(HL)               ; A=PEEK HL
 216+ C170 CB 5F          BIT 3,A                 ; Set the zero flag if bit 3 of A is 0
 217+ C172 20 CC          JR NZ,LC069_12          ; Jump to LC069_12 if bit 3 of A is set
 218+ C174 08             EX AF,AF'               ; Exchange AF and AF'
 219+ C175 0E 0F          LD C,#0F                ; C=#0F
 220+ C177 09             ADD HL,BC               ; HL=HL+BC
 221+ C178 ED A0          LDI                     ; POKE DE,PEEK HL; HL=HL+1; DE=DE+1; BC=BC-1
 222+ C17A ED A0          LDI                     ; POKE DE,PEEK HL; HL=HL+1; DE=DE+1; BC=BC-1
 223+ C17C 0E 08          LD C,#08                ; C=#08
 224+ C17E ED 42          SBC HL,BC               ; HL=HL-carry-BC
 225+ C180 ED A0          LDI                     ; POKE DE,PEEK HL; HL=HL+1; DE=DE+1; BC=BC-1
 226+ C182 ED A0          LDI                     ; POKE DE,PEEK HL; HL=HL+1; DE=DE+1; BC=BC-1
 227+ C184 09             ADD HL,BC               ; HL=HL+BC
 228+ C185 ED A0          LDI                     ; POKE DE,PEEK HL; HL=HL+1; DE=DE+1; BC=BC-1
 229+ C187 ED A0          LDI                     ; POKE DE,PEEK HL; HL=HL+1; DE=DE+1; BC=BC-1
 230+ C189 ED A0          LDI                     ; POKE DE,PEEK HL; HL=HL+1; DE=DE+1; BC=BC-1
 231+ C18B ED A0          LDI                     ; POKE DE,PEEK HL; HL=HL+1; DE=DE+1; BC=BC-1
 232+ C18D 0E 10          LD C,#10                ; C=#10
 233+ C18F ED 42          SBC HL,BC               ; HL=HL-carry-BC
 234+ C191 ED A0          LDI                     ; POKE DE,PEEK HL; HL=HL+1; DE=DE+1; BC=BC-1
 235+ C193 ED A0          LDI                     ; POKE DE,PEEK HL; HL=HL+1; DE=DE+1; BC=BC-1
 236+ C195 2D             DEC L                   ; L=L-1
 237+ C196 2D             DEC L                   ; L=L-1
 238+ C197 2D             DEC L                   ; L=L-1
 239+ C198 2D             DEC L                   ; L=L-1
 240+ C199 ED A0          LDI                     ; POKE DE,PEEK HL; HL=HL+1; DE=DE+1; BC=BC-1
 241+ C19B ED A0          LDI                     ; POKE DE,PEEK HL; HL=HL+1; DE=DE+1; BC=BC-1
 242+ C19D CB A5          RES 4,L                 ; Reset bit 4 of L
 243+ C19F CD 14 43       CALL #4314              ; CALL 4314
 244+ C1A2 08             EX AF,AF'               ; Exchange AF and AF'
 245+ C1A3 E6 10          AND #10                 ; Keep only bit 4 of A
 246+ C1A5 EE 10          XOR #10                 ; Flip bit 4 of A
 247+ C1A7 12             LD (DE),A               ; POKE DE,A
 248+ C1A8 13             INC DE                  ; DE=DE+1
 249+ C1A9 B7             OR A                    ; Clear the carry flag and set the zero flag if A=0
 250+ C1AA 0E 20          LD C,#20                ; C=#20
 251+ C1AC ED 42          SBC HL,BC               ; HL=HL-carry-BC
 252+ C1AE DA 41 42       JP C,#4241              ; Jump to 4241 if the carry flag is set
 253+ C1B1 7E             LD A,(HL)               ; A=PEEK HL
 254+ C1B2 FE 0F          CP #0F                  ; Set the zero flag if A=#0F, or the carry flag if
 255+ C1B4                                        ; A<#0F
 256+ C1B4 C2 41 42       JP NZ,#4241             ; Jump to 4241 if A<>#0F
 257+ C1B7 08             EX AF,AF'               ; Exchange AF and AF'
 258+ C1B8 2C             INC L                   ; L=L+1
 259+ C1B9 2C             INC L                   ; L=L+1
 260+ C1BA BE             CP (HL)                 ; Set the zero flag if A=PEEK HL, or the carry flag
 261+ C1BB                                        ; if A<PEEK HL
 262+ C1BB C2 39 42       JP NZ,#4239             ; Jump to 4239 if A<>PEEK HL
 263+ C1BE 0E 01          LD C,#01                ; C=#01
 264+ C1C0 22 FA 37       LD (#37FA),HL           ; POKE #37FA,L; POKE #37FB,H
 265+ C1C3 ED 53 F8 37    LD (#37F8),DE           ; POKE #37F8,E; POKE #37F9,D
 266+ C1C7 7D             LD A,L                  ; A=L
 267+ C1C8 E6 F0          AND #F0                 ; Keep only bits 4, 5, 6 and 7 of A
 268+ C1CA 6F             LD L,A                  ; L=A
 269+ C1CB              LC069_14:
 270+ C1CB 7E             LD A,(HL)               ; A=PEEK HL
 271+ C1CC CB 77          BIT 6,A                 ; Set the zero flag if bit 6 of A is 0
 272+ C1CE 28 02          JR Z,LC069_15           ; Jump to LC069_15 if bit 6 of A is reset
 273+ C1D0 CB F1          SET 6,C                 ; Set bit 6 of C
 274+ C1D2              LC069_15:
 275+ C1D2 B9             CP C                    ; Set the zero flag if A=C, or the carry flag if A<C
 276+ C1D3 20 69          JR NZ,LC069_18          ; Jump to LC069_18 if A<>C
 277+ C1D5 0C             INC C                   ; C=C+1
 278+ C1D6 2C             INC L                   ; L=L+1
 279+ C1D7 CD A3 42       CALL #42A3              ; CALL 42A3
 280+ C1DA 30 60          JR NC,LC069_17          ; Jump to LC069_17 if the carry flag is not set
 281+ C1DC CD A3 42       CALL #42A3              ; CALL 42A3
 282+ C1DF 30 5B          JR NC,LC069_17          ; Jump to LC069_17 if the carry flag is not set
 283+ C1E1 CD A3 42       CALL #42A3              ; CALL 42A3
 284+ C1E4 30 56          JR NC,LC069_17          ; Jump to LC069_17 if the carry flag is not set
 285+ C1E6 CD A3 42       CALL #42A3              ; CALL 42A3
 286+ C1E9 30 51          JR NC,LC069_17          ; Jump to LC069_17 if the carry flag is not set
 287+ C1EB CD A3 42       CALL #42A3              ; CALL 42A3
 288+ C1EE 30 4C          JR NC,LC069_17          ; Jump to LC069_17 if the carry flag is not set
 289+ C1F0 2C             INC L                   ; L=L+1
 290+ C1F1 2C             INC L                   ; L=L+1
 291+ C1F2 2C             INC L                   ; L=L+1
 292+ C1F3 CD A3 42       CALL #42A3              ; CALL 42A3
 293+ C1F6 30 44          JR NC,LC069_17          ; Jump to LC069_17 if the carry flag is not set
 294+ C1F8 CD A3 42       CALL #42A3              ; CALL 42A3
 295+ C1FB 30 3F          JR NC,LC069_17          ; Jump to LC069_17 if the carry flag is not set
 296+ C1FD CD A3 42       CALL #42A3              ; CALL 42A3
 297+ C200 30 3A          JR NC,LC069_17          ; Jump to LC069_17 if the carry flag is not set
 298+ C202 CD A3 42       CALL #42A3              ; CALL 42A3
 299+ C205 30 35          JR NC,LC069_17          ; Jump to LC069_17 if the carry flag is not set
 300+ C207 CD A3 42       CALL #42A3              ; CALL 42A3
 301+ C20A 30 30          JR NC,LC069_17          ; Jump to LC069_17 if the carry flag is not set
 302+ C20C CD A3 42       CALL #42A3              ; CALL 42A3
 303+ C20F 30 2B          JR NC,LC069_17          ; Jump to LC069_17 if the carry flag is not set
 304+ C211 2C             INC L                   ; L=L+1
 305+ C212 2C             INC L                   ; L=L+1
 306+ C213 CD A3 42       CALL #42A3              ; CALL 42A3
 307+ C216 30 24          JR NC,LC069_17          ; Jump to LC069_17 if the carry flag is not set
 308+ C218 CD A3 42       CALL #42A3              ; CALL 42A3
 309+ C21B 30 1F          JR NC,LC069_17          ; Jump to LC069_17 if the carry flag is not set
 310+ C21D 2D             DEC L                   ; L=L-1
 311+ C21E 79             LD A,C                  ; A=C
 312+ C21F FE 40          CP #40                  ; Set the zero flag if A=#40, or the carry flag if
 313+ C221                                        ; A<#40
 314+ C221 30 0A          JR NC,LC069_16          ; Jump to LC069_16 if A>=#40
 315+ C223 B7             OR A                    ; Clear the carry flag and set the zero flag if A=0
 316+ C224 0E 3F          LD C,#3F                ; C=#3F
 317+ C226 ED 42          SBC HL,BC               ; HL=HL-carry-BC
 318+ C228 4F             LD C,A                  ; C=A
 319+ C229 38 13          JR C,LC069_18           ; Jump to LC069_18 if the carry flag is set
 320+ C22B 18 9E          JR LC069_14             ; Jump to LC069_14
 321+ C22D              LC069_16:
 322+ C22D AF             XOR A                   ; A=0
 323+ C22E 12             LD (DE),A               ; POKE DE,A
 324+ C22F 13             INC DE                  ; DE=DE+1
 325+ C230 2A FA 37       LD HL,(#37FA)           ; L=PEEK #37FA; H=PEEK #37FB
 326+ C233 0E 33          LD C,#33                ; C=#33
 327+ C235 09             ADD HL,BC               ; HL=HL+BC
 328+ C236 22 FC 37       LD (#37FC),HL           ; POKE #37FC,L; POKE #37FD,H
 329+ C239 AF             XOR A                   ; A=0
 330+ C23A 3C             INC A                   ; A=A+1
 331+ C23B C9             RET                     ; Return
 332+ C23C              LC069_17:
 333+ C23C 20 EF          JR NZ,LC069_16          ; Jump to LC069_16 if the zero flag is not set
 334+ C23E              LC069_18:
 335+ C23E 2A FA 37       LD HL,(#37FA)           ; L=PEEK #37FA; H=PEEK #37FB
 336+ C241 ED 5B F8 37    LD DE,(#37F8)           ; E=PEEK #37F8; D=PEEK #37F9
 337+ C245 7D             LD A,L                  ; A=L
 338+ C246 E6 F0          AND #F0                 ; Keep only bits 4, 5, 6 and 7 of A
 339+ C248 6F             LD L,A                  ; L=A
 340+ C249 0E 20          LD C,#20                ; C=#20
 341+ C24B 18 02          JR LC069_19             ; Jump to LC069_19
 342+ C24D 0E 15          LD C,#15                ; C=#15
 343+ C24F              LC069_19:
 344+ C24F 09             ADD HL,BC               ; HL=HL+BC
 345+ C250 06 08          LD B,#08                ; B=#08
 346+ C252              LC069_20:
 347+ C252 7E             LD A,(HL)               ; A=PEEK HL
 348+ C253 CD F2 42       CALL #42F2              ; CALL 42F2
 349+ C256 12             LD (DE),A               ; POKE DE,A
 350+ C257 13             INC DE                  ; DE=DE+1
 351+ C258 2C             INC L                   ; L=L+1
 352+ C259 10 F7          DJNZ LC069_20           ; Decrement B and jump to LC069_20 if B>0
 353+ C25B 06 08          LD B,#08                ; B=#08
 354+ C25D              LC069_21:
 355+ C25D 1B             DEC DE                  ; DE=DE-1
 356+ C25E 1A             LD A,(DE)               ; A=PEEK DE
 357+ C25F FE 20          CP #20                  ; Set the zero flag if A=#20, or the carry flag if
 358+ C261                                        ; A<#20
 359+ C261 20 02          JR NZ,LC069_22          ; Jump to LC069_22 if A<>#20
 360+ C263 10 F8          DJNZ LC069_21           ; Decrement B and jump to LC069_21 if B>0
 361+ C265              LC069_22:
 362+ C265 13             INC DE                  ; DE=DE+1
 363+ C266 7D             LD A,L                  ; A=L
 364+ C267 E6 F0          AND #F0                 ; Keep only bits 4, 5, 6 and 7 of A
 365+ C269 F6 08          OR #08                  ; Set bit 3 of A
 366+ C26B 6F             LD L,A                  ; L=A
 367+ C26C D5             PUSH DE                 ; Push DE onto the stack
 368+ C26D 3E 2E          LD A,#2E                ; A=#2E
 369+ C26F 12             LD (DE),A               ; POKE DE,A
 370+ C270 13             INC DE                  ; DE=DE+1
 371+ C271 7E             LD A,(HL)               ; A=PEEK HL
 372+ C272 CD F2 42       CALL #42F2              ; CALL 42F2
 373+ C275 12             LD (DE),A               ; POKE DE,A
 374+ C276 13             INC DE                  ; DE=DE+1
 375+ C277 2C             INC L                   ; L=L+1
 376+ C278 7E             LD A,(HL)               ; A=PEEK HL
 377+ C279 CD F2 42       CALL #42F2              ; CALL 42F2
 378+ C27C 12             LD (DE),A               ; POKE DE,A
 379+ C27D 13             INC DE                  ; DE=DE+1
 380+ C27E 2C             INC L                   ; L=L+1
 381+ C27F 7E             LD A,(HL)               ; A=PEEK HL
 382+ C280 CD F2 42       CALL #42F2              ; CALL 42F2
 383+ C283 12             LD (DE),A               ; POKE DE,A
 384+ C284 13             INC DE                  ; DE=DE+1
 385+ C285 2C             INC L                   ; L=L+1
 386+ C286 C1             POP BC                  ; Pop last item from stack into BC
 387+ C287 CB 66          BIT 4,(HL)              ; Set the zero flag if bit 4 of (HL) is 0
 388+ C289 28 17          JR Z,LC069_24           ; Jump to LC069_24 if bit 4 of PEEK HL is reset
 389+ C28B 1B             DEC DE                  ; DE=DE-1
 390+ C28C 1A             LD A,(DE)               ; A=PEEK DE
 391+ C28D FE 20          CP #20                  ; Set the zero flag if A=#20, or the carry flag if
 392+ C28F                                        ; A<#20
 393+ C28F 20 10          JR NZ,LC069_23          ; Jump to LC069_23 if A<>#20
 394+ C291 1B             DEC DE                  ; DE=DE-1
 395+ C292 1A             LD A,(DE)               ; A=PEEK DE
 396+ C293 FE 20          CP #20                  ; Set the zero flag if A=#20, or the carry flag if
 397+ C295                                        ; A<#20
 398+ C295 20 0A          JR NZ,LC069_23          ; Jump to LC069_23 if A<>#20
 399+ C297 1B             DEC DE                  ; DE=DE-1
 400+ C298 1A             LD A,(DE)               ; A=PEEK DE
 401+ C299 FE 20          CP #20                  ; Set the zero flag if A=#20, or the carry flag if
 402+ C29B                                        ; A<#20
 403+ C29B 20 04          JR NZ,LC069_23          ; Jump to LC069_23 if A<>#20
 404+ C29D 50             LD D,B                  ; D=B
 405+ C29E 59             LD E,C                  ; E=C
 406+ C29F 18 01          JR LC069_24             ; Jump to LC069_24
 407+ C2A1              LC069_23:
 408+ C2A1 13             INC DE                  ; DE=DE+1
 409+ C2A2              LC069_24:
 410+ C2A2 AF             XOR A                   ; A=0
 411+ C2A3 12             LD (DE),A               ; POKE DE,A
 412+ C2A4 13             INC DE                  ; DE=DE+1
 413+ C2A5 01 15 00       LD BC,#0015             ; BC=#0015
 414+ C2A8 09             ADD HL,BC               ; HL=HL+BC
 415+ C2A9 22 FC 37       LD (#37FC),HL           ; POKE #37FC,L; POKE #37FD,H
 416+ C2AC AF             XOR A                   ; A=0
 417+ C2AD 3C             INC A                   ; A=A+1
 418+ C2AE C9             RET                     ; Return
 419+ C2AF 2C             INC L                   ; L=L+1
 420+ C2B0 7E             LD A,(HL)               ; A=PEEK HL
 421+ C2B1 B7             OR A                    ; Clear the carry flag and set the zero flag if A=0
 422+ C2B2 20 14          JR NZ,LC069_28          ; Jump to LC069_28 if A>0
 423+ C2B4 2D             DEC L                   ; L=L-1
 424+ C2B5 7E             LD A,(HL)               ; A=PEEK HL
 425+ C2B6 2C             INC L                   ; L=L+1
 426+ C2B7 2C             INC L                   ; L=L+1
 427+ C2B8 B7             OR A                    ; Clear the carry flag and set the zero flag if A=0
 428+ C2B9 28 0A          JR Z,LC069_27           ; Jump to LC069_27 if A=0
 429+ C2BB 12             LD (DE),A               ; POKE DE,A
 430+ C2BC 13             INC DE                  ; DE=DE+1
 431+ C2BD FE 80          CP #80                  ; Set the zero flag if A=#80, or the carry flag if
 432+ C2BF                                        ; A<#80
 433+ C2BF D8             RET C                   ; Return if A<#80
 434+ C2C0              LC069_25:
 435+ C2C0 AF             XOR A                   ; A=0
 436+ C2C1 C9             RET                     ; Return
 437+ C2C2              LC069_26:
 438+ C2C2 2C             INC L                   ; L=L+1
 439+ C2C3 AF             XOR A                   ; A=0
 440+ C2C4 C9             RET                     ; Return
 441+ C2C5              LC069_27:
 442+ C2C5 AF             XOR A                   ; A=0
 443+ C2C6 3C             INC A                   ; A=A+1
 444+ C2C7 C9             RET                     ; Return
 445+ C2C8              LC069_28:
 446+ C2C8 FE 04          CP #04                  ; Set the zero flag if A=#04, or the carry flag if
 447+ C2CA                                        ; A<#04
 448+ C2CA 20 F6          JR NZ,LC069_26          ; Jump to LC069_26 if A<>#04
 449+ C2CC 2D             DEC L                   ; L=L-1
 450+ C2CD 7E             LD A,(HL)               ; A=PEEK HL
 451+ C2CE 2C             INC L                   ; L=L+1
 452+ C2CF 2C             INC L                   ; L=L+1
 453+ C2D0 FE 01          CP #01                  ; Set the zero flag if A=#01, or the carry flag if
 454+ C2D2                                        ; A<#01
 455+ C2D2 28 1E          JR Z,LC069_31           ; Jump to LC069_31 if A=#01
 456+ C2D4 FE 10          CP #10                  ; Set the zero flag if A=#10, or the carry flag if
 457+ C2D6                                        ; A<#10
 458+ C2D6 38 E8          JR C,LC069_25           ; Jump to LC069_25 if A<#10
 459+ C2D8 FE 40          CP #40                  ; Set the zero flag if A=#40, or the carry flag if
 460+ C2DA                                        ; A<#40
 461+ C2DA 38 0A          JR C,LC069_29           ; Jump to LC069_29 if A<#40
 462+ C2DC FE 50          CP #50                  ; Set the zero flag if A=#50, or the carry flag if
 463+ C2DE                                        ; A<#50
 464+ C2DE 38 0C          JR C,LC069_30           ; Jump to LC069_30 if A<#50
 465+ C2E0 FE 51          CP #51                  ; Set the zero flag if A=#51, or the carry flag if
 466+ C2E2                                        ; A<#51
 467+ C2E2 28 14          JR Z,LC069_32           ; Jump to LC069_32 if A=#51
 468+ C2E4 AF             XOR A                   ; A=0
 469+ C2E5 C9             RET                     ; Return
 470+ C2E6              LC069_29:
 471+ C2E6 C6 70          ADD A,#70               ; A=A+#70
 472+ C2E8 12             LD (DE),A               ; POKE DE,A
 473+ C2E9 13             INC DE                  ; DE=DE+1
 474+ C2EA 37             SCF                     ; Set the carry flag
 475+ C2EB C9             RET                     ; Return
 476+ C2EC              LC069_30:
 477+ C2EC C6 A0          ADD A,#A0               ; A=A+#A0
 478+ C2EE 12             LD (DE),A               ; POKE DE,A
 479+ C2EF 13             INC DE                  ; DE=DE+1
 480+ C2F0 37             SCF                     ; Set the carry flag
 481+ C2F1 C9             RET                     ; Return
 482+ C2F2              LC069_31:
 483+ C2F2 3E F0          LD A,#F0                ; A=#F0
 484+ C2F4 12             LD (DE),A               ; POKE DE,A
 485+ C2F5 13             INC DE                  ; DE=DE+1
 486+ C2F6 37             SCF                     ; Set the carry flag
 487+ C2F7 C9             RET                     ; Return
 488+ C2F8              LC069_32:
 489+ C2F8 3E F1          LD A,#F1                ; A=#F1
 490+ C2FA 12             LD (DE),A               ; POKE DE,A
 491+ C2FB 13             INC DE                  ; DE=DE+1
 492+ C2FC 37             SCF                     ; Set the carry flag
 493+ C2FD C9             RET                     ; Return
 494+ C2FE FE 80          CP #80                  ; Set the zero flag if A=#80, or the carry flag if
 495+ C300                                        ; A<#80
 496+ C300 30 09          JR NC,LC069_33          ; Jump to LC069_33 if A>=#80
 497+ C302 FE 41          CP #41                  ; Set the zero flag if A=#41, or the carry flag if
 498+ C304                                        ; A<#41
 499+ C304 D8             RET C                   ; Return if A<#41
 500+ C305 FE 5B          CP #5B                  ; Set the zero flag if A=#5B, or the carry flag if
 501+ C307                                        ; A<#5B
 502+ C307 D0             RET NC                  ; Return if A>=#5B
 503+ C308 CB EF          SET 5,A                 ; Set bit 5 of A
 504+ C30A C9             RET                     ; Return
 505+ C30B              LC069_33:
 506+ C30B FE F0          CP #F0                  ; Set the zero flag if A=#F0, or the carry flag if
 507+ C30D                                        ; A<#F0
 508+ C30D 20 01          JR NZ,LC069_34          ; Jump to LC069_34 if A<>#F0
 509+ C30F 3C             INC A                   ; A=A+1
 510+ C310              LC069_34:
 511+ C310 FE F1          CP #F1                  ; Set the zero flag if A=#F1, or the carry flag if
 512+ C312                                        ; A<#F1
 513+ C312 C8             RET Z                   ; Return if A=#F1
 514+ C313 FE A0          CP #A0                  ; Set the zero flag if A=#A0, or the carry flag if
 515+ C315                                        ; A<#A0
 516+ C315 D0             RET NC                  ; Return if A>=#A0
 517+ C316 FE 90          CP #90                  ; Set the zero flag if A=#90, or the carry flag if
 518+ C318                                        ; A<#90
 519+ C318 30 03          JR NC,LC069_35          ; Jump to LC069_35 if A>=#90
 520+ C31A CB EF          SET 5,A                 ; Set bit 5 of A
 521+ C31C C9             RET                     ; Return
 522+ C31D              LC069_35:
 523+ C31D C6 50          ADD A,#50               ; A=A+#50
 524+ C31F C9             RET                     ; Return
 525+ C320 AF             XOR A                   ; A=0
 526+ C321 0F             RRCA                    ; Rotate A right circular (copying bit 0 into bit 7
 527+ C322                                        ; and into the carry flag)
 528+ C322 86             ADD A,(HL)              ; A=A+PEEK HL
 529+ C323 2C             INC L                   ; L=L+1
 530+ C324 0F             RRCA                    ; Rotate A right circular (copying bit 0 into bit 7
 531+ C325                                        ; and into the carry flag)
 532+ C325 86             ADD A,(HL)              ; A=A+PEEK HL
 533+ C326 2C             INC L                   ; L=L+1
 534+ C327 0F             RRCA                    ; Rotate A right circular (copying bit 0 into bit 7
 535+ C328                                        ; and into the carry flag)
 536+ C328 86             ADD A,(HL)              ; A=A+PEEK HL
 537+ C329 2C             INC L                   ; L=L+1
 538+ C32A 0F             RRCA                    ; Rotate A right circular (copying bit 0 into bit 7
 539+ C32B                                        ; and into the carry flag)
 540+ C32B 86             ADD A,(HL)              ; A=A+PEEK HL
 541+ C32C 2C             INC L                   ; L=L+1
 542+ C32D 0F             RRCA                    ; Rotate A right circular (copying bit 0 into bit 7
 543+ C32E                                        ; and into the carry flag)
 544+ C32E 86             ADD A,(HL)              ; A=A+PEEK HL
 545+ C32F 2C             INC L                   ; L=L+1
 546+ C330 0F             RRCA                    ; Rotate A right circular (copying bit 0 into bit 7
 547+ C331                                        ; and into the carry flag)
 548+ C331 86             ADD A,(HL)              ; A=A+PEEK HL
 549+ C332 2C             INC L                   ; L=L+1
 550+ C333 0F             RRCA                    ; Rotate A right circular (copying bit 0 into bit 7
 551+ C334                                        ; and into the carry flag)
 552+ C334 86             ADD A,(HL)              ; A=A+PEEK HL
 553+ C335 2C             INC L                   ; L=L+1
 554+ C336 0F             RRCA                    ; Rotate A right circular (copying bit 0 into bit 7
 555+ C337                                        ; and into the carry flag)
 556+ C337 86             ADD A,(HL)              ; A=A+PEEK HL
 557+ C338 2C             INC L                   ; L=L+1
 558+ C339 0F             RRCA                    ; Rotate A right circular (copying bit 0 into bit 7
 559+ C33A                                        ; and into the carry flag)
 560+ C33A 86             ADD A,(HL)              ; A=A+PEEK HL
 561+ C33B 2C             INC L                   ; L=L+1
 562+ C33C 0F             RRCA                    ; Rotate A right circular (copying bit 0 into bit 7
 563+ C33D                                        ; and into the carry flag)
 564+ C33D 86             ADD A,(HL)              ; A=A+PEEK HL
 565+ C33E 2C             INC L                   ; L=L+1
 566+ C33F 0F             RRCA                    ; Rotate A right circular (copying bit 0 into bit 7
 567+ C340                                        ; and into the carry flag)
 568+ C340 86             ADD A,(HL)              ; A=A+PEEK HL
 569+ C341 2C             INC L                   ; L=L+1
 570+ C342 C9             RET                     ; Return
 571+ C343 21 01 00       LD HL,#0001             ; HL=#0001
 572+ C346 22 FE 37       LD (#37FE),HL           ; POKE #37FE,L; POKE #37FF,H
 573+ C349 21 C8 38       LD HL,#38C8             ; HL=#38C8
 574+ C34C CD 0F 45       CALL #450F              ; CALL 450F
 575+ C34F 21 00 00       LD HL,#0000             ; HL=#0000
 576+ C352 22 FC 37       LD (#37FC),HL           ; POKE #37FC,L; POKE #37FD,H
 577+ C355 06 10          LD B,#10                ; B=#10
 578+ C357 CD BF 43       CALL #43BF              ; CALL 43BF
 579+ C35A 36 00          LD (HL),#00             ; POKE HL,#00
 580+ C35C C9             RET                     ; Return
 581+ C35D 11 68 38       LD DE,#3868             ; DE=#3868
 582+ C360 01 20 00       LD BC,#0020             ; BC=#0020
 583+ C363 ED B0          LDIR                    ; POKE DE,PEEK HL; HL=HL+1; DE=DE+1; BC=BC-1; repeat
 584+ C365                                        ; until BC=0
 585+ C365 C9             RET                     ; Return
 586+ C366 21 68 38       LD HL,#3868             ; HL=#3868
 587+ C369 01 20 00       LD BC,#0020             ; BC=#0020
 588+ C36C ED B0          LDIR                    ; POKE DE,PEEK HL; HL=HL+1; DE=DE+1; BC=BC-1; repeat
 589+ C36E                                        ; until BC=0
 590+ C36E C9             RET                     ; Return
 591+ C36F 11 C8 38       LD DE,#38C8             ; DE=#38C8
 592+ C372 01 04 00       LD BC,#0004             ; BC=#0004
 593+ C375 ED B0          LDIR                    ; POKE DE,PEEK HL; HL=HL+1; DE=DE+1; BC=BC-1; repeat
 594+ C377                                        ; until BC=0
 595+ C377 ED 43 FE 37    LD (#37FE),BC           ; POKE #37FE,C; POKE #37FF,B
 596+ C37B C9             RET                     ; Return
 597+ C37C 21 C8 38       LD HL,#38C8             ; HL=#38C8
 598+ C37F 01 04 00       LD BC,#0004             ; BC=#0004
 599+ C382 ED B0          LDIR                    ; POKE DE,PEEK HL; HL=HL+1; DE=DE+1; BC=BC-1; repeat
 600+ C384                                        ; until BC=0
 601+ C384 C9             RET                     ; Return
 602+ C385 C5             PUSH BC                 ; Push BC onto the stack
 603+ C386 CD 09 38       CALL #3809              ; CALL 3809
 604+ C389 E1             POP HL                  ; Pop last item from stack into HL
 605+ C38A C3 0F 38       JP #380F                ; Jump to 380F
 606+ C38D C5             PUSH BC                 ; Push BC onto the stack
 607+ C38E CD 09 38       CALL #3809              ; CALL 3809
 608+ C391 E1             POP HL                  ; Pop last item from stack into HL
 609+ C392 C3 12 38       JP #3812                ; Jump to 3812
 610+ C395 11 62 43       LD DE,#4362             ; DE=#4362
 611+ C398 ED 53 17 44    LD (#4417),DE           ; POKE #4417,E; POKE #4418,D
 612+ C39C CD BF 43       CALL #43BF              ; CALL 43BF
 613+ C39F 11 0F 38       LD DE,#380F             ; DE=#380F
 614+ C3A2 ED 53 17 44    LD (#4417),DE           ; POKE #4417,E; POKE #4418,D
 615+ C3A6 C9             RET                     ; Return
 616+ C3A7 11 15 38       LD DE,#3815             ; DE=#3815
 617+ C3AA ED 53 17 44    LD (#4417),DE           ; POKE #4417,E; POKE #4418,D
 618+ C3AE CD BF 43       CALL #43BF              ; CALL 43BF
 619+ C3B1 11 0F 38       LD DE,#380F             ; DE=#380F
 620+ C3B4 ED 53 17 44    LD (#4417),DE           ; POKE #4417,E; POKE #4418,D
 621+ C3B8 C9             RET                     ; Return
 622+ C3B9 11 12 38       LD DE,#3812             ; DE=#3812
 623+ C3BC ED 53 17 44    LD (#4417),DE           ; POKE #4417,E; POKE #4418,D
 624+ C3C0 CD BF 43       CALL #43BF              ; CALL 43BF
 625+ C3C3 11 0F 38       LD DE,#380F             ; DE=#380F
 626+ C3C6 ED 53 17 44    LD (#4417),DE           ; POKE #4417,E; POKE #4418,D
 627+ C3CA C9             RET                     ; Return
 628+ C3CB AF             XOR A                   ; A=0
 629+ C3CC 32 4A 38       LD (#384A),A            ; POKE #384A,A
 630+ C3CF CD D3 43       CALL #43D3              ; CALL 43D3
 631+ C3D2 20 04          JR NZ,LC069_36          ; Jump to LC069_36 if the zero flag is not set
 632+ C3D4 78             LD A,B                  ; A=B
 633+ C3D5 CD EC 43       CALL #43EC              ; CALL 43EC
 634+ C3D8              LC069_36:
 635+ C3D8 2A B0 38       LD HL,(#38B0)           ; L=PEEK #38B0; H=PEEK #38B1
 636+ C3DB 3A 49 38       LD A,(#3849)            ; A=PEEK #3849
 637+ C3DE C9             RET                     ; Return
 638+ C3DF 22 B0 38       LD (#38B0),HL           ; POKE #38B0,L; POKE #38B1,H
 639+ C3E2 3A 49 38       LD A,(#3849)            ; A=PEEK #3849
 640+ C3E5 B7             OR A                    ; Clear the carry flag and set the zero flag if A=0
 641+ C3E6 C0             RET NZ                  ; Return if A>0
 642+ C3E7 3A 48 38       LD A,(#3848)            ; A=PEEK #3848
 643+ C3EA B7             OR A                    ; Clear the carry flag and set the zero flag if A=0
 644+ C3EB 20 09          JR NZ,LC069_37          ; Jump to LC069_37 if A>0
 645+ C3ED C5             PUSH BC                 ; Push BC onto the stack
 646+ C3EE 21 A8 38       LD HL,#38A8             ; HL=#38A8
 647+ C3F1 CD 0F 45       CALL #450F              ; CALL 450F
 648+ C3F4 C1             POP BC                  ; Pop last item from stack into BC
 649+ C3F5 C9             RET                     ; Return
 650+ C3F6              LC069_37:
 651+ C3F6 AF             XOR A                   ; A=0
 652+ C3F7 C9             RET                     ; Return
 653+ C3F8 32 4B 38       LD (#384B),A            ; POKE #384B,A
 654+ C3FB 2A 64 38       LD HL,(#3864)           ; L=PEEK #3864; H=PEEK #3865
 655+ C3FE ED 5B 66 38    LD DE,(#3866)           ; E=PEEK #3866; D=PEEK #3867
 656+ C402 CD 0C 38       CALL #380C              ; CALL 380C
 657+ C405 21 4B 38       LD HL,#384B             ; HL=#384B
 658+ C408 3A 94 38       LD A,(#3894)            ; A=PEEK #3894
 659+ C40B ED 4B 48 38    LD BC,(#3848)           ; C=PEEK #3848; B=PEEK #3849
 660+ C40F 91             SUB C                   ; A=A-C
 661+ C410 47             LD B,A                  ; B=A
 662+ C411 7E             LD A,(HL)               ; A=PEEK HL
 663+ C412 B7             OR A                    ; Clear the carry flag and set the zero flag if A=0
 664+ C413 C8             RET Z                   ; Return if A=0
 665+ C414 90             SUB B                   ; A=A-B
 666+ C415 30 03          JR NC,LC069_38          ; Jump to LC069_38 if the carry flag is not set
 667+ C417 80             ADD A,B                 ; A=A+B
 668+ C418 47             LD B,A                  ; B=A
 669+ C419 AF             XOR A                   ; A=0
 670+ C41A              LC069_38:
 671+ C41A 77             LD (HL),A               ; POKE HL,A
 672+ C41B 78             LD A,B                  ; A=B
 673+ C41C 32 4C 38       LD (#384C),A            ; POKE #384C,A
 674+ C41F 2A B0 38       LD HL,(#38B0)           ; L=PEEK #38B0; H=PEEK #38B1
 675+ C422 CD 0F 38       CALL #380F              ; CALL 380F
 676+ C425 22 B0 38       LD (#38B0),HL           ; POKE #38B0,L; POKE #38B1,H
 677+ C428 21 64 38       LD HL,#3864             ; HL=#3864
 678+ C42B 11 60 38       LD DE,#3860             ; DE=#3860
 679+ C42E 01 04 00       LD BC,#0004             ; BC=#0004
 680+ C431 ED B0          LDIR                    ; POKE DE,PEEK HL; HL=HL+1; DE=DE+1; BC=BC-1; repeat
 681+ C433                                        ; until BC=0
 682+ C433 2A 64 38       LD HL,(#3864)           ; L=PEEK #3864; H=PEEK #3865
 683+ C436 ED 5B 66 38    LD DE,(#3866)           ; E=PEEK #3866; D=PEEK #3867
 684+ C43A ED 4B 4C 38    LD BC,(#384C)           ; C=PEEK #384C; B=PEEK #384D
 685+ C43E 09             ADD HL,BC               ; HL=HL+BC
 686+ C43F 30 01          JR NC,LC069_39          ; Jump to LC069_39 if the carry flag is not set
 687+ C441 13             INC DE                  ; DE=DE+1
 688+ C442              LC069_39:
 689+ C442 22 64 38       LD (#3864),HL           ; POKE #3864,L; POKE #3865,H
 690+ C445 ED 53 66 38    LD (#3866),DE           ; POKE #3866,E; POKE #3867,D
 691+ C449 21 48 38       LD HL,#3848             ; HL=#3848
 692+ C44C 79             LD A,C                  ; A=C
 693+ C44D 86             ADD A,(HL)              ; A=A+PEEK HL
 694+ C44E 77             LD (HL),A               ; POKE HL,A
 695+ C44F ED 4B 94 38    LD BC,(#3894)           ; C=PEEK #3894; B=PEEK #3895
 696+ C453 B9             CP C                    ; Set the zero flag if A=C, or the carry flag if A<C
 697+ C454 DA EF 43       JP C,#43EF              ; Jump to 43EF if A<C
 698+ C457 2A A8 38       LD HL,(#38A8)           ; L=PEEK #38A8; H=PEEK #38A9
 699+ C45A ED 5B AA 38    LD DE,(#38AA)           ; E=PEEK #38AA; D=PEEK #38AB
 700+ C45E CD C5 44       CALL #44C5              ; CALL 44C5
 701+ C461 CD 0F 45       CALL #450F              ; CALL 450F
 702+ C464 CA EF 43       JP Z,#43EF              ; Jump to 43EF if the zero flag is set
 703+ C467 C9             RET                     ; Return
 704+ C468 21 9A 38       LD HL,#389A             ; HL=#389A
 705+ C46B 11 4E 38       LD DE,#384E             ; DE=#384E
 706+ C46E 01 04 00       LD BC,#0004             ; BC=#0004
 707+ C471 ED B0          LDIR                    ; POKE DE,PEEK HL; HL=HL+1; DE=DE+1; BC=BC-1; repeat
 708+ C473                                        ; until BC=0
 709+ C473 2A 4E 38       LD HL,(#384E)           ; L=PEEK #384E; H=PEEK #384F
 710+ C476 ED 5B 50 38    LD DE,(#3850)           ; E=PEEK #3850; D=PEEK #3851
 711+ C47A CD C5 44       CALL #44C5              ; CALL 44C5
 712+ C47D D8             RET C                   ; Return if the carry flag is set
 713+ C47E 7E             LD A,(HL)               ; A=PEEK HL
 714+ C47F 23             INC HL                  ; HL=HL+1
 715+ C480 B6             OR (HL)                 ; A=A|PEEK HL
 716+ C481 23             INC HL                  ; HL=HL+1
 717+ C482 B6             OR (HL)                 ; A=A|PEEK HL
 718+ C483 23             INC HL                  ; HL=HL+1
 719+ C484 B6             OR (HL)                 ; A=A|PEEK HL
 720+ C485 23             INC HL                  ; HL=HL+1
 721+ C486 28 37          JR Z,LC069_42           ; Jump to LC069_42 if the zero flag is set
 722+ C488 EB             EX DE,HL                ; Exchange DE and HL
 723+ C489 21 4E 38       LD HL,#384E             ; HL=#384E
 724+ C48C 34             INC (HL)                ; POKE HL,(PEEK HL)+1
 725+ C48D C2 8E 44       JP NZ,#448E             ; Jump to 448E if (PEEK HL)>0
 726+ C490 23             INC HL                  ; HL=HL+1
 727+ C491 34             INC (HL)                ; POKE HL,(PEEK HL)+1
 728+ C492 20 06          JR NZ,LC069_40          ; Jump to LC069_40 if (PEEK HL)>0
 729+ C494 23             INC HL                  ; HL=HL+1
 730+ C495 34             INC (HL)                ; POKE HL,(PEEK HL)+1
 731+ C496 20 02          JR NZ,LC069_40          ; Jump to LC069_40 if (PEEK HL)>0
 732+ C498 23             INC HL                  ; HL=HL+1
 733+ C499 34             INC (HL)                ; POKE HL,(PEEK HL)+1
 734+ C49A              LC069_40:
 735+ C49A EB             EX DE,HL                ; Exchange DE and HL
 736+ C49B 7C             LD A,H                  ; A=H
 737+ C49C FE 32          CP #32                  ; Set the zero flag if A=#32, or the carry flag if
 738+ C49E                                        ; A<#32
 739+ C49E DA 72 44       JP C,#4472              ; Jump to 4472 if A<#32
 740+ C4A1 2A 64 38       LD HL,(#3864)           ; L=PEEK #3864; H=PEEK #3865
 741+ C4A4 ED 5B 66 38    LD DE,(#3866)           ; E=PEEK #3866; D=PEEK #3867
 742+ C4A8 23             INC HL                  ; HL=HL+1
 743+ C4A9 7C             LD A,H                  ; A=H
 744+ C4AA B5             OR L                    ; A=A|L
 745+ C4AB 20 01          JR NZ,LC069_41          ; Jump to LC069_41 if A>0
 746+ C4AD 13             INC DE                  ; DE=DE+1
 747+ C4AE              LC069_41:
 748+ C4AE CD 09 38       CALL #3809              ; CALL 3809
 749+ C4B1 21 00 30       LD HL,#3000             ; HL=#3000
 750+ C4B4 3E 01          LD A,#01                ; A=#01
 751+ C4B6 CD 0F 38       CALL #380F              ; CALL 380F
 752+ C4B9 21 00 30       LD HL,#3000             ; HL=#3000
 753+ C4BC C3 72 44       JP #4472                ; Jump to 4472
 754+ C4BF              LC069_42:
 755+ C4BF D9             EXX                     ; Exchange BC, DE and HL with BC', DE' and HL'
 756+ C4C0 2A 4E 38       LD HL,(#384E)           ; L=PEEK #384E; H=PEEK #384F
 757+ C4C3 ED 5B 50 38    LD DE,(#3850)           ; E=PEEK #3850; D=PEEK #3851
 758+ C4C7 E5             PUSH HL                 ; Push HL onto the stack
 759+ C4C8 21 4E 38       LD HL,#384E             ; HL=#384E
 760+ C4CB CD DC 50       CALL #50DC              ; CALL 50DC
 761+ C4CE E1             POP HL                  ; Pop last item from stack into HL
 762+ C4CF AF             XOR A                   ; A=0
 763+ C4D0 C9             RET                     ; Return
 764+ C4D1 CD 72 50       CALL #5072              ; CALL 5072
 765+ C4D4 CB 21          SLA C                   ; Shift C left (copying bit 7 into the carry flag,
 766+ C4D6                                        ; and resetting bit 0)
 767+ C4D6 CB 10          RL B                    ; Rotate B left through the carry flag
 768+ C4D8 CB 21          SLA C                   ; Shift C left (copying bit 7 into the carry flag,
 769+ C4DA                                        ; and resetting bit 0)
 770+ C4DA CB 10          RL B                    ; Rotate B left through the carry flag
 771+ C4DC C5             PUSH BC                 ; Push BC onto the stack
 772+ C4DD ED 53 54 38    LD (#3854),DE           ; POKE #3854,E; POKE #3855,D
 773+ C4E1 22 52 38       LD (#3852),HL           ; POKE #3852,L; POKE #3853,H
 774+ C4E4 ED 4B 92 38    LD BC,(#3892)           ; C=PEEK #3892; B=PEEK #3893
 775+ C4E8 7A             LD A,D                  ; A=D
 776+ C4E9 B8             CP B                    ; Set the zero flag if A=B, or the carry flag if A<B
 777+ C4EA 38 10          JR C,LC069_43           ; Jump to LC069_43 if A<B
 778+ C4EC 7B             LD A,E                  ; A=E
 779+ C4ED B9             CP C                    ; Set the zero flag if A=C, or the carry flag if A<C
 780+ C4EE 38 0C          JR C,LC069_43           ; Jump to LC069_43 if A<C
 781+ C4F0 ED 4B 90 38    LD BC,(#3890)           ; C=PEEK #3890; B=PEEK #3891
 782+ C4F4 7C             LD A,H                  ; A=H
 783+ C4F5 B8             CP B                    ; Set the zero flag if A=B, or the carry flag if A<B
 784+ C4F6 38 04          JR C,LC069_43           ; Jump to LC069_43 if A<B
 785+ C4F8 7D             LD A,L                  ; A=L
 786+ C4F9 B9             CP C                    ; Set the zero flag if A=C, or the carry flag if A<C
 787+ C4FA 30 1C          JR NC,LC069_44          ; Jump to LC069_44 if A>=C
 788+ C4FC              LC069_43:
 789+ C4FC ED 4B A2 38    LD BC,(#38A2)           ; C=PEEK #38A2; B=PEEK #38A3
 790+ C500 CD B4 50       CALL #50B4              ; CALL 50B4
 791+ C503 CD 61 45       CALL #4561              ; CALL 4561
 792+ C506 CD 09 38       CALL #3809              ; CALL 3809
 793+ C509 21 00 30       LD HL,#3000             ; HL=#3000
 794+ C50C 3E 01          LD A,#01                ; A=#01
 795+ C50E CD 0F 38       CALL #380F              ; CALL 380F
 796+ C511 C1             POP BC                  ; Pop last item from stack into BC
 797+ C512 21 00 30       LD HL,#3000             ; HL=#3000
 798+ C515 09             ADD HL,BC               ; HL=HL+BC
 799+ C516 AF             XOR A                   ; A=0
 800+ C517 C9             RET                     ; Return
 801+ C518              LC069_44:
 802+ C518 C1             POP BC                  ; Pop last item from stack into BC
 803+ C519 37             SCF                     ; Set the carry flag
 804+ C51A C9             RET                     ; Return
 805+ C51B CD 3D 51       CALL #513D              ; CALL 513D
 806+ C51E 5E             LD E,(HL)               ; E=PEEK HL
 807+ C51F 23             INC HL                  ; HL=HL+1
 808+ C520 56             LD D,(HL)               ; D=PEEK HL
 809+ C521 23             INC HL                  ; HL=HL+1
 810+ C522 7E             LD A,(HL)               ; A=PEEK HL
 811+ C523 23             INC HL                  ; HL=HL+1
 812+ C524 66             LD H,(HL)               ; H=PEEK HL
 813+ C525 6F             LD L,A                  ; L=A
 814+ C526 B4             OR H                    ; A=A|H
 815+ C527 B3             OR E                    ; A=A|E
 816+ C528 B2             OR D                    ; A=A|D
 817+ C529 28 34          JR Z,LC069_47           ; Jump to LC069_47 if A=0
 818+ C52B 7C             LD A,H                  ; A=H
 819+ C52C E6 0F          AND #0F                 ; Keep only bits 0, 1, 2 and 3 of A
 820+ C52E FE 0F          CP #0F                  ; Set the zero flag if A=#0F, or the carry flag if
 821+ C530                                        ; A<#0F
 822+ C530 28 36          JR Z,LC069_48           ; Jump to LC069_48 if A=#0F
 823+ C532 EB             EX DE,HL                ; Exchange DE and HL
 824+ C533              LC069_45:
 825+ C533 22 A8 38       LD (#38A8),HL           ; POKE #38A8,L; POKE #38A9,H
 826+ C536 ED 53 AA 38    LD (#38AA),DE           ; POKE #38AA,E; POKE #38AB,D
 827+ C53A 01 02 00       LD BC,#0002             ; BC=#0002
 828+ C53D B7             OR A                    ; Clear the carry flag and set the zero flag if A=0
 829+ C53E ED 42          SBC HL,BC               ; HL=HL-carry-BC
 830+ C540 30 01          JR NC,LC069_46          ; Jump to LC069_46 if the carry flag is not set
 831+ C542 1B             DEC DE                  ; DE=DE-1
 832+ C543              LC069_46:
 833+ C543 3A 94 38       LD A,(#3894)            ; A=PEEK #3894
 834+ C546 CD B8 50       CALL #50B8              ; CALL 50B8
 835+ C549 ED 4B A4 38    LD BC,(#38A4)           ; C=PEEK #38A4; B=PEEK #38A5
 836+ C54D CD B4 50       CALL #50B4              ; CALL 50B4
 837+ C550 EB             EX DE,HL                ; Exchange DE and HL
 838+ C551 ED 4B A6 38    LD BC,(#38A6)           ; C=PEEK #38A6; B=PEEK #38A7
 839+ C555 09             ADD HL,BC               ; HL=HL+BC
 840+ C556 EB             EX DE,HL                ; Exchange DE and HL
 841+ C557 CD 61 45       CALL #4561              ; CALL 4561
 842+ C55A CD 09 38       CALL #3809              ; CALL 3809
 843+ C55D AF             XOR A                   ; A=0
 844+ C55E C9             RET                     ; Return
 845+ C55F              LC069_47:
 846+ C55F 2A 96 38       LD HL,(#3896)           ; L=PEEK #3896; H=PEEK #3897
 847+ C562 ED 5B 98 38    LD DE,(#3898)           ; E=PEEK #3898; D=PEEK #3899
 848+ C566 18 CB          JR LC069_45             ; Jump to LC069_45
 849+ C568              LC069_48:
 850+ C568 32 49 38       LD (#3849),A            ; POKE #3849,A
 851+ C56B B7             OR A                    ; Clear the carry flag and set the zero flag if A=0
 852+ C56C C9             RET                     ; Return
 853+ C56D ED 4B 9E 38    LD BC,(#389E)           ; C=PEEK #389E; B=PEEK #389F
 854+ C571 ED 43 5C 38    LD (#385C),BC           ; POKE #385C,C; POKE #385D,B
 855+ C575 ED 4B A0 38    LD BC,(#38A0)           ; C=PEEK #38A0; B=PEEK #38A1
 856+ C579 ED 43 5E 38    LD (#385E),BC           ; POKE #385E,C; POKE #385F,B
 857+ C57D C3 E4 50       JP #50E4                ; Jump to 50E4
 858+ C580 3A 73 38       LD A,(#3873)            ; A=PEEK #3873
 859+ C583 E6 10          AND #10                 ; Keep only bit 4 of A
 860+ C585 CD 67 46       CALL #4667              ; CALL 4667
 861+ C588 C0             RET NZ                  ; Return if the zero flag is not set
 862+ C589 22 F8 37       LD (#37F8),HL           ; POKE #37F8,L; POKE #37F9,H
 863+ C58C 2A C8 38       LD HL,(#38C8)           ; L=PEEK #38C8; H=PEEK #38C9
 864+ C58F ED 5B CA 38    LD DE,(#38CA)           ; E=PEEK #38CA; D=PEEK #38CB
 865+ C593 22 A8 38       LD (#38A8),HL           ; POKE #38A8,L; POKE #38A9,H
 866+ C596 ED 53 AA 38    LD (#38AA),DE           ; POKE #38AA,E; POKE #38AB,D
 867+ C59A CD 3D 51       CALL #513D              ; CALL 513D
 868+ C59D              LC069_49:
 869+ C59D 21 00 32       LD HL,#3200             ; HL=#3200
 870+ C5A0 06 01          LD B,#01                ; B=#01
 871+ C5A2 CD BF 43       CALL #43BF              ; CALL 43BF
 872+ C5A5 21 00 32       LD HL,#3200             ; HL=#3200
 873+ C5A8 11 20 00       LD DE,#0020             ; DE=#0020
 874+ C5AB 06 10          LD B,#10                ; B=#10
 875+ C5AD AF             XOR A                   ; A=0
 876+ C5AE              LC069_50:
 877+ C5AE BE             CP (HL)                 ; Set the zero flag if A=PEEK HL, or the carry flag
 878+ C5AF                                        ; if A<PEEK HL
 879+ C5AF CA 27 46       JP Z,#4627              ; Jump to 4627 if A=PEEK HL
 880+ C5B2 19             ADD HL,DE               ; HL=HL+DE
 881+ C5B3 10 F9          DJNZ LC069_50           ; Decrement B and jump to LC069_50 if B>0
 882+ C5B5 3A 49 38       LD A,(#3849)            ; A=PEEK #3849
 883+ C5B8 FE 0F          CP #0F                  ; Set the zero flag if A=#0F, or the carry flag if
 884+ C5BA                                        ; A<#0F
 885+ C5BA 20 E1          JR NZ,LC069_49          ; Jump to LC069_49 if A<>#0F
 886+ C5BC CD 5C 44       CALL #445C              ; CALL 445C
 887+ C5BF 38 6E          JR C,LC069_51           ; Jump to LC069_51 if the carry flag is set
 888+ C5C1 22 C4 38       LD (#38C4),HL           ; POKE #38C4,L; POKE #38C5,H
 889+ C5C4 ED 53 C6 38    LD (#38C6),DE           ; POKE #38C6,E; POKE #38C7,D
 890+ C5C8 D9             EXX                     ; Exchange BC, DE and HL with BC', DE' and HL'
 891+ C5C9 3E FF          LD A,#FF                ; A=#FF
 892+ C5CB 2B             DEC HL                  ; HL=HL-1
 893+ C5CC 36 0F          LD (HL),#0F             ; POKE HL,#0F
 894+ C5CE 2B             DEC HL                  ; HL=HL-1
 895+ C5CF 77             LD (HL),A               ; POKE HL,A
 896+ C5D0 2B             DEC HL                  ; HL=HL-1
 897+ C5D1 77             LD (HL),A               ; POKE HL,A
 898+ C5D2 2B             DEC HL                  ; HL=HL-1
 899+ C5D3 77             LD (HL),A               ; POKE HL,A
 900+ C5D4 21 00 30       LD HL,#3000             ; HL=#3000
 901+ C5D7 3E 01          LD A,#01                ; A=#01
 902+ C5D9 CD 12 38       CALL #3812              ; CALL 3812
 903+ C5DC 2A A8 38       LD HL,(#38A8)           ; L=PEEK #38A8; H=PEEK #38A9
 904+ C5DF ED 5B AA 38    LD DE,(#38AA)           ; E=PEEK #38AA; D=PEEK #38AB
 905+ C5E3 CD C5 44       CALL #44C5              ; CALL 44C5
 906+ C5E6 38 47          JR C,LC069_51           ; Jump to LC069_51 if the carry flag is set
 907+ C5E8 EB             EX DE,HL                ; Exchange DE and HL
 908+ C5E9 21 C4 38       LD HL,#38C4             ; HL=#38C4
 909+ C5EC 01 04 00       LD BC,#0004             ; BC=#0004
 910+ C5EF ED B0          LDIR                    ; POKE DE,PEEK HL; HL=HL+1; DE=DE+1; BC=BC-1; repeat
 911+ C5F1                                        ; until BC=0
 912+ C5F1 21 00 30       LD HL,#3000             ; HL=#3000
 913+ C5F4 3E 01          LD A,#01                ; A=#01
 914+ C5F6 CD 12 38       CALL #3812              ; CALL 3812
 915+ C5F9 21 C4 38       LD HL,#38C4             ; HL=#38C4
 916+ C5FC CD 0F 45       CALL #450F              ; CALL 450F
 917+ C5FF 3E FF          LD A,#FF                ; A=#FF
 918+ C601 C0             RET NZ                  ; Return if the zero flag is not set
 919+ C602 21 00 30       LD HL,#3000             ; HL=#3000
 920+ C605 06 00          LD B,#00                ; B=#00
 921+ C607 CD 67 51       CALL #5167              ; CALL 5167
 922+ C60A CD 67 51       CALL #5167              ; CALL 5167
 923+ C60D 2A 64 38       LD HL,(#3864)           ; L=PEEK #3864; H=PEEK #3865
 924+ C610 ED 5B 66 38    LD DE,(#3866)           ; E=PEEK #3866; D=PEEK #3867
 925+ C614 E5             PUSH HL                 ; Push HL onto the stack
 926+ C615 D5             PUSH DE                 ; Push DE onto the stack
 927+ C616 21 00 30       LD HL,#3000             ; HL=#3000
 928+ C619 3E 01          LD A,#01                ; A=#01
 929+ C61B CD 12 38       CALL #3812              ; CALL 3812
 930+ C61E 3A 94 38       LD A,(#3894)            ; A=PEEK #3894
 931+ C621 21 00 30       LD HL,#3000             ; HL=#3000
 932+ C624 CD 45 51       CALL #5145              ; CALL 5145
 933+ C627 D1             POP DE                  ; Pop last item from stack into DE
 934+ C628 E1             POP HL                  ; Pop last item from stack into HL
 935+ C629 CD 09 38       CALL #3809              ; CALL 3809
 936+ C62C C3 91 45       JP #4591                ; Jump to 4591
 937+ C62F              LC069_51:
 938+ C62F 3E 10          LD A,#10                ; A=#10
 939+ C631 B7             OR A                    ; Clear the carry flag and set the zero flag if A=0
 940+ C632 C9             RET                     ; Return
 941+ C633 EB             EX DE,HL                ; Exchange DE and HL
 942+ C634 2A F8 37       LD HL,(#37F8)           ; L=PEEK #37F8; H=PEEK #37F9
 943+ C637              LC069_52:
 944+ C637 01 20 00       LD BC,#0020             ; BC=#0020
 945+ C63A ED B0          LDIR                    ; POKE DE,PEEK HL; HL=HL+1; DE=DE+1; BC=BC-1; repeat
 946+ C63C                                        ; until BC=0
 947+ C63C 01 C0 FF       LD BC,#FFC0             ; BC=#FFC0
 948+ C63F 09             ADD HL,BC               ; HL=HL+BC
 949+ C640 7C             LD A,H                  ; A=H
 950+ C641 FE 10          CP #10                  ; Set the zero flag if A=#10, or the carry flag if
 951+ C643                                        ; A<#10
 952+ C643 38 11          JR C,LC069_53           ; Jump to LC069_53 if A<#10
 953+ C645 7B             LD A,E                  ; A=E
 954+ C646 B7             OR A                    ; Clear the carry flag and set the zero flag if A=0
 955+ C647 20 EE          JR NZ,LC069_52          ; Jump to LC069_52 if A>0
 956+ C649 CB 42          BIT 0,D                 ; Set the zero flag if bit 0 of D is 0
 957+ C64B 20 EA          JR NZ,LC069_52          ; Jump to LC069_52 if bit 0 of D is set
 958+ C64D 22 F8 37       LD (#37F8),HL           ; POKE #37F8,L; POKE #37F9,H
 959+ C650 CD 4C 46       CALL #464C              ; CALL 464C
 960+ C653 C3 A9 45       JP #45A9                ; Jump to 45A9
 961+ C656              LC069_53:
 962+ C656 AF             XOR A                   ; A=0
 963+ C657 12             LD (DE),A               ; POKE DE,A
 964+ C658 2A 60 38       LD HL,(#3860)           ; L=PEEK #3860; H=PEEK #3861
 965+ C65B ED 5B 62 38    LD DE,(#3862)           ; E=PEEK #3862; D=PEEK #3863
 966+ C65F CD 0C 38       CALL #380C              ; CALL 380C
 967+ C662 21 00 32       LD HL,#3200             ; HL=#3200
 968+ C665 3E 01          LD A,#01                ; A=#01
 969+ C667 CD 12 38       CALL #3812              ; CALL 3812
 970+ C66A 2A C0 38       LD HL,(#38C0)           ; L=PEEK #38C0; H=PEEK #38C1
 971+ C66D ED 5B C2 38    LD DE,(#38C2)           ; E=PEEK #38C2; D=PEEK #38C3
 972+ C671 AF             XOR A                   ; A=0
 973+ C672 C9             RET                     ; Return
 974+ C673 11 00 00       LD DE,#0000             ; DE=#0000
 975+ C676 01 00 01       LD BC,#0100             ; BC=#0100
 976+ C679 D5             PUSH DE                 ; Push DE onto the stack
 977+ C67A 12             LD (DE),A               ; POKE DE,A
 978+ C67B 32 73 38       LD (#3873),A            ; POKE #3873,A
 979+ C67E 13             INC DE                  ; DE=DE+1
 980+ C67F ED B0          LDIR                    ; POKE DE,PEEK HL; HL=HL+1; DE=DE+1; BC=BC-1; repeat
 981+ C681                                        ; until BC=0
 982+ C681 E1             POP HL                  ; Pop last item from stack into HL
 983+ C682 22 F8 37       LD (#37F8),HL           ; POKE #37F8,L; POKE #37F9,H
 984+ C685 23             INC HL                  ; HL=HL+1
 985+ C686 CD 1C 48       CALL #481C              ; CALL 481C
 986+ C689 3E 01          LD A,#01                ; A=#01
 987+ C68B C0             RET NZ                  ; Return if the zero flag is not set
 988+ C68C 2A C0 38       LD HL,(#38C0)           ; L=PEEK #38C0; H=PEEK #38C1
 989+ C68F 22 82 38       LD (#3882),HL           ; POKE #3882,L; POKE #3883,H
 990+ C692 2A C2 38       LD HL,(#38C2)           ; L=PEEK #38C2; H=PEEK #38C3
 991+ C695 22 7C 38       LD (#387C),HL           ; POKE #387C,L; POKE #387D,H
 992+ C698 2A F8 37       LD HL,(#37F8)           ; L=PEEK #37F8; H=PEEK #37F9
 993+ C69B CD D7 4A       CALL #4AD7              ; CALL 4AD7
 994+ C69E CA 2A 48       JP Z,#482A              ; Jump to 482A if the zero flag is set
 995+ C6A1 06 0B          LD B,#0B                ; B=#0B
 996+ C6A3 21 68 38       LD HL,#3868             ; HL=#3868
 997+ C6A6              LC069_54:
 998+ C6A6 7E             LD A,(HL)               ; A=PEEK HL
 999+ C6A7 B7             OR A                    ; Clear the carry flag and set the zero flag if A=0
1000+ C6A8 28 29          JR Z,LC069_55           ; Jump to LC069_55 if A=0
1001+ C6AA CD 45 48       CALL #4845              ; CALL 4845
1002+ C6AD 28 24          JR Z,LC069_55           ; Jump to LC069_55 if the zero flag is set
1003+ C6AF CD 7C 48       CALL #487C              ; CALL 487C
1004+ C6B2 28 1F          JR Z,LC069_55           ; Jump to LC069_55 if the zero flag is set
1005+ C6B4 CD 91 4C       CALL #4C91              ; CALL 4C91
1006+ C6B7 77             LD (HL),A               ; POKE HL,A
1007+ C6B8 23             INC HL                  ; HL=HL+1
1008+ C6B9 10 EB          DJNZ LC069_54           ; Decrement B and jump to LC069_54 if B>0
1009+ C6BB 21 68 38       LD HL,#3868             ; HL=#3868
1010+ C6BE 11 00 10       LD DE,#1000             ; DE=#1000
1011+ C6C1 D5             PUSH DE                 ; Push DE onto the stack
1012+ C6C2 01 21 00       LD BC,#0021             ; BC=#0021
1013+ C6C5 ED B0          LDIR                    ; POKE DE,PEEK HL; HL=HL+1; DE=DE+1; BC=BC-1; repeat
1014+ C6C7                                        ; until BC=0
1015+ C6C7 21 00 00       LD HL,#0000             ; HL=#0000
1016+ C6CA CD 63 4A       CALL #4A63              ; CALL 4A63
1017+ C6CD 3E 04          LD A,#04                ; A=#04
1018+ C6CF E1             POP HL                  ; Pop last item from stack into HL
1019+ C6D0 C0             RET NZ                  ; Return if the zero flag is not set
1020+ C6D1 AF             XOR A                   ; A=0
1021+ C6D2 C9             RET                     ; Return
1022+ C6D3              LC069_55:
1023+ C6D3 11 68 38       LD DE,#3868             ; DE=#3868
1024+ C6D6 06 08          LD B,#08                ; B=#08
1025+ C6D8 21 00 00       LD HL,#0000             ; HL=#0000
1026+ C6DB              LC069_56:
1027+ C6DB 23             INC HL                  ; HL=HL+1
1028+ C6DC 7E             LD A,(HL)               ; A=PEEK HL
1029+ C6DD              LC069_57:
1030+ C6DD CD 91 4C       CALL #4C91              ; CALL 4C91
1031+ C6E0 CD 5B 48       CALL #485B              ; CALL 485B
1032+ C6E3 28 05          JR Z,LC069_58           ; Jump to LC069_58 if the zero flag is set
1033+ C6E5 CD 45 48       CALL #4845              ; CALL 4845
1034+ C6E8 20 06          JR NZ,LC069_59          ; Jump to LC069_59 if the zero flag is not set
1035+ C6EA              LC069_58:
1036+ C6EA ED 5F          LD A,R                  ; A=R
1037+ C6EC E6 7F          AND #7F                 ; Reset bit 7 of A
1038+ C6EE 18 ED          JR LC069_57             ; Jump to LC069_57
1039+ C6F0              LC069_59:
1040+ C6F0 FE 20          CP #20                  ; Set the zero flag if A=#20, or the carry flag if
1041+ C6F2                                        ; A<#20
1042+ C6F2 20 02          JR NZ,LC069_60          ; Jump to LC069_60 if A<>#20
1043+ C6F4 3E 5F          LD A,#5F                ; A=#5F
1044+ C6F6              LC069_60:
1045+ C6F6 12             LD (DE),A               ; POKE DE,A
1046+ C6F7 13             INC DE                  ; DE=DE+1
1047+ C6F8 10 E1          DJNZ LC069_56           ; Decrement B and jump to LC069_56 if B>0
1048+ C6FA D5             PUSH DE                 ; Push DE onto the stack
1049+ C6FB 06 03          LD B,#03                ; B=#03
1050+ C6FD CD CE 4A       CALL #4ACE              ; CALL 4ACE
1051+ C700 D1             POP DE                  ; Pop last item from stack into DE
1052+ C701 21 00 00       LD HL,#0000             ; HL=#0000
1053+ C704 CB 66          BIT 4,(HL)              ; Set the zero flag if bit 4 of (HL) is 0
1054+ C706 20 27          JR NZ,LC069_64          ; Jump to LC069_64 if bit 4 of PEEK HL is set
1055+ C708 23             INC HL                  ; HL=HL+1
1056+ C709 AF             XOR A                   ; A=0
1057+ C70A 01 00 01       LD BC,#0100             ; BC=#0100
1058+ C70D ED B1          CPIR                    ; Compare A with PEEK HL; HL=HL+1; BC=BC-1; repeat
1059+ C70F                                        ; until BC=0 or A=PEEK HL
1060+ C70F 2B             DEC HL                  ; HL=HL-1
1061+ C710 06 04          LD B,#04                ; B=#04
1062+ C712              LC069_61:
1063+ C712 2B             DEC HL                  ; HL=HL-1
1064+ C713 7E             LD A,(HL)               ; A=PEEK HL
1065+ C714 B7             OR A                    ; Clear the carry flag and set the zero flag if A=0
1066+ C715 28 18          JR Z,LC069_64           ; Jump to LC069_64 if A=0
1067+ C717 FE 2E          CP #2E                  ; Set the zero flag if A=#2E, or the carry flag if
1068+ C719                                        ; A<#2E
1069+ C719 28 04          JR Z,LC069_62           ; Jump to LC069_62 if A=#2E
1070+ C71B 10 F5          DJNZ LC069_61           ; Decrement B and jump to LC069_61 if B>0
1071+ C71D 18 10          JR LC069_64             ; Jump to LC069_64
1072+ C71F              LC069_62:
1073+ C71F 06 03          LD B,#03                ; B=#03
1074+ C721              LC069_63:
1075+ C721 23             INC HL                  ; HL=HL+1
1076+ C722 7E             LD A,(HL)               ; A=PEEK HL
1077+ C723 CD 91 4C       CALL #4C91              ; CALL 4C91
1078+ C726 CD 45 48       CALL #4845              ; CALL 4845
1079+ C729 28 04          JR Z,LC069_64           ; Jump to LC069_64 if the zero flag is set
1080+ C72B 12             LD (DE),A               ; POKE DE,A
1081+ C72C 13             INC DE                  ; DE=DE+1
1082+ C72D 10 F2          DJNZ LC069_63           ; Decrement B and jump to LC069_63 if B>0
1083+ C72F              LC069_64:
1084+ C72F 21 68 38       LD HL,#3868             ; HL=#3868
1085+ C732 11 00 10       LD DE,#1000             ; DE=#1000
1086+ C735 01 20 00       LD BC,#0020             ; BC=#0020
1087+ C738 ED B0          LDIR                    ; POKE DE,PEEK HL; HL=HL+1; DE=DE+1; BC=BC-1; repeat
1088+ C73A                                        ; until BC=0
1089+ C73A 11 0B 10       LD DE,#100B             ; DE=#100B
1090+ C73D ED 53 F8 37    LD (#37F8),DE           ; POKE #37F8,E; POKE #37F9,D
1091+ C741 21 E0 0F       LD HL,#0FE0             ; HL=#0FE0
1092+ C744 3E 30          LD A,#30                ; A=#30
1093+ C746 06 05          LD B,#05                ; B=#05
1094+ C748              LC069_65:
1095+ C748 77             LD (HL),A               ; POKE HL,A
1096+ C749 23             INC HL                  ; HL=HL+1
1097+ C74A 10 FC          DJNZ LC069_65           ; Decrement B and jump to LC069_65 if B>0
1098+ C74C              LC069_66:
1099+ C74C 21 E3 0F       LD HL,#0FE3             ; HL=#0FE3
1100+ C74F E5             PUSH HL                 ; Push HL onto the stack
1101+ C750 CD D1 47       CALL #47D1              ; CALL 47D1
1102+ C753 3E 02          LD A,#02                ; A=#02
1103+ C755 E1             POP HL                  ; Pop last item from stack into HL
1104+ C756 C0             RET NZ                  ; Return if the zero flag is not set
1105+ C757 11 07 10       LD DE,#1007             ; DE=#1007
1106+ C75A 01 FF 03       LD BC,#03FF             ; BC=#03FF
1107+ C75D 3E 30          LD A,#30                ; A=#30
1108+ C75F              LC069_67:
1109+ C75F ED A8          LDD                     ; POKE DE,PEEK HL; HL=HL-1; DE=DE-1; BC=BC-1
1110+ C761 BE             CP (HL)                 ; Set the zero flag if A=PEEK HL, or the carry flag
1111+ C762                                        ; if A<PEEK HL
1112+ C762 28 02          JR Z,LC069_68           ; Jump to LC069_68 if A=PEEK HL
1113+ C764 10 F9          DJNZ LC069_67           ; Decrement B and jump to LC069_67 if B>0
1114+ C766              LC069_68:
1115+ C766 3E 7E          LD A,#7E                ; A=#7E
1116+ C768 12             LD (DE),A               ; POKE DE,A
1117+ C769 21 00 10       LD HL,#1000             ; HL=#1000
1118+ C76C 11 68 38       LD DE,#3868             ; DE=#3868
1119+ C76F 01 0C 00       LD BC,#000C             ; BC=#000C
1120+ C772 ED B0          LDIR                    ; POKE DE,PEEK HL; HL=HL+1; DE=DE+1; BC=BC-1; repeat
1121+ C774                                        ; until BC=0
1122+ C774 CD 6A 4A       CALL #4A6A              ; CALL 4A6A
1123+ C777 20 D3          JR NZ,LC069_66          ; Jump to LC069_66 if the zero flag is not set
1124+ C779 21 00 10       LD HL,#1000             ; HL=#1000
1125+ C77C CD 14 43       CALL #4314              ; CALL 4314
1126+ C77F 32 98 47       LD (#4798),A            ; POKE #4798,A
1127+ C782 21 20 10       LD HL,#1020             ; HL=#1020
1128+ C785 11 01 00       LD DE,#0001             ; DE=#0001
1129+ C788 01 01 00       LD BC,#0001             ; BC=#0001
1130+ C78B              LC069_69:
1131+ C78B 71             LD (HL),C               ; POKE HL,C
1132+ C78C 0C             INC C                   ; C=C+1
1133+ C78D 23             INC HL                  ; HL=HL+1
1134+ C78E CD EA 47       CALL #47EA              ; CALL 47EA
1135+ C791 CD EA 47       CALL #47EA              ; CALL 47EA
1136+ C794 CD EA 47       CALL #47EA              ; CALL 47EA
1137+ C797 CD EA 47       CALL #47EA              ; CALL 47EA
1138+ C79A CD EA 47       CALL #47EA              ; CALL 47EA
1139+ C79D 36 0F          LD (HL),#0F             ; POKE HL,#0F
1140+ C79F 23             INC HL                  ; HL=HL+1
1141+ C7A0 36 00          LD (HL),#00             ; POKE HL,#00
1142+ C7A2 23             INC HL                  ; HL=HL+1
1143+ C7A3 36 00          LD (HL),#00             ; POKE HL,#00
1144+ C7A5 23             INC HL                  ; HL=HL+1
1145+ C7A6 CD EA 47       CALL #47EA              ; CALL 47EA
1146+ C7A9 CD EA 47       CALL #47EA              ; CALL 47EA
1147+ C7AC CD EA 47       CALL #47EA              ; CALL 47EA
1148+ C7AF CD EA 47       CALL #47EA              ; CALL 47EA
1149+ C7B2 CD EA 47       CALL #47EA              ; CALL 47EA
1150+ C7B5 CD EA 47       CALL #47EA              ; CALL 47EA
1151+ C7B8 36 00          LD (HL),#00             ; POKE HL,#00
1152+ C7BA 23             INC HL                  ; HL=HL+1
1153+ C7BB 36 00          LD (HL),#00             ; POKE HL,#00
1154+ C7BD 23             INC HL                  ; HL=HL+1
1155+ C7BE CD EA 47       CALL #47EA              ; CALL 47EA
1156+ C7C1 CD EA 47       CALL #47EA              ; CALL 47EA
1157+ C7C4 1A             LD A,(DE)               ; A=PEEK DE
1158+ C7C5 B7             OR A                    ; Clear the carry flag and set the zero flag if A=0
1159+ C7C6 20 C3          JR NZ,LC069_69          ; Jump to LC069_69 if A>0
1160+ C7C8 36 00          LD (HL),#00             ; POKE HL,#00
1161+ C7CA 01 E0 FF       LD BC,#FFE0             ; BC=#FFE0
1162+ C7CD 09             ADD HL,BC               ; HL=HL+BC
1163+ C7CE CB F6          SET 6,(HL)              ; Set bit 6 of (HL)
1164+ C7D0 E5             PUSH HL                 ; Push HL onto the stack
1165+ C7D1 21 00 00       LD HL,#0000             ; HL=#0000
1166+ C7D4 CD 63 4A       CALL #4A63              ; CALL 4A63
1167+ C7D7 3E 03          LD A,#03                ; A=#03
1168+ C7D9 E1             POP HL                  ; Pop last item from stack into HL
1169+ C7DA C0             RET NZ                  ; Return if the zero flag is not set
1170+ C7DB AF             XOR A                   ; A=0
1171+ C7DC C9             RET                     ; Return
1172+ C7DD 06 03          LD B,#03                ; B=#03
1173+ C7DF              LC069_70:
1174+ C7DF 7E             LD A,(HL)               ; A=PEEK HL
1175+ C7E0 FE 39          CP #39                  ; Set the zero flag if A=#39, or the carry flag if
1176+ C7E2                                        ; A<#39
1177+ C7E2 38 08          JR C,LC069_71           ; Jump to LC069_71 if A<#39
1178+ C7E4 36 30          LD (HL),#30             ; POKE HL,#30
1179+ C7E6 2B             DEC HL                  ; HL=HL-1
1180+ C7E7 10 F6          DJNZ LC069_70           ; Decrement B and jump to LC069_70 if B>0
1181+ C7E9 AF             XOR A                   ; A=0
1182+ C7EA 3C             INC A                   ; A=A+1
1183+ C7EB C9             RET                     ; Return
1184+ C7EC              LC069_71:
1185+ C7EC 34             INC (HL)                ; POKE HL,(PEEK HL)+1
1186+ C7ED AF             XOR A                   ; A=0
1187+ C7EE C9             RET                     ; Return
1188+ C7EF              LC069_72:
1189+ C7EF 70             LD (HL),B               ; POKE HL,B
1190+ C7F0 23             INC HL                  ; HL=HL+1
1191+ C7F1 70             LD (HL),B               ; POKE HL,B
1192+ C7F2 23             INC HL                  ; HL=HL+1
1193+ C7F3 06 FF          LD B,#FF                ; B=#FF
1194+ C7F5 C9             RET                     ; Return
1195+ C7F6 1A             LD A,(DE)               ; A=PEEK DE
1196+ C7F7 B7             OR A                    ; Clear the carry flag and set the zero flag if A=0
1197+ C7F8 28 F5          JR Z,LC069_72           ; Jump to LC069_72 if A=0
1198+ C7FA 13             INC DE                  ; DE=DE+1
1199+ C7FB C5             PUSH BC                 ; Push BC onto the stack
1200+ C7FC 4F             LD C,A                  ; C=A
1201+ C7FD 06 00          LD B,#00                ; B=#00
1202+ C7FF FE 80          CP #80                  ; Set the zero flag if A=#80, or the carry flag if
1203+ C801                                        ; A<#80
1204+ C801 D4 FE 47       CALL NC,#47FE           ; CALL 47FE if A>=#80
1205+ C804 71             LD (HL),C               ; POKE HL,C
1206+ C805 23             INC HL                  ; HL=HL+1
1207+ C806 70             LD (HL),B               ; POKE HL,B
1208+ C807 23             INC HL                  ; HL=HL+1
1209+ C808 C1             POP BC                  ; Pop last item from stack into BC
1210+ C809 C9             RET                     ; Return
1211+ C80A 06 04          LD B,#04                ; B=#04
1212+ C80C FE F0          CP #F0                  ; Set the zero flag if A=#F0, or the carry flag if
1213+ C80E                                        ; A<#F0
1214+ C80E 0E 01          LD C,#01                ; C=#01
1215+ C810 C8             RET Z                   ; Return if the zero flag is set
1216+ C811 FE F1          CP #F1                  ; Set the zero flag if A=#F1, or the carry flag if
1217+ C813                                        ; A<#F1
1218+ C813 0E 51          LD C,#51                ; C=#51
1219+ C815 C8             RET Z                   ; Return if the zero flag is set
1220+ C816 FE B0          CP #B0                  ; Set the zero flag if A=#B0, or the carry flag if
1221+ C818                                        ; A<#B0
1222+ C818 30 04          JR NC,LC069_73          ; Jump to LC069_73 if A>=#B0
1223+ C81A D6 70          SUB #70                 ; A=A-#70
1224+ C81C 4F             LD C,A                  ; C=A
1225+ C81D C9             RET                     ; Return
1226+ C81E              LC069_73:
1227+ C81E FE F0          CP #F0                  ; Set the zero flag if A=#F0, or the carry flag if
1228+ C820                                        ; A<#F0
1229+ C820 D0             RET NC                  ; Return if A>=#F0
1230+ C821 FE E0          CP #E0                  ; Set the zero flag if A=#E0, or the carry flag if
1231+ C823                                        ; A<#E0
1232+ C823 D8             RET C                   ; Return if A<#E0
1233+ C824 D6 A0          SUB #A0                 ; A=A-#A0
1234+ C826 4F             LD C,A                  ; C=A
1235+ C827 C9             RET                     ; Return
1236+ C828 06 FF          LD B,#FF                ; B=#FF
1237+ C82A              LC069_74:
1238+ C82A 7E             LD A,(HL)               ; A=PEEK HL
1239+ C82B B7             OR A                    ; Clear the carry flag and set the zero flag if A=0
1240+ C82C 28 0B          JR Z,LC069_76           ; Jump to LC069_76 if A=0
1241+ C82E CD 5B 48       CALL #485B              ; CALL 485B
1242+ C831 28 03          JR Z,LC069_75           ; Jump to LC069_75 if the zero flag is set
1243+ C833 23             INC HL                  ; HL=HL+1
1244+ C834 10 F4          DJNZ LC069_74           ; Decrement B and jump to LC069_74 if B>0
1245+ C836              LC069_75:
1246+ C836 AF             XOR A                   ; A=0
1247+ C837 3C             INC A                   ; A=A+1
1248+ C838 C9             RET                     ; Return
1249+ C839              LC069_76:
1250+ C839 04             INC B                   ; B=B+1
1251+ C83A 28 FA          JR Z,LC069_75           ; Jump to LC069_75 if B=0
1252+ C83C 2B             DEC HL                  ; HL=HL-1
1253+ C83D 7E             LD A,(HL)               ; A=PEEK HL
1254+ C83E FE 20          CP #20                  ; Set the zero flag if A=#20, or the carry flag if
1255+ C840                                        ; A<#20
1256+ C840 28 F7          JR Z,LC069_76           ; Jump to LC069_76 if A=#20
1257+ C842 05             DEC B                   ; B=B-1
1258+ C843              LC069_77:
1259+ C843 04             INC B                   ; B=B+1
1260+ C844 28 F0          JR Z,LC069_75           ; Jump to LC069_75 if B=0
1261+ C846 7E             LD A,(HL)               ; A=PEEK HL
1262+ C847 2B             DEC HL                  ; HL=HL-1
1263+ C848 FE 2E          CP #2E                  ; Set the zero flag if A=#2E, or the carry flag if
1264+ C84A                                        ; A<#2E
1265+ C84A 28 F7          JR Z,LC069_77           ; Jump to LC069_77 if A=#2E
1266+ C84C 23             INC HL                  ; HL=HL+1
1267+ C84D 23             INC HL                  ; HL=HL+1
1268+ C84E AF             XOR A                   ; A=0
1269+ C84F 77             LD (HL),A               ; POKE HL,A
1270+ C850 C9             RET                     ; Return
1271+ C851 FE 2B          CP #2B                  ; Set the zero flag if A=#2B, or the carry flag if
1272+ C853                                        ; A<#2B
1273+ C853 C8             RET Z                   ; Return if A=#2B
1274+ C854 FE 2C          CP #2C                  ; Set the zero flag if A=#2C, or the carry flag if
1275+ C856                                        ; A<#2C
1276+ C856 C8             RET Z                   ; Return if A=#2C
1277+ C857 FE 2E          CP #2E                  ; Set the zero flag if A=#2E, or the carry flag if
1278+ C859                                        ; A<#2E
1279+ C859 C8             RET Z                   ; Return if A=#2E
1280+ C85A FE 3B          CP #3B                  ; Set the zero flag if A=#3B, or the carry flag if
1281+ C85C                                        ; A<#3B
1282+ C85C C8             RET Z                   ; Return if A=#3B
1283+ C85D FE 3D          CP #3D                  ; Set the zero flag if A=#3D, or the carry flag if
1284+ C85F                                        ; A<#3D
1285+ C85F C8             RET Z                   ; Return if A=#3D
1286+ C860 FE 5B          CP #5B                  ; Set the zero flag if A=#5B, or the carry flag if
1287+ C862                                        ; A<#5B
1288+ C862 C8             RET Z                   ; Return if A=#5B
1289+ C863 FE 5D          CP #5D                  ; Set the zero flag if A=#5D, or the carry flag if
1290+ C865                                        ; A<#5D
1291+ C865 C8             RET Z                   ; Return if A=#5D
1292+ C866 C9             RET                     ; Return
1293+ C867 FE 20          CP #20                  ; Set the zero flag if A=#20, or the carry flag if
1294+ C869                                        ; A<#20
1295+ C869 38 1B          JR C,LC069_78           ; Jump to LC069_78 if A<#20
1296+ C86B FE 22          CP #22                  ; Set the zero flag if A=#22, or the carry flag if
1297+ C86D                                        ; A<#22
1298+ C86D C8             RET Z                   ; Return if A=#22
1299+ C86E FE 2A          CP #2A                  ; Set the zero flag if A=#2A, or the carry flag if
1300+ C870                                        ; A<#2A
1301+ C870 C8             RET Z                   ; Return if A=#2A
1302+ C871 FE 2F          CP #2F                  ; Set the zero flag if A=#2F, or the carry flag if
1303+ C873                                        ; A<#2F
1304+ C873 C8             RET Z                   ; Return if A=#2F
1305+ C874 FE 3A          CP #3A                  ; Set the zero flag if A=#3A, or the carry flag if
1306+ C876                                        ; A<#3A
1307+ C876 C8             RET Z                   ; Return if A=#3A
1308+ C877 FE 3C          CP #3C                  ; Set the zero flag if A=#3C, or the carry flag if
1309+ C879                                        ; A<#3C
1310+ C879 C8             RET Z                   ; Return if A=#3C
1311+ C87A FE 3E          CP #3E                  ; Set the zero flag if A=#3E, or the carry flag if
1312+ C87C                                        ; A<#3E
1313+ C87C C8             RET Z                   ; Return if A=#3E
1314+ C87D FE 3F          CP #3F                  ; Set the zero flag if A=#3F, or the carry flag if
1315+ C87F                                        ; A<#3F
1316+ C87F C8             RET Z                   ; Return if A=#3F
1317+ C880 FE 5C          CP #5C                  ; Set the zero flag if A=#5C, or the carry flag if
1318+ C882                                        ; A<#5C
1319+ C882 C8             RET Z                   ; Return if A=#5C
1320+ C883 FE 7C          CP #7C                  ; Set the zero flag if A=#7C, or the carry flag if
1321+ C885                                        ; A<#7C
1322+ C885 C9             RET                     ; Return
1323+ C886              LC069_78:
1324+ C886 BF             CP A                    ; Clear the carry flag and set the zero flag
1325+ C887 C9             RET                     ; Return
1326+ C888 FE 41          CP #41                  ; Set the zero flag if A=#41, or the carry flag if
1327+ C88A                                        ; A<#41
1328+ C88A D8             RET C                   ; Return if A<#41
1329+ C88B FE 5B          CP #5B                  ; Set the zero flag if A=#5B, or the carry flag if
1330+ C88D                                        ; A<#5B
1331+ C88D 30 02          JR NC,LC069_79          ; Jump to LC069_79 if A>=#5B
1332+ C88F AF             XOR A                   ; A=0
1333+ C890 C9             RET                     ; Return
1334+ C891              LC069_79:
1335+ C891 FE 80          CP #80                  ; Set the zero flag if A=#80, or the carry flag if
1336+ C893                                        ; A<#80
1337+ C893 D8             RET C                   ; Return if A<#80
1338+ C894 FE A0          CP #A0                  ; Set the zero flag if A=#A0, or the carry flag if
1339+ C896                                        ; A<#A0
1340+ C896 30 02          JR NC,LC069_80          ; Jump to LC069_80 if A>=#A0
1341+ C898 AF             XOR A                   ; A=0
1342+ C899 C9             RET                     ; Return
1343+ C89A              LC069_80:
1344+ C89A FE F0          CP #F0                  ; Set the zero flag if A=#F0, or the carry flag if
1345+ C89C                                        ; A<#F0
1346+ C89C C9             RET                     ; Return
1347+ C89D              LC069_81:
1348+ C89D 21 C0 38       LD HL,#38C0             ; HL=#38C0
1349+ C8A0 CD E1 49       CALL #49E1              ; CALL 49E1
1350+ C8A3 21 C0 38       LD HL,#38C0             ; HL=#38C0
1351+ C8A6 11 9A 38       LD DE,#389A             ; DE=#389A
1352+ C8A9 01 04 00       LD BC,#0004             ; BC=#0004
1353+ C8AC ED B0          LDIR                    ; POKE DE,PEEK HL; HL=HL+1; DE=DE+1; BC=BC-1; repeat
1354+ C8AE                                        ; until BC=0
1355+ C8AE              LC069_82:
1356+ C8AE 3E 10          LD A,#10                ; A=#10
1357+ C8B0 B7             OR A                    ; Clear the carry flag and set the zero flag if A=0
1358+ C8B1 C9             RET                     ; Return
1359+ C8B2 CD 8A 50       CALL #508A              ; CALL 508A
1360+ C8B5 3A 94 38       LD A,(#3894)            ; A=PEEK #3894
1361+ C8B8 CD 99 50       CALL #5099              ; CALL 5099
1362+ C8BB ED 53 BE 38    LD (#38BE),DE           ; POKE #38BE,E; POKE #38BF,D
1363+ C8BF 22 BC 38       LD (#38BC),HL           ; POKE #38BC,L; POKE #38BD,H
1364+ C8C2 CD CB 48       CALL #48CB              ; CALL 48CB
1365+ C8C5 38 E7          JR C,LC069_82           ; Jump to LC069_82 if the carry flag is set
1366+ C8C7              LC069_83:
1367+ C8C7 CD FB 48       CALL #48FB              ; CALL 48FB
1368+ C8CA 38 D1          JR C,LC069_81           ; Jump to LC069_81 if the carry flag is set
1369+ C8CC CD 52 49       CALL #4952              ; CALL 4952
1370+ C8CF C8             RET Z                   ; Return if the zero flag is set
1371+ C8D0 CD F5 48       CALL #48F5              ; CALL 48F5
1372+ C8D3 38 C8          JR C,LC069_81           ; Jump to LC069_81 if the carry flag is set
1373+ C8D5 18 F0          JR LC069_83             ; Jump to LC069_83
1374+ C8D7 21 00 00       LD HL,#0000             ; HL=#0000
1375+ C8DA 22 6D 51       LD (#516D),HL           ; POKE #516D,L; POKE #516E,H
1376+ C8DD CD 5C 44       CALL #445C              ; CALL 445C
1377+ C8E0 D8             RET C                   ; Return if the carry flag is set
1378+ C8E1 22 C0 38       LD (#38C0),HL           ; POKE #38C0,L; POKE #38C1,H
1379+ C8E4 ED 53 C2 38    LD (#38C2),DE           ; POKE #38C2,E; POKE #38C3,D
1380+ C8E8              LC069_84:
1381+ C8E8 22 9A 38       LD (#389A),HL           ; POKE #389A,L; POKE #389B,H
1382+ C8EB ED 53 9C 38    LD (#389C),DE           ; POKE #389C,E; POKE #389D,D
1383+ C8EF 7C             LD A,H                  ; A=H
1384+ C8F0 4D             LD C,L                  ; C=L
1385+ C8F1 2A 6D 51       LD HL,(#516D)           ; L=PEEK #516D; H=PEEK #516E
1386+ C8F4 71             LD (HL),C               ; POKE HL,C
1387+ C8F5 23             INC HL                  ; HL=HL+1
1388+ C8F6 77             LD (HL),A               ; POKE HL,A
1389+ C8F7 23             INC HL                  ; HL=HL+1
1390+ C8F8 73             LD (HL),E               ; POKE HL,E
1391+ C8F9 23             INC HL                  ; HL=HL+1
1392+ C8FA 72             LD (HL),D               ; POKE HL,D
1393+ C8FB 23             INC HL                  ; HL=HL+1
1394+ C8FC 22 6D 51       LD (#516D),HL           ; POKE #516D,L; POKE #516E,H
1395+ C8FF AF             XOR A                   ; A=0
1396+ C900 C9             RET                     ; Return
1397+ C901 CD 67 44       CALL #4467              ; CALL 4467
1398+ C904 D8             RET C                   ; Return if the carry flag is set
1399+ C905 18 E1          JR LC069_84             ; Jump to LC069_84
1400+ C907 2A BC 38       LD HL,(#38BC)           ; L=PEEK #38BC; H=PEEK #38BD
1401+ C90A 2B             DEC HL                  ; HL=HL-1
1402+ C90B 22 BC 38       LD (#38BC),HL           ; POKE #38BC,L; POKE #38BD,H
1403+ C90E 7C             LD A,H                  ; A=H
1404+ C90F B5             OR L                    ; A=A|L
1405+ C910 28 2D          JR Z,LC069_88           ; Jump to LC069_88 if A=0
1406+ C912              LC069_85:
1407+ C912 D9             EXX                     ; Exchange BC, DE and HL with BC', DE' and HL'
1408+ C913 7C             LD A,H                  ; A=H
1409+ C914 FE 32          CP #32                  ; Set the zero flag if A=#32, or the carry flag if
1410+ C916                                        ; A<#32
1411+ C916 38 06          JR C,LC069_86           ; Jump to LC069_86 if A<#32
1412+ C918 CD 67 44       CALL #4467              ; CALL 4467
1413+ C91B D8             RET C                   ; Return if the carry flag is set
1414+ C91C 18 03          JR LC069_87             ; Jump to LC069_87
1415+ C91E              LC069_86:
1416+ C91E CD 72 44       CALL #4472              ; CALL 4472
1417+ C921              LC069_87:
1418+ C921 22 9A 38       LD (#389A),HL           ; POKE #389A,L; POKE #389B,H
1419+ C924 ED 53 9C 38    LD (#389C),DE           ; POKE #389C,E; POKE #389D,D
1420+ C928 7C             LD A,H                  ; A=H
1421+ C929 4D             LD C,L                  ; C=L
1422+ C92A 2A 6D 51       LD HL,(#516D)           ; L=PEEK #516D; H=PEEK #516E
1423+ C92D 71             LD (HL),C               ; POKE HL,C
1424+ C92E 23             INC HL                  ; HL=HL+1
1425+ C92F 77             LD (HL),A               ; POKE HL,A
1426+ C930 23             INC HL                  ; HL=HL+1
1427+ C931 73             LD (HL),E               ; POKE HL,E
1428+ C932 23             INC HL                  ; HL=HL+1
1429+ C933 72             LD (HL),D               ; POKE HL,D
1430+ C934 23             INC HL                  ; HL=HL+1
1431+ C935 7C             LD A,H                  ; A=H
1432+ C936 FE 20          CP #20                  ; Set the zero flag if A=#20, or the carry flag if
1433+ C938                                        ; A<#20
1434+ C938 D0             RET NC                  ; Return if A>=#20
1435+ C939 22 6D 51       LD (#516D),HL           ; POKE #516D,L; POKE #516E,H
1436+ C93C C3 FB 48       JP #48FB                ; Jump to 48FB
1437+ C93F              LC069_88:
1438+ C93F 2A BE 38       LD HL,(#38BE)           ; L=PEEK #38BE; H=PEEK #38BF
1439+ C942 7C             LD A,H                  ; A=H
1440+ C943 B5             OR L                    ; A=A|L
1441+ C944 20 12          JR NZ,LC069_89          ; Jump to LC069_89 if A>0
1442+ C946 11 FF 0F       LD DE,#0FFF             ; DE=#0FFF
1443+ C949 2A 6D 51       LD HL,(#516D)           ; L=PEEK #516D; H=PEEK #516E
1444+ C94C 73             LD (HL),E               ; POKE HL,E
1445+ C94D 23             INC HL                  ; HL=HL+1
1446+ C94E 73             LD (HL),E               ; POKE HL,E
1447+ C94F 23             INC HL                  ; HL=HL+1
1448+ C950 73             LD (HL),E               ; POKE HL,E
1449+ C951 23             INC HL                  ; HL=HL+1
1450+ C952 72             LD (HL),D               ; POKE HL,D
1451+ C953 23             INC HL                  ; HL=HL+1
1452+ C954 22 6D 51       LD (#516D),HL           ; POKE #516D,L; POKE #516E,H
1453+ C957 C9             RET                     ; Return
1454+ C958              LC069_89:
1455+ C958 2B             DEC HL                  ; HL=HL-1
1456+ C959 22 BE 38       LD (#38BE),HL           ; POKE #38BE,L; POKE #38BF,H
1457+ C95C 18 B4          JR LC069_85             ; Jump to LC069_85
1458+ C95E 21 00 00       LD HL,#0000             ; HL=#0000
1459+ C961 4E             LD C,(HL)               ; C=PEEK HL
1460+ C962 23             INC HL                  ; HL=HL+1
1461+ C963 46             LD B,(HL)               ; B=PEEK HL
1462+ C964 23             INC HL                  ; HL=HL+1
1463+ C965 5E             LD E,(HL)               ; E=PEEK HL
1464+ C966 23             INC HL                  ; HL=HL+1
1465+ C967 56             LD D,(HL)               ; D=PEEK HL
1466+ C968 23             INC HL                  ; HL=HL+1
1467+ C969 E5             PUSH HL                 ; Push HL onto the stack
1468+ C96A 60             LD H,B                  ; H=B
1469+ C96B 69             LD L,C                  ; L=C
1470+ C96C CD C5 44       CALL #44C5              ; CALL 44C5
1471+ C96F EB             EX DE,HL                ; Exchange DE and HL
1472+ C970 E1             POP HL                  ; Pop last item from stack into HL
1473+ C971              LC069_90:
1474+ C971 22 B8 38       LD (#38B8),HL           ; POKE #38B8,L; POKE #38B9,H
1475+ C974 01 04 00       LD BC,#0004             ; BC=#0004
1476+ C977 ED B0          LDIR                    ; POKE DE,PEEK HL; HL=HL+1; DE=DE+1; BC=BC-1; repeat
1477+ C979                                        ; until BC=0
1478+ C979 2B             DEC HL                  ; HL=HL-1
1479+ C97A 7E             LD A,(HL)               ; A=PEEK HL
1480+ C97B FE 0F          CP #0F                  ; Set the zero flag if A=#0F, or the carry flag if
1481+ C97D                                        ; A<#0F
1482+ C97D 28 4F          JR Z,LC069_93           ; Jump to LC069_93 if A=#0F
1483+ C97F 23             INC HL                  ; HL=HL+1
1484+ C980 7C             LD A,H                  ; A=H
1485+ C981 FE 20          CP #20                  ; Set the zero flag if A=#20, or the carry flag if
1486+ C983                                        ; A<#20
1487+ C983 30 53          JR NC,LC069_94          ; Jump to LC069_94 if A>=#20
1488+ C985 2A B8 38       LD HL,(#38B8)           ; L=PEEK #38B8; H=PEEK #38B9
1489+ C988 4E             LD C,(HL)               ; C=PEEK HL
1490+ C989 23             INC HL                  ; HL=HL+1
1491+ C98A 46             LD B,(HL)               ; B=PEEK HL
1492+ C98B 23             INC HL                  ; HL=HL+1
1493+ C98C 5E             LD E,(HL)               ; E=PEEK HL
1494+ C98D 23             INC HL                  ; HL=HL+1
1495+ C98E 56             LD D,(HL)               ; D=PEEK HL
1496+ C98F 23             INC HL                  ; HL=HL+1
1497+ C990 22 BA 38       LD (#38BA),HL           ; POKE #38BA,L; POKE #38BB,H
1498+ C993 60             LD H,B                  ; H=B
1499+ C994 69             LD L,C                  ; L=C
1500+ C995 CD 72 50       CALL #5072              ; CALL 5072
1501+ C998 ED 4B 52 38    LD BC,(#3852)           ; C=PEEK #3852; B=PEEK #3853
1502+ C99C B7             OR A                    ; Clear the carry flag and set the zero flag if A=0
1503+ C99D ED 42          SBC HL,BC               ; HL=HL-carry-BC
1504+ C99F 20 0A          JR NZ,LC069_91          ; Jump to LC069_91 if HL>0
1505+ C9A1 EB             EX DE,HL                ; Exchange DE and HL
1506+ C9A2 ED 4B 54 38    LD BC,(#3854)           ; C=PEEK #3854; B=PEEK #3855
1507+ C9A6 B7             OR A                    ; Clear the carry flag and set the zero flag if A=0
1508+ C9A7 ED 42          SBC HL,BC               ; HL=HL-carry-BC
1509+ C9A9 28 0E          JR Z,LC069_92           ; Jump to LC069_92 if HL=0
1510+ C9AB              LC069_91:
1511+ C9AB 21 00 30       LD HL,#3000             ; HL=#3000
1512+ C9AE 3E 01          LD A,#01                ; A=#01
1513+ C9B0 CD 12 38       CALL #3812              ; CALL 3812
1514+ C9B3 2A B8 38       LD HL,(#38B8)           ; L=PEEK #38B8; H=PEEK #38B9
1515+ C9B6 C3 55 49       JP #4955                ; Jump to 4955
1516+ C9B9              LC069_92:
1517+ C9B9 26 00          LD H,#00                ; H=#00
1518+ C9BB 6F             LD L,A                  ; L=A
1519+ C9BC CB 25          SLA L                   ; Shift L left (copying bit 7 into the carry flag,
1520+ C9BE                                        ; and resetting bit 0)
1521+ C9BE CB 14          RL H                    ; Rotate H left through the carry flag
1522+ C9C0 CB 25          SLA L                   ; Shift L left (copying bit 7 into the carry flag,
1523+ C9C2                                        ; and resetting bit 0)
1524+ C9C2 CB 14          RL H                    ; Rotate H left through the carry flag
1525+ C9C4 01 00 30       LD BC,#3000             ; BC=#3000
1526+ C9C7 09             ADD HL,BC               ; HL=HL+BC
1527+ C9C8 EB             EX DE,HL                ; Exchange DE and HL
1528+ C9C9 2A BA 38       LD HL,(#38BA)           ; L=PEEK #38BA; H=PEEK #38BB
1529+ C9CC 18 A3          JR LC069_90             ; Jump to LC069_90
1530+ C9CE              LC069_93:
1531+ C9CE 21 00 30       LD HL,#3000             ; HL=#3000
1532+ C9D1 3E 01          LD A,#01                ; A=#01
1533+ C9D3 CD 12 38       CALL #3812              ; CALL 3812
1534+ C9D6 AF             XOR A                   ; A=0
1535+ C9D7 C9             RET                     ; Return
1536+ C9D8              LC069_94:
1537+ C9D8 CD C2 49       CALL #49C2              ; CALL 49C2
1538+ C9DB 2A B8 38       LD HL,(#38B8)           ; L=PEEK #38B8; H=PEEK #38B9
1539+ C9DE 11 00 00       LD DE,#0000             ; DE=#0000
1540+ C9E1 01 04 00       LD BC,#0004             ; BC=#0004
1541+ C9E4 ED B0          LDIR                    ; POKE DE,PEEK HL; HL=HL+1; DE=DE+1; BC=BC-1; repeat
1542+ C9E6                                        ; until BC=0
1543+ C9E6 ED 53 6D 51    LD (#516D),DE           ; POKE #516D,E; POKE #516E,D
1544+ C9EA AF             XOR A                   ; A=0
1545+ C9EB 3C             INC A                   ; A=A+1
1546+ C9EC C9             RET                     ; Return
1547+ C9ED 11 00 32       LD DE,#3200             ; DE=#3200
1548+ C9F0 01 04 00       LD BC,#0004             ; BC=#0004
1549+ C9F3 ED B0          LDIR                    ; POKE DE,PEEK HL; HL=HL+1; DE=DE+1; BC=BC-1; repeat
1550+ C9F5                                        ; until BC=0
1551+ C9F5 21 00 00       LD HL,#0000             ; HL=#0000
1552+ C9F8 22 9A 38       LD (#389A),HL           ; POKE #389A,L; POKE #389B,H
1553+ C9FB 22 9C 38       LD (#389C),HL           ; POKE #389C,L; POKE #389D,H
1554+ C9FE 2A 00 32       LD HL,(#3200)           ; L=PEEK #3200; H=PEEK #3201
1555+ CA01 ED 5B 02 32    LD DE,(#3202)           ; E=PEEK #3202; D=PEEK #3203
1556+ CA05 7A             LD A,D                  ; A=D
1557+ CA06 FE 0F          CP #0F                  ; Set the zero flag if A=#0F, or the carry flag if
1558+ CA08                                        ; A<#0F
1559+ CA08 C8             RET Z                   ; Return if A=#0F
1560+ CA09 B3             OR E                    ; A=A|E
1561+ CA0A B4             OR H                    ; A=A|H
1562+ CA0B B5             OR L                    ; A=A|L
1563+ CA0C C8             RET Z                   ; Return if A=0
1564+ CA0D CD C5 44       CALL #44C5              ; CALL 44C5
1565+ CA10 D8             RET C                   ; Return if the carry flag is set
1566+ CA11 11 00 32       LD DE,#3200             ; DE=#3200
1567+ CA14 0E 00          LD C,#00                ; C=#00
1568+ CA16 7E             LD A,(HL)               ; A=PEEK HL
1569+ CA17 71             LD (HL),C               ; POKE HL,C
1570+ CA18 12             LD (DE),A               ; POKE DE,A
1571+ CA19 2C             INC L                   ; L=L+1
1572+ CA1A 1C             INC E                   ; E=E+1
1573+ CA1B 7E             LD A,(HL)               ; A=PEEK HL
1574+ CA1C 71             LD (HL),C               ; POKE HL,C
1575+ CA1D 12             LD (DE),A               ; POKE DE,A
1576+ CA1E 2C             INC L                   ; L=L+1
1577+ CA1F 1C             INC E                   ; E=E+1
1578+ CA20 7E             LD A,(HL)               ; A=PEEK HL
1579+ CA21 71             LD (HL),C               ; POKE HL,C
1580+ CA22 12             LD (DE),A               ; POKE DE,A
1581+ CA23 2C             INC L                   ; L=L+1
1582+ CA24 1C             INC E                   ; E=E+1
1583+ CA25 7E             LD A,(HL)               ; A=PEEK HL
1584+ CA26 71             LD (HL),C               ; POKE HL,C
1585+ CA27 12             LD (DE),A               ; POKE DE,A
1586+ CA28 2A 00 32       LD HL,(#3200)           ; L=PEEK #3200; H=PEEK #3201
1587+ CA2B ED 5B 02 32    LD DE,(#3202)           ; E=PEEK #3202; D=PEEK #3203
1588+ CA2F 7A             LD A,D                  ; A=D
1589+ CA30 FE 0F          CP #0F                  ; Set the zero flag if A=#0F, or the carry flag if
1590+ CA32                                        ; A<#0F
1591+ CA32 28 33          JR Z,LC069_96           ; Jump to LC069_96 if A=#0F
1592+ CA34 CD 72 50       CALL #5072              ; CALL 5072
1593+ CA37 ED 4B 52 38    LD BC,(#3852)           ; C=PEEK #3852; B=PEEK #3853
1594+ CA3B B7             OR A                    ; Clear the carry flag and set the zero flag if A=0
1595+ CA3C ED 42          SBC HL,BC               ; HL=HL-carry-BC
1596+ CA3E 20 1C          JR NZ,LC069_95          ; Jump to LC069_95 if HL>0
1597+ CA40 EB             EX DE,HL                ; Exchange DE and HL
1598+ CA41 ED 4B 54 38    LD BC,(#3854)           ; C=PEEK #3854; B=PEEK #3855
1599+ CA45 B7             OR A                    ; Clear the carry flag and set the zero flag if A=0
1600+ CA46 ED 42          SBC HL,BC               ; HL=HL-carry-BC
1601+ CA48 20 12          JR NZ,LC069_95          ; Jump to LC069_95 if HL>0
1602+ CA4A 26 00          LD H,#00                ; H=#00
1603+ CA4C 6F             LD L,A                  ; L=A
1604+ CA4D CB 25          SLA L                   ; Shift L left (copying bit 7 into the carry flag,
1605+ CA4F                                        ; and resetting bit 0)
1606+ CA4F CB 14          RL H                    ; Rotate H left through the carry flag
1607+ CA51 CB 25          SLA L                   ; Shift L left (copying bit 7 into the carry flag,
1608+ CA53                                        ; and resetting bit 0)
1609+ CA53 CB 14          RL H                    ; Rotate H left through the carry flag
1610+ CA55 01 00 30       LD BC,#3000             ; BC=#3000
1611+ CA58 09             ADD HL,BC               ; HL=HL+BC
1612+ CA59 C3 05 4A       JP #4A05                ; Jump to 4A05
1613+ CA5C              LC069_95:
1614+ CA5C 21 00 30       LD HL,#3000             ; HL=#3000
1615+ CA5F 3E 01          LD A,#01                ; A=#01
1616+ CA61 CD 12 38       CALL #3812              ; CALL 3812
1617+ CA64 C3 F2 49       JP #49F2                ; Jump to 49F2
1618+ CA67              LC069_96:
1619+ CA67 21 00 30       LD HL,#3000             ; HL=#3000
1620+ CA6A 3E 01          LD A,#01                ; A=#01
1621+ CA6C C3 12 38       JP #3812                ; Jump to 3812
1622+ CA6F 22 F8 37       LD (#37F8),HL           ; POKE #37F8,L; POKE #37F9,H
1623+ CA72 CD E6 4A       CALL #4AE6              ; CALL 4AE6
1624+ CA75 C8             RET Z                   ; Return if the zero flag is set
1625+ CA76 21 C8 38       LD HL,#38C8             ; HL=#38C8
1626+ CA79 11 A8 38       LD DE,#38A8             ; DE=#38A8
1627+ CA7C 01 04 00       LD BC,#0004             ; BC=#0004
1628+ CA7F ED B0          LDIR                    ; POKE DE,PEEK HL; HL=HL+1; DE=DE+1; BC=BC-1; repeat
1629+ CA81                                        ; until BC=0
1630+ CA81 CD 3D 51       CALL #513D              ; CALL 513D
1631+ CA84 21 00 32       LD HL,#3200             ; HL=#3200
1632+ CA87 06 01          LD B,#01                ; B=#01
1633+ CA89 CD BF 43       CALL #43BF              ; CALL 43BF
1634+ CA8C 21 00 32       LD HL,#3200             ; HL=#3200
1635+ CA8F              LC069_97:
1636+ CA8F CD 86 4B       CALL #4B86              ; CALL 4B86
1637+ CA92 28 3A          JR Z,LC069_100          ; Jump to LC069_100 if the zero flag is set
1638+ CA94 01 20 00       LD BC,#0020             ; BC=#0020
1639+ CA97 09             ADD HL,BC               ; HL=HL+BC
1640+ CA98 7C             LD A,H                  ; A=H
1641+ CA99 FE 34          CP #34                  ; Set the zero flag if A=#34, or the carry flag if
1642+ CA9B                                        ; A<#34
1643+ CA9B 38 F2          JR C,LC069_97           ; Jump to LC069_97 if A<#34
1644+ CA9D              LC069_98:
1645+ CA9D 3A 49 38       LD A,(#3849)            ; A=PEEK #3849
1646+ CAA0 FE 0F          CP #0F                  ; Set the zero flag if A=#0F, or the carry flag if
1647+ CAA2                                        ; A<#0F
1648+ CAA2 C8             RET Z                   ; Return if A=#0F
1649+ CAA3 E5             PUSH HL                 ; Push HL onto the stack
1650+ CAA4 21 00 34       LD HL,#3400             ; HL=#3400
1651+ CAA7 06 01          LD B,#01                ; B=#01
1652+ CAA9 CD BF 43       CALL #43BF              ; CALL 43BF
1653+ CAAC E1             POP HL                  ; Pop last item from stack into HL
1654+ CAAD              LC069_99:
1655+ CAAD CD 86 4B       CALL #4B86              ; CALL 4B86
1656+ CAB0 28 1C          JR Z,LC069_100          ; Jump to LC069_100 if the zero flag is set
1657+ CAB2 01 20 00       LD BC,#0020             ; BC=#0020
1658+ CAB5 09             ADD HL,BC               ; HL=HL+BC
1659+ CAB6 7C             LD A,H                  ; A=H
1660+ CAB7 FE 36          CP #36                  ; Set the zero flag if A=#36, or the carry flag if
1661+ CAB9                                        ; A<#36
1662+ CAB9 38 F2          JR C,LC069_99           ; Jump to LC069_99 if A<#36
1663+ CABB D9             EXX                     ; Exchange BC, DE and HL with BC', DE' and HL'
1664+ CABC 21 00 34       LD HL,#3400             ; HL=#3400
1665+ CABF 11 00 32       LD DE,#3200             ; DE=#3200
1666+ CAC2 01 00 02       LD BC,#0200             ; BC=#0200
1667+ CAC5 ED B0          LDIR                    ; POKE DE,PEEK HL; HL=HL+1; DE=DE+1; BC=BC-1; repeat
1668+ CAC7                                        ; until BC=0
1669+ CAC7 D9             EXX                     ; Exchange BC, DE and HL with BC', DE' and HL'
1670+ CAC8 01 00 FE       LD BC,#FE00             ; BC=#FE00
1671+ CACB 09             ADD HL,BC               ; HL=HL+BC
1672+ CACC 18 CF          JR LC069_98             ; Jump to LC069_98
1673+ CACE              LC069_100:
1674+ CACE B7             OR A                    ; Clear the carry flag and set the zero flag if A=0
1675+ CACF C8             RET Z                   ; Return if A=0
1676+ CAD0 2A 82 38       LD HL,(#3882)           ; L=PEEK #3882; H=PEEK #3883
1677+ CAD3 ED 5B 7C 38    LD DE,(#387C)           ; E=PEEK #387C; D=PEEK #387D
1678+ CAD7 AF             XOR A                   ; A=0
1679+ CAD8 3C             INC A                   ; A=A+1
1680+ CAD9 C9             RET                     ; Return
1681+ CADA 3E 20          LD A,#20                ; A=#20
1682+ CADC              LC069_101:
1683+ CADC 12             LD (DE),A               ; POKE DE,A
1684+ CADD 13             INC DE                  ; DE=DE+1
1685+ CADE 10 FC          DJNZ LC069_101          ; Decrement B and jump to LC069_101 if B>0
1686+ CAE0 C9             RET                     ; Return
1687+ CAE1              LC069_102:
1688+ CAE1 AF             XOR A                   ; A=0
1689+ CAE2 C9             RET                     ; Return
1690+ CAE3 3E C9          LD A,#C9                ; A=#C9
1691+ CAE5 32 91 4C       LD (#4C91),A            ; POKE #4C91,A
1692+ CAE8 CD E6 4A       CALL #4AE6              ; CALL 4AE6
1693+ CAEB 08             EX AF,AF'               ; Exchange AF and AF'
1694+ CAEC AF             XOR A                   ; A=0
1695+ CAED 32 91 4C       LD (#4C91),A            ; POKE #4C91,A
1696+ CAF0 08             EX AF,AF'               ; Exchange AF and AF'
1697+ CAF1 C9             RET                     ; Return
1698+ CAF2 7E             LD A,(HL)               ; A=PEEK HL
1699+ CAF3 23             INC HL                  ; HL=HL+1
1700+ CAF4 E6 EF          AND #EF                 ; Reset bit 4 of A
1701+ CAF6 20 E9          JR NZ,LC069_102         ; Jump to LC069_102 if A>0
1702+ CAF8 01 00 01       LD BC,#0100             ; BC=#0100
1703+ CAFB AF             XOR A                   ; A=0
1704+ CAFC ED B1          CPIR                    ; Compare A with PEEK HL; HL=HL+1; BC=BC-1; repeat
1705+ CAFE                                        ; until BC=0 or A=PEEK HL
1706+ CAFE 20 E1          JR NZ,LC069_102         ; Jump to LC069_102 if A<>PEEK HL
1707+ CB00 3E FF          LD A,#FF                ; A=#FF
1708+ CB02 91             SUB C                   ; A=A-C
1709+ CB03 28 DC          JR Z,LC069_102          ; Jump to LC069_102 if A=0
1710+ CB05 2A F8 37       LD HL,(#37F8)           ; L=PEEK #37F8; H=PEEK #37F9
1711+ CB08 CB 66          BIT 4,(HL)              ; Set the zero flag if bit 4 of (HL) is 0
1712+ CB0A 20 51          JR NZ,LC069_111         ; Jump to LC069_111 if bit 4 of PEEK HL is set
1713+ CB0C              LC069_103:
1714+ CB0C 0E 0D          LD C,#0D                ; C=#0D
1715+ CB0E 91             SUB C                   ; A=A-C
1716+ CB0F 30 7A          JR NC,LC069_114         ; Jump to LC069_114 if the carry flag is not set
1717+ CB11 81             ADD A,C                 ; A=A+C
1718+ CB12 4F             LD C,A                  ; C=A
1719+ CB13 09             ADD HL,BC               ; HL=HL+BC
1720+ CB14 08             EX AF,AF'               ; Exchange AF and AF'
1721+ CB15 06 04          LD B,#04                ; B=#04
1722+ CB17 11 70 38       LD DE,#3870             ; DE=#3870
1723+ CB1A              LC069_104:
1724+ CB1A 7E             LD A,(HL)               ; A=PEEK HL
1725+ CB1B 0D             DEC C                   ; C=C-1
1726+ CB1C 28 07          JR Z,LC069_105          ; Jump to LC069_105 if C=0
1727+ CB1E FE 2E          CP #2E                  ; Set the zero flag if A=#2E, or the carry flag if
1728+ CB20                                        ; A<#2E
1729+ CB20 28 2B          JR Z,LC069_109          ; Jump to LC069_109 if A=#2E
1730+ CB22 2B             DEC HL                  ; HL=HL-1
1731+ CB23 10 F5          DJNZ LC069_104          ; Decrement B and jump to LC069_104 if B>0
1732+ CB25              LC069_105:
1733+ CB25 08             EX AF,AF'               ; Exchange AF and AF'
1734+ CB26 4F             LD C,A                  ; C=A
1735+ CB27 06 03          LD B,#03                ; B=#03
1736+ CB29              LC069_106:
1737+ CB29 CD CE 4A       CALL #4ACE              ; CALL 4ACE
1738+ CB2C              LC069_107:
1739+ CB2C 11 68 38       LD DE,#3868             ; DE=#3868
1740+ CB2F 79             LD A,C                  ; A=C
1741+ CB30 FE 09          CP #09                  ; Set the zero flag if A=#09, or the carry flag if
1742+ CB32                                        ; A<#09
1743+ CB32 30 57          JR NC,LC069_114         ; Jump to LC069_114 if A>=#09
1744+ CB34 47             LD B,A                  ; B=A
1745+ CB35 3E 08          LD A,#08                ; A=#08
1746+ CB37 90             SUB B                   ; A=A-B
1747+ CB38 4F             LD C,A                  ; C=A
1748+ CB39 2A F8 37       LD HL,(#37F8)           ; L=PEEK #37F8; H=PEEK #37F9
1749+ CB3C              LC069_108:
1750+ CB3C 23             INC HL                  ; HL=HL+1
1751+ CB3D 7E             LD A,(HL)               ; A=PEEK HL
1752+ CB3E CD 91 4C       CALL #4C91              ; CALL 4C91
1753+ CB41 12             LD (DE),A               ; POKE DE,A
1754+ CB42 13             INC DE                  ; DE=DE+1
1755+ CB43 10 F7          DJNZ LC069_108          ; Decrement B and jump to LC069_108 if B>0
1756+ CB45 41             LD B,C                  ; B=C
1757+ CB46 78             LD A,B                  ; A=B
1758+ CB47 B7             OR A                    ; Clear the carry flag and set the zero flag if A=0
1759+ CB48 C4 CE 4A       CALL NZ,#4ACE           ; CALL 4ACE if A>0
1760+ CB4B 18 42          JR LC069_115            ; Jump to LC069_115
1761+ CB4D              LC069_109:
1762+ CB4D 06 03          LD B,#03                ; B=#03
1763+ CB4F              LC069_110:
1764+ CB4F 23             INC HL                  ; HL=HL+1
1765+ CB50 7E             LD A,(HL)               ; A=PEEK HL
1766+ CB51 B7             OR A                    ; Clear the carry flag and set the zero flag if A=0
1767+ CB52 28 D5          JR Z,LC069_106          ; Jump to LC069_106 if A=0
1768+ CB54 CD 91 4C       CALL #4C91              ; CALL 4C91
1769+ CB57 12             LD (DE),A               ; POKE DE,A
1770+ CB58 13             INC DE                  ; DE=DE+1
1771+ CB59 10 F4          DJNZ LC069_110          ; Decrement B and jump to LC069_110 if B>0
1772+ CB5B 18 CF          JR LC069_107            ; Jump to LC069_107
1773+ CB5D              LC069_111:
1774+ CB5D FE 04          CP #04                  ; Set the zero flag if A=#04, or the carry flag if
1775+ CB5F                                        ; A<#04
1776+ CB5F 30 AB          JR NC,LC069_103         ; Jump to LC069_103 if A>=#04
1777+ CB61 4F             LD C,A                  ; C=A
1778+ CB62 23             INC HL                  ; HL=HL+1
1779+ CB63 7E             LD A,(HL)               ; A=PEEK HL
1780+ CB64 FE 2E          CP #2E                  ; Set the zero flag if A=#2E, or the carry flag if
1781+ CB66                                        ; A<#2E
1782+ CB66 2B             DEC HL                  ; HL=HL-1
1783+ CB67 79             LD A,C                  ; A=C
1784+ CB68 20 A2          JR NZ,LC069_103         ; Jump to LC069_103 if the zero flag is not set
1785+ CB6A 23             INC HL                  ; HL=HL+1
1786+ CB6B 23             INC HL                  ; HL=HL+1
1787+ CB6C 7E             LD A,(HL)               ; A=PEEK HL
1788+ CB6D FE 2E          CP #2E                  ; Set the zero flag if A=#2E, or the carry flag if
1789+ CB6F                                        ; A<#2E
1790+ CB6F 2B             DEC HL                  ; HL=HL-1
1791+ CB70 2B             DEC HL                  ; HL=HL-1
1792+ CB71 79             LD A,C                  ; A=C
1793+ CB72 20 98          JR NZ,LC069_103         ; Jump to LC069_103 if the zero flag is not set
1794+ CB74              ; This entry point is used by the routine at L6011.
1795+ CB74              LC069_112:
1796+ CB74 11 68 38       LD DE,#3868             ; DE=#3868
1797+ CB77 47             LD B,A                  ; B=A
1798+ CB78 3E 0B          LD A,#0B                ; A=#0B
1799+ CB7A 90             SUB B                   ; A=A-B
1800+ CB7B 4F             LD C,A                  ; C=A
1801+ CB7C              LC069_113:
1802+ CB7C 23             INC HL                  ; HL=HL+1
1803+ CB7D 7E             LD A,(HL)               ; A=PEEK HL
1804+ CB7E CD 91 4C       CALL #4C91              ; CALL 4C91
1805+ CB81 12             LD (DE),A               ; POKE DE,A
1806+ CB82 13             INC DE                  ; DE=DE+1
1807+ CB83 10 F7          DJNZ LC069_113          ; Decrement B and jump to LC069_113 if B>0
1808+ CB85 41             LD B,C                  ; B=C
1809+ CB86 CD CE 4A       CALL #4ACE              ; CALL 4ACE
1810+ CB89 18 04          JR LC069_115            ; Jump to LC069_115
1811+ CB8B              LC069_114:
1812+ CB8B AF             XOR A                   ; A=0
1813+ CB8C 32 68 38       LD (#3868),A            ; POKE #3868,A
1814+ CB8F              LC069_115:
1815+ CB8F AF             XOR A                   ; A=0
1816+ CB90 3C             INC A                   ; A=A+1
1817+ CB91 C9             RET                     ; Return
1818+ CB92 7E             LD A,(HL)               ; A=PEEK HL
1819+ CB93 B7             OR A                    ; Clear the carry flag and set the zero flag if A=0
1820+ CB94 C8             RET Z                   ; Return if A=0
1821+ CB95 FE E5          CP #E5                  ; Set the zero flag if A=#E5, or the carry flag if
1822+ CB97                                        ; A<#E5
1823+ CB97 28 F6          JR Z,LC069_115          ; Jump to LC069_115 if A=#E5
1824+ CB99 7D             LD A,L                  ; A=L
1825+ CB9A C6 0B          ADD A,#0B               ; A=A+#0B
1826+ CB9C 6F             LD L,A                  ; L=A
1827+ CB9D CB 5E          BIT 3,(HL)              ; Set the zero flag if bit 3 of (HL) is 0
1828+ CB9F C2 50 4C       JP NZ,#4C50             ; Jump to 4C50 if bit 3 of PEEK HL is set
1829+ CBA2 ED 5B F8 37    LD DE,(#37F8)           ; E=PEEK #37F8; D=PEEK #37F9
1830+ CBA6 7E             LD A,(HL)               ; A=PEEK HL
1831+ CBA7 E6 10          AND #10                 ; Keep only bit 4 of A
1832+ CBA9 47             LD B,A                  ; B=A
1833+ CBAA 1A             LD A,(DE)               ; A=PEEK DE
1834+ CBAB B8             CP B                    ; Set the zero flag if A=B, or the carry flag if A<B
1835+ CBAC C2 50 4C       JP NZ,#4C50             ; Jump to 4C50 if A<>B
1836+ CBAF 3A 68 38       LD A,(#3868)            ; A=PEEK #3868
1837+ CBB2 B7             OR A                    ; Clear the carry flag and set the zero flag if A=0
1838+ CBB3 28 14          JR Z,LC069_117          ; Jump to LC069_117 if A=0
1839+ CBB5 7D             LD A,L                  ; A=L
1840+ CBB6 E6 F0          AND #F0                 ; Keep only bits 4, 5, 6 and 7 of A
1841+ CBB8 6F             LD L,A                  ; L=A
1842+ CBB9 06 0B          LD B,#0B                ; B=#0B
1843+ CBBB 11 68 38       LD DE,#3868             ; DE=#3868
1844+ CBBE              LC069_116:
1845+ CBBE 1A             LD A,(DE)               ; A=PEEK DE
1846+ CBBF BE             CP (HL)                 ; Set the zero flag if A=PEEK HL, or the carry flag
1847+ CBC0                                        ; if A<PEEK HL
1848+ CBC0 20 07          JR NZ,LC069_117         ; Jump to LC069_117 if A<>PEEK HL
1849+ CBC2 13             INC DE                  ; DE=DE+1
1850+ CBC3 2C             INC L                   ; L=L+1
1851+ CBC4 10 F8          DJNZ LC069_116          ; Decrement B and jump to LC069_116 if B>0
1852+ CBC6 C3 5E 4C       JP #4C5E                ; Jump to 4C5E
1853+ CBC9              LC069_117:
1854+ CBC9 7D             LD A,L                  ; A=L
1855+ CBCA E6 F0          AND #F0                 ; Keep only bits 4, 5, 6 and 7 of A
1856+ CBCC 6F             LD L,A                  ; L=A
1857+ CBCD CD 14 43       CALL #4314              ; CALL 4314
1858+ CBD0 22 FA 37       LD (#37FA),HL           ; POKE #37FA,L; POKE #37FB,H
1859+ CBD3 01 E2 FF       LD BC,#FFE2             ; BC=#FFE2
1860+ CBD6 09             ADD HL,BC               ; HL=HL+BC
1861+ CBD7 BE             CP (HL)                 ; Set the zero flag if A=PEEK HL, or the carry flag
1862+ CBD8                                        ; if A<PEEK HL
1863+ CBD8 20 7F          JR NZ,LC069_120         ; Jump to LC069_120 if A<>PEEK HL
1864+ CBDA 7C             LD A,H                  ; A=H
1865+ CBDB FE 32          CP #32                  ; Set the zero flag if A=#32, or the carry flag if
1866+ CBDD                                        ; A<#32
1867+ CBDD 38 7A          JR C,LC069_120          ; Jump to LC069_120 if A<#32
1868+ CBDF 2D             DEC L                   ; L=L-1
1869+ CBE0 2D             DEC L                   ; L=L-1
1870+ CBE1 7E             LD A,(HL)               ; A=PEEK HL
1871+ CBE2 FE 0F          CP #0F                  ; Set the zero flag if A=#0F, or the carry flag if
1872+ CBE4                                        ; A<#0F
1873+ CBE4 20 73          JR NZ,LC069_120         ; Jump to LC069_120 if A<>#0F
1874+ CBE6 ED 5B F8 37    LD DE,(#37F8)           ; E=PEEK #37F8; D=PEEK #37F9
1875+ CBEA 13             INC DE                  ; DE=DE+1
1876+ CBEB 7D             LD A,L                  ; A=L
1877+ CBEC E6 F0          AND #F0                 ; Keep only bits 4, 5, 6 and 7 of A
1878+ CBEE 6F             LD L,A                  ; L=A
1879+ CBEF 06 01          LD B,#01                ; B=#01
1880+ CBF1 7E             LD A,(HL)               ; A=PEEK HL
1881+ CBF2 CB 77          BIT 6,A                 ; Set the zero flag if bit 6 of A is 0
1882+ CBF4 28 02          JR Z,LC069_118          ; Jump to LC069_118 if bit 6 of A is reset
1883+ CBF6 CB F0          SET 6,B                 ; Set bit 6 of B
1884+ CBF8              LC069_118:
1885+ CBF8 B8             CP B                    ; Set the zero flag if A=B, or the carry flag if A<B
1886+ CBF9 20 5E          JR NZ,LC069_120         ; Jump to LC069_120 if A<>B
1887+ CBFB 04             INC B                   ; B=B+1
1888+ CBFC 2C             INC L                   ; L=L+1
1889+ CBFD CD 70 4C       CALL #4C70              ; CALL 4C70
1890+ CC00 30 55          JR NC,LC069_119         ; Jump to LC069_119 if the carry flag is not set
1891+ CC02 CD 70 4C       CALL #4C70              ; CALL 4C70
1892+ CC05 30 50          JR NC,LC069_119         ; Jump to LC069_119 if the carry flag is not set
1893+ CC07 CD 70 4C       CALL #4C70              ; CALL 4C70
1894+ CC0A 30 4B          JR NC,LC069_119         ; Jump to LC069_119 if the carry flag is not set
1895+ CC0C CD 70 4C       CALL #4C70              ; CALL 4C70
1896+ CC0F 30 46          JR NC,LC069_119         ; Jump to LC069_119 if the carry flag is not set
1897+ CC11 CD 70 4C       CALL #4C70              ; CALL 4C70
1898+ CC14 30 41          JR NC,LC069_119         ; Jump to LC069_119 if the carry flag is not set
1899+ CC16 2C             INC L                   ; L=L+1
1900+ CC17 2C             INC L                   ; L=L+1
1901+ CC18 2C             INC L                   ; L=L+1
1902+ CC19 CD 70 4C       CALL #4C70              ; CALL 4C70
1903+ CC1C 30 39          JR NC,LC069_119         ; Jump to LC069_119 if the carry flag is not set
1904+ CC1E CD 70 4C       CALL #4C70              ; CALL 4C70
1905+ CC21 30 34          JR NC,LC069_119         ; Jump to LC069_119 if the carry flag is not set
1906+ CC23 CD 70 4C       CALL #4C70              ; CALL 4C70
1907+ CC26 30 2F          JR NC,LC069_119         ; Jump to LC069_119 if the carry flag is not set
1908+ CC28 CD 70 4C       CALL #4C70              ; CALL 4C70
1909+ CC2B 30 2A          JR NC,LC069_119         ; Jump to LC069_119 if the carry flag is not set
1910+ CC2D CD 70 4C       CALL #4C70              ; CALL 4C70
1911+ CC30 30 25          JR NC,LC069_119         ; Jump to LC069_119 if the carry flag is not set
1912+ CC32 CD 70 4C       CALL #4C70              ; CALL 4C70
1913+ CC35 30 20          JR NC,LC069_119         ; Jump to LC069_119 if the carry flag is not set
1914+ CC37 2C             INC L                   ; L=L+1
1915+ CC38 2C             INC L                   ; L=L+1
1916+ CC39 CD 70 4C       CALL #4C70              ; CALL 4C70
1917+ CC3C 30 19          JR NC,LC069_119         ; Jump to LC069_119 if the carry flag is not set
1918+ CC3E CD 70 4C       CALL #4C70              ; CALL 4C70
1919+ CC41 30 14          JR NC,LC069_119         ; Jump to LC069_119 if the carry flag is not set
1920+ CC43 2D             DEC L                   ; L=L-1
1921+ CC44 78             LD A,B                  ; A=B
1922+ CC45 FE 40          CP #40                  ; Set the zero flag if A=#40, or the carry flag if
1923+ CC47                                        ; A<#40
1924+ CC47 D2 57 4C       JP NC,#4C57             ; Jump to 4C57 if A>=#40
1925+ CC4A 01 C1 FF       LD BC,#FFC1             ; BC=#FFC1
1926+ CC4D 09             ADD HL,BC               ; HL=HL+BC
1927+ CC4E 47             LD B,A                  ; B=A
1928+ CC4F 7C             LD A,H                  ; A=H
1929+ CC50 FE 32          CP #32                  ; Set the zero flag if A=#32, or the carry flag if
1930+ CC52                                        ; A<#32
1931+ CC52 38 05          JR C,LC069_120          ; Jump to LC069_120 if A<#32
1932+ CC54 C3 E5 4B       JP #4BE5                ; Jump to 4BE5
1933+ CC57              LC069_119:
1934+ CC57 20 0E          JR NZ,LC069_121         ; Jump to LC069_121 if the zero flag is not set
1935+ CC59              LC069_120:
1936+ CC59 2A FA 37       LD HL,(#37FA)           ; L=PEEK #37FA; H=PEEK #37FB
1937+ CC5C 7D             LD A,L                  ; A=L
1938+ CC5D E6 F0          AND #F0                 ; Keep only bits 4, 5, 6 and 7 of A
1939+ CC5F 6F             LD L,A                  ; L=A
1940+ CC60 AF             XOR A                   ; A=0
1941+ CC61 3C             INC A                   ; A=A+1
1942+ CC62 C9             RET                     ; Return
1943+ CC63 1A             LD A,(DE)               ; A=PEEK DE
1944+ CC64 B7             OR A                    ; Clear the carry flag and set the zero flag if A=0
1945+ CC65 20 F2          JR NZ,LC069_120         ; Jump to LC069_120 if A>0
1946+ CC67              LC069_121:
1947+ CC67 2A FA 37       LD HL,(#37FA)           ; L=PEEK #37FA; H=PEEK #37FB
1948+ CC6A 7D             LD A,L                  ; A=L
1949+ CC6B E6 F0          AND #F0                 ; Keep only bits 4, 5, 6 and 7 of A
1950+ CC6D 6F             LD L,A                  ; L=A
1951+ CC6E E5             PUSH HL                 ; Push HL onto the stack
1952+ CC6F 11 68 38       LD DE,#3868             ; DE=#3868
1953+ CC72 01 20 00       LD BC,#0020             ; BC=#0020
1954+ CC75 ED B0          LDIR                    ; POKE DE,PEEK HL; HL=HL+1; DE=DE+1; BC=BC-1; repeat
1955+ CC77                                        ; until BC=0
1956+ CC77 C1             POP BC                  ; Pop last item from stack into BC
1957+ CC78 AF             XOR A                   ; A=0
1958+ CC79 3E 01          LD A,#01                ; A=#01
1959+ CC7B C9             RET                     ; Return
1960+ CC7C 1A             LD A,(DE)               ; A=PEEK DE
1961+ CC7D 13             INC DE                  ; DE=DE+1
1962+ CC7E B7             OR A                    ; Clear the carry flag and set the zero flag if A=0
1963+ CC7F 28 13          JR Z,LC069_124          ; Jump to LC069_124 if A=0
1964+ CC81 CD 91 4C       CALL #4C91              ; CALL 4C91
1965+ CC84 4F             LD C,A                  ; C=A
1966+ CC85 CD BA 4C       CALL #4CBA              ; CALL 4CBA
1967+ CC88 B7             OR A                    ; Clear the carry flag and set the zero flag if A=0
1968+ CC89 C8             RET Z                   ; Return if A=0
1969+ CC8A CD 91 4C       CALL #4C91              ; CALL 4C91
1970+ CC8D B9             CP C                    ; Set the zero flag if A=C, or the carry flag if A<C
1971+ CC8E 28 02          JR Z,LC069_123          ; Jump to LC069_123 if A=C
1972+ CC90              LC069_122:
1973+ CC90 AF             XOR A                   ; A=0
1974+ CC91 C9             RET                     ; Return
1975+ CC92              LC069_123:
1976+ CC92 37             SCF                     ; Set the carry flag
1977+ CC93 C9             RET                     ; Return
1978+ CC94              LC069_124:
1979+ CC94 CD BA 4C       CALL #4CBA              ; CALL 4CBA
1980+ CC97 3C             INC A                   ; A=A+1
1981+ CC98 20 F6          JR NZ,LC069_122         ; Jump to LC069_122 if A>0
1982+ CC9A AF             XOR A                   ; A=0
1983+ CC9B 3C             INC A                   ; A=A+1
1984+ CC9C C9             RET                     ; Return
1985+ CC9D 00             NOP                     ; Do nothing
1986+ CC9E FE 80          CP #80                  ; Set the zero flag if A=#80, or the carry flag if
1987+ CCA0                                        ; A<#80
1988+ CCA0 30 09          JR NC,LC069_125         ; Jump to LC069_125 if A>=#80
1989+ CCA2 FE 61          CP #61                  ; Set the zero flag if A=#61, or the carry flag if
1990+ CCA4                                        ; A<#61
1991+ CCA4 D8             RET C                   ; Return if A<#61
1992+ CCA5 FE 7B          CP #7B                  ; Set the zero flag if A=#7B, or the carry flag if
1993+ CCA7                                        ; A<#7B
1994+ CCA7 D0             RET NC                  ; Return if A>=#7B
1995+ CCA8 CB AF          RES 5,A                 ; Reset bit 5 of A
1996+ CCAA C9             RET                     ; Return
1997+ CCAB              LC069_125:
1998+ CCAB FE A0          CP #A0                  ; Set the zero flag if A=#A0, or the carry flag if
1999+ CCAD                                        ; A<#A0
2000+ CCAD D8             RET C                   ; Return if A<#A0
2001+ CCAE FE B0          CP #B0                  ; Set the zero flag if A=#B0, or the carry flag if
2002+ CCB0                                        ; A<#B0
2003+ CCB0 30 03          JR NC,LC069_126         ; Jump to LC069_126 if A>=#B0
2004+ CCB2 CB AF          RES 5,A                 ; Reset bit 5 of A
2005+ CCB4 C9             RET                     ; Return
2006+ CCB5              LC069_126:
2007+ CCB5 FE E0          CP #E0                  ; Set the zero flag if A=#E0, or the carry flag if
2008+ CCB7                                        ; A<#E0
2009+ CCB7 D8             RET C                   ; Return if A<#E0
2010+ CCB8 FE F2          CP #F2                  ; Set the zero flag if A=#F2, or the carry flag if
2011+ CCBA                                        ; A<#F2
2012+ CCBA D0             RET NC                  ; Return if A>=#F2
2013+ CCBB FE F1          CP #F1                  ; Set the zero flag if A=#F1, or the carry flag if
2014+ CCBD                                        ; A<#F1
2015+ CCBD 20 01          JR NZ,LC069_127         ; Jump to LC069_127 if A<>#F1
2016+ CCBF 3D             DEC A                   ; A=A-1
2017+ CCC0              LC069_127:
2018+ CCC0 FE F0          CP #F0                  ; Set the zero flag if A=#F0, or the carry flag if
2019+ CCC2                                        ; A<#F0
2020+ CCC2 C8             RET Z                   ; Return if A=#F0
2021+ CCC3 D6 50          SUB #50                 ; A=A-#50
2022+ CCC5 C9             RET                     ; Return
2023+ CCC6 2C             INC L                   ; L=L+1
2024+ CCC7 7E             LD A,(HL)               ; A=PEEK HL
2025+ CCC8 B7             OR A                    ; Clear the carry flag and set the zero flag if A=0
2026+ CCC9 20 0F          JR NZ,LC069_130         ; Jump to LC069_130 if A>0
2027+ CCCB 2D             DEC L                   ; L=L-1
2028+ CCCC 7E             LD A,(HL)               ; A=PEEK HL
2029+ CCCD 2C             INC L                   ; L=L+1
2030+ CCCE 2C             INC L                   ; L=L+1
2031+ CCCF B7             OR A                    ; Clear the carry flag and set the zero flag if A=0
2032+ CCD0 28 05          JR Z,LC069_129          ; Jump to LC069_129 if A=0
2033+ CCD2 FE 80          CP #80                  ; Set the zero flag if A=#80, or the carry flag if
2034+ CCD4                                        ; A<#80
2035+ CCD4 D8             RET C                   ; Return if A<#80
2036+ CCD5              LC069_128:
2037+ CCD5 AF             XOR A                   ; A=0
2038+ CCD6 C9             RET                     ; Return
2039+ CCD7              LC069_129:
2040+ CCD7 3E FF          LD A,#FF                ; A=#FF
2041+ CCD9 C9             RET                     ; Return
2042+ CCDA              LC069_130:
2043+ CCDA FE 04          CP #04                  ; Set the zero flag if A=#04, or the carry flag if
2044+ CCDC                                        ; A<#04
2045+ CCDC 20 F7          JR NZ,LC069_128         ; Jump to LC069_128 if A<>#04
2046+ CCDE 2D             DEC L                   ; L=L-1
2047+ CCDF 7E             LD A,(HL)               ; A=PEEK HL
2048+ CCE0 2C             INC L                   ; L=L+1
2049+ CCE1 2C             INC L                   ; L=L+1
2050+ CCE2 FE 01          CP #01                  ; Set the zero flag if A=#01, or the carry flag if
2051+ CCE4                                        ; A<#01
2052+ CCE4 28 18          JR Z,LC069_133          ; Jump to LC069_133 if A=#01
2053+ CCE6 FE 10          CP #10                  ; Set the zero flag if A=#10, or the carry flag if
2054+ CCE8                                        ; A<#10
2055+ CCE8 38 EB          JR C,LC069_128          ; Jump to LC069_128 if A<#10
2056+ CCEA FE 40          CP #40                  ; Set the zero flag if A=#40, or the carry flag if
2057+ CCEC                                        ; A<#40
2058+ CCEC 38 0A          JR C,LC069_131          ; Jump to LC069_131 if A<#40
2059+ CCEE FE 50          CP #50                  ; Set the zero flag if A=#50, or the carry flag if
2060+ CCF0                                        ; A<#50
2061+ CCF0 38 09          JR C,LC069_132          ; Jump to LC069_132 if A<#50
2062+ CCF2 FE 51          CP #51                  ; Set the zero flag if A=#51, or the carry flag if
2063+ CCF4                                        ; A<#51
2064+ CCF4 28 0B          JR Z,LC069_134          ; Jump to LC069_134 if A=#51
2065+ CCF6 18 DD          JR LC069_128            ; Jump to LC069_128
2066+ CCF8              LC069_131:
2067+ CCF8 C6 70          ADD A,#70               ; A=A+#70
2068+ CCFA C9             RET                     ; Return
2069+ CCFB              LC069_132:
2070+ CCFB C6 A0          ADD A,#A0               ; A=A+#A0
2071+ CCFD C9             RET                     ; Return
2072+ CCFE              LC069_133:
2073+ CCFE 3E F0          LD A,#F0                ; A=#F0
2074+ CD00 C9             RET                     ; Return
2075+ CD01              LC069_134:
2076+ CD01 3E F1          LD A,#F1                ; A=#F1
2077+ CD03 C9             RET                     ; Return
2078+ CD04 CD 05 4D       CALL #4D05              ; CALL 4D05
2079+ CD07 C8             RET Z                   ; Return if the zero flag is set
2080+ CD08 F5             PUSH AF                 ; Push AF onto the stack
2081+ CD09 21 C0 38       LD HL,#38C0             ; HL=#38C0
2082+ CD0C CD E1 49       CALL #49E1              ; CALL 49E1
2083+ CD0F F1             POP AF                  ; Pop last item from stack into AF
2084+ CD10 C9             RET                     ; Return
2085+ CD11 CD 63 4A       CALL #4A63              ; CALL 4A63
2086+ CD14 3E 08          LD A,#08                ; A=#08
2087+ CD16 C8             RET Z                   ; Return if the zero flag is set
2088+ CD17 22 C0 38       LD (#38C0),HL           ; POKE #38C0,L; POKE #38C1,H
2089+ CD1A ED 53 C2 38    LD (#38C2),DE           ; POKE #38C2,E; POKE #38C3,D
2090+ CD1E 3E E5          LD A,#E5                ; A=#E5
2091+ CD20 02             LD (BC),A               ; POKE BC,A
2092+ CD21 60             LD H,B                  ; H=B
2093+ CD22 2E 00          LD L,#00                ; L=#00
2094+ CD24 CB 84          RES 0,H                 ; Reset bit 0 of H
2095+ CD26 CD 20 4D       CALL #4D20              ; CALL 4D20
2096+ CD29 AF             XOR A                   ; A=0
2097+ CD2A 3C             INC A                   ; A=A+1
2098+ CD2B C9             RET                     ; Return
2099+ CD2C E5             PUSH HL                 ; Push HL onto the stack
2100+ CD2D 2A 60 38       LD HL,(#3860)           ; L=PEEK #3860; H=PEEK #3861
2101+ CD30 ED 5B 62 38    LD DE,(#3862)           ; E=PEEK #3862; D=PEEK #3863
2102+ CD34 CD 0C 38       CALL #380C              ; CALL 380C
2103+ CD37 E1             POP HL                  ; Pop last item from stack into HL
2104+ CD38 3E 01          LD A,#01                ; A=#01
2105+ CD3A C3 12 38       JP #3812                ; Jump to 3812
2106+ CD3D E5             PUSH HL                 ; Push HL onto the stack
2107+ CD3E D5             PUSH DE                 ; Push DE onto the stack
2108+ CD3F CD 63 4A       CALL #4A63              ; CALL 4A63
2109+ CD42 3E 08          LD A,#08                ; A=#08
2110+ CD44 22 C0 38       LD (#38C0),HL           ; POKE #38C0,L; POKE #38C1,H
2111+ CD47 ED 53 C2 38    LD (#38C2),DE           ; POKE #38C2,E; POKE #38C3,D
2112+ CD4B E1             POP HL                  ; Pop last item from stack into HL
2113+ CD4C D1             POP DE                  ; Pop last item from stack into DE
2114+ CD4D C8             RET Z                   ; Return if the zero flag is set
2115+ CD4E D5             PUSH DE                 ; Push DE onto the stack
2116+ CD4F CD 74 45       CALL #4574              ; CALL 4574
2117+ CD52 E1             POP HL                  ; Pop last item from stack into HL
2118+ CD53 20 07          JR NZ,LC069_135         ; Jump to LC069_135 if the zero flag is not set
2119+ CD55 CD 05 4D       CALL #4D05              ; CALL 4D05
2120+ CD58 C8             RET Z                   ; Return if the zero flag is set
2121+ CD59 AF             XOR A                   ; A=0
2122+ CD5A 3C             INC A                   ; A=A+1
2123+ CD5B C9             RET                     ; Return
2124+ CD5C              LC069_135:
2125+ CD5C BF             CP A                    ; Clear the carry flag and set the zero flag
2126+ CD5D C9             RET                     ; Return
2127+ CD5E 7E             LD A,(HL)               ; A=PEEK HL
2128+ CD5F 32 73 38       LD (#3873),A            ; POKE #3873,A
2129+ CD62 23             INC HL                  ; HL=HL+1
2130+ CD63 11 84 38       LD DE,#3884             ; DE=#3884
2131+ CD66 01 04 00       LD BC,#0004             ; BC=#0004
2132+ CD69 ED B0          LDIR                    ; POKE DE,PEEK HL; HL=HL+1; DE=DE+1; BC=BC-1; repeat
2133+ CD6B                                        ; until BC=0
2134+ CD6B 22 FA 37       LD (#37FA),HL           ; POKE #37FA,L; POKE #37FB,H
2135+ CD6E 2A 84 38       LD HL,(#3884)           ; L=PEEK #3884; H=PEEK #3885
2136+ CD71 ED 5B 86 38    LD DE,(#3886)           ; E=PEEK #3886; D=PEEK #3887
2137+ CD75 CD A6 48       CALL #48A6              ; CALL 48A6
2138+ CD78 C0             RET NZ                  ; Return if the zero flag is not set
2139+ CD79 2A FA 37       LD HL,(#37FA)           ; L=PEEK #37FA; H=PEEK #37FB
2140+ CD7C CD 74 45       CALL #4574              ; CALL 4574
2141+ CD7F C2 FC 4C       JP NZ,#4CFC             ; Jump to 4CFC if the zero flag is not set
2142+ CD82 AF             XOR A                   ; A=0
2143+ CD83 C9             RET                     ; Return
2144+ CD84 22 FA 37       LD (#37FA),HL           ; POKE #37FA,L; POKE #37FB,H
2145+ CD87 21 00 00       LD HL,#0000             ; HL=#0000
2146+ CD8A 22 84 38       LD (#3884),HL           ; POKE #3884,L; POKE #3885,H
2147+ CD8D 22 86 38       LD (#3886),HL           ; POKE #3886,L; POKE #3887,H
2148+ CD90 3E 10          LD A,#10                ; A=#10
2149+ CD92 32 73 38       LD (#3873),A            ; POKE #3873,A
2150+ CD95 11 00 00       LD DE,#0000             ; DE=#0000
2151+ CD98 21 00 02       LD HL,#0200             ; HL=#0200
2152+ CD9B CD A6 48       CALL #48A6              ; CALL 48A6
2153+ CD9E C0             RET NZ                  ; Return if the zero flag is not set
2154+ CD9F 2A FA 37       LD HL,(#37FA)           ; L=PEEK #37FA; H=PEEK #37FB
2155+ CDA2 CD 74 45       CALL #4574              ; CALL 4574
2156+ CDA5 C2 FC 4C       JP NZ,#4CFC             ; Jump to 4CFC if the zero flag is not set
2157+ CDA8 21 C0 38       LD HL,#38C0             ; HL=#38C0
2158+ CDAB CD 0F 45       CALL #450F              ; CALL 450F
2159+ CDAE 21 68 38       LD HL,#3868             ; HL=#3868
2160+ CDB1 36 2E          LD (HL),#2E             ; POKE HL,#2E
2161+ CDB3 23             INC HL                  ; HL=HL+1
2162+ CDB4 36 20          LD (HL),#20             ; POKE HL,#20
2163+ CDB6 23             INC HL                  ; HL=HL+1
2164+ CDB7 3E 20          LD A,#20                ; A=#20
2165+ CDB9 06 09          LD B,#09                ; B=#09
2166+ CDBB CD 68 51       CALL #5168              ; CALL 5168
2167+ CDBE 2A A8 38       LD HL,(#38A8)           ; L=PEEK #38A8; H=PEEK #38A9
2168+ CDC1 22 82 38       LD (#3882),HL           ; POKE #3882,L; POKE #3883,H
2169+ CDC4 2A AA 38       LD HL,(#38AA)           ; L=PEEK #38AA; H=PEEK #38AB
2170+ CDC7 22 7C 38       LD (#387C),HL           ; POKE #387C,L; POKE #387D,H
2171+ CDCA 21 68 38       LD HL,#3868             ; HL=#3868
2172+ CDCD 11 00 32       LD DE,#3200             ; DE=#3200
2173+ CDD0 01 20 00       LD BC,#0020             ; BC=#0020
2174+ CDD3 ED B0          LDIR                    ; POKE DE,PEEK HL; HL=HL+1; DE=DE+1; BC=BC-1; repeat
2175+ CDD5                                        ; until BC=0
2176+ CDD5 21 69 38       LD HL,#3869             ; HL=#3869
2177+ CDD8 36 2E          LD (HL),#2E             ; POKE HL,#2E
2178+ CDDA 2A C8 38       LD HL,(#38C8)           ; L=PEEK #38C8; H=PEEK #38C9
2179+ CDDD 22 82 38       LD (#3882),HL           ; POKE #3882,L; POKE #3883,H
2180+ CDE0 2A CA 38       LD HL,(#38CA)           ; L=PEEK #38CA; H=PEEK #38CB
2181+ CDE3 22 7C 38       LD (#387C),HL           ; POKE #387C,L; POKE #387D,H
2182+ CDE6 21 68 38       LD HL,#3868             ; HL=#3868
2183+ CDE9 01 20 00       LD BC,#0020             ; BC=#0020
2184+ CDEC ED B0          LDIR                    ; POKE DE,PEEK HL; HL=HL+1; DE=DE+1; BC=BC-1; repeat
2185+ CDEE                                        ; until BC=0
2186+ CDEE 62             LD H,D                  ; H=D
2187+ CDEF 6B             LD L,E                  ; L=E
2188+ CDF0 13             INC DE                  ; DE=DE+1
2189+ CDF1 01 00 02       LD BC,#0200             ; BC=#0200
2190+ CDF4 36 00          LD (HL),#00             ; POKE HL,#00
2191+ CDF6 ED B0          LDIR                    ; POKE DE,PEEK HL; HL=HL+1; DE=DE+1; BC=BC-1; repeat
2192+ CDF8                                        ; until BC=0
2193+ CDF8 21 00 32       LD HL,#3200             ; HL=#3200
2194+ CDFB 3E 01          LD A,#01                ; A=#01
2195+ CDFD CD 12 38       CALL #3812              ; CALL 3812
2196+ CE00 3A 94 38       LD A,(#3894)            ; A=PEEK #3894
2197+ CE03 21 40 32       LD HL,#3240             ; HL=#3240
2198+ CE06 CD 45 51       CALL #5145              ; CALL 5145
2199+ CE09 AF             XOR A                   ; A=0
2200+ CE0A C9             RET                     ; Return
2201+ CE0B 2A 8B 38       LD HL,(#388B)           ; L=PEEK #388B; H=PEEK #388C
2202+ CE0E ED 5B 8D 38    LD DE,(#388D)           ; E=PEEK #388D; D=PEEK #388E
2203+ CE12 CD 09 38       CALL #3809              ; CALL 3809
2204+ CE15 21 00 32       LD HL,#3200             ; HL=#3200
2205+ CE18 3E 01          LD A,#01                ; A=#01
2206+ CE1A CD 0F 38       CALL #380F              ; CALL 380F
2207+ CE1D 21 9A 38       LD HL,#389A             ; HL=#389A
2208+ CE20 11 EC 33       LD DE,#33EC             ; DE=#33EC
2209+ CE23 01 04 00       LD BC,#0004             ; BC=#0004
2210+ CE26 ED B0          LDIR                    ; POKE DE,PEEK HL; HL=HL+1; DE=DE+1; BC=BC-1; repeat
2211+ CE28                                        ; until BC=0
2212+ CE28 21 00 32       LD HL,#3200             ; HL=#3200
2213+ CE2B 3E 01          LD A,#01                ; A=#01
2214+ CE2D C3 12 38       JP #3812                ; Jump to 3812
2215+ CE30 ED 43 6F 51    LD (#516F),BC           ; POKE #516F,C; POKE #5170,B
2216+ CE34 ED 53 73 51    LD (#5173),DE           ; POKE #5173,E; POKE #5174,D
2217+ CE38              LC069_136:
2218+ CE38 22 71 51       LD (#5171),HL           ; POKE #5171,L; POKE #5172,H
2219+ CE3B CD 6E 4E       CALL #4E6E              ; CALL 4E6E
2220+ CE3E C8             RET Z                   ; Return if the zero flag is set
2221+ CE3F CD 4F 4E       CALL #4E4F              ; CALL 4E4F
2222+ CE42 ED 5B 6F 51    LD DE,(#516F)           ; E=PEEK #516F; D=PEEK #5170
2223+ CE46 B7             OR A                    ; Clear the carry flag and set the zero flag if A=0
2224+ CE47 ED 52          SBC HL,DE               ; HL=HL-carry-DE
2225+ CE49 D0             RET NC                  ; Return if the carry flag is not set
2226+ CE4A 2A 71 51       LD HL,(#5171)           ; L=PEEK #5171; H=PEEK #5172
2227+ CE4D 5E             LD E,(HL)               ; E=PEEK HL
2228+ CE4E 23             INC HL                  ; HL=HL+1
2229+ CE4F 56             LD D,(HL)               ; D=PEEK HL
2230+ CE50 23             INC HL                  ; HL=HL+1
2231+ CE51 7E             LD A,(HL)               ; A=PEEK HL
2232+ CE52 23             INC HL                  ; HL=HL+1
2233+ CE53 66             LD H,(HL)               ; H=PEEK HL
2234+ CE54 6F             LD L,A                  ; L=A
2235+ CE55 EB             EX DE,HL                ; Exchange DE and HL
2236+ CE56 CD C5 44       CALL #44C5              ; CALL 44C5
2237+ CE59 18 DD          JR LC069_136            ; Jump to LC069_136
2238+ CE5B 44             LD B,H                  ; B=H
2239+ CE5C 4D             LD C,L                  ; C=L
2240+ CE5D 3A 94 38       LD A,(#3894)            ; A=PEEK #3894
2241+ CE60 2A 73 51       LD HL,(#5173)           ; L=PEEK #5173; H=PEEK #5174
2242+ CE63              LC069_137:
2243+ CE63 71             LD (HL),C               ; POKE HL,C
2244+ CE64 23             INC HL                  ; HL=HL+1
2245+ CE65 70             LD (HL),B               ; POKE HL,B
2246+ CE66 23             INC HL                  ; HL=HL+1
2247+ CE67 73             LD (HL),E               ; POKE HL,E
2248+ CE68 23             INC HL                  ; HL=HL+1
2249+ CE69 72             LD (HL),D               ; POKE HL,D
2250+ CE6A 23             INC HL                  ; HL=HL+1
2251+ CE6B 22 73 51       LD (#5173),HL           ; POKE #5173,L; POKE #5174,H
2252+ CE6E 3D             DEC A                   ; A=A-1
2253+ CE6F C8             RET Z                   ; Return if A=0
2254+ CE70 03             INC BC                  ; BC=BC+1
2255+ CE71 08             EX AF,AF'               ; Exchange AF and AF'
2256+ CE72 78             LD A,B                  ; A=B
2257+ CE73 B1             OR C                    ; A=A|C
2258+ CE74 20 01          JR NZ,LC069_138         ; Jump to LC069_138 if A>0
2259+ CE76 13             INC DE                  ; DE=DE+1
2260+ CE77              LC069_138:
2261+ CE77 08             EX AF,AF'               ; Exchange AF and AF'
2262+ CE78 18 E9          JR LC069_137            ; Jump to LC069_137
2263+ CE7A 5E             LD E,(HL)               ; E=PEEK HL
2264+ CE7B 23             INC HL                  ; HL=HL+1
2265+ CE7C 56             LD D,(HL)               ; D=PEEK HL
2266+ CE7D 23             INC HL                  ; HL=HL+1
2267+ CE7E 7E             LD A,(HL)               ; A=PEEK HL
2268+ CE7F 23             INC HL                  ; HL=HL+1
2269+ CE80 66             LD H,(HL)               ; H=PEEK HL
2270+ CE81 6F             LD L,A                  ; L=A
2271+ CE82 B4             OR H                    ; A=A|H
2272+ CE83 B3             OR E                    ; A=A|E
2273+ CE84 B2             OR D                    ; A=A|D
2274+ CE85 C8             RET Z                   ; Return if A=0
2275+ CE86 7C             LD A,H                  ; A=H
2276+ CE87 FE 0F          CP #0F                  ; Set the zero flag if A=#0F, or the carry flag if
2277+ CE89                                        ; A<#0F
2278+ CE89 C8             RET Z                   ; Return if A=#0F
2279+ CE8A EB             EX DE,HL                ; Exchange DE and HL
2280+ CE8B 01 02 00       LD BC,#0002             ; BC=#0002
2281+ CE8E B7             OR A                    ; Clear the carry flag and set the zero flag if A=0
2282+ CE8F ED 42          SBC HL,BC               ; HL=HL-carry-BC
2283+ CE91 30 01          JR NC,LC069_139         ; Jump to LC069_139 if the carry flag is not set
2284+ CE93 1B             DEC DE                  ; DE=DE-1
2285+ CE94              LC069_139:
2286+ CE94 3A 94 38       LD A,(#3894)            ; A=PEEK #3894
2287+ CE97 CD B8 50       CALL #50B8              ; CALL 50B8
2288+ CE9A ED 4B A4 38    LD BC,(#38A4)           ; C=PEEK #38A4; B=PEEK #38A5
2289+ CE9E CD B4 50       CALL #50B4              ; CALL 50B4
2290+ CEA1 EB             EX DE,HL                ; Exchange DE and HL
2291+ CEA2 ED 4B A6 38    LD BC,(#38A6)           ; C=PEEK #38A6; B=PEEK #38A7
2292+ CEA6 09             ADD HL,BC               ; HL=HL+BC
2293+ CEA7 EB             EX DE,HL                ; Exchange DE and HL
2294+ CEA8 CD 61 45       CALL #4561              ; CALL 4561
2295+ CEAB AF             XOR A                   ; A=0
2296+ CEAC 3C             INC A                   ; A=A+1
2297+ CEAD C9             RET                     ; Return
2298+ CEAE 21 00 00       LD HL,#0000             ; HL=#0000
2299+ CEB1 54             LD D,H                  ; D=H
2300+ CEB2 5D             LD E,L                  ; E=L
2301+ CEB3 22 A8 38       LD (#38A8),HL           ; POKE #38A8,L; POKE #38A9,H
2302+ CEB6 22 AA 38       LD (#38AA),HL           ; POKE #38AA,L; POKE #38AB,H
2303+ CEB9 22 71 51       LD (#5171),HL           ; POKE #5171,L; POKE #5172,H
2304+ CEBC 22 73 51       LD (#5173),HL           ; POKE #5173,L; POKE #5174,H
2305+ CEBF 22 B3 38       LD (#38B3),HL           ; POKE #38B3,L; POKE #38B4,H
2306+ CEC2 22 B5 38       LD (#38B5),HL           ; POKE #38B5,L; POKE #38B6,H
2307+ CEC5 CD 09 38       CALL #3809              ; CALL 3809
2308+ CEC8 21 00 32       LD HL,#3200             ; HL=#3200
2309+ CECB 3E 01          LD A,#01                ; A=#01
2310+ CECD CD 0F 38       CALL #380F              ; CALL 380F
2311+ CED0 3E 03          LD A,#03                ; A=#03
2312+ CED2 32 B2 38       LD (#38B2),A            ; POKE #38B2,A
2313+ CED5 32 75 51       LD (#5175),A            ; POKE #5175,A
2314+ CED8 21 C2 33       LD HL,#33C2             ; HL=#33C2
2315+ CEDB 11 10 00       LD DE,#0010             ; DE=#0010
2316+ CEDE 06 04          LD B,#04                ; B=#04
2317+ CEE0              LC069_140:
2318+ CEE0 7E             LD A,(HL)               ; A=PEEK HL
2319+ CEE1 FE 05          CP #05                  ; Set the zero flag if A=#05, or the carry flag if
2320+ CEE3                                        ; A<#05
2321+ CEE3 28 72          JR Z,LC069_142          ; Jump to LC069_142 if A=#05
2322+ CEE5 FE 0B          CP #0B                  ; Set the zero flag if A=#0B, or the carry flag if
2323+ CEE7                                        ; A<#0B
2324+ CEE7 28 6E          JR Z,LC069_142          ; Jump to LC069_142 if A=#0B
2325+ CEE9 FE 0C          CP #0C                  ; Set the zero flag if A=#0C, or the carry flag if
2326+ CEEB                                        ; A<#0C
2327+ CEEB 28 6A          JR Z,LC069_142          ; Jump to LC069_142 if A=#0C
2328+ CEED FE 0F          CP #0F                  ; Set the zero flag if A=#0F, or the carry flag if
2329+ CEEF                                        ; A<#0F
2330+ CEEF 28 66          JR Z,LC069_142          ; Jump to LC069_142 if A=#0F
2331+ CEF1 19             ADD HL,DE               ; HL=HL+DE
2332+ CEF2 10 EC          DJNZ LC069_140          ; Decrement B and jump to LC069_140 if B>0
2333+ CEF4 3A 75 51       LD A,(#5175)            ; A=PEEK #5175
2334+ CEF7 B7             OR A                    ; Clear the carry flag and set the zero flag if A=0
2335+ CEF8 CA 2D 42       JP Z,#422D              ; Jump to 422D if A=0
2336+ CEFB ED 5B 73 51    LD DE,(#5173)           ; E=PEEK #5173; D=PEEK #5174
2337+ CEFF 2A 71 51       LD HL,(#5171)           ; L=PEEK #5171; H=PEEK #5172
2338+ CF02 CD 09 38       CALL #3809              ; CALL 3809
2339+ CF05 21 00 32       LD HL,#3200             ; HL=#3200
2340+ CF08 3E 01          LD A,#01                ; A=#01
2341+ CF0A CD 0F 38       CALL #380F              ; CALL 380F
2342+ CF0D 21 B2 38       LD HL,#38B2             ; HL=#38B2
2343+ CF10 35             DEC (HL)                ; POKE HL,(PEEK HL)-1
2344+ CF11 CA 2D 50       JP Z,#502D              ; Jump to 502D if (PEEK HL)=0
2345+ CF14 21 CE 33       LD HL,#33CE             ; HL=#33CE
2346+ CF17 06 10          LD B,#10                ; B=#10
2347+ CF19 AF             XOR A                   ; A=0
2348+ CF1A              LC069_141:
2349+ CF1A B6             OR (HL)                 ; A=A|PEEK HL
2350+ CF1B 23             INC HL                  ; HL=HL+1
2351+ CF1C 10 FC          DJNZ LC069_141          ; Decrement B and jump to LC069_141 if B>0
2352+ CF1E C2 2D 50       JP NZ,#502D             ; Jump to 502D if the zero flag is not set
2353+ CF21 2A D6 33       LD HL,(#33D6)           ; L=PEEK #33D6; H=PEEK #33D7
2354+ CF24 ED 5B D8 33    LD DE,(#33D8)           ; E=PEEK #33D8; D=PEEK #33D9
2355+ CF28 22 5C 38       LD (#385C),HL           ; POKE #385C,L; POKE #385D,H
2356+ CF2B ED 53 5E 38    LD (#385E),DE           ; POKE #385E,E; POKE #385F,D
2357+ CF2F 2A 71 51       LD HL,(#5171)           ; L=PEEK #5171; H=PEEK #5172
2358+ CF32 ED 5B 73 51    LD DE,(#5173)           ; E=PEEK #5173; D=PEEK #5174
2359+ CF36 CD E4 50       CALL #50E4              ; CALL 50E4
2360+ CF39 ED 53 73 51    LD (#5173),DE           ; POKE #5173,E; POKE #5174,D
2361+ CF3D 22 71 51       LD (#5171),HL           ; POKE #5171,L; POKE #5172,H
2362+ CF40 CD 09 38       CALL #3809              ; CALL 3809
2363+ CF43 21 00 32       LD HL,#3200             ; HL=#3200
2364+ CF46 3E 01          LD A,#01                ; A=#01
2365+ CF48 CD 0F 38       CALL #380F              ; CALL 380F
2366+ CF4B 2A C6 33       LD HL,(#33C6)           ; L=PEEK #33C6; H=PEEK #33C7
2367+ CF4E ED 5B C8 33    LD DE,(#33C8)           ; E=PEEK #33C8; D=PEEK #33C9
2368+ CF52 CD E4 50       CALL #50E4              ; CALL 50E4
2369+ CF55 18 0D          JR LC069_143            ; Jump to LC069_143
2370+ CF57              LC069_142:
2371+ CF57 23             INC HL                  ; HL=HL+1
2372+ CF58 23             INC HL                  ; HL=HL+1
2373+ CF59 23             INC HL                  ; HL=HL+1
2374+ CF5A 23             INC HL                  ; HL=HL+1
2375+ CF5B 5E             LD E,(HL)               ; E=PEEK HL
2376+ CF5C 23             INC HL                  ; HL=HL+1
2377+ CF5D 56             LD D,(HL)               ; D=PEEK HL
2378+ CF5E 23             INC HL                  ; HL=HL+1
2379+ CF5F 7E             LD A,(HL)               ; A=PEEK HL
2380+ CF60 23             INC HL                  ; HL=HL+1
2381+ CF61 66             LD H,(HL)               ; H=PEEK HL
2382+ CF62 6F             LD L,A                  ; L=A
2383+ CF63 EB             EX DE,HL                ; Exchange DE and HL
2384+ CF64              LC069_143:
2385+ CF64 22 9E 38       LD (#389E),HL           ; POKE #389E,L; POKE #389F,H
2386+ CF67 ED 53 A0 38    LD (#38A0),DE           ; POKE #38A0,E; POKE #38A1,D
2387+ CF6B CD 09 38       CALL #3809              ; CALL 3809
2388+ CF6E 21 00 32       LD HL,#3200             ; HL=#3200
2389+ CF71 3E 01          LD A,#01                ; A=#01
2390+ CF73 CD 0F 38       CALL #380F              ; CALL 380F
2391+ CF76 2A 0B 32       LD HL,(#320B)           ; L=PEEK #320B; H=PEEK #320C
2392+ CF79 7C             LD A,H                  ; A=H
2393+ CF7A 3D             DEC A                   ; A=A-1
2394+ CF7B 3D             DEC A                   ; A=A-1
2395+ CF7C B5             OR L                    ; A=A|L
2396+ CF7D C2 E8 4E       JP NZ,#4EE8             ; Jump to 4EE8 if A>0
2397+ CF80 3A 0D 32       LD A,(#320D)            ; A=PEEK #320D
2398+ CF83 B7             OR A                    ; Clear the carry flag and set the zero flag if A=0
2399+ CF84 CA E8 4E       JP Z,#4EE8              ; Jump to 4EE8 if A=0
2400+ CF87 3A 0E 32       LD A,(#320E)            ; A=PEEK #320E
2401+ CF8A B7             OR A                    ; Clear the carry flag and set the zero flag if A=0
2402+ CF8B CA E8 4E       JP Z,#4EE8              ; Jump to 4EE8 if A=0
2403+ CF8E 3A 10 32       LD A,(#3210)            ; A=PEEK #3210
2404+ CF91 B7             OR A                    ; Clear the carry flag and set the zero flag if A=0
2405+ CF92 CA E8 4E       JP Z,#4EE8              ; Jump to 4EE8 if A=0
2406+ CF95 2A 11 32       LD HL,(#3211)           ; L=PEEK #3211; H=PEEK #3212
2407+ CF98 7C             LD A,H                  ; A=H
2408+ CF99 B5             OR L                    ; A=A|L
2409+ CF9A 2A 16 32       LD HL,(#3216)           ; L=PEEK #3216; H=PEEK #3217
2410+ CF9D B4             OR H                    ; A=A|H
2411+ CF9E B5             OR L                    ; A=A|L
2412+ CF9F C2 E8 4E       JP NZ,#4EE8             ; Jump to 4EE8 if A>0
2413+ CFA2 2A 24 32       LD HL,(#3224)           ; L=PEEK #3224; H=PEEK #3225
2414+ CFA5 B4             OR H                    ; A=A|H
2415+ CFA6 B5             OR L                    ; A=A|L
2416+ CFA7 2A 26 32       LD HL,(#3226)           ; L=PEEK #3226; H=PEEK #3227
2417+ CFAA B4             OR H                    ; A=A|H
2418+ CFAB B5             OR L                    ; A=A|L
2419+ CFAC CA E8 4E       JP Z,#4EE8              ; Jump to 4EE8 if A=0
2420+ CFAF 3A 0D 32       LD A,(#320D)            ; A=PEEK #320D
2421+ CFB2 32 94 38       LD (#3894),A            ; POKE #3894,A
2422+ CFB5 06 08          LD B,#08                ; B=#08
2423+ CFB7              LC069_144:
2424+ CFB7 CB 3F          SRL A                   ; Shift A right (copying bit 0 into the carry flag,
2425+ CFB9                                        ; and resetting bit 7)
2426+ CFB9 38 04          JR C,LC069_145          ; Jump to LC069_145 if the carry flag is set
2427+ CFBB 10 FA          DJNZ LC069_144          ; Decrement B and jump to LC069_144 if B>0
2428+ CFBD 3E 01          LD A,#01                ; A=#01
2429+ CFBF              LC069_145:
2430+ CFBF B7             OR A                    ; Clear the carry flag and set the zero flag if A=0
2431+ CFC0 C2 E8 4E       JP NZ,#4EE8             ; Jump to 4EE8 if A>0
2432+ CFC3 2A 0E 32       LD HL,(#320E)           ; L=PEEK #320E; H=PEEK #320F
2433+ CFC6 22 89 38       LD (#3889),HL           ; POKE #3889,L; POKE #388A,H
2434+ CFC9 2A 30 32       LD HL,(#3230)           ; L=PEEK #3230; H=PEEK #3231
2435+ CFCC 11 00 00       LD DE,#0000             ; DE=#0000
2436+ CFCF CD 61 45       CALL #4561              ; CALL 4561
2437+ CFD2 22 8B 38       LD (#388B),HL           ; POKE #388B,L; POKE #388C,H
2438+ CFD5 ED 53 8D 38    LD (#388D),DE           ; POKE #388D,E; POKE #388E,D
2439+ CFD9 3A 10 32       LD A,(#3210)            ; A=PEEK #3210
2440+ CFDC 32 8F 38       LD (#388F),A            ; POKE #388F,A
2441+ CFDF 2A 24 32       LD HL,(#3224)           ; L=PEEK #3224; H=PEEK #3225
2442+ CFE2 22 90 38       LD (#3890),HL           ; POKE #3890,L; POKE #3891,H
2443+ CFE5 2A 26 32       LD HL,(#3226)           ; L=PEEK #3226; H=PEEK #3227
2444+ CFE8 22 92 38       LD (#3892),HL           ; POKE #3892,L; POKE #3893,H
2445+ CFEB 2A 2C 32       LD HL,(#322C)           ; L=PEEK #322C; H=PEEK #322D
2446+ CFEE 22 96 38       LD (#3896),HL           ; POKE #3896,L; POKE #3897,H
2447+ CFF1 2A 2E 32       LD HL,(#322E)           ; L=PEEK #322E; H=PEEK #322F
2448+ CFF4 22 98 38       LD (#3898),HL           ; POKE #3898,L; POKE #3899,H
2449+ CFF7 2A 90 38       LD HL,(#3890)           ; L=PEEK #3890; H=PEEK #3891
2450+ CFFA ED 5B 92 38    LD DE,(#3892)           ; E=PEEK #3892; D=PEEK #3893
2451+ CFFE ED 4B 8F 38    LD BC,(#388F)           ; C=PEEK #388F; B=PEEK #3890
2452+ D002 06 00          LD B,#00                ; B=#00
2453+ D004 CD FB 50       CALL #50FB              ; CALL 50FB
2454+ D007 E5             PUSH HL                 ; Push HL onto the stack
2455+ D008 D5             PUSH DE                 ; Push DE onto the stack
2456+ D009 2A 89 38       LD HL,(#3889)           ; L=PEEK #3889; H=PEEK #388A
2457+ D00C 22 A2 38       LD (#38A2),HL           ; POKE #38A2,L; POKE #38A3,H
2458+ D00F D1             POP DE                  ; Pop last item from stack into DE
2459+ D010 C1             POP BC                  ; Pop last item from stack into BC
2460+ D011 CD B4 50       CALL #50B4              ; CALL 50B4
2461+ D014 22 A4 38       LD (#38A4),HL           ; POKE #38A4,L; POKE #38A5,H
2462+ D017 ED 53 A6 38    LD (#38A6),DE           ; POKE #38A6,E; POKE #38A7,D
2463+ D01B 21 00 00       LD HL,#0000             ; HL=#0000
2464+ D01E 22 A8 38       LD (#38A8),HL           ; POKE #38A8,L; POKE #38A9,H
2465+ D021 22 AA 38       LD (#38AA),HL           ; POKE #38AA,L; POKE #38AB,H
2466+ D024 22 C8 38       LD (#38C8),HL           ; POKE #38C8,L; POKE #38C9,H
2467+ D027 22 CA 38       LD (#38CA),HL           ; POKE #38CA,L; POKE #38CB,H
2468+ D02A 22 FE 37       LD (#37FE),HL           ; POKE #37FE,L; POKE #37FF,H
2469+ D02D 21 9A 38       LD HL,#389A             ; HL=#389A
2470+ D030 06 04          LD B,#04                ; B=#04
2471+ D032 CD 67 51       CALL #5167              ; CALL 5167
2472+ D035 CD 3D 51       CALL #513D              ; CALL 513D
2473+ D038 C9             RET                     ; Return
2474+ D039 2A B3 38       LD HL,(#38B3)           ; L=PEEK #38B3; H=PEEK #38B4
2475+ D03C ED 5B B5 38    LD DE,(#38B5)           ; E=PEEK #38B5; D=PEEK #38B6
2476+ D040 AF             XOR A                   ; A=0
2477+ D041 32 75 51       LD (#5175),A            ; POKE #5175,A
2478+ D044 C3 58 4F       JP #4F58                ; Jump to 4F58
2479+ D047 06 00          LD B,#00                ; B=#00
2480+ D049 21 76 51       LD HL,#5176             ; HL=#5176
2481+ D04C B7             OR A                    ; Clear the carry flag and set the zero flag if A=0
2482+ D04D 28 1F          JR Z,LC069_146          ; Jump to LC069_146 if A=0
2483+ D04F 21 5D 53       LD HL,#535D             ; HL=#535D
2484+ D052 3D             DEC A                   ; A=A-1
2485+ D053 28 19          JR Z,LC069_146          ; Jump to LC069_146 if A=0
2486+ D055 21 01 56       LD HL,#5601             ; HL=#5601
2487+ D058 3D             DEC A                   ; A=A-1
2488+ D059 28 13          JR Z,LC069_146          ; Jump to LC069_146 if A=0
2489+ D05B 21 33 59       LD HL,#5933             ; HL=#5933
2490+ D05E 3D             DEC A                   ; A=A-1
2491+ D05F 28 0D          JR Z,LC069_146          ; Jump to LC069_146 if A=0
2492+ D061 04             INC B                   ; B=B+1
2493+ D062 3D             DEC A                   ; A=A-1
2494+ D063 28 09          JR Z,LC069_146          ; Jump to LC069_146 if A=0
2495+ D065 21 76 51       LD HL,#5176             ; HL=#5176
2496+ D068 3D             DEC A                   ; A=A-1
2497+ D069 28 03          JR Z,LC069_146          ; Jump to LC069_146 if A=0
2498+ D06B 21 5D 53       LD HL,#535D             ; HL=#535D
2499+ D06E              LC069_146:
2500+ D06E DD E5          PUSH IX                 ; Push IX onto the stack
2501+ D070 11 00 38       LD DE,#3800             ; DE=#3800
2502+ D073 C5             PUSH BC                 ; Push BC onto the stack
2503+ D074 CD AA 5A       CALL #5AAA              ; CALL 5AAA
2504+ D077 F1             POP AF                  ; Pop last item from stack into AF
2505+ D078 CD 00 38       CALL #3800              ; CALL 3800
2506+ D07B DD E1          POP IX                  ; Pop last item from stack into IX
2507+ D07D C9             RET                     ; Return
2508+ D07E 7D             LD A,L                  ; A=L
2509+ D07F 08             EX AF,AF'               ; Exchange AF and AF'
2510+ D080 7D             LD A,L                  ; A=L
2511+ D081 6C             LD L,H                  ; L=H
2512+ D082 63             LD H,E                  ; H=E
2513+ D083 5A             LD E,D                  ; E=D
2514+ D084 16 00          LD D,#00                ; D=#00
2515+ D086 17             RLA                     ; Rotate A left through the carry flag
2516+ D087 CB 15          RL L                    ; Rotate L left through the carry flag
2517+ D089 CB 14          RL H                    ; Rotate H left through the carry flag
2518+ D08B CB 13          RL E                    ; Rotate E left through the carry flag
2519+ D08D CB 12          RL D                    ; Rotate D left through the carry flag
2520+ D08F 08             EX AF,AF'               ; Exchange AF and AF'
2521+ D090 E6 7F          AND #7F                 ; Reset bit 7 of A
2522+ D092 06 00          LD B,#00                ; B=#00
2523+ D094 4F             LD C,A                  ; C=A
2524+ D095 C9             RET                     ; Return
2525+ D096 7D             LD A,L                  ; A=L
2526+ D097 6C             LD L,H                  ; L=H
2527+ D098 63             LD H,E                  ; H=E
2528+ D099 5A             LD E,D                  ; E=D
2529+ D09A 16 00          LD D,#00                ; D=#00
2530+ D09C 01 01 00       LD BC,#0001             ; BC=#0001
2531+ D09F B7             OR A                    ; Clear the carry flag and set the zero flag if A=0
2532+ D0A0 C4 B4 50       CALL NZ,#50B4           ; CALL 50B4 if A>0
2533+ D0A3 3E 02          LD A,#02                ; A=#02
2534+ D0A5 FE 02          CP #02                  ; Set the zero flag if A=#02, or the carry flag if
2535+ D0A7                                        ; A<#02
2536+ D0A7 D8             RET C                   ; Return if A<#02
2537+ D0A8 0E 00          LD C,#00                ; C=#00
2538+ D0AA CB 3F          SRL A                   ; Shift A right (copying bit 0 into the carry flag,
2539+ D0AC                                        ; and resetting bit 7)
2540+ D0AC              LC069_147:
2541+ D0AC CB 3A          SRL D                   ; Shift D right (copying bit 0 into the carry flag,
2542+ D0AE                                        ; and resetting bit 7)
2543+ D0AE CB 1B          RR E                    ; Rotate E right through the carry flag
2544+ D0B0 CB 1C          RR H                    ; Rotate H right through the carry flag
2545+ D0B2 CB 1D          RR L                    ; Rotate L right through the carry flag
2546+ D0B4 CB 19          RR C                    ; Rotate C right through the carry flag
2547+ D0B6 CB 3F          SRL A                   ; Shift A right (copying bit 0 into the carry flag,
2548+ D0B8                                        ; and resetting bit 7)
2549+ D0B8 30 F2          JR NC,LC069_147         ; Jump to LC069_147 if the carry flag is not set
2550+ D0BA 79             LD A,C                  ; A=C
2551+ D0BB B7             OR A                    ; Clear the carry flag and set the zero flag if A=0
2552+ D0BC C8             RET Z                   ; Return if A=0
2553+ D0BD 01 01 00       LD BC,#0001             ; BC=#0001
2554+ D0C0 09             ADD HL,BC               ; HL=HL+BC
2555+ D0C1 D0             RET NC                  ; Return if the carry flag is not set
2556+ D0C2 13             INC DE                  ; DE=DE+1
2557+ D0C3 C9             RET                     ; Return
2558+ D0C4 FE 02          CP #02                  ; Set the zero flag if A=#02, or the carry flag if
2559+ D0C6                                        ; A<#02
2560+ D0C6 D8             RET C                   ; Return if A<#02
2561+ D0C7 CB 3F          SRL A                   ; Shift A right (copying bit 0 into the carry flag,
2562+ D0C9                                        ; and resetting bit 7)
2563+ D0C9              LC069_148:
2564+ D0C9 CB 25          SLA L                   ; Shift L left (copying bit 7 into the carry flag,
2565+ D0CB                                        ; and resetting bit 0)
2566+ D0CB CB 14          RL H                    ; Rotate H left through the carry flag
2567+ D0CD CB 13          RL E                    ; Rotate E left through the carry flag
2568+ D0CF CB 12          RL D                    ; Rotate D left through the carry flag
2569+ D0D1 CB 3F          SRL A                   ; Shift A right (copying bit 0 into the carry flag,
2570+ D0D3                                        ; and resetting bit 7)
2571+ D0D3 30 F4          JR NC,LC069_148         ; Jump to LC069_148 if the carry flag is not set
2572+ D0D5 C9             RET                     ; Return
2573+ D0D6 54             LD D,H                  ; D=H
2574+ D0D7 5D             LD E,L                  ; E=L
2575+ D0D8 78             LD A,B                  ; A=B
2576+ D0D9 41             LD B,C                  ; B=C
2577+ D0DA 4F             LD C,A                  ; C=A
2578+ D0DB 0C             INC C                   ; C=C+1
2579+ D0DC AF             XOR A                   ; A=0
2580+ D0DD 05             DEC B                   ; B=B-1
2581+ D0DE 28 03          JR Z,LC069_150          ; Jump to LC069_150 if B=0
2582+ D0E0              LC069_149:
2583+ D0E0 19             ADD HL,DE               ; HL=HL+DE
2584+ D0E1 10 FD          DJNZ LC069_149          ; Decrement B and jump to LC069_149 if B>0
2585+ D0E3              LC069_150:
2586+ D0E3 47             LD B,A                  ; B=A
2587+ D0E4 0D             DEC C                   ; C=C-1
2588+ D0E5 20 F9          JR NZ,LC069_149         ; Jump to LC069_149 if C>0
2589+ D0E7 C9             RET                     ; Return
2590+ D0E8 06 04          LD B,#04                ; B=#04
2591+ D0EA              LC069_151:
2592+ D0EA 34             INC (HL)                ; POKE HL,(PEEK HL)+1
2593+ D0EB C0             RET NZ                  ; Return if (PEEK HL)>0
2594+ D0EC 23             INC HL                  ; HL=HL+1
2595+ D0ED 10 FB          DJNZ LC069_151          ; Decrement B and jump to LC069_151 if B>0
2596+ D0EF C9             RET                     ; Return
2597+ D0F0 EB             EX DE,HL                ; Exchange DE and HL
2598+ D0F1 ED 4B 5E 38    LD BC,(#385E)           ; C=PEEK #385E; B=PEEK #385F
2599+ D0F5 09             ADD HL,BC               ; HL=HL+BC
2600+ D0F6 EB             EX DE,HL                ; Exchange DE and HL
2601+ D0F7 ED 4B 5C 38    LD BC,(#385C)           ; C=PEEK #385C; B=PEEK #385D
2602+ D0FB 09             ADD HL,BC               ; HL=HL+BC
2603+ D0FC 30 01          JR NC,LC069_152         ; Jump to LC069_152 if the carry flag is not set
2604+ D0FE 13             INC DE                  ; DE=DE+1
2605+ D0FF              LC069_152:
2606+ D0FF 22 5C 38       LD (#385C),HL           ; POKE #385C,L; POKE #385D,H
2607+ D102 ED 53 5E 38    LD (#385E),DE           ; POKE #385E,E; POKE #385F,D
2608+ D106 C9             RET                     ; Return
2609+ D107 78             LD A,B                  ; A=B
2610+ D108 41             LD B,C                  ; B=C
2611+ D109 4F             LD C,A                  ; C=A
2612+ D10A 0C             INC C                   ; C=C+1
2613+ D10B B7             OR A                    ; Clear the carry flag and set the zero flag if A=0
2614+ D10C 20 04          JR NZ,LC069_153         ; Jump to LC069_153 if A>0
2615+ D10E 05             DEC B                   ; B=B-1
2616+ D10F 28 2C          JR Z,LC069_160          ; Jump to LC069_160 if B=0
2617+ D111 04             INC B                   ; B=B+1
2618+ D112              LC069_153:
2619+ D112 AF             XOR A                   ; A=0
2620+ D113 B8             CP B                    ; Set the zero flag if A=B, or the carry flag if A<B
2621+ D114 20 01          JR NZ,LC069_154         ; Jump to LC069_154 if A<>B
2622+ D116 0D             DEC C                   ; C=C-1
2623+ D117              LC069_154:
2624+ D117 05             DEC B                   ; B=B-1
2625+ D118 E5             PUSH HL                 ; Push HL onto the stack
2626+ D119 C5             PUSH BC                 ; Push BC onto the stack
2627+ D11A 62             LD H,D                  ; H=D
2628+ D11B 6B             LD L,E                  ; L=E
2629+ D11C B8             CP B                    ; Set the zero flag if A=B, or the carry flag if A<B
2630+ D11D 28 04          JR Z,LC069_156          ; Jump to LC069_156 if A=B
2631+ D11F              LC069_155:
2632+ D11F 19             ADD HL,DE               ; HL=HL+DE
2633+ D120 10 FD          DJNZ LC069_155          ; Decrement B and jump to LC069_155 if B>0
2634+ D122 47             LD B,A                  ; B=A
2635+ D123              LC069_156:
2636+ D123 0D             DEC C                   ; C=C-1
2637+ D124 20 F9          JR NZ,LC069_155         ; Jump to LC069_155 if C>0
2638+ D126 22 56 38       LD (#3856),HL           ; POKE #3856,L; POKE #3857,H
2639+ D129 C1             POP BC                  ; Pop last item from stack into BC
2640+ D12A E1             POP HL                  ; Pop last item from stack into HL
2641+ D12B 54             LD D,H                  ; D=H
2642+ D12C 5D             LD E,L                  ; E=L
2643+ D12D B8             CP B                    ; Set the zero flag if A=B, or the carry flag if A<B
2644+ D12E 28 06          JR Z,LC069_159          ; Jump to LC069_159 if A=B
2645+ D130              LC069_157:
2646+ D130 19             ADD HL,DE               ; HL=HL+DE
2647+ D131 38 0B          JR C,LC069_161          ; Jump to LC069_161 if the carry flag is set
2648+ D133              LC069_158:
2649+ D133 10 FB          DJNZ LC069_157          ; Decrement B and jump to LC069_157 if B>0
2650+ D135 47             LD B,A                  ; B=A
2651+ D136              LC069_159:
2652+ D136 0D             DEC C                   ; C=C-1
2653+ D137 20 F7          JR NZ,LC069_157         ; Jump to LC069_157 if C>0
2654+ D139 ED 5B 56 38    LD DE,(#3856)           ; E=PEEK #3856; D=PEEK #3857
2655+ D13D              LC069_160:
2656+ D13D C9             RET                     ; Return
2657+ D13E              LC069_161:
2658+ D13E D9             EXX                     ; Exchange BC, DE and HL with BC', DE' and HL'
2659+ D13F 2A 56 38       LD HL,(#3856)           ; L=PEEK #3856; H=PEEK #3857
2660+ D142 23             INC HL                  ; HL=HL+1
2661+ D143 22 56 38       LD (#3856),HL           ; POKE #3856,L; POKE #3857,H
2662+ D146 D9             EXX                     ; Exchange BC, DE and HL with BC', DE' and HL'
2663+ D147 18 EA          JR LC069_158            ; Jump to LC069_158
2664+ D149 AF             XOR A                   ; A=0
2665+ D14A 32 48 38       LD (#3848),A            ; POKE #3848,A
2666+ D14D 32 49 38       LD (#3849),A            ; POKE #3849,A
2667+ D150 C9             RET                     ; Return
2668+ D151 22 5D 51       LD (#515D),HL           ; POKE #515D,L; POKE #515E,H
2669+ D154              LC069_162:
2670+ D154 3D             DEC A                   ; A=A-1
2671+ D155 C8             RET Z                   ; Return if A=0
2672+ D156 F5             PUSH AF                 ; Push AF onto the stack
2673+ D157 2A 64 38       LD HL,(#3864)           ; L=PEEK #3864; H=PEEK #3865
2674+ D15A ED 5B 66 38    LD DE,(#3866)           ; E=PEEK #3866; D=PEEK #3867
2675+ D15E 01 01 00       LD BC,#0001             ; BC=#0001
2676+ D161 09             ADD HL,BC               ; HL=HL+BC
2677+ D162 30 01          JR NC,LC069_163         ; Jump to LC069_163 if the carry flag is not set
2678+ D164 13             INC DE                  ; DE=DE+1
2679+ D165              LC069_163:
2680+ D165 CD 09 38       CALL #3809              ; CALL 3809
2681+ D168 21 00 00       LD HL,#0000             ; HL=#0000
2682+ D16B 3E 01          LD A,#01                ; A=#01
2683+ D16D CD 12 38       CALL #3812              ; CALL 3812
2684+ D170 F1             POP AF                  ; Pop last item from stack into AF
2685+ D171 18 E1          JR LC069_162            ; Jump to LC069_162
2686+ D173 AF             XOR A                   ; A=0
2687+ D174              LC069_164:
2688+ D174 77             LD (HL),A               ; POKE HL,A
2689+ D175 23             INC HL                  ; HL=HL+1
2690+ D176 10 FC          DJNZ LC069_164          ; Decrement B and jump to LC069_164 if B>0
2691+ D178 C9             RET                     ; Return
2692+ D179
2693+ D179              ; CORE32 zero-initialized state
2694+ D179              LD179:
2695+ D179 00 00 00 00    DB #00,#00,#00,#00,#00,#00,#00,#00
2695+ D17D 00 00 00 00
2696+ D181 00             DB #00
2697+ D182
# file closed: WDOSFC35_CORE.ASM
  56  D182                      ASSERT $ == #D182, WDOSFC35_CORE.ASM boundary mismatch
  57  D182
  58  D182                      INCLUDE "WDOS_DRIVERS_DATA.ASM"
# file opened: WDOS_DRIVERS_DATA.ASM
   1+ D182              ; packed DOSpNEMO driver
   2+ D182              LD182:
   3+ D182 48 52 BF 03    DB #48,#52,#BF,#03,#E7,#01,#24,#15
   3+ D186 E7 01 24 15
   4+ D18A 20 DC 18 D0    DB #20,#DC,#18,#D0,#D1,#D9,#C3,#C8
   4+ D18E D1 D9 C3 C8
   5+ D192 39 E3 75 76    DB #39,#E3,#75,#76,#E7,#38,#D5,#65
   5+ D196 E7 38 D5 65
   6+ D19A 9D DC D1 19    DB #9D,#DC,#D1,#19,#28,#4B,#06,#7B
   6+ D19E 28 4B 06 7B
   7+ D1A2 2B 3B 00 E3    DB #2B,#3B,#00,#E3,#57,#04,#66,#B0
   7+ D1A6 57 04 66 B0
   8+ D1AA 35 B0 CB C1    DB #35,#B0,#CB,#C1,#7E,#02,#F8,#D3
   8+ D1AE 7E 02 F8 D3
   9+ D1B2 C5 22 64 38    DB #C5,#22,#64,#38,#ED,#53,#66,#76
   9+ D1B6 ED 53 66 76
  10+ D1BA 98 7C 62 5F    DB #98,#7C,#62,#5F,#F5,#54,#D0,#EA
  10+ D1BE F5 54 D0 EA
  11+ D1C2 89 D2 C9 E5    DB #89,#D2,#C9,#E5,#D5,#2A,#F6,#B4
  11+ D1C6 D5 2A F6 B4
  12+ D1CA 5B 1D FC 7C    DB #5B,#1D,#FC,#7C,#E6,#0F,#67,#3A
  12+ D1CE E6 0F 67 3A
  13+ D1D2 D4 B4 01 87    DB #D4,#B4,#01,#87,#91,#FF,#79,#73
  13+ D1D6 91 FF 79 73
  14+ D1DA B3 70 00 69    DB #B3,#70,#00,#69,#B0,#CD,#EE,#51
  14+ D1DE B0 CD EE 51
  15+ D1E2 ED 87 90 59    DB #ED,#87,#90,#59,#D1,#E1,#C9,#4B
  15+ D1E6 D1 E1 C9 4B
  16+ D1EA 93 78 DD 5B    DB #93,#78,#DD,#5B,#63,#68,#D8,#1A
  16+ D1EE 63 68 D8 1A
  17+ D1F2 50 88 DF 58    DB #50,#88,#DF,#58,#C9,#08,#CD,#8E
  17+ D1F6 C9 08 CD 8E
  18+ D1FA 39 98 CA 50    DB #39,#98,#CA,#50,#CC,#F6,#F6,#E8
  18+ D1FE CC F6 F6 E8
  19+ D202 38 3E 20 7B    DB #38,#3E,#20,#7B,#46,#74,#08,#17
  19+ D206 46 74 08 17
  20+ D20A 43 86 31 BD    DB #43,#86,#31,#BD,#66,#3A,#79,#08
  20+ D20E 66 3A 79 08
  21+ D212 3D 20 F2 06    DB #3D,#20,#F2,#06,#81,#DD,#30,#6F
  21+ D216 81 DD 30 6F
  22+ D21A FC DD BF C7    DB #FC,#DD,#BF,#C7,#C4,#DD,#F9,#F0
  22+ D21E C4 DD F9 F0
  23+ D222 CB 13 F6 49    DB #CB,#13,#F6,#49,#FF,#80,#07,#D0
  23+ D226 FF 80 07 D0
  24+ D22A 18 F9 D5 D4    DB #18,#F9,#D5,#D4,#78,#C9,#B6,#3F
  24+ D22E 78 C9 B6 3F
  25+ D232 E6 08 C0 18    DB #E6,#08,#C0,#18,#F8,#94,#5E,#38
  25+ D236 F8 94 5E 38
  26+ D23A FA 7C F9 B9    DB #FA,#7C,#F9,#B9,#5E,#DD,#E6,#C0
  26+ D23E 5E DD E6 C0
  27+ D242 FE 40 C8 6B    DB #FE,#40,#C8,#6B,#8F,#FA,#F6,#0F
  27+ D246 8F FA F6 0F
  28+ D24A FE 5F DB CB    DB #FE,#5F,#DB,#CB,#7F,#C8,#FB,#76
  28+ D24E 7F C8 FB 76
  29+ D252 2B 7C B5 20    DB #2B,#7C,#B5,#20,#F3,#3C,#7B,#F5
  29+ D256 F3 3C 7B F5
  30+ D25A CC 13 47 C9    DB #CC,#13,#47,#C9,#B7,#04,#66,#E2
  30+ D25E B7 04 66 E2
  31+ D262 3E E0 18 02    DB #3E,#E0,#18,#02,#F0,#32,#4B,#73
  31+ D266 F0 32 4B 73
  32+ D26A C6 25 C9 BD    DB #C6,#25,#C9,#BD,#E9,#CA,#1F,#9A
  32+ D26E E9 CA 1F 9A
  33+ D272 F2 DA 3E 78    DB #F2,#DA,#3E,#78,#6E,#21,#00,#B9
  33+ D276 6E 21 00 B9
  34+ D27A 66 01 AB 20    DB #66,#01,#AB,#20,#38,#11,#95,#65
  34+ D27E 38 11 95 65
  35+ D282 DF 21 A3 CD    DB #DF,#21,#A3,#CD,#10,#FB,#AD,#5A
  35+ D286 10 FB AD 5A
  36+ D28A EC 00 1E 1F    DB #EC,#00,#1E,#1F,#54,#A7,#BA,#9B
  36+ D28E 54 A7 BA 9B
  37+ D292 0D 28 17 D6    DB #0D,#28,#17,#D6,#29,#10,#D1,#17
  37+ D296 29 10 D1 17
  38+ D29A 63 3F 24 EE    DB #63,#3F,#24,#EE,#7A,#6F,#FE,#B3
  38+ D29E 7A 6F FE B3
  39+ D2A2 B4 20 05 7D    DB #B4,#20,#05,#7D,#FE,#02,#28,#A0
  39+ D2A6 FE 02 28 A0
  40+ D2AA 01 B7 C9 A9    DB #01,#B7,#C9,#A9,#30,#AF,#43,#6E
  40+ D2AE 30 AF 43 6E
  41+ D2B2 CC 4F E6 03    DB #CC,#4F,#E6,#03,#FC,#4A,#8D,#46
  41+ D2B6 FC 4A 8D 46
  42+ D2BA CB 44 FC 27    DB #CB,#44,#FC,#27,#42,#01,#00,#40
  42+ D2BE 42 01 00 40
  43+ D2C2 7C 90 38 0A    DB #7C,#90,#38,#0A,#0C,#AB,#FC,#06
  43+ D2C6 0C AB FC 06
  44+ D2CA F3 93 02 80    DB #F3,#93,#02,#80,#FF,#E6,#57,#06
  44+ D2CE FF E6 57 06
  45+ D2D2 60 0A D9 27    DB #60,#0A,#D9,#27,#ED,#70,#FA,#5B
  45+ D2D6 ED 70 FA 5B
  46+ D2DA 3A 06 A7 34    DB #3A,#06,#A7,#34,#1F,#7E,#05,#A1
  46+ D2DE 1F 7E 05 A1
  47+ D2E2 9E EF 69 06    DB #9E,#EF,#69,#06,#28,#AF,#EA,#A1
  47+ D2E6 28 AF EA A1
  48+ D2EA 26 3D 3E DF    DB #26,#3D,#3E,#DF,#27,#3E,#43,#A7
  48+ D2EE 27 3E 43 A7
  49+ D2F2 8D 79 02 19    DB #8D,#79,#02,#19,#DD,#7E,#7C,#F9
  49+ D2F6 DD 7E 7C F9
  50+ D2FA 3A C9 1E 10    DB #3A,#C9,#1E,#10,#16,#11,#AE,#4B
  50+ D2FE 16 11 AE 4B
  51+ D302 ED A2 4A 60    DB #ED,#A2,#4A,#60,#FD,#D7,#AA,#3D
  51+ D306 FD D7 AA 3D
  52+ D30A C2 05 33 8A    DB #C2,#05,#33,#8A,#C5,#D6,#AC,#72
  52+ D30E C5 D6 AC 72
  53+ D312 E9 72 1C 5B    DB #E9,#72,#1C,#5B,#05,#72,#C3,#F3
  53+ D316 05 72 C3 F3
  54+ D31A F1 72 0C 3B    DB #F1,#72,#0C,#3B,#C9,#0E,#5C,#7C
  54+ D31E C9 0E 5C 7C
  55+ D322 74 80 23 ED    DB #74,#80,#23,#ED,#AB,#0D,#A3,#0C
  55+ D326 AB 0D A3 0C
  56+ D32A D6 17 39 0D    DB #D6,#17,#39,#0D,#94,#16,#18,#D8
  56+ D32E 94 16 18 D8
  57+ D332 CD D7 FD 7C    DB #CD,#D7,#FD,#7C,#4B,#C7,#81,#84
  57+ D336 4B C7 81 84
  58+ D33A 65 81 7F 3B    DB #65,#81,#7F,#3B,#F6,#B3,#5A,#B5
  58+ D33E F6 B3 5A B5
  59+ D342 83 67 4D 7F    DB #83,#67,#4D,#7F,#82,#5B,#5F,#D5
  59+ D346 82 5B 5F D5
  60+ D34A 24 F3 4E DB    DB #24,#F3,#4E,#DB,#8A,#3B,#42,#79
  60+ D34E 8A 3B 42 79
  61+ D352 D7 A9 C9 16    DB #D7,#A9,#C9,#16,#36,#3F,#CD,#0E
  61+ D356 36 3F CD 0E
  62+ D35A 10 1B 0C C0    DB #10,#1B,#0C,#C0,#4C,#7F,#A3,#8D
  62+ D35E 4C 7F A3 8D
  63+ D362 07 6C 71 9D    DB #07,#6C,#71,#9D,#3B,#00,#80
  63+ D366 3B 00 80
  64+ D369
  65+ D369              ; packed DOSpSDZC driver
  66+ D369              LD369:
  67+ D369 48 52 8C 04    DB #48,#52,#8C,#04,#A4,#02,#39,#3B
  67+ D36D A4 02 39 3B
  68+ D371 22 10 3B C9    DB #22,#10,#3B,#C9,#C5,#C5,#C3,#7A
  68+ D375 C5 C5 C3 7A
  69+ D379 3C 7C 3A D6    DB #3C,#7C,#3A,#D6,#D9,#E3,#38,#D5
  69+ D37D D9 E3 38 D5
  70+ D381 9D 75 DC 35    DB #9D,#75,#DC,#35,#17,#E4,#0E,#39
  70+ D385 17 E4 0E 39
  71+ D389 FF 01 00 2B    DB #FF,#01,#00,#2B,#83,#D8,#F1,#04
  71+ D38D 83 D8 F1 04
  72+ D391 58 33 CB BF    DB #58,#33,#CB,#BF,#1A,#E9,#60,#02
  72+ D395 1A E9 60 02
  73+ D399 46 FC C5 22    DB #46,#FC,#C5,#22,#64,#38,#ED,#53
  73+ D39D 64 38 ED 53
  74+ D3A1 66 F9 64 D0    DB #66,#F9,#64,#D0,#0E,#89,#D2,#C9
  74+ D3A5 0E 89 D2 C9
  75+ D3A9 5B CF AB 4B    DB #5B,#CF,#AB,#4B,#C2,#7F,#08,#CD
  75+ D3AD C2 7F 08 CD
  76+ D3B1 BE 3B 20 FE    DB #BE,#3B,#20,#FE,#70,#3E,#61,#3C
  76+ D3B5 70 3E 61 3C
  77+ D3B9 C1 87 20 F9    DB #C1,#87,#20,#F9,#67,#F6,#3F,#39
  77+ D3BD 67 F6 3F 39
  78+ D3C1 08 3D F1 83    DB #08,#3D,#F1,#83,#4D,#67,#3B,#48
  78+ D3C5 4D 67 3B 48
  79+ D3C9 FC 54 FC 84    DB #FC,#54,#FC,#84,#C3,#20,#31,#7F
  79+ D3CD C3 20 31 7F
  80+ D3D1 D6 AF DB 77    DB #D6,#AF,#DB,#77,#E6,#02,#C0,#FA
  80+ D3D5 E6 02 C0 FA
  81+ D3D9 F3 B3 93 FA    DB #F3,#B3,#93,#FA,#6D,#CF,#9D,#39
  81+ D3DD 6D CF 9D 39
  82+ D3E1 FF 09 2D D3    DB #FF,#09,#2D,#D3,#F5,#01,#57,#00
  82+ D3E5 F5 01 57 00
  83+ D3E9 3E FD ED 3E    DB #3E,#FD,#ED,#3E,#7E,#79,#CF,#C5
  83+ D3ED 7E 79 CF C5
  84+ D3F1 D5 7D B7 37    DB #D5,#7D,#B7,#37,#17,#4F,#CB,#44
  84+ D3F5 17 4F CB 44
  85+ D3F9 FB 4B 00 40    DB #FB,#4B,#00,#40,#F2,#F3,#7C,#90
  85+ D3FD F2 F3 7C 90
  86+ D401 38 0A 0C 06    DB #38,#0A,#0C,#06,#4F,#AE,#02,#23
  86+ D405 4F AE 02 23
  87+ D409 C6 80 57 06    DB #C6,#80,#57,#06,#60,#0A,#01,#AF
  87+ D40D 60 0A 01 AF
  88+ D411 27 ED 70 FA    DB #27,#ED,#70,#FA,#62,#39,#06,#9D
  88+ D415 62 39 06 9D
  89+ D419 35 1F CB 05    DB #35,#1F,#CB,#05,#CF,#17,#51,#69
  89+ D41D CF 17 51 69
  90+ D421 06 28 AF F5    DB #06,#28,#AF,#F5,#50,#26,#3D,#90
  90+ D425 50 26 3D 90
  91+ D429 6E 27 E3 42    DB #6E,#27,#E3,#42,#A7,#A6,#11,#17
  91+ D42D A7 A6 11 17
  92+ D431 19 DD 85 13    DB #19,#DD,#85,#13,#48,#39,#A5,#78
  92+ D435 48 39 A5 78
  93+ D439 B6 FB D1 C1    DB #B6,#FB,#D1,#C1,#C9,#FE,#B4,#B2
  93+ D43D C9 FE B4 B2
  94+ D441 66 8A 18 A2    DB #66,#8A,#18,#A2,#26,#B3,#90,#FC
  94+ D445 26 B3 90 FC
  95+ D449 DB 9B 51 03    DB #DB,#9B,#51,#03,#9B,#9B,#4D,#D6
  95+ D44D 9B 9B 4D D6
  96+ D451 8C 9B C7 9B    DB #8C,#9B,#C7,#9B,#1C,#5B,#05,#9B
  96+ D455 1C 5B 05 9B
  97+ D459 C2 B5 F1 9B    DB #C2,#B5,#F1,#9B,#EA,#27,#64,#9B
  97+ D45D EA 27 64 9B
  98+ D461 FF 79 59 F2    DB #FF,#79,#59,#F2,#99,#B7,#91,#B3
  98+ D465 99 B7 91 B3
  99+ D469 18 EE 3E F8    DB #18,#EE,#3E,#F8,#E3,#60,#06,#E5
  99+ D46D E3 60 06 E5
 100+ D471 DF 71 98 2F    DB #DF,#71,#98,#2F,#3A,#64,#E2,#33
 100+ D475 3A 64 E2 33
 101+ D479 E1 01 4D B3    DB #E1,#01,#4D,#B3,#97,#7F,#D5,#67
 101+ D47D 97 7F D5 67
 102+ D481 96 5A 24 4E    DB #96,#5A,#24,#4E,#5F,#DB,#54,#3A
 102+ D485 5F DB 54 3A
 103+ D489 45 F5 31 CB    DB #45,#F5,#31,#CB,#AA,#B4,#08,#9E
 103+ D48D AA B4 08 9E
 104+ D491 D5 40 CF CF    DB #D5,#40,#CF,#CF,#66,#95,#48,#01
 104+ D495 66 95 48 01
 105+ D499 AA 87 36 69    DB #AA,#87,#36,#69,#50,#21,#FF,#FA
 105+ D49D 50 21 FF FA
 106+ D4A1 20 11 0A 4F    DB #20,#11,#0A,#4F,#01,#B7,#E5,#AF
 106+ D4A5 01 B7 E5 AF
 107+ D4A9 40 1F 1B 7A    DB #40,#1F,#1B,#7A,#B3,#CA,#1D,#E9
 107+ D4AD B3 CA 1D E9
 108+ D4B1 CB AB 01 3C    DB #CB,#AB,#01,#3C,#9C,#3D,#C2,#88
 108+ D4B5 9C 3D C2 88
 109+ D4B9 3A 27 01 FC    DB #3A,#27,#01,#FC,#FC,#E9,#58,#6F
 109+ D4BD FC E9 58 6F
 110+ D4C1 F4 60 68 F1    DB #F4,#60,#68,#F1,#20,#88,#F7,#E2
 110+ D4C5 20 88 F7 E2
 111+ D4C9 CB 57 28 2E    DB #CB,#57,#28,#2E,#DB,#39,#1D,#10
 111+ D4CD DB 39 1D 10
 112+ D4D1 26 00 F8 9E    DB #26,#00,#F8,#9E,#20,#F4,#F7,#B2
 112+ D4D5 20 F4 F7 B2
 113+ D4D9 5C 28 F0 EA    DB #5C,#28,#F0,#EA,#02,#18,#53,#00
 113+ D4DD 02 18 53 00
 114+ D4E1 B2 8E 31 FD    DB #B2,#8E,#31,#FD,#7B,#FD,#F6,#D5
 114+ D4E5 7B FD F6 D5
 115+ D4E9 A9 F2 07 36    DB #A9,#F2,#07,#36,#47,#FD,#3D,#AA
 115+ D4ED 47 FD 3D AA
 116+ D4F1 01 ED 52 1E    DB #01,#ED,#52,#1E,#3E,#20,#99,#42
 116+ D4F5 3E 20 99 42
 117+ D4F9 35 ED 40 D9    DB #35,#ED,#40,#D9,#FA,#CA,#27,#EF
 117+ D4FD FA CA 27 EF
 118+ D501 40 96 22 6F    DB #40,#96,#22,#6F,#1B,#5E,#68,#B8
 118+ D505 1B 5E 68 B8
 119+ D509 79 CB 77 28    DB #79,#CB,#77,#28,#0B,#36,#32,#D4
 119+ D50D 0B 36 32 D4
 120+ D511 38 4F BF 15    DB #38,#4F,#BF,#15,#60,#AF,#18,#0B
 120+ D515 60 AF 18 0B
 121+ D519 F9 F7 20 03    DB #F9,#F7,#20,#03,#B2,#FC,#B7,#28
 121+ D51D B2 FC B7 28
 122+ D521 EF AF 3C C9    DB #EF,#AF,#3C,#C9,#C5,#0D,#77,#F4
 122+ D525 C5 0D 77 F4
 123+ D529 CC CD 03 27    DB #CC,#CD,#03,#27,#E4,#95,#C6,#F1
 123+ D52D E4 95 C6 F1
 124+ D531 C8 BF D4 08    DB #C8,#BF,#D4,#08,#C8,#26,#C3,#DB
 124+ D535 C8 26 C3 DB
 125+ D539 E4 75 06 10    DB #E4,#75,#06,#10,#4B,#89,#CB,#57
 125+ D53D 4B 89 CB 57
 126+ D541 FB DF 09 D9    DB #FB,#DF,#09,#D9,#67,#E9,#88,#20
 126+ D545 67 E9 88 20
 127+ D549 F7 C9 1B 68    DB #F7,#C9,#1B,#68,#6D,#33,#C5,#93
 127+ D54D 6D 33 C5 93
 128+ D551 79 79 79 6B    DB #79,#79,#79,#6B,#CA,#06,#67,#D9
 128+ D555 CA 06 67 D9
 129+ D559 3E 41 92 98    DB #3E,#41,#92,#98,#5D,#E7,#19,#3C
 129+ D55D 5D E7 19 3C
 130+ D561 96 80 4C 67    DB #96,#80,#4C,#67,#C4,#BD,#D5,#77
 130+ D565 C4 BD D5 77
 131+ D569 79 9B 7A 9A    DB #79,#9B,#7A,#9A,#61,#B5,#78,#8E
 131+ D56D 61 B5 78 8E
 132+ D571 C0 69 9A AD    DB #C0,#69,#9A,#AD,#69,#CB,#2E,#BB
 132+ D575 69 CB 2E BB
 133+ D579 61 7A 5B 8A    DB #61,#7A,#5B,#8A,#2D,#B5,#7E,#83
 133+ D57D 2D B5 7E 83
 134+ D581 BC D8 52 C6    DB #BC,#D8,#52,#C6,#FC,#E5,#D5,#C5
 134+ D585 FC E5 D5 C5
 135+ D589 69 60 4F 3A    DB #69,#60,#4F,#3A,#40,#71,#E3,#24
 135+ D58D 40 71 E3 24
 136+ D591 09 EB 29 ED    DB #09,#EB,#29,#ED,#6A,#65,#A9,#B6
 136+ D595 6A 65 A9 B6
 137+ D599 53 5F 60 1A    DB #53,#5F,#60,#1A,#6B,#93,#CF,#51
 137+ D59D 6B 93 CF 51
 138+ D5A1 59 B5 D7 6E    DB #59,#B5,#D7,#6E,#C1,#D1,#E1,#9B
 138+ D5A5 C1 D1 E1 9B
 139+ D5A9 FD CB 59 18    DB #FD,#CB,#59,#18,#C9,#21,#76,#3A
 139+ D5AD C9 21 76 3A
 140+ D5B1 76 9F 08 70    DB #76,#9F,#08,#70,#03,#F8,#6D,#6A
 140+ D5B5 03 F8 6D 6A
 141+ D5B9 F9 99 9D F2    DB #F9,#99,#9D,#F2,#A3,#CA,#78,#AE
 141+ D5BD A3 CA 78 AE
 142+ D5C1 5F 7E 16 0A    DB #5F,#7E,#16,#0A,#DE,#CB,#7F,#28
 142+ D5C5 DE CB 7F 28
 143+ D5C9 66 9A 04 15    DB #66,#9A,#04,#15,#37,#14,#C3,#3F
 143+ D5CD 37 14 C3 3F
 144+ D5D1 AD 06 CC FE    DB #AD,#06,#CC,#FE,#FF,#28,#FA,#E6
 144+ D5D5 FF 28 FA E6
 145+ D5D9 9E 0B 1F 05    DB #9E,#0B,#1F,#05,#20,#08,#6B,#85
 145+ D5DD 20 08 6B 85
 146+ D5E1 DA 0E 0D E4    DB #DA,#0E,#0D,#E4,#E6,#0F,#C6,#F0
 146+ D5E5 E6 0F C6 F0
 147+ D5E9 E2 BD 67 E7    DB #E2,#BD,#67,#E7,#2F,#39,#18,#FE
 147+ D5ED 2F 39 18 FE
 148+ D5F1 45 5E D9 E5    DB #45,#5E,#D9,#E5,#72,#06,#CD,#69
 148+ D5F5 72 06 CD 69
 149+ D5F9 C3 C6 B1 95    DB #C3,#C6,#B1,#95,#1C,#97,#E5,#B7
 149+ D5FD 1C 97 E5 B7
 150+ D601 BD 21 92 28    DB #BD,#21,#92,#28,#B0,#07,#03,#0B
 150+ D605 B0 07 03 0B
 151+ D609 23 32 00 1E    DB #23,#32,#00,#1E
 152+ D60D
 153+ D60D              ; packed DOSpSDGS driver
 154+ D60D              LD60D:
 155+ D60D 48 52 62 05    DB #48,#52,#62,#05,#32,#03,#20,#FB
 155+ D611 32 03 20 FB
 156+ D615 F1 C1 C9 00    DB #F1,#C1,#C9,#00,#D6,#D9,#C3,#F1
 156+ D619 D6 D9 C3 F1
 157+ D61D 38 E4 5D 74    DB #38,#E4,#5D,#74,#F0,#61,#39,#67
 157+ D621 F0 61 39 67
 158+ D625 9D 68 D6 59    DB #9D,#68,#D6,#59,#98,#D1,#C1,#76
 158+ D629 98 D1 C1 76
 159+ D62D 97 00 F8 95    DB #97,#00,#F8,#95,#04,#19,#EC,#0D
 159+ D631 04 19 EC 0D
 160+ D635 AC CB B0 5F    DB #AC,#CB,#B0,#5F,#02,#F1,#72,#C6
 160+ D639 02 F1 72 C6
 161+ D63D D3 BB DB 98    DB #D3,#BB,#DB,#98,#BD,#0F,#38,#FB
 161+ D641 BD 0F 38 FB
 162+ D645 C9 0F 66 B3    DB #C9,#0F,#66,#B3,#07,#3F,#8F,#3E
 162+ D649 07 3F 8F 3E
 163+ D64D 20 B7 C0 CB    DB #20,#B7,#C0,#CB,#3E,#CD,#D4,#38
 163+ D651 3E CD D4 38
 164+ D655 DB B3 76 FC    DB #DB,#B3,#76,#FC,#C9,#80,#D3,#33
 164+ D659 C9 80 D3 33
 165+ D65D FB 76 F9 67    DB #FB,#76,#F9,#67,#F3,#BB,#CD,#51
 165+ D661 F3 BB CD 51
 166+ D665 39 28 4B AF    DB #39,#28,#4B,#AF,#47,#99,#DA,#1D
 166+ D669 47 99 DA 1D
 167+ D66D 9C 54 3F B6    DB #9C,#54,#3F,#B6,#1F,#FE,#8B,#3E
 167+ D671 1F FE 8B 3E
 168+ D675 01 20 37 2C    DB #01,#20,#37,#2C,#65,#14,#D0,#3A
 168+ D679 65 14 D0 3A
 169+ D67D DC 04 DC AF    DB #DC,#04,#DC,#AF,#CB,#B8,#7E,#9F
 169+ D681 CB B8 7E 9F
 170+ D685 40 21 F0 39    DB #40,#21,#F0,#39,#01,#AD,#6A,#1B
 170+ D689 01 AD 6A 1B
 171+ D68D 7E 4D E6 23    DB #7E,#4D,#E6,#23,#0B,#78,#B1,#F5
 171+ D691 0B 78 B1 F5
 172+ D695 F6 DA 13 61    DB #F6,#DA,#13,#61,#AB,#DA,#7F,#9E
 172+ D699 AB DA 7F 9E
 173+ D69D BB 3D 3C 32    DB #BB,#3D,#3C,#32,#9A,#03,#E5,#C9
 173+ D6A1 9A 03 E5 C9
 174+ D6A5 06 30 A3 05    DB #06,#30,#A3,#05,#BF,#69,#BB,#C8
 174+ D6A9 BF 69 BB C8
 175+ D6AD 85 1F 38 F5    DB #85,#1F,#38,#F5,#AF,#3C,#E2,#C1
 175+ D6B1 AF 3C E2 C1
 176+ D6B5 C9 22 64 ED    DB #C9,#22,#64,#ED,#53,#66,#27,#33
 176+ D6B9 53 66 27 33
 177+ D6BD D0 E1 CC D2    DB #D0,#E1,#CC,#D2,#7B,#0E,#5B,#4D
 177+ D6C1 7B 0E 5B 4D
 178+ D6C5 9B C8 F5 78    DB #9B,#C8,#F5,#78,#C8,#7B,#72,#35
 178+ D6C9 C8 7B 72 35
 179+ D6CD C9 7A 3A B6    DB #C9,#7A,#3A,#B6,#74,#B6,#D5,#D3
 179+ D6D1 74 B6 D5 D3
 180+ D6D5 71 92 B9 7A    DB #71,#92,#B9,#7A,#73,#5F,#F1,#57
 180+ D6D9 73 5F F1 57
 181+ D6DD B9 10 CD 70    DB #B9,#10,#CD,#70,#39,#D6,#7D,#41
 181+ D6E1 39 D6 7D 41
 182+ D6E5 30 FB 06 80    DB #30,#FB,#06,#80,#B0,#4D,#64,#77
 182+ D6E9 B0 4D 64 77
 183+ D6ED 23 5F 37 10    DB #23,#5F,#37,#10,#92,#F9,#DA,#15
 183+ D6F1 92 F9 DA 15
 184+ D6F5 20 D0 AF C3    DB #20,#D0,#AF,#C3,#AA,#EA,#12,#D3
 184+ D6F9 AA EA 12 D3
 185+ D6FD E4 C7 08 7E    DB #E4,#C7,#08,#7E,#03,#36,#B6,#FF
 185+ D701 03 36 B6 FF
 186+ D705 CA 1B 7B B2    DB #CA,#1B,#7B,#B2,#20,#7E,#50,#E9
 186+ D709 20 7E 50 E9
 187+ D70D F3 31 00 60    DB #F3,#31,#00,#60,#3E,#34,#5E,#DE
 187+ D711 3E 34 5E DE
 188+ D715 0F DB 05 04    DB #0F,#DB,#05,#04,#FE,#34,#C5,#01
 188+ D719 FE 34 C5 01
 189+ D71D B7 28 F4 FE    DB #B7,#28,#F4,#FE,#10,#7B,#CE,#1C
 189+ D721 10 7B CE 1C
 190+ D725 12 CA A2 40    DB #12,#CA,#A2,#40,#65,#2F,#20,#0C
 190+ D729 65 2F 20 0C
 191+ D72D CD CA F3 BE    DB #CD,#CA,#F3,#BE,#7F,#9F,#F4,#18
 191+ D731 7F 9F F4 18
 192+ D735 DD CD 6F 9F    DB #DD,#CD,#6F,#9F,#D9,#41,#D3,#03
 192+ D739 D9 41 D3 03
 193+ D73D D4 DA 40 DB    DB #D4,#DA,#40,#DB,#9F,#FE,#02,#7D
 193+ D741 9F FE 02 7D
 194+ D745 F5 21 00 50    DB #F5,#21,#00,#50,#D5,#C5,#FF,#29
 194+ D749 D5 C5 FF 29
 195+ D74D C1 D1 13 40    DB #C1,#D1,#13,#40,#F5,#7A,#B3,#20
 195+ D751 F5 7A B3 20
 196+ D755 01 03 76 CE    DB #01,#03,#76,#CE,#BC,#A1,#03,#2C
 196+ D759 BC A1 03 2C
 197+ D75D AB 0F 02 B1    DB #AB,#0F,#02,#B1,#23,#7C,#FE,#52
 197+ D761 23 7C FE 52
 198+ D765 38 B3 F1 3D    DB #38,#B3,#F1,#3D,#20,#9B,#C3,#08
 198+ D769 20 9B C3 08
 199+ D76D 15 BF B3 92    DB #15,#BF,#B3,#92,#3B,#05,#5E,#02
 199+ D771 3B 05 5E 02
 200+ D775 77 57 57 D8    DB #77,#57,#57,#D8,#78,#73,#D8,#E9
 200+ D779 78 73 D8 E9
 201+ D77D 8A DF 78 41    DB #8A,#DF,#78,#41,#78,#4E,#69,#C8
 201+ D781 78 4E 69 C8
 202+ D785 D1 C8 2E 02    DB #D1,#C8,#2E,#02,#6F,#EA,#93,#E8
 202+ D789 6F EA 93 E8
 203+ D78D F7 5F 57 EB    DB #F7,#5F,#57,#EB,#57,#BA,#5A,#4F
 203+ D791 57 BA 5A 4F
 204+ D795 3F D5 47 BE    DB #3F,#D5,#47,#BE,#D8,#18,#FA,#C5
 204+ D799 D8 18 FA C5
 205+ D79D BD FA D5 01    DB #BD,#FA,#D5,#01,#14,#00,#ED,#B2
 205+ D7A1 14 00 ED B2
 206+ D7A5 F9 31 78 21    DB #F9,#31,#78,#21,#EF,#D4,#D1,#C1
 206+ D7A9 EF D4 D1 C1
 207+ D7AD C9 13 00 3E    DB #C9,#13,#00,#3E,#0F,#64,#FE,#79
 207+ D7B1 0F 64 FE 79
 208+ D7B5 FC 09 B3 36    DB #FC,#09,#B3,#36,#CB,#FF,#8A,#B0
 208+ D7B9 CB FF 8A B0
 209+ D7BD C3 37 CD B9    DB #C3,#37,#CD,#B9,#42,#20,#FE,#29
 209+ D7C1 42 20 FE 29
 210+ D7C5 C4 58 43 EB    DB #C4,#58,#43,#EB,#36,#F3,#FD,#6A
 210+ D7C9 36 F3 FD 6A
 211+ D7CD 3F 42 E1 C9    DB #3F,#42,#E1,#C9,#4B,#C3,#1D,#4E
 211+ D7D1 4B C3 1D 4E
 212+ D7D5 16 06 B2 BA    DB #16,#06,#B2,#BA,#F6,#03,#C8,#1F
 212+ D7D9 F6 03 C8 1F
 213+ D7DD 95 FE F5 0F    DB #95,#FE,#F5,#0F,#F2,#33,#41,#FD
 213+ D7E1 F2 33 41 FD
 214+ D7E5 32 BB 25 40    DB #32,#BB,#25,#40,#82,#9E,#9F,#95
 214+ D7E9 82 9E 9F 95
 215+ D7ED 48 01 AA 87    DB #48,#01,#AA,#87,#50,#A7,#DD,#3E
 215+ D7F1 50 A7 DD 3E
 216+ D7F5 FF FB 1D 11    DB #FF,#FB,#1D,#11,#E2,#00,#0A,#B9
 216+ D7F9 E2 00 0A B9
 217+ D7FD 3E 40 1F 1B    DB #3E,#40,#1F,#1B,#74,#B3,#52,#CA
 217+ D801 74 B3 52 CA
 218+ D805 1A D6 03 43    DB #1A,#D6,#03,#43,#20,#0E,#CC,#EB
 218+ D809 20 0E CC EB
 219+ D80D 3D F2 FC FE    DB #3D,#F2,#FC,#FE,#ED,#58,#DC,#96
 219+ D811 ED 58 DC 96
 220+ D815 93 9F AB 60    DB #93,#9F,#AB,#60,#68,#F1,#20,#DD
 220+ D819 68 F1 20 DD
 221+ D81D 10 EF CB 57    DB #10,#EF,#CB,#57,#28,#2E,#D6,#65
 221+ D821 28 2E D6 65
 222+ D825 3A 10 26 00    DB #3A,#10,#26,#00,#F7,#92,#20,#7B
 222+ D829 F7 92 20 7B
 223+ D82D F0 63 01 28    DB #F0,#63,#01,#28,#F0,#B7,#02,#18
 223+ D831 F0 B7 02 18
 224+ D835 58 00 D9 8A    DB #58,#00,#D9,#8A,#18,#FD,#7A,#84
 224+ D839 18 FD 7A 84
 225+ D83D EA 54 F2 5E    DB #EA,#54,#F2,#5E,#9A,#4C,#FD,#42
 225+ D841 9A 4C FD 42
 226+ D845 AA 3E ED 52    DB #AA,#3E,#ED,#52,#20,#31,#F5,#A0
 226+ D849 20 31 F5 A0
 227+ D84D ED 3A AD 9F    DB #ED,#3A,#AD,#9F,#56,#CA,#2C,#0E
 227+ D851 56 CA 2C 0E
 228+ D855 94 8A 27 AD    DB #94,#8A,#27,#AD,#D5,#0C,#10,#68
 228+ D859 D5 0C 10 68
 229+ D85D 73 FB CB F9    DB #73,#FB,#CB,#F9,#C9,#77,#28,#08
 229+ D861 C9 77 28 08
 230+ D865 5C 32 71 43    DB #5C,#32,#71,#43,#AF,#18,#0B,#4F
 230+ D869 AF 18 0B 4F
 231+ D86D B2 F4 F9 20    DB #B2,#F4,#F9,#20,#03,#FA,#F2,#C3
 231+ D871 03 FA F2 C3
 232+ D875 02 F2 F5 11    DB #02,#F2,#F5,#11,#ED,#81,#D3,#11
 232+ D879 ED 81 D3 11
 233+ D87D EE F8 E1 41    DB #EE,#F8,#E1,#41,#F1,#E2,#50,#7F
 233+ D881 F1 E2 50 7F
 234+ D885 01 71 E7 C3    DB #01,#71,#E7,#C3,#64,#43,#95,#38
 234+ D889 64 43 95 38
 235+ D88D 67 AF DB 14    DB #67,#AF,#DB,#14,#FB,#EC,#09,#E5
 235+ D891 FB EC 09 E5
 236+ D895 84 89 20 F7    DB #84,#89,#20,#F7,#3B,#33,#D1,#17
 236+ D899 3B 33 D1 17
 237+ D89D 2D 11 53 C5    DB #2D,#11,#53,#C5,#BE,#3F,#78,#AF
 237+ D8A1 BE 3F 78 AF
 238+ D8A5 BA 4F 2E 3D    DB #BA,#4F,#2E,#3D,#4B,#C3,#D1,#3E
 238+ D8A9 4B C3 D1 3E
 239+ D8AD D5 98 A5 58    DB #D5,#98,#A5,#58,#42,#E7,#1E,#60
 239+ D8B1 42 E7 1E 60
 240+ D8B5 79 77 B0 8E    DB #79,#77,#B0,#8E,#04,#3C,#CD,#82
 240+ D8B9 04 3C CD 82
 241+ D8BD CD 5A C3 B0    DB #CD,#5A,#C3,#B0,#69,#D6,#5C,#4D
 241+ D8C1 69 D6 5C 4D
 242+ D8C5 2E CD 61 2E    DB #2E,#CD,#61,#2E,#BF,#69,#CD,#4F
 242+ D8C9 BF 69 CD 4F
 243+ D8CD 2D 18 65 65    DB #2D,#18,#65,#65,#2E,#F1,#51,#DA
 243+ D8D1 2E F1 51 DA
 244+ D8D5 E5 1B F3 04    DB #E5,#1B,#F3,#04,#69,#60,#4F,#3A
 244+ D8D9 69 60 4F 3A
 245+ D8DD 45 21 09 C6    DB #45,#21,#09,#C6,#8D,#EB,#29,#ED
 245+ D8E1 8D EB 29 ED
 246+ D8E5 6A 65 17 EF    DB #6A,#65,#17,#EF,#53,#5F,#79,#88
 246+ D8E9 53 5F 79 88
 247+ D8ED 57 EB C7 51    DB #57,#EB,#C7,#51,#49,#2D,#59,#62
 247+ D8F1 49 2D 59 62
 248+ D8F5 DB 4F 34 E1    DB #DB,#4F,#34,#E1,#E8,#29,#58,#C2
 248+ D8F9 E8 29 58 C2
 249+ D8FD 21 69 E7 66    DB #21,#69,#E7,#66,#41,#08,#63,#26
 249+ D901 41 08 63 26
 250+ D905 D9 48 5D EF    DB #D9,#48,#5D,#EF,#7C,#76,#8F,#ED
 250+ D909 7C 76 8F ED
 251+ D90D A3 C8 DB B7    DB #A3,#C8,#DB,#B7,#32,#D8,#A4,#E6
 251+ D911 32 D8 A4 E6
 252+ D915 97 16 0A D1    DB #97,#16,#0A,#D1,#CB,#7F,#28,#04
 252+ D919 CB 7F 28 04
 253+ D91D 15 0E 99 29    DB #15,#0E,#99,#29,#14,#C1,#FB,#0A
 253+ D921 14 C1 FB 0A
 254+ D925 3F BF FE FF    DB #3F,#BF,#FE,#FF,#28,#FA,#E6,#1F
 254+ D929 28 FA E6 1F
 255+ D92D 05 D0 53 0B    DB #05,#D0,#53,#0B,#5E,#AD,#D2,#00
 255+ D931 5E AD D2 00
 256+ D935 7B C7 F8 4D    DB #7B,#C7,#F8,#4D,#23,#BF,#DB,#0F
 256+ D939 23 BF DB 0F
 257+ D93D D8 3C          DB #D8,#3C
 258+ D93F
 259+ D93F              ; packed DOSpSMUC driver
 260+ D93F              LD93F:
 261+ D93F 48 52 87 03    DB #48,#52,#87,#03,#77,#01,#3D,#C2
 261+ D943 77 01 3D C2
 262+ D947 51 3B 24 C9    DB #51,#3B,#24,#C9,#D6,#D9,#C3,#C8
 262+ D94B D6 D9 C3 C8
 263+ D94F 39 EA 5D 74    DB #39,#EA,#5D,#74,#E9,#D5,#38,#65
 263+ D953 E9 D5 38 65
 264+ D957 9D DC D1 D9    DB #9D,#DC,#D1,#D9,#28,#4B,#06,#7B
 264+ D95B 28 4B 06 7B
 265+ D95F 22 3B 00 E3    DB #22,#3B,#00,#E3,#57,#04,#66,#B0
 265+ D963 57 04 66 B0
 266+ D967 35 B0 CB C1    DB #35,#B0,#CB,#C1,#7E,#02,#F8,#D3
 266+ D96B 7E 02 F8 D3
 267+ D96F C5 22 64 38    DB #C5,#22,#64,#38,#ED,#53,#66,#76
 267+ D973 ED 53 66 76
 268+ D977 98 7C 62 5F    DB #98,#7C,#62,#5F,#F5,#54,#D0,#EA
 268+ D97B F5 54 D0 EA
 269+ D97F 89 D2 C9 E5    DB #89,#D2,#C9,#E5,#D5,#2A,#F6,#B4
 269+ D983 D5 2A F6 B4
 270+ D987 5B 1F FC 7C    DB #5B,#1F,#FC,#7C,#E6,#0F,#67,#3A
 270+ D98B E6 0F 67 3A
 271+ D98F D4 B4 01 BE    DB #D4,#B4,#01,#BE,#BB,#CF,#FE,#ED
 271+ D993 BB CF FE ED
 272+ D997 79 FB CD 36    DB #79,#FB,#CD,#36,#69,#B8,#CF,#FD
 272+ D99B 69 B8 CF FD
 273+ D99F 51 FC D9 7E    DB #51,#FC,#D9,#7E,#59,#D1,#E1,#C9
 273+ D9A3 59 D1 E1 C9
 274+ D9A7 B6 34 78 DD    DB #B6,#34,#78,#DD,#B1,#35,#68,#8D
 274+ D9AB B1 35 68 8D
 275+ D9AF AD 50 87 F8    DB #AD,#50,#87,#F8,#58,#C9,#08,#CD
 275+ D9B3 58 C9 08 CD
 276+ D9B7 8E 39 C7 AC    DB #8E,#39,#C7,#AC,#FA,#CC,#B2,#B7
 276+ D9BB FA CC B2 B7
 277+ D9BF E8 38 3E 20    DB #E8,#38,#3E,#20,#DA,#33,#74,#08
 277+ D9C3 DA 33 74 08
 278+ D9C7 86 BB 18 38    DB #86,#BB,#18,#38,#3A,#EC,#35,#79
 278+ D9CB 3A EC 35 79
 279+ D9CF 08 3D 20 F2    DB #08,#3D,#20,#F2,#37,#08,#DD,#30
 279+ D9D3 37 08 DD 30
 280+ D9D7 BE E3 DD 05    DB #BE,#E3,#DD,#05,#3B,#29,#4E,#DD
 280+ D9DB 3B 29 4E DD
 281+ D9DF FF F2 C4 7D    DB #FF,#F2,#C4,#7D,#D2,#FF,#80,#07
 281+ D9E3 D2 FF 80 07
 282+ D9E7 D0 18 F9 35    DB #D0,#18,#F9,#35,#B5,#78,#C9,#ED
 282+ D9EB B5 78 C9 ED
 283+ D9EF 4F E6 08 C0    DB #4F,#E6,#08,#C0,#18,#F8,#A5,#97
 283+ D9F3 18 F8 A5 97
 284+ D9F7 38 FA 7C 7E    DB #38,#FA,#7C,#7E,#2E,#5E,#DD,#E6
 284+ D9FB 2E 5E DD E6
 285+ D9FF C0 FE 40 C8    DB #C0,#FE,#40,#C8,#DA,#63,#FA,#F6
 285+ DA03 DA 63 FA F6
 286+ DA07 0F FF D7 DB    DB #0F,#FF,#D7,#DB,#CB,#7F,#C8,#FB
 286+ DA0B CB 7F C8 FB
 287+ DA0F 76 2B 7C B5    DB #76,#2B,#7C,#B5,#20,#5E,#BD,#F3
 287+ DA13 20 5E BD F3
 288+ DA17 3C CC 37 D1    DB #3C,#CC,#37,#D1,#AC,#BA,#FF,#DF
 288+ DA1B AC BA FF DF
 289+ DA1F 10 2E 34 B7    DB #10,#2E,#34,#B7,#20,#04,#3E,#CC
 289+ DA23 20 04 3E CC
 290+ DA27 C4 E0 18 02    DB #C4,#E0,#18,#02,#F0,#32,#BF,#97
 290+ DA2B F0 32 BF 97
 291+ DA2F E6 1E C9 B6    DB #E6,#1E,#C9,#B6,#CD,#95,#EE,#E1
 291+ DA33 CD 95 EE E1
 292+ DA37 3E 34 3E 71    DB #3E,#34,#3E,#71,#6E,#21,#00,#01
 292+ DA3B 6E 21 00 01
 293+ DA3F 72 CD AB 20    DB #72,#CD,#AB,#20,#38,#11,#2B,#CB
 293+ DA43 38 11 2B CB
 294+ DA47 D8 21 9C CD    DB #D8,#21,#9C,#CD,#09,#F6,#5B,#53
 294+ DA4B 09 F6 5B 53
 295+ DA4F EC 01 3C 1F    DB #EC,#01,#3C,#1F,#A8,#4E,#BA,#36
 295+ DA53 A8 4E BA 36
 296+ DA57 1B 28 17 10    DB #1B,#28,#17,#10,#AC,#53,#CA,#2F
 296+ DA5B AC 53 CA 2F
 297+ DA5F C6 38 1D E7    DB #C6,#38,#1D,#E7,#7A,#B3,#DE,#FC
 297+ DA63 7A B3 DE FC
 298+ DA67 B4 20 05 7D    DB #B4,#20,#05,#7D,#FE,#02,#28,#A0
 298+ DA6B FE 02 28 A0
 299+ DA6F 01 B7 C9 AF    DB #01,#B7,#C9,#AF,#E6,#37,#1E,#F8
 299+ DA73 E6 37 1E F8
 300+ DA77 16 D8 0E BE    DB #16,#D8,#0E,#BE,#F5,#F3,#AF,#43
 300+ DA7B F5 F3 AF 43
 301+ DA7F ED A2 42 0B    DB #ED,#A2,#42,#0B,#80,#BA,#6E,#5E
 301+ DA83 80 BA 6E 5E
 302+ DA87 3D C2 40 3A    DB #3D,#C2,#40,#3A,#33,#F9,#16,#D9
 302+ DA8B 33 F9 16 D9
 303+ DA8F EF 9C 33 80    DB #EF,#9C,#33,#80,#23,#30,#9D,#AB
 303+ DA93 23 30 9D AB
 304+ DA97 A3 58 5F F6    DB #A3,#58,#5F,#F6,#38,#0D,#3B,#47
 304+ DA9B 38 0D 3B 47
 305+ DA9F 06 06 55 86    DB #06,#06,#55,#86,#FE,#CD,#4F,#23
 305+ DAA3 FE CD 4F 23
 306+ DAA7 A2 75 20 06    DB #A2,#75,#20,#06,#7B,#F0,#36,#C9
 306+ DAAB 7B F0 36 C9
 307+ DAAF 3E 10 01 0B    DB #3E,#10,#01,#0B,#7F,#00,#E0
 307+ DAB3 7F 00 E0
 308+ DAB6
# file closed: WDOS_DRIVERS_DATA.ASM
  59  DAB6                      ASSERT $ == #DAB6, WDOS_DRIVERS_DATA.ASM boundary mismatch
  60  DAB6
  61  DAB6              ; DEHR2 is stored physically at #DAB6, but WildDOS copies the block that
  62  DAB6              ; contains it to #5AAA before calling it.  The original source uses absolute
  63  DAB6              ; calls inside the depacker, so assemble it at its runtime address while
  64  DAB6              ; continuing to emit bytes at the current physical position.
  65  DAB6                      DISP #5AAA
  66  5AAA                      INCLUDE "DEHR2.ASM"
# file opened: DEHR2.ASM
   1+ 5AAA D5           DEHRUST PUSH DE
   2+ 5AAB E5                   PUSH HL
   3+ 5AAC 23                   INC HL
   4+ 5AAD 23                   INC HL
   5+ 5AAE 4E                   LD C,(HL)
   6+ 5AAF 23                   INC HL
   7+ 5AB0 46                   LD B,(HL)
   8+ 5AB1 23                   INC HL
   9+ 5AB2 0B                   DEC BC
  10+ 5AB3 EB                   EX DE,HL
  11+ 5AB4 09                   ADD HL,BC
  12+ 5AB5 EB                   EX DE,HL
  13+ 5AB6 4E                   LD C,(HL)
  14+ 5AB7 23                   INC HL
  15+ 5AB8 46                   LD B,(HL)
  16+ 5AB9 0B                   DEC BC
  17+ 5ABA E1                   POP HL
  18+ 5ABB 09                   ADD HL,BC
  19+ 5ABC ED 52                SBC HL,DE
  20+ 5ABE 19                   ADD HL,DE
  21+ 5ABF 38 02                JR C,LL4019
  22+ 5AC1 54                   LD D,H
  23+ 5AC2 5D                   LD E,L
  24+ 5AC3 ED B8        LL4019  LDDR
  25+ 5AC5 EB                   EX DE,HL
  26+ 5AC6 D1                   POP DE
  27+ 5AC7 0E 0C                LD C,#0C
  28+ 5AC9 09                   ADD HL,BC
  29+ 5ACA E5                   PUSH HL
  30+ 5ACB DD E1                POP IX
  31+ 5ACD 3E 03                LD A,#03
  32+ 5ACF 2B           LL4025  DEC HL
  33+ 5AD0 46                   LD B,(HL)
  34+ 5AD1 2B                   DEC HL
  35+ 5AD2 4E                   LD C,(HL)
  36+ 5AD3 C5                   PUSH BC
  37+ 5AD4 3D                   DEC A
  38+ 5AD5 20 F8                JR NZ,LL4025
  39+ 5AD7 47                   LD B,A
  40+ 5AD8 D9                   EXX
  41+ 5AD9 16 BF                LD D,#BF
  42+ 5ADB 0E 10                LD C,#10
  43+ 5ADD CD BB 5B             CALL LL4115
  44+ 5AE0 DD 7E 00     LL4036  LD A,(IX+#00)
  45+ 5AE3 DD 23                INC IX
  46+ 5AE5 D9                   EXX
  47+ 5AE6 12           LL403C  LD (DE),A
  48+ 5AE7 13                   INC DE
  49+ 5AE8 D9           LL403E  EXX
  50+ 5AE9 29           LL403F  ADD HL,HL
  51+ 5AEA 10 03                DJNZ LL4045
  52+ 5AEC CD BB 5B             CALL LL4115
  53+ 5AEF 38 EF        LL4045  JR C,LL4036
  54+ 5AF1 1E 01                LD E,#01
  55+ 5AF3 3E 80        LL4049  LD A,#80
  56+ 5AF5 29           LL404B  ADD HL,HL
  57+ 5AF6 10 03                DJNZ LL4051
  58+ 5AF8 CD BB 5B             CALL LL4115
  59+ 5AFB 17           LL4051  RLA
  60+ 5AFC 38 F7                JR C,LL404B
  61+ 5AFE FE 03                CP #03
  62+ 5B00 38 05                JR C,LL405D
  63+ 5B02 83                   ADD A,E
  64+ 5B03 5F                   LD E,A
  65+ 5B04 A9                   XOR C
  66+ 5B05 20 EC                JR NZ,LL4049
  67+ 5B07 83           LL405D  ADD A,E
  68+ 5B08 FE 04                CP #04
  69+ 5B0A 28 62                JR Z,LL40C4
  70+ 5B0C CE FF                ADC A,#FF
  71+ 5B0E FE 02                CP #02
  72+ 5B10 D9                   EXX
  73+ 5B11 4F           LL4067  LD C,A
  74+ 5B12 D9           LL4068  EXX
  75+ 5B13 3E BF                LD A,#BF
  76+ 5B15 38 15                JR C,LL4082
  77+ 5B17 29           LL406D  ADD HL,HL
  78+ 5B18 10 03                DJNZ LL4073
  79+ 5B1A CD BB 5B             CALL LL4115
  80+ 5B1D 17           LL4073  RLA
  81+ 5B1E 38 F7                JR C,LL406D
  82+ 5B20 28 05                JR Z,LL407D
  83+ 5B22 3C                   INC A
  84+ 5B23 82                   ADD A,D
  85+ 5B24 30 08                JR NC,LL4084
  86+ 5B26 92                   SUB D
  87+ 5B27 3C           LL407D  INC A
  88+ 5B28 20 0D                JR NZ,LL408D
  89+ 5B2A 3E EF                LD A,#EF
  90+ 5B2C 0F           LL4082  RRCA
  91+ 5B2D BF                   CP A
  92+ 5B2E 29           LL4084  ADD HL,HL
  93+ 5B2F 10 03                DJNZ LL408A
  94+ 5B31 CD BB 5B             CALL LL4115
  95+ 5B34 17           LL408A  RLA
  96+ 5B35 38 F7                JR C,LL4084
  97+ 5B37 D9           LL408D  EXX
  98+ 5B38 26 FF                LD H,#FF
  99+ 5B3A 28 09                JR Z,LL409B
 100+ 5B3C 67                   LD H,A
 101+ 5B3D 3C                   INC A
 102+ 5B3E DD 7E 00             LD A,(IX+#00)
 103+ 5B41 DD 23                INC IX
 104+ 5B43 28 0B                JR Z,LL40A6
 105+ 5B45 6F           LL409B  LD L,A
 106+ 5B46 19                   ADD HL,DE
 107+ 5B47 ED B0                LDIR
 108+ 5B49 18 9D        LL409F  JR LL403E
 109+ 5B4B D9           LL40A1  EXX
 110+ 5B4C CB 0A                RRC D
 111+ 5B4E 18 99                JR LL403F
 112+ 5B50 FE E0        LL40A6  CP #E0
 113+ 5B52 38 F1                JR C,LL409B
 114+ 5B54 07                   RLCA
 115+ 5B55 A9                   XOR C
 116+ 5B56 3C                   INC A
 117+ 5B57 28 F2                JR Z,LL40A1
 118+ 5B59 D6 10                SUB #10
 119+ 5B5B 6F           LL40B1  LD L,A
 120+ 5B5C 4F                   LD C,A
 121+ 5B5D 26 FF                LD H,#FF
 122+ 5B5F 19                   ADD HL,DE
 123+ 5B60 ED A0                LDI
 124+ 5B62 DD 7E 00             LD A,(IX+#00)
 125+ 5B65 DD 23                INC IX
 126+ 5B67 12                   LD (DE),A
 127+ 5B68 23                   INC HL
 128+ 5B69 13                   INC DE
 129+ 5B6A 7E                   LD A,(HL)
 130+ 5B6B C3 E6 5A             JP LL403C
 131+ 5B6E 3E 80        LL40C4  LD A,#80
 132+ 5B70 29           LL40C6  ADD HL,HL
 133+ 5B71 10 03                DJNZ LL40CC
 134+ 5B73 CD BB 5B             CALL LL4115
 135+ 5B76 8F           LL40CC  ADC A,A
 136+ 5B77 20 20                JR NZ,LL40F3
 137+ 5B79 38 F5                JR C,LL40C6
 138+ 5B7B 3E FC                LD A,#FC
 139+ 5B7D 18 1D                JR LL40F6
 140+ 5B7F 47           LL40D5  LD B,A
 141+ 5B80 DD 4E 00             LD C,(IX+#00)
 142+ 5B83 DD 23                INC IX
 143+ 5B85 3F                   CCF
 144+ 5B86 18 8A                JR LL4068
 145+ 5B88 FE 0F        LL40DE  CP #0F
 146+ 5B8A 38 F3                JR C,LL40D5
 147+ 5B8C 20 83                JR NZ,LL4067
 148+ 5B8E 06 03                LD B,#03
 149+ 5B90 EB                   EX DE,HL
 150+ 5B91 D1           LL40E7  POP DE
 151+ 5B92 73                   LD (HL),E
 152+ 5B93 23                   INC HL
 153+ 5B94 72                   LD (HL),D
 154+ 5B95 23                   INC HL
 155+ 5B96 10 F9                DJNZ LL40E7
 156+ 5B98 C9                   RET
 157+ 5B99              ;-------
 158+ 5B99 9F           LL40F3  SBC A,A
 159+ 5B9A 3E EF                LD A,#EF
 160+ 5B9C 29           LL40F6  ADD HL,HL
 161+ 5B9D 10 03                DJNZ LL40FC
 162+ 5B9F CD BB 5B             CALL LL4115
 163+ 5BA2 17           LL40FC  RLA
 164+ 5BA3 38 F7                JR C,LL40F6
 165+ 5BA5 D9                   EXX
 166+ 5BA6 20 B3                JR NZ,LL40B1
 167+ 5BA8 CB 7F                BIT 7,A
 168+ 5BAA 28 DC                JR Z,LL40DE
 169+ 5BAC D6 EA                SUB #EA
 170+ 5BAE 87                   ADD A,A
 171+ 5BAF 47                   LD B,A
 172+ 5BB0 DD 7E 00     LL410A  LD A,(IX+#00)
 173+ 5BB3 DD 23                INC IX
 174+ 5BB5 12                   LD (DE),A
 175+ 5BB6 13                   INC DE
 176+ 5BB7 10 F7                DJNZ LL410A
 177+ 5BB9 18 8E                JR LL409F
 178+ 5BBB 41           LL4115  LD B,C
 179+ 5BBC DD 6E 00             LD L,(IX+#00)
 180+ 5BBF DD 23                INC IX
 181+ 5BC1 DD 66 00             LD H,(IX+#00)
 182+ 5BC4 DD 23                INC IX
 183+ 5BC6 C9                   RET
 184+ 5BC7              LCODE   EQU $-DEHRUST
 185+ 5BC7
# file closed: DEHR2.ASM
  67  5BC7                      ENT
  68  DBD3                      ASSERT $ == #DBD3, DEHR2.ASM boundary mismatch
  69  DBD3
  70  DBD3              ; Exact bytes after the logical HoBeta end, retained for sector-sized identity.
  71  DBD3              LDBD3:
  72  DBD3                      INCBIN "BOOT_SECTOR_TAIL.BIN"
  73  DC11                      ASSERT $ == #DC11, BOOT_SECTOR_TAIL.BIN boundary mismatch
  74  DC11
# file closed: BOOT_DISASM.ASM
